 colorer

 Timestamp is 54ba71b7 (Sat Jan 17 17:29:11 2015)

 Preferred load address is 0000000180000000

 Start         Length     Name                   Class
 0001:00000000 0012eff8H .text                   CODE
 0001:0012f000 000194a2H .text$x                 CODE
 0001:001484b0 00001c18H .text$yc                CODE
 0001:0014a0d0 0000280fH .text$yd                CODE
 0002:00000000 00000398H .idata$5                DATA
 0002:00000398 00000008H .CRT$XCA                DATA
 0002:000003a0 00000328H .CRT$XCU                DATA
 0002:000006c8 00000008H .CRT$XCZ                DATA
 0002:000006d0 00000008H .CRT$XIA                DATA
 0002:000006d8 00000018H .CRT$XIC                DATA
 0002:000006f0 00000008H .CRT$XIZ                DATA
 0002:000006f8 00000008H .CRT$XPA                DATA
 0002:00000700 00000008H .CRT$XPX                DATA
 0002:00000708 00000008H .CRT$XPXA               DATA
 0002:00000710 00000008H .CRT$XPZ                DATA
 0002:00000718 00000008H .CRT$XTA                DATA
 0002:00000720 00000008H .CRT$XTZ                DATA
 0002:00000730 00083a6aH .rdata                  DATA
 0002:000841a0 00012134H .rdata$r                DATA
 0002:000962d8 00000008H .rtc$IAA                DATA
 0002:000962e0 00000008H .rtc$IZZ                DATA
 0002:000962e8 00000008H .rtc$TAA                DATA
 0002:000962f0 00000008H .rtc$TZZ                DATA
 0002:000962f8 00035440H .xdata                  DATA
 0002:000cb738 00000fd4H .xdata$x                DATA
 0002:000cc70c 0000003cH .idata$2                DATA
 0002:000cc748 00000014H .idata$3                DATA
 0002:000cc760 00000398H .idata$4                DATA
 0002:000ccaf8 0000086eH .idata$6                DATA
 0002:000cd370 00000110H .edata                  DATA
 0003:00000000 00040ad0H .data                   DATA
 0003:00040ae0 00002cf0H .bss                    DATA
 0004:00000000 0000e67cH .pdata                  DATA
 0005:00000000 00000e11H text                    DATA
 0006:00000000 00002fc0H data                    DATA
 0007:00000000 00000058H .rsrc$01                DATA
 0007:00000060 000002e8H .rsrc$02                DATA

  Address         Publics by Value              Rva+Base               Lib:Object

 0000:00000000       ___safe_se_handler_table   0000000000000000     <absolute>
 0000:00000000       ___safe_se_handler_count   0000000000000000     <absolute>
 0000:00000000       __ImageBase                0000000180000000     <linker-defined>
 0001:00000000       DllMain                    0000000180001000 f   pcolorer.cpp.obj
 0001:00000350       GetGlobalInfoW             0000000180001350 f   pcolorer.cpp.obj
 0001:000003d0       SetStartupInfoW            00000001800013d0 f   pcolorer.cpp.obj
 0001:00000420       GetPluginInfoW             0000000180001420 f   pcolorer.cpp.obj
 0001:000004a0       ExitFARW                   00000001800014a0 f   pcolorer.cpp.obj
 0001:000004d0       OpenW                      00000001800014d0 f   pcolorer.cpp.obj
 0001:00000680       ConfigureW                 0000000180001680 f   pcolorer.cpp.obj
 0001:000006e0       ProcessEditorEventW        00000001800016e0 f   pcolorer.cpp.obj
 0001:00000780       ProcessEditorInputW        0000000180001780 f   pcolorer.cpp.obj
 0001:000007d0       GetMinFarVersionW          00000001800017d0 f   pcolorer.cpp.obj
 0001:000007e0       ?cast@StyledRegion@@SAPEBV1@PEBVRegionDefine@@@Z 00000001800017e0 f i FarEditorSet.cpp.obj
 0001:00000870       ??0ParserFactoryException@@QEAA@AEBVString@@@Z 0000000180001870 f i FarEditorSet.cpp.obj
 0001:000009a0       ?equals@XMLString@xercesc_3_1@@SA_NPEB_W0@Z 00000001800019a0 f i FarEditorSet.cpp.obj
 0001:00000a00       ?addParam@FileTypeImpl@@QEAAXPEBVString@@@Z 0000000180001a00 f i FarEditorSet.cpp.obj
 0001:00000b70       ??1XmlParserErrorHandler@@UEAA@XZ 0000000180001b70 f i FarEditorSet.cpp.obj
 0001:00000b80       ??_EErrorHandler@xercesc_3_1@@UEAAPEAXI@Z 0000000180001b80 f i  CIL library: CIL module
 0001:00000b80       ??_GXmlParserErrorHandler@@UEAAPEAXI@Z 0000000180001b80 f i FarEditorSet.cpp.obj
 0001:00000b80       ??_GErrorHandler@xercesc_3_1@@UEAAPEAXI@Z 0000000180001b80 f i FarEditorSet.cpp.obj
 0001:00000b80       ??_EXmlParserErrorHandler@@UEAAPEAXI@Z 0000000180001b80 f i  CIL library: CIL module
 0001:00000bb0       ?resetErrors@XmlParserErrorHandler@@UEAAXXZ 0000000180001bb0 f i FarEditorSet.cpp.obj
 0001:00000bc0       ??0FarEditorSet@@QEAA@XZ   0000000180001bc0 f   FarEditorSet.cpp.obj
 0001:00000cd0       ??1FarEditorSet@@QEAA@XZ   0000000180001cd0 f   FarEditorSet.cpp.obj
 0001:00000ed0       ?openMenu@FarEditorSet@@QEAAXH@Z 0000000180001ed0 f   FarEditorSet.cpp.obj
 0001:000012c0       ?viewFile@FarEditorSet@@QEAAXAEBVString@@@Z 00000001800022c0 f   FarEditorSet.cpp.obj
 0001:000015e0       ?getCountFileTypeAndGroup@FarEditorSet@@AEAA_KXZ 00000001800025e0 f   FarEditorSet.cpp.obj
 0001:00001690       ?getFileTypeByIndex@FarEditorSet@@AEAAPEAVFileTypeImpl@@H@Z 0000000180002690 f   FarEditorSet.cpp.obj
 0001:00001730       ?FillTypeMenu@FarEditorSet@@AEAAXPEAVChooseTypeMenu@@PEAVFileType@@@Z 0000000180002730 f   FarEditorSet.cpp.obj
 0001:000018c0       ?KeyDialogProc@@YA_JPEAX_J10@Z 00000001800028c0 f   FarEditorSet.cpp.obj
 0001:000019e0       ?chooseType@FarEditorSet@@AEAAXXZ 00000001800029e0 f   FarEditorSet.cpp.obj
 0001:00002270       ?getHRDescription@FarEditorSet@@QEAAPEBVString@@AEBV2@VDString@@@Z 0000000180003270 f   FarEditorSet.cpp.obj
 0001:000022d0       ?SettingDialogProc@@YA_JPEAX_J10@Z 00000001800032d0 f   FarEditorSet.cpp.obj
 0001:00002af0       ??_GDString@@UEAAPEAXI@Z   0000000180003af0 f i FarEditorSet.cpp.obj
 0001:00002af0       ??_EDString@@UEAAPEAXI@Z   0000000180003af0 f i  CIL library: CIL module
 0001:00002b30       ??_EString@@UEAAPEAXI@Z    0000000180003b30 f i  CIL library: CIL module
 0001:00002b30       ??_GString@@UEAAPEAXI@Z    0000000180003b30 f i FarEditorSet.cpp.obj
 0001:00002b90       ?configure@FarEditorSet@@QEAAX_N@Z 0000000180003b90 f   FarEditorSet.cpp.obj
 0001:00004be0       ?chooseHRDName@FarEditorSet@@QEAAPEBVString@@PEBV2@VDString@@@Z 0000000180005be0 f   FarEditorSet.cpp.obj
 0001:00004e50       ?editorEvent@FarEditorSet@@QEAAHPEBUProcessEditorEventInfo@@@Z 0000000180005e50 f   FarEditorSet.cpp.obj
 0001:000050c0       ?TestLoadBase@FarEditorSet@@QEAA_NPEB_W00HW4HRC_MODE@1@@Z 00000001800060c0 f   FarEditorSet.cpp.obj
 0001:00005850       ?ReloadBase@FarEditorSet@@AEAAXXZ 0000000180006850 f   FarEditorSet.cpp.obj
 0001:00005cb0       ?addCurrentEditor@FarEditorSet@@AEAAPEAVFarEditor@@XZ 0000000180006cb0 f   FarEditorSet.cpp.obj
 0001:00005e60       ?getCurrentFileName@FarEditorSet@@AEAAPEAVString@@XZ 0000000180006e60 f   FarEditorSet.cpp.obj
 0001:00006090       ?getCurrentEditor@FarEditorSet@@AEAAPEAVFarEditor@@XZ 0000000180007090 f   FarEditorSet.cpp.obj
 0001:00006140       ?disableColorer@FarEditorSet@@AEAAXXZ 0000000180007140 f   FarEditorSet.cpp.obj
 0001:000062d0       ?ApplySettingsToEditors@FarEditorSet@@AEAAXXZ 00000001800072d0 f   FarEditorSet.cpp.obj
 0001:000063c0       ?dropCurrentEditor@FarEditorSet@@AEAAX_N@Z 00000001800073c0 f   FarEditorSet.cpp.obj
 0001:00006540       ?dropAllEditors@FarEditorSet@@AEAAX_N@Z 0000000180007540 f   FarEditorSet.cpp.obj
 0001:000065e0       ?ReadSettings@FarEditorSet@@QEAAXXZ 00000001800075e0 f   FarEditorSet.cpp.obj
 0001:000077c0       ?setLogPath@FarEditorSet@@QEAAXPEB_W@Z 00000001800087c0 f   FarEditorSet.cpp.obj
 0001:00007b60       ?SaveSettings@FarEditorSet@@AEAAXXZ 0000000180008b60 f   FarEditorSet.cpp.obj
 0001:00008060       ?SetBgEditor@FarEditorSet@@QEAA_NXZ 0000000180009060 f   FarEditorSet.cpp.obj
 0001:00008200       ?LoadUserHrd@FarEditorSet@@QEAAXPEBVString@@PEAVParserFactory@@@Z 0000000180009200 f   FarEditorSet.cpp.obj
 0001:00008630       ??0ParserFactoryException@@QEAA@AEBV0@@Z 0000000180009630 f i FarEditorSet.cpp.obj
 0001:00008660       ?LoadUserHrc@FarEditorSet@@QEAAXPEBVString@@PEAVParserFactory@@@Z 0000000180009660 f   FarEditorSet.cpp.obj
 0001:000086e0       ?getParamDefValue@FarEditorSet@@AEAAPEBVString@@PEAVFileTypeImpl@@VSString@@@Z 00000001800096e0 f   FarEditorSet.cpp.obj
 0001:00008930       ?buildHrcList@FarEditorSet@@AEAAPEAUFarList@@XZ 0000000180009930 f   FarEditorSet.cpp.obj
 0001:00008bc0       ?buildParamsList@FarEditorSet@@AEAAPEAUFarList@@PEAVFileTypeImpl@@@Z 0000000180009bc0 f   FarEditorSet.cpp.obj
 0001:00008d30       ?ChangeParamValueListType@FarEditorSet@@AEAAXPEAX_N@Z 0000000180009d30 f   FarEditorSet.cpp.obj
 0001:00008de0       ?setCrossValueListToCombobox@FarEditorSet@@AEAAXPEAVFileTypeImpl@@PEAX@Z 0000000180009de0 f   FarEditorSet.cpp.obj
 0001:00009290       ?setCrossPosValueListToCombobox@FarEditorSet@@AEAAXPEAVFileTypeImpl@@PEAX@Z 000000018000a290 f   FarEditorSet.cpp.obj
 0001:000096a0       ?setYNListValueToCombobox@FarEditorSet@@AEAAXPEAVFileTypeImpl@@PEAXVDString@@@Z 000000018000a6a0 f   FarEditorSet.cpp.obj
 0001:000099a0       ?setTFListValueToCombobox@FarEditorSet@@AEAAXPEAVFileTypeImpl@@PEAXVDString@@@Z 000000018000a9a0 f   FarEditorSet.cpp.obj
 0001:00009ca0       ?setCustomListValueToCombobox@FarEditorSet@@AEAAXPEAVFileTypeImpl@@PEAXVDString@@@Z 000000018000aca0 f   FarEditorSet.cpp.obj
 0001:00009f00       ?OnChangeHrc@FarEditorSet@@QEAAXPEAX@Z 000000018000af00 f   FarEditorSet.cpp.obj
 0001:00009fa0       ?SaveChangedValueParam@FarEditorSet@@AEAAXPEAX@Z 000000018000afa0 f   FarEditorSet.cpp.obj
 0001:0000a670       ?OnChangeParam@FarEditorSet@@QEAAXPEAXH@Z 000000018000b670 f   FarEditorSet.cpp.obj
 0001:0000aa10       ?SettingHrcDialogProc@@YA_JPEAX_J10@Z 000000018000ba10 f   FarEditorSet.cpp.obj
 0001:0000ab00       ?configureHrc@FarEditorSet@@QEAAXXZ 000000018000bb00 f   FarEditorSet.cpp.obj
 0001:0000b060       ?showExceptionMessage@FarEditorSet@@QEAAXPEB_W@Z 000000018000c060 f   FarEditorSet.cpp.obj
 0001:0000b100       ??1?$Hashtable@PEAVFarEditor@@@@UEAA@XZ 000000018000c100 f i FarEditorSet.cpp.obj
 0001:0000b130       ?get@?$Hashtable@PEAVFileTypeImpl@@@@QEBAPEAVFileTypeImpl@@PEBVString@@@Z 000000018000c130 f i colorer_lib:HRCParserImpl.cpp.obj
 0001:0000b130       ?get@?$Hashtable@PEAVRegionDefine@@@@QEBAPEAVRegionDefine@@PEBVString@@@Z 000000018000c130 f i colorer_lib:StyledHRDMapper.cpp.obj
 0001:0000b130       ?get@?$Hashtable@PEBVRegion@@@@QEBAPEBVRegion@@PEBVString@@@Z 000000018000c130 f i colorer_lib:HRCParserImpl.cpp.obj
 0001:0000b130       ?get@?$Hashtable@PEAVSchemeImpl@@@@QEBAPEAVSchemeImpl@@PEBVString@@@Z 000000018000c130 f i colorer_lib:HRCParserImpl.cpp.obj
 0001:0000b130       ?get@?$Hashtable@PEAV?$Hashtable@PEAV?$Vector@PEBVString@@@@@@@@QEBAPEAV?$Hashtable@PEAV?$Vector@PEBVString@@@@@@PEBVString@@@Z 000000018000c130 f i colorer_lib:ParserFactory.cpp.obj
 0001:0000b130       ?get@?$Hashtable@PEAVString@@@@QEBAPEAVString@@PEBV2@@Z 000000018000c130 f i FarEditorSet.cpp.obj
 0001:0000b130       ?get@?$Hashtable@PEAV?$Vector@PEBVString@@@@@@QEBAPEAV?$Vector@PEBVString@@@@PEBVString@@@Z 000000018000c130 f i colorer_lib:ParserFactory.cpp.obj
 0001:0000b130       ?get@?$Hashtable@PEAVFarEditor@@@@QEBAPEAVFarEditor@@PEBVString@@@Z 000000018000c130 f i FarEditorSet.cpp.obj
 0001:0000b130       ?get@?$Hashtable@PEBVString@@@@QEBAPEBVString@@PEBV2@@Z 000000018000c130 f i colorer_lib:ParserFactory.cpp.obj
 0001:0000b1b0       ??0?$HashtableCore@PEAVFarEditor@@@@QEAA@XZ 000000018000c1b0 f i FarEditorSet.cpp.obj
 0001:0000b230       ??0OutOfBoundException@@QEAA@AEBV0@@Z 000000018000c230 f i FarEditorSet.cpp.obj
 0001:0000b260       ??_E?$HashtableCore@PEAVFarEditor@@@@UEAAPEAXI@Z 000000018000c260 f i  CIL library: CIL module
 0001:0000b260       ??_E?$Hashtable@PEAVFarEditor@@@@UEAAPEAXI@Z 000000018000c260 f i  CIL library: CIL module
 0001:0000b260       ??_G?$HashtableCore@PEAVFarEditor@@@@UEAAPEAXI@Z 000000018000c260 f i FarEditorSet.cpp.obj
 0001:0000b260       ??_G?$Hashtable@PEAVFarEditor@@@@UEAAPEAXI@Z 000000018000c260 f i FarEditorSet.cpp.obj
 0001:0000b2b0       ?startJob@LineSource@@UEAAXH@Z 000000018000c2b0 f i FarEditor.cpp.obj
 0001:0000b2b0       ?warning@DefaultErrorHandler@@UEAAXAEBVString@@@Z 000000018000c2b0 f i colorer_lib:ParserFactory.cpp.obj
 0001:0000b2b0       ?endJob@LineSource@@UEAAXH@Z 000000018000c2b0 f i FarEditor.cpp.obj
 0001:0000b2b0       ?fatalError@DefaultErrorHandler@@UEAAXAEBVString@@@Z 000000018000c2b0 f i colorer_lib:ParserFactory.cpp.obj
 0001:0000b2b0       ?endParsing@RegionHandler@@UEAAXH@Z 000000018000c2b0 f i colorer_lib:BaseEditor.cpp.obj
 0001:0000b2b0       ?clearLine@RegionHandler@@UEAAXHPEAVString@@@Z 000000018000c2b0 f i colorer_lib:BaseEditor.cpp.obj
 0001:0000b2b0       ?startParsing@RegionHandler@@UEAAXH@Z 000000018000c2b0 f i colorer_lib:BaseEditor.cpp.obj
 0001:0000b2b0       ?error@DefaultErrorHandler@@UEAAXAEBVString@@@Z 000000018000c2b0 f i colorer_lib:ParserFactory.cpp.obj
 0001:0000b2c0       ??1LineSource@@MEAA@XZ     000000018000c2c0 f i FarEditor.cpp.obj
 0001:0000b2d0       ??_ELineSource@@MEAAPEAXI@Z 000000018000c2d0 f i  CIL library: CIL module
 0001:0000b2d0       ??_GLineSource@@MEAAPEAXI@Z 000000018000c2d0 f i FarEditor.cpp.obj
 0001:0000b300       ??0LineRegion@@QEAA@AEBV0@@Z 000000018000c300 f i FarEditor.cpp.obj
 0001:0000b350       ??1LineRegion@@QEAA@XZ     000000018000c350 f i FarEditor.cpp.obj
 0001:0000b370       ??_GLineRegion@@QEAAPEAXI@Z 000000018000c370 f i FarEditor.cpp.obj
 0001:0000b3b0       ??0FarEditor@@QEAA@PEAUPluginStartupInfo@@PEAVParserFactory@@@Z 000000018000c3b0 f   FarEditor.cpp.obj
 0001:0000b720       ??_GFarEditor@@UEAAPEAXI@Z 000000018000c720 f i FarEditor.cpp.obj
 0001:0000b720       ??_EFarEditor@@UEAAPEAXI@Z 000000018000c720 f i  CIL library: CIL module
 0001:0000b760       ??1FarEditor@@UEAA@XZ      000000018000c760 f   FarEditor.cpp.obj
 0001:0000b860       ?endJob@FarEditor@@UEAAXH@Z 000000018000c860 f   FarEditor.cpp.obj
 0001:0000b890       ?getLine@FarEditor@@UEAAPEAVString@@H@Z 000000018000c890 f   FarEditor.cpp.obj
 0001:0000b990       ?chooseFileType@FarEditor@@QEAAXPEAVString@@@Z 000000018000c990 f   FarEditor.cpp.obj
 0001:0000ba10       ?setFileType@FarEditor@@QEAAXPEAVFileType@@@Z 000000018000ca10 f   FarEditor.cpp.obj
 0001:0000ba80       ?reloadTypeSettings@FarEditor@@AEAAXXZ 000000018000ca80 f   FarEditor.cpp.obj
 0001:0000bcb0       ?setDrawCross@FarEditor@@QEAAXHH@Z 000000018000ccb0 f   FarEditor.cpp.obj
 0001:0000be10       ?setRegionMapper@FarEditor@@QEAAXPEAVRegionMapper@@@Z 000000018000ce10 f   FarEditor.cpp.obj
 0001:0000bf90       ?matchPair@FarEditor@@QEAAXXZ 000000018000cf90 f   FarEditor.cpp.obj
 0001:0000c0c0       ?selectPair@FarEditor@@QEAAXXZ 000000018000d0c0 f   FarEditor.cpp.obj
 0001:0000c1e0       ?selectBlock@FarEditor@@QEAAXXZ 000000018000d1e0 f   FarEditor.cpp.obj
 0001:0000c300       ?selectRegion@FarEditor@@QEAAXXZ 000000018000d300 f   FarEditor.cpp.obj
 0001:0000c3e0       ?getNameCurrentScheme@FarEditor@@QEAAXXZ 000000018000d3e0 f   FarEditor.cpp.obj
 0001:0000c7a0       ?locateFunction@FarEditor@@QEAAXXZ 000000018000d7a0 f   FarEditor.cpp.obj
 0001:0000cd10       ?editorInput@FarEditor@@QEAAHAEBU_INPUT_RECORD@@@Z 000000018000dd10 f   FarEditor.cpp.obj
 0001:0000cdd0       ?editorEvent@FarEditor@@QEAAH_JPEAX@Z 000000018000ddd0 f   FarEditor.cpp.obj
 0001:0000daf0       ?showOutliner@FarEditor@@AEAAXPEAVOutliner@@@Z 000000018000eaf0 f   FarEditor.cpp.obj
 0001:0000f0f0       ?convert@FarEditor@@AEAA?AUFarColor@@PEBVStyledRegion@@@Z 00000001800100f0 f   FarEditor.cpp.obj
 0001:0000f1d0       ?cleanEditor@FarEditor@@QEAAXXZ 00000001800101d0 f   FarEditor.cpp.obj
 0001:0000f270       ??0ChooseTypeMenu@@QEAA@PEB_W0@Z 0000000180010270 f   ChooseTypeMenu.cpp.obj
 0001:0000f4d0       ??1ChooseTypeMenu@@QEAA@XZ 00000001800104d0 f   ChooseTypeMenu.cpp.obj
 0001:0000f530       ?DeleteItem@ChooseTypeMenu@@QEAAX_K@Z 0000000180010530 f   ChooseTypeMenu.cpp.obj
 0001:0000f5b0       ?AddItem@ChooseTypeMenu@@AEAA_KPEB_W_KPEBVFileType@@_K@Z 00000001800105b0 f   ChooseTypeMenu.cpp.obj
 0001:0000f710       ?MoveToFavorites@ChooseTypeMenu@@QEAAX_K@Z 0000000180010710 f   ChooseTypeMenu.cpp.obj
 0001:0000f950       ?AddFavorite@ChooseTypeMenu@@QEAA_KPEBVFileType@@@Z 0000000180010950 f   ChooseTypeMenu.cpp.obj
 0001:0000fa10       ?DelFromFavorites@ChooseTypeMenu@@QEAAX_K@Z 0000000180010a10 f   ChooseTypeMenu.cpp.obj
 0001:0000fc70       ?AddItemInGroup@ChooseTypeMenu@@QEAA_KPEAVFileType@@@Z 0000000180010c70 f   ChooseTypeMenu.cpp.obj
 0001:0000fe50       ?GenerateName@ChooseTypeMenu@@QEAAPEAVStringBuffer@@PEBVFileType@@@Z 0000000180010e50 f   ChooseTypeMenu.cpp.obj
 0001:00010090       ?setParamDefaultValue@FileTypeImpl@@QEAAXAEBVString@@PEBV2@@Z 0000000180011090 f i FarHrcSettings.cpp.obj
 0001:00010210       ?setParamDescription@FileTypeImpl@@QEAAXAEBVString@@PEBV2@@Z 0000000180011210 f i FarHrcSettings.cpp.obj
 0001:00010390       ??0FarHrcSettingsException@@QEAA@AEBVString@@@Z 0000000180011390 f i FarHrcSettings.cpp.obj
 0001:000104c0       ??_ESettingsControlException@@UEAAPEAXI@Z 00000001800114c0 f i  CIL library: CIL module
 0001:000104c0       ??_GHRCParserException@@UEAAPEAXI@Z 00000001800114c0 f i colorer_lib:HRCParserImpl.cpp.obj
 0001:000104c0       ??_EInputSourceException@@UEAAPEAXI@Z 00000001800114c0 f i  CIL library: CIL module
 0001:000104c0       ??_GParserFactoryException@@UEAAPEAXI@Z 00000001800114c0 f i FarEditorSet.cpp.obj
 0001:000104c0       ??_EException@@UEAAPEAXI@Z 00000001800114c0 f i  CIL library: CIL module
 0001:000104c0       ??_GException@@UEAAPEAXI@Z 00000001800114c0 f i colorer_lib:Exception.cpp.obj
 0001:000104c0       ??_GInputSourceException@@UEAAPEAXI@Z 00000001800114c0 f i colorer_lib:XmlInputSource.cpp.obj
 0001:000104c0       ??_EParserFactoryException@@UEAAPEAXI@Z 00000001800114c0 f i  CIL library: CIL module
 0001:000104c0       ??_EFarHrcSettingsException@@UEAAPEAXI@Z 00000001800114c0 f i  CIL library: CIL module
 0001:000104c0       ??_GOutOfBoundException@@UEAAPEAXI@Z 00000001800114c0 f i FarEditorSet.cpp.obj
 0001:000104c0       ??_GSettingsControlException@@UEAAPEAXI@Z 00000001800114c0 f i SettingsControl.cpp.obj
 0001:000104c0       ??_GFarHrcSettingsException@@UEAAPEAXI@Z 00000001800114c0 f i FarHrcSettings.cpp.obj
 0001:000104c0       ??_EStringIndexOutOfBoundsException@@UEAAPEAXI@Z 00000001800114c0 f i  CIL library: CIL module
 0001:000104c0       ??_EUnsupportedEncodingException@@UEAAPEAXI@Z 00000001800114c0 f i  CIL library: CIL module
 0001:000104c0       ??_EHRCParserException@@UEAAPEAXI@Z 00000001800114c0 f i  CIL library: CIL module
 0001:000104c0       ??_EOutOfBoundException@@UEAAPEAXI@Z 00000001800114c0 f i  CIL library: CIL module
 0001:000104c0       ??_GStringIndexOutOfBoundsException@@UEAAPEAXI@Z 00000001800114c0 f i colorer_lib:DString.cpp.obj
 0001:000104c0       ??_GUnsupportedEncodingException@@UEAAPEAXI@Z 00000001800114c0 f i colorer_lib:DString.cpp.obj
 0001:00010510       ?readProfile@FarHrcSettings@@QEAAXXZ 0000000180011510 f   FarHrcSettings.cpp.obj
 0001:00010730       ?readXML@FarHrcSettings@@QEAAXPEAVString@@_N@Z 0000000180011730 f   FarHrcSettings.cpp.obj
 0001:00010ab0       ??0FarHrcSettingsException@@QEAA@AEBV0@@Z 0000000180011ab0 f i FarHrcSettings.cpp.obj
 0001:00010ae0       ?UpdatePrototype@FarHrcSettings@@AEAAXPEAVDOMElement@xercesc_3_1@@_N@Z 0000000180011ae0 f   FarHrcSettings.cpp.obj
 0001:00011520       ?readProfileFromRegistry@FarHrcSettings@@AEAAXXZ 0000000180012520 f   FarHrcSettings.cpp.obj
 0001:00011bb0       ?writeProfileToRegistry@FarHrcSettings@@AEAAXXZ 0000000180012bb0 f   FarHrcSettings.cpp.obj
 0001:00011ec0       ??0SettingsControlException@@QEAA@AEBVString@@@Z 0000000180012ec0 f i SettingsControl.cpp.obj
 0001:00011ff0       ??0SettingsControlException@@QEAA@AEBV0@@Z 0000000180012ff0 f i SettingsControl.cpp.obj
 0001:00012020       ??1SettingsControl@@QEAA@XZ 0000000180013020 f   SettingsControl.cpp.obj
 0001:00012040       ?trim@@YAPEA_WPEA_W@Z      0000000180013040 f   tools.cpp.obj
 0001:000120c0       ?PathToFull@@YAPEA_WPEB_W_N@Z 00000001800130c0 f   tools.cpp.obj
 0001:00012280       ?PathToFullS@@YAPEAVSString@@PEB_W_N@Z 0000000180013280 f   tools.cpp.obj
 0001:000122f0       ??4DString@@QEAAAEAV0@AEBV0@@Z 00000001800132f0 f   colorer_lib:DString.cpp.obj
 0001:000123b0       ??0DString@@QEAA@PEBEHH@Z  00000001800133b0 f   colorer_lib:DString.cpp.obj
 0001:000128d0       ??0UnsupportedEncodingException@@QEAA@AEBV0@@Z 00000001800138d0 f i colorer_lib:DString.cpp.obj
 0001:00012900       ??0DString@@QEAA@PEBDHHH@Z 0000000180013900 f   colorer_lib:DString.cpp.obj
 0001:000129e0       ??0DString@@QEAA@PEB_WHH@Z 00000001800139e0 f   colorer_lib:DString.cpp.obj
 0001:00012ab0       ??0DString@@QEAA@PEBVString@@HH@Z 0000000180013ab0 f   colorer_lib:DString.cpp.obj
 0001:00012ab0       ??0DString@@QEAA@AEBVString@@HH@Z 0000000180013ab0 f   colorer_lib:DString.cpp.obj
 0001:00012bc0       ??1DString@@UEAA@XZ        0000000180013bc0 f   colorer_lib:DString.cpp.obj
 0001:00012c30       ??ADString@@UEBA_WH@Z      0000000180013c30 f   colorer_lib:DString.cpp.obj
 0001:00012da0       ??0StringIndexOutOfBoundsException@@QEAA@AEBV0@@Z 0000000180013da0 f i colorer_lib:DString.cpp.obj
 0001:00012dd0       ?length@DString@@UEBAHXZ   0000000180013dd0 f   colorer_lib:DString.cpp.obj
 0001:00012de0       ??0StringBuffer@@QEAA@XZ   0000000180013de0 f   colorer_lib:StringBuffer.cpp.obj
 0001:00012e50       ??_EStringBuffer@@UEAAPEAXI@Z 0000000180013e50 f i  CIL library: CIL module
 0001:00012e50       ??_GStringBuffer@@UEAAPEAXI@Z 0000000180013e50 f i colorer_lib:StringBuffer.cpp.obj
 0001:00012e90       ??0StringBuffer@@QEAA@PEBDHH@Z 0000000180013e90 f   colorer_lib:StringBuffer.cpp.obj
 0001:00012f50       ??0StringBuffer@@QEAA@AEBVString@@HH@Z 0000000180013f50 f   colorer_lib:StringBuffer.cpp.obj
 0001:00012f50       ??0StringBuffer@@QEAA@PEBVString@@HH@Z 0000000180013f50 f   colorer_lib:StringBuffer.cpp.obj
 0001:00012fa0       ??1StringBuffer@@UEAA@XZ   0000000180013fa0 f   colorer_lib:StringBuffer.cpp.obj
 0001:00012fb0       ?append@StringBuffer@@QEAAAEAV1@PEBVString@@@Z 0000000180013fb0 f   colorer_lib:StringBuffer.cpp.obj
 0001:00013090       ?append@StringBuffer@@QEAAAEAV1@AEBVString@@@Z 0000000180014090 f   colorer_lib:StringBuffer.cpp.obj
 0001:000131b0       ??HStringBuffer@@QEAAAEAV0@PEBD@Z 00000001800141b0 f   colorer_lib:StringBuffer.cpp.obj
 0001:00013280       ??3@YAXPEAX@Z              0000000180014280 f   colorer_lib:MemoryChunks.cpp.obj
 0001:00013290       ?chunk_alloc@@YAPEAX_K@Z   0000000180014290 f   colorer_lib:MemoryChunks.cpp.obj
 0001:00013460       ?chunk_free@@YAXPEAX@Z     0000000180014460 f   colorer_lib:MemoryChunks.cpp.obj
 0001:00013550       ?ensureCapacity@?$Vector@PEAE@@QEAAXH@Z 0000000180014550 f i colorer_lib:MemoryChunks.cpp.obj
 0001:000135e0       ??0StringIndexOutOfBoundsException@@QEAA@AEBVString@@@Z 00000001800145e0 f   colorer_lib:String.cpp.obj
 0001:000136b0       ??1String@@UEAA@XZ         00000001800146b0 f   colorer_lib:String.cpp.obj
 0001:000136f0       ??8String@@QEBA_NAEBV0@@Z  00000001800146f0 f   colorer_lib:String.cpp.obj
 0001:00013790       ??9String@@QEBA_NAEBV0@@Z  0000000180014790 f   colorer_lib:String.cpp.obj
 0001:00013830       ?equals@String@@QEBA_NPEBD@Z 0000000180014830 f   colorer_lib:String.cpp.obj
 0001:00013830       ??8String@@QEBA_NPEBD@Z    0000000180014830 f   colorer_lib:String.cpp.obj
 0001:00013900       ?equalsIgnoreCase@String@@QEBA_NPEBV1@@Z 0000000180014900 f   colorer_lib:String.cpp.obj
 0001:00013ae0       ?compareTo@String@@QEBAHAEBV1@@Z 0000000180014ae0 f   colorer_lib:String.cpp.obj
 0001:00013ba0       ?compareToIgnoreCase@String@@QEBAHAEBV1@@Z 0000000180014ba0 f   colorer_lib:String.cpp.obj
 0001:00013ce0       ?getWChars@String@@UEBAHPEAPEA_W@Z 0000000180014ce0 f   colorer_lib:String.cpp.obj
 0001:00013db0       ?getBytes@String@@UEBAHPEAPEAEH@Z 0000000180014db0 f   colorer_lib:String.cpp.obj
 0001:00013f40       ?getChars@String@@UEBAPEBDH@Z 0000000180014f40 f   colorer_lib:String.cpp.obj
 0001:00013f90       ?getWChars@String@@UEBAPEB_WXZ 0000000180014f90 f   colorer_lib:String.cpp.obj
 0001:00013fd0       ?indexOf@String@@UEBAH_WH@Z 0000000180014fd0 f   colorer_lib:String.cpp.obj
 0001:00014040       ?indexOf@String@@UEBAHAEBV1@H@Z 0000000180015040 f   colorer_lib:String.cpp.obj
 0001:000140f0       ?indexOfIgnoreCase@String@@UEBAHAEBV1@H@Z 00000001800150f0 f   colorer_lib:String.cpp.obj
 0001:00014230       ?lastIndexOf@String@@UEBAH_WH@Z 0000000180015230 f   colorer_lib:String.cpp.obj
 0001:000142c0       ?lastIndexOf@String@@UEBAHAEBV1@H@Z 00000001800152c0 f   colorer_lib:String.cpp.obj
 0001:000143b0       ?startsWith@String@@UEBA_NAEBV1@H@Z 00000001800153b0 f   colorer_lib:String.cpp.obj
 0001:00014450       ?replace@String@@QEBAPEAV1@AEBV1@0@Z 0000000180015450 f   colorer_lib:String.cpp.obj
 0001:00014610       ?hashCode@String@@QEBAHXZ  0000000180015610 f   colorer_lib:String.cpp.obj
 0001:00014680       ?warning@XmlParserErrorHandler@@UEAAXAEBVSAXParseException@xercesc_3_1@@@Z 0000000180015680 f   colorer_lib:XmlParserErrorHandler.cpp.obj
 0001:00014c60       ?error@XmlParserErrorHandler@@UEAAXAEBVSAXParseException@xercesc_3_1@@@Z 0000000180015c60 f   colorer_lib:XmlParserErrorHandler.cpp.obj
 0001:00015240       ?fatalError@XmlParserErrorHandler@@UEAAXAEBVSAXParseException@xercesc_3_1@@@Z 0000000180016240 f   colorer_lib:XmlParserErrorHandler.cpp.obj
 0001:00015820       ?view@TextConsoleViewer@@QEAAXXZ 0000000180016820 f   colorer_lib:TextConsoleViewer.cpp.obj
 0001:00016240       ??1ErrorHandler@colorer@@UEAA@XZ 0000000180017240 f i colorer_lib:FileErrorHandler.cpp.obj
 0001:00016250       ??0FileErrorHandler@@QEAA@PEBVString@@H_N@Z 0000000180017250 f   colorer_lib:FileErrorHandler.cpp.obj
 0001:00016510       ??_EFileErrorHandler@@UEAAPEAXI@Z 0000000180017510 f i  CIL library: CIL module
 0001:00016510       ??_GFileErrorHandler@@UEAAPEAXI@Z 0000000180017510 f i colorer_lib:FileErrorHandler.cpp.obj
 0001:000165a0       ?error@FileErrorHandler@@UEAAXAEBVString@@@Z 00000001800175a0 f   colorer_lib:FileErrorHandler.cpp.obj
 0001:000165c0       ?fatalError@FileErrorHandler@@UEAAXAEBVString@@@Z 00000001800175c0 f   colorer_lib:FileErrorHandler.cpp.obj
 0001:000165f0       ?warning@FileErrorHandler@@UEAAXAEBVString@@@Z 00000001800175f0 f   colorer_lib:FileErrorHandler.cpp.obj
 0001:00016620       ?newInstance@XmlInputSource@@SAPEAV1@PEB_WPEAV1@@Z 0000000180017620 f   colorer_lib:XmlInputSource.cpp.obj
 0001:000167c0       ??1InputSourceException@@UEAA@XZ 00000001800177c0 f i colorer_lib:XmlInputSource.cpp.obj
 0001:000167c0       ??1FarHrcSettingsException@@UEAA@XZ 00000001800177c0 f i FarHrcSettings.cpp.obj
 0001:000167c0       ??1UnsupportedEncodingException@@UEAA@XZ 00000001800177c0 f i colorer_lib:DString.cpp.obj
 0001:000167c0       ??1Exception@@UEAA@XZ      00000001800177c0 f i colorer_lib:Exception.cpp.obj
 0001:000167c0       ??1SettingsControlException@@UEAA@XZ 00000001800177c0 f i SettingsControl.cpp.obj
 0001:000167c0       ??1StringIndexOutOfBoundsException@@UEAA@XZ 00000001800177c0 f i colorer_lib:DString.cpp.obj
 0001:000167c0       ??1HRCParserException@@UEAA@XZ 00000001800177c0 f i colorer_lib:HRCParserImpl.cpp.obj
 0001:000167c0       ??1OutOfBoundException@@UEAA@XZ 00000001800177c0 f i FarEditorSet.cpp.obj
 0001:000167c0       ??1ParserFactoryException@@UEAA@XZ 00000001800177c0 f i FarEditorSet.cpp.obj
 0001:000167f0       ??0InputSourceException@@QEAA@AEBV0@@Z 00000001800177f0 f i colorer_lib:XmlInputSource.cpp.obj
 0001:00016820       ?newInstance@XmlInputSource@@SAPEAV1@PEB_W0@Z 0000000180017820 f   colorer_lib:XmlInputSource.cpp.obj
 0001:00016ab0       ??0UnsupportedEncodingException@@QEAA@AEBVString@@@Z 0000000180017ab0 f   colorer_lib:Encodings.cpp.obj
 0001:00016b80       ?getEncodingIndex@Encodings@@SAHPEBD@Z 0000000180017b80 f   colorer_lib:Encodings.cpp.obj
 0001:00016c00       ?toBytes@Encodings@@SAHH_WPEAE@Z 0000000180017c00 f   colorer_lib:Encodings.cpp.obj
 0001:00016df0       ??1RegionHandler@@MEAA@XZ  0000000180017df0 f i colorer_lib:BaseEditor.cpp.obj
 0001:00016e00       ??_GRegionHandler@@MEAAPEAXI@Z 0000000180017e00 f i colorer_lib:BaseEditor.cpp.obj
 0001:00016e00       ??_ERegionHandler@@MEAAPEAXI@Z 0000000180017e00 f i  CIL library: CIL module
 0001:00016e30       ??1PairMatch@@UEAA@XZ      0000000180017e30 f i colorer_lib:BaseEditor.cpp.obj
 0001:00016eb0       ?setStart@PairMatch@@QEAAXPEAVLineRegion@@@Z 0000000180017eb0 f i colorer_lib:BaseEditor.cpp.obj
 0001:00016f80       ?setEnd@PairMatch@@QEAAXPEAVLineRegion@@@Z 0000000180017f80 f i colorer_lib:BaseEditor.cpp.obj
 0001:00017050       ??_EPairMatch@@UEAAPEAXI@Z 0000000180018050 f i  CIL library: CIL module
 0001:00017050       ??_GPairMatch@@UEAAPEAXI@Z 0000000180018050 f i colorer_lib:BaseEditor.cpp.obj
 0001:00017090       ??0BaseEditor@@QEAA@PEAVParserFactory@@PEAVLineSource@@@Z 0000000180018090 f   colorer_lib:BaseEditor.cpp.obj
 0001:00017550       ??_GBaseEditor@@UEAAPEAXI@Z 0000000180018550 f i colorer_lib:BaseEditor.cpp.obj
 0001:00017550       ??_EBaseEditor@@UEAAPEAXI@Z 0000000180018550 f i  CIL library: CIL module
 0001:00017590       ??1BaseEditor@@UEAA@XZ     0000000180018590 f   colorer_lib:BaseEditor.cpp.obj
 0001:00017650       ?remapLRS@BaseEditor@@AEAAX_N@Z 0000000180018650 f   colorer_lib:BaseEditor.cpp.obj
 0001:00017930       ?chooseFileTypeCh@BaseEditor@@AEAAPEAVFileType@@PEBVString@@HH@Z 0000000180018930 f   colorer_lib:BaseEditor.cpp.obj
 0001:00017c80       ?chooseFileType@BaseEditor@@QEAAPEAVFileType@@PEBVString@@@Z 0000000180018c80 f   colorer_lib:BaseEditor.cpp.obj
 0001:00017f00       ?getPairMatch@BaseEditor@@AEAAPEAVPairMatch@@HH@Z 0000000180018f00 f   colorer_lib:BaseEditor.cpp.obj
 0001:000180a0       ?searchLocalPair@BaseEditor@@QEAAPEAVPairMatch@@HH@Z 00000001800190a0 f   colorer_lib:BaseEditor.cpp.obj
 0001:00018330       ?searchGlobalPair@BaseEditor@@QEAAPEAVPairMatch@@HH@Z 0000000180019330 f   colorer_lib:BaseEditor.cpp.obj
 0001:00018590       ?getLineRegions@BaseEditor@@QEAAPEAVLineRegion@@H@Z 0000000180019590 f   colorer_lib:BaseEditor.cpp.obj
 0001:000185f0       ?modifyEvent@BaseEditor@@QEAAXH@Z 00000001800195f0 f   colorer_lib:BaseEditor.cpp.obj
 0001:000186a0       ?validate@BaseEditor@@QEAAXH_N@Z 00000001800196a0 f   colorer_lib:BaseEditor.cpp.obj
 0001:00018840       ?startParsing@BaseEditor@@UEAAXH@Z 0000000180019840 f   colorer_lib:BaseEditor.cpp.obj
 0001:000188f0       ?endParsing@BaseEditor@@UEAAXH@Z 00000001800198f0 f   colorer_lib:BaseEditor.cpp.obj
 0001:000189b0       ?clearLine@BaseEditor@@UEAAXHPEAVString@@@Z 00000001800199b0 f   colorer_lib:BaseEditor.cpp.obj
 0001:00018a70       ?addRegion@BaseEditor@@UEAAXHPEAVString@@HHPEBVRegion@@@Z 0000000180019a70 f   colorer_lib:BaseEditor.cpp.obj
 0001:00018b60       ?enterScheme@BaseEditor@@UEAAXHPEAVString@@HHPEBVRegion@@PEBVScheme@@@Z 0000000180019b60 f   colorer_lib:BaseEditor.cpp.obj
 0001:00018c70       ?leaveScheme@BaseEditor@@UEAAXHPEAVString@@HHPEBVRegion@@PEBVScheme@@@Z 0000000180019c70 f   colorer_lib:BaseEditor.cpp.obj
 0001:00018d80       ?removeElement@?$Vector@PEAVFileTypeImpl@@@@QEAA_NQEAVFileTypeImpl@@@Z 0000000180019d80 f i colorer_lib:HRCParserImpl.cpp.obj
 0001:00018d80       ?removeElement@?$Vector@PEAVRegionHandler@@@@QEAA_NQEAVRegionHandler@@@Z 0000000180019d80 f i colorer_lib:BaseEditor.cpp.obj
 0001:00018d80       ?removeElement@?$Vector@PEAVEditorListener@@@@QEAA_NQEAVEditorListener@@@Z 0000000180019d80 f i colorer_lib:BaseEditor.cpp.obj
 0001:00018e30       ??0Exception@@QEAA@AEBV0@@Z 0000000180019e30 f   colorer_lib:Exception.cpp.obj
 0001:00018fb0       ??0Exception@@QEAA@AEBVString@@@Z 0000000180019fb0 f   colorer_lib:Exception.cpp.obj
 0001:00019120       ?getName@SchemeImpl@@UEBAPEBVString@@XZ 000000018001a120 f   colorer_lib:HRCParserImpl.cpp.obj
 0001:00019120       ?getLocation@JARInputSource@@UEBAPEBVString@@XZ 000000018001a120 f   colorer_lib:JARInputSource.cpp.obj
 0001:00019120       ?getName@Region@@UEBAPEBVString@@XZ 000000018001a120 f   colorer_lib:HRCParserImpl.cpp.obj
 0001:00019120       ?getLocation@FileInputSource@@UEBAPEBVString@@XZ 000000018001a120 f   colorer_lib:FileInputSource.cpp.obj
 0001:00019120       ?getMessage@Exception@@UEBAPEBVString@@XZ 000000018001a120 f   colorer_lib:Exception.cpp.obj
 0001:00019130       ??0InputSourceException@@QEAA@AEBVString@@@Z 000000018001a130 f   colorer_lib:Exception.cpp.obj
 0001:00019260       ??0OutOfBoundException@@QEAA@AEBVString@@@Z 000000018001a260 f   colorer_lib:Exception.cpp.obj
 0001:00019390       ?construct@SString@@IEAAXPEBVString@@HH@Z 000000018001a390 f   colorer_lib:SString.cpp.obj
 0001:000194d0       ??_ESString@@UEAAPEAXI@Z   000000018001a4d0 f i  CIL library: CIL module
 0001:000194d0       ??_GSString@@UEAAPEAXI@Z   000000018001a4d0 f i colorer_lib:SString.cpp.obj
 0001:00019510       ??0SString@@QEAA@PEADH@Z   000000018001a510 f   colorer_lib:SString.cpp.obj
 0001:00019600       ??0SString@@QEAA@PEA_W@Z   000000018001a600 f   colorer_lib:SString.cpp.obj
 0001:000196e0       ??0SString@@QEAA@H@Z       000000018001a6e0 f   colorer_lib:SString.cpp.obj
 0001:000198b0       ??1SString@@UEAA@XZ        000000018001a8b0 f   colorer_lib:SString.cpp.obj
 0001:00019920       ??ASString@@UEBA_WH@Z      000000018001a920 f   colorer_lib:SString.cpp.obj
 0001:00019970       ?length@SString@@UEBAHXZ   000000018001a970 f   colorer_lib:SString.cpp.obj
 0001:00019970       ?getID@Region@@UEBAHXZ     000000018001a970 f   colorer_lib:HRCParserImpl.cpp.obj
 0001:00019980       ?replaceTabs@TextLinesStore@@AEAAXH@Z 000000018001a980 f   colorer_lib:TextLinesStore.cpp.obj
 0001:00019bb0       ??_GTextLinesStore@@UEAAPEAXI@Z 000000018001abb0 f i colorer_lib:TextLinesStore.cpp.obj
 0001:00019bb0       ??_ETextLinesStore@@UEAAPEAXI@Z 000000018001abb0 f i  CIL library: CIL module
 0001:00019c20       ??1TextLinesStore@@UEAA@XZ 000000018001ac20 f   colorer_lib:TextLinesStore.cpp.obj
 0001:00019c70       ?freeFile@TextLinesStore@@IEAAXXZ 000000018001ac70 f   colorer_lib:TextLinesStore.cpp.obj
 0001:00019d70       ?loadFile@TextLinesStore@@QEAAXPEBVString@@0_N@Z 000000018001ad70 f   colorer_lib:TextLinesStore.cpp.obj
 0001:0001a1b0       ?getLine@TextLinesStore@@UEAAPEAVString@@H@Z 000000018001b1b0 f   colorer_lib:TextLinesStore.cpp.obj
 0001:0001a210       ??_EErrorHandler@colorer@@UEAAPEAXI@Z 000000018001b210 f i  CIL library: CIL module
 0001:0001a210       ??_GDefaultErrorHandler@@UEAAPEAXI@Z 000000018001b210 f i colorer_lib:ParserFactory.cpp.obj
 0001:0001a210       ??_EDefaultErrorHandler@@UEAAPEAXI@Z 000000018001b210 f i  CIL library: CIL module
 0001:0001a210       ??_GErrorHandler@colorer@@UEAAPEAXI@Z 000000018001b210 f i colorer_lib:FileErrorHandler.cpp.obj
 0001:0001a240       ??_EXMLEntityResolver@xercesc_3_1@@UEAAPEAXI@Z 000000018001b240 f i  CIL library: CIL module
 0001:0001a240       ??_EBaseEntityResolver@@UEAAPEAXI@Z 000000018001b240 f i  CIL library: CIL module
 0001:0001a240       ??_GBaseEntityResolver@@UEAAPEAXI@Z 000000018001b240 f i colorer_lib:ParserFactory.cpp.obj
 0001:0001a240       ??_GXMLEntityResolver@xercesc_3_1@@UEAAPEAXI@Z 000000018001b240 f i colorer_lib:ParserFactory.cpp.obj
 0001:0001a270       ??1BaseEntityResolver@@UEAA@XZ 000000018001b270 f i colorer_lib:ParserFactory.cpp.obj
 0001:0001a280       ?loadCatalog@ParserFactory@@QEAAXPEBVString@@@Z 000000018001b280 f   colorer_lib:ParserFactory.cpp.obj
 0001:0001a700       ?parseCatalogBlock@ParserFactory@@AEAAXPEBVDOMElement@xercesc_3_1@@@Z 000000018001b700 f   colorer_lib:ParserFactory.cpp.obj
 0001:0001a850       ?parseHrcSetsBlock@ParserFactory@@AEAAXPEBVDOMElement@xercesc_3_1@@@Z 000000018001b850 f   colorer_lib:ParserFactory.cpp.obj
 0001:0001a860       ?addHrcSetsLocation@ParserFactory@@AEAAXPEBVDOMElement@xercesc_3_1@@@Z 000000018001b860 f   colorer_lib:ParserFactory.cpp.obj
 0001:0001ab30       ?parseHrdSetsBlock@ParserFactory@@AEAAXPEBVDOMElement@xercesc_3_1@@@Z 000000018001bb30 f   colorer_lib:ParserFactory.cpp.obj
 0001:0001ac10       ?parseHRDSetsChild@ParserFactory@@QEAAXPEBVDOMElement@xercesc_3_1@@@Z 000000018001bc10 f   colorer_lib:ParserFactory.cpp.obj
 0001:0001b630       ?searchPath@ParserFactory@@AEAAPEAVString@@XZ 000000018001c630 f   colorer_lib:ParserFactory.cpp.obj
 0001:0001ba70       ?searchPathWindows@ParserFactory@@AEAAXPEAV?$Vector@PEAVString@@@@@Z 000000018001ca70 f   colorer_lib:ParserFactory.cpp.obj
 0001:0001c8d0       ??0ParserFactory@@QEAA@PEAVErrorHandler@colorer@@@Z 000000018001d8d0 f   colorer_lib:ParserFactory.cpp.obj
 0001:0001c9f0       ??_GParserFactory@@UEAAPEAXI@Z 000000018001d9f0 f i colorer_lib:ParserFactory.cpp.obj
 0001:0001c9f0       ??_EParserFactory@@UEAAPEAXI@Z 000000018001d9f0 f i  CIL library: CIL module
 0001:0001ca30       ??1ParserFactory@@UEAA@XZ  000000018001da30 f   colorer_lib:ParserFactory.cpp.obj
 0001:0001ce00       ?enumerateHRDInstances@ParserFactory@@QEAAPEBVString@@AEBV2@H@Z 000000018001de00 f   colorer_lib:ParserFactory.cpp.obj
 0001:0001ce90       ?getHRDescription@ParserFactory@@QEAAPEBVString@@AEBV2@0@Z 000000018001de90 f   colorer_lib:ParserFactory.cpp.obj
 0001:0001cf80       ?getHRCParser@ParserFactory@@QEAAPEAVHRCParser@@XZ 000000018001df80 f   colorer_lib:ParserFactory.cpp.obj
 0001:0001da60       ?loadPathWindows@ParserFactory@@AEAAXPEBVString@@0@Z 000000018001ea60 f   colorer_lib:ParserFactory.cpp.obj
 0001:0001dff0       ?createStyledMapper@ParserFactory@@QEAAPEAVStyledHRDMapper@@PEBVString@@0@Z 000000018001eff0 f   colorer_lib:ParserFactory.cpp.obj
 0001:0001e670       ??1?$Hashtable@PEAV?$Hashtable@PEAV?$Vector@PEBVString@@@@@@@@UEAA@XZ 000000018001f670 f i colorer_lib:ParserFactory.cpp.obj
 0001:0001e6a0       ??1?$Hashtable@PEBVString@@@@UEAA@XZ 000000018001f6a0 f i colorer_lib:ParserFactory.cpp.obj
 0001:0001e6d0       ?enumerate@?$Hashtable@PEAV?$Vector@PEBVString@@@@@@QEBAPEAV?$Vector@PEBVString@@@@XZ 000000018001f6d0 f i colorer_lib:ParserFactory.cpp.obj
 0001:0001e720       ??_E?$Hashtable@PEAV?$Hashtable@PEAV?$Vector@PEBVString@@@@@@@@UEAAPEAXI@Z 000000018001f720 f i  CIL library: CIL module
 0001:0001e720       ??_G?$Hashtable@PEAV?$Hashtable@PEAV?$Vector@PEBVString@@@@@@@@UEAAPEAXI@Z 000000018001f720 f i colorer_lib:ParserFactory.cpp.obj
 0001:0001e720       ??_E?$HashtableCore@PEAV?$Hashtable@PEAV?$Vector@PEBVString@@@@@@@@UEAAPEAXI@Z 000000018001f720 f i  CIL library: CIL module
 0001:0001e720       ??_G?$HashtableCore@PEAV?$Hashtable@PEAV?$Vector@PEBVString@@@@@@@@UEAAPEAXI@Z 000000018001f720 f i colorer_lib:ParserFactory.cpp.obj
 0001:0001e770       ??_G?$HashtableCore@PEBVString@@@@UEAAPEAXI@Z 000000018001f770 f i colorer_lib:ParserFactory.cpp.obj
 0001:0001e770       ??_G?$Hashtable@PEBVString@@@@UEAAPEAXI@Z 000000018001f770 f i colorer_lib:ParserFactory.cpp.obj
 0001:0001e770       ??_E?$HashtableCore@PEBVString@@@@UEAAPEAXI@Z 000000018001f770 f i  CIL library: CIL module
 0001:0001e770       ??_E?$Hashtable@PEBVString@@@@UEAAPEAXI@Z 000000018001f770 f i  CIL library: CIL module
 0001:0001e7c0       ??0?$Vector@PEBVString@@@@QEAA@XZ 000000018001f7c0 f i colorer_lib:ParserFactory.cpp.obj
 0001:0001e810       ??0?$HashtableCore@PEAV?$Hashtable@PEAV?$Vector@PEBVString@@@@@@@@QEAA@XZ 000000018001f810 f i colorer_lib:ParserFactory.cpp.obj
 0001:0001e890       ??0?$HashtableCore@PEBVString@@@@QEAA@XZ 000000018001f890 f i colorer_lib:ParserFactory.cpp.obj
 0001:0001e910       ??0?$HashtableCore@PEAV?$Vector@PEBVString@@@@@@QEAA@XZ 000000018001f910 f i colorer_lib:ParserFactory.cpp.obj
 0001:0001e990       ??_E?$Hashtable@PEAV?$Vector@PEBVString@@@@@@UEAAPEAXI@Z 000000018001f990 f i  CIL library: CIL module
 0001:0001e990       ??_G?$HashtableCore@PEAV?$Vector@PEBVString@@@@@@UEAAPEAXI@Z 000000018001f990 f i colorer_lib:ParserFactory.cpp.obj
 0001:0001e990       ??_E?$HashtableCore@PEAV?$Vector@PEBVString@@@@@@UEAAPEAXI@Z 000000018001f990 f i  CIL library: CIL module
 0001:0001e990       ??_G?$Hashtable@PEAV?$Vector@PEBVString@@@@@@UEAAPEAXI@Z 000000018001f990 f i colorer_lib:ParserFactory.cpp.obj
 0001:0001e9e0       ?clear@?$HashtableCore@PEAV?$Vector@PEBVString@@@@@@QEAAXXZ 000000018001f9e0 f i colorer_lib:ParserFactory.cpp.obj
 0001:0001e9e0       ?clear@?$HashtableCore@PEAVFileTypeImpl@@@@QEAAXXZ 000000018001f9e0 f i colorer_lib:HRCParserImpl.cpp.obj
 0001:0001e9e0       ?clear@?$HashtableCore@H@@QEAAXXZ 000000018001f9e0 f i colorer_lib:HRCParserImpl.cpp.obj
 0001:0001e9e0       ?clear@?$HashtableCore@PEAVFarEditor@@@@QEAAXXZ 000000018001f9e0 f i FarEditorSet.cpp.obj
 0001:0001e9e0       ?clear@?$HashtableCore@PEAVSharedInputSource@@@@QEAAXXZ 000000018001f9e0 f i colorer_lib:SharedInputSource.cpp.obj
 0001:0001e9e0       ?clear@?$HashtableCore@PEAVString@@@@QEAAXXZ 000000018001f9e0 f i FarHrcSettings.cpp.obj
 0001:0001e9e0       ?clear@?$HashtableCore@PEAV?$Hashtable@PEAV?$Vector@PEBVString@@@@@@@@QEAAXXZ 000000018001f9e0 f i colorer_lib:ParserFactory.cpp.obj
 0001:0001e9e0       ?clear@?$HashtableCore@PEBVString@@@@QEAAXXZ 000000018001f9e0 f i colorer_lib:ParserFactory.cpp.obj
 0001:0001e9e0       ?clear@?$HashtableCore@PEBVRegion@@@@QEAAXXZ 000000018001f9e0 f i colorer_lib:HRCParserImpl.cpp.obj
 0001:0001e9e0       ?clear@?$HashtableCore@PEAVSharedXmlInputSource@@@@QEAAXXZ 000000018001f9e0 f i colorer_lib:SharedXmlInputSource.cpp.obj
 0001:0001e9e0       ?clear@?$HashtableCore@PEAVSchemeImpl@@@@QEAAXXZ 000000018001f9e0 f i colorer_lib:HRCParserImpl.cpp.obj
 0001:0001e9e0       ?clear@?$HashtableCore@PEAVRegionDefine@@@@QEAAXXZ 000000018001f9e0 f i colorer_lib:StyledHRDMapper.cpp.obj
 0001:0001eaa0       ??0OutlineItem@@QEAA@HHHPEAVString@@PEBVRegion@@@Z 000000018001faa0 f i colorer_lib:Outliner.cpp.obj
 0001:0001ec40       ??0Outliner@@QEAA@PEAVBaseEditor@@PEBVRegion@@@Z 000000018001fc40 f   colorer_lib:Outliner.cpp.obj
 0001:0001ed10       ??_GOutliner@@UEAAPEAXI@Z  000000018001fd10 f i colorer_lib:Outliner.cpp.obj
 0001:0001ed10       ??_EOutliner@@UEAAPEAXI@Z  000000018001fd10 f i  CIL library: CIL module
 0001:0001ed50       ??1Outliner@@UEAA@XZ       000000018001fd50 f   colorer_lib:Outliner.cpp.obj
 0001:0001ee60       ?getItem@Outliner@@QEAAPEAVOutlineItem@@H@Z 000000018001fe60 f   colorer_lib:Outliner.cpp.obj
 0001:0001eec0       ?manageTree@Outliner@@SAHAEAV?$Vector@H@@H@Z 000000018001fec0 f   colorer_lib:Outliner.cpp.obj
 0001:0001efa0       ?modifyEvent@Outliner@@UEAAXH@Z 000000018001ffa0 f   colorer_lib:Outliner.cpp.obj
 0001:0001f080       ?startParsing@Outliner@@UEAAXH@Z 0000000180020080 f   colorer_lib:Outliner.cpp.obj
 0001:0001f090       ?endParsing@Outliner@@UEAAXH@Z 0000000180020090 f   colorer_lib:Outliner.cpp.obj
 0001:0001f0b0       ?breakParse@TextParserImpl@@UEAAXXZ 00000001800200b0 f   colorer_lib:TextParserImpl.cpp.obj
 0001:0001f0b0       ?clearLine@Outliner@@UEAAXHPEAVString@@@Z 00000001800200b0 f   colorer_lib:Outliner.cpp.obj
 0001:0001f0c0       ?addRegion@Outliner@@UEAAXHPEAVString@@HHPEBVRegion@@@Z 00000001800200c0 f   colorer_lib:Outliner.cpp.obj
 0001:0001f220       ?enterScheme@Outliner@@UEAAXHPEAVString@@HHPEBVRegion@@PEBVScheme@@@Z 0000000180020220 f   colorer_lib:Outliner.cpp.obj
 0001:0001f230       ?leaveScheme@Outliner@@UEAAXHPEAVString@@HHPEBVRegion@@PEBVScheme@@@Z 0000000180020230 f   colorer_lib:Outliner.cpp.obj
 0001:0001f240       ??1?$Vector@PEBVString@@@@QEAA@XZ 0000000180020240 f i colorer_lib:ParserFactory.cpp.obj
 0001:0001f240       ??1?$Vector@PEAVFileTypeChooser@@@@QEAA@XZ 0000000180020240 f i colorer_lib:HRCParserImpl.cpp.obj
 0001:0001f240       ??1?$Vector@PEAVOutlineItem@@@@QEAA@XZ 0000000180020240 f i colorer_lib:Outliner.cpp.obj
 0001:0001f240       ??1?$Vector@PEAVLineRegion@@@@QEAA@XZ 0000000180020240 f i colorer_lib:LineRegionsSupport.cpp.obj
 0001:0001f240       ??1?$Vector@PEAVSchemeNode@@@@QEAA@XZ 0000000180020240 f i colorer_lib:HRCParserImpl.cpp.obj
 0001:0001f240       ??1?$Vector@PEAVEditorListener@@@@QEAA@XZ 0000000180020240 f i colorer_lib:BaseEditor.cpp.obj
 0001:0001f240       ??1?$Vector@PEAVFileTypeImpl@@@@QEAA@XZ 0000000180020240 f i colorer_lib:HRCParserImpl.cpp.obj
 0001:0001f240       ??1?$Vector@PEBVRegion@@@@QEAA@XZ 0000000180020240 f i colorer_lib:HRCParserImpl.cpp.obj
 0001:0001f240       ??1?$Vector@H@@QEAA@XZ     0000000180020240 f i FarEditor.cpp.obj
 0001:0001f240       ??1?$Vector@PEAVRegionHandler@@@@QEAA@XZ 0000000180020240 f i colorer_lib:BaseEditor.cpp.obj
 0001:0001f240       ??1?$Vector@PEAVVirtualEntry@@@@QEAA@XZ 0000000180020240 f i colorer_lib:HRCParserHelpers.cpp.obj
 0001:0001f240       ??1?$Vector@PEAVString@@@@QEAA@XZ 0000000180020240 f i colorer_lib:TextLinesStore.cpp.obj
 0001:0001f250       ?lastElement@?$Vector@H@@QEBAHXZ 0000000180020250 f i colorer_lib:Outliner.cpp.obj
 0001:0001f2f0       ?insertElementAt@?$Vector@H@@QEAAXHH@Z 00000001800202f0 f i colorer_lib:Outliner.cpp.obj
 0001:0001f450       ?toLowerCase@Character@@SA_W_W@Z 0000000180020450 f   colorer_lib:Character.cpp.obj
 0001:0001f4b0       ?toUpperCase@Character@@SA_W_W@Z 00000001800204b0 f   colorer_lib:Character.cpp.obj
 0001:0001f510       ?isWhitespace@Character@@SA_N_W@Z 0000000180020510 f   colorer_lib:Character.cpp.obj
 0001:0001f580       ??4RegionDefine@@UEAAAEAV0@AEBV0@@Z 0000000180020580 f i colorer_lib:StyledHRDMapper.cpp.obj
 0001:0001f5a0       ??1RegionDefine@@UEAA@XZ   00000001800205a0 f i colorer_lib:StyledHRDMapper.cpp.obj
 0001:0001f5b0       ??_EStyledRegion@@UEAAPEAXI@Z 00000001800205b0 f i  CIL library: CIL module
 0001:0001f5b0       ??_GRegionDefine@@UEAAPEAXI@Z 00000001800205b0 f i colorer_lib:StyledHRDMapper.cpp.obj
 0001:0001f5b0       ??_ERegionDefine@@UEAAPEAXI@Z 00000001800205b0 f i  CIL library: CIL module
 0001:0001f5b0       ??_GStyledRegion@@UEAAPEAXI@Z 00000001800205b0 f i colorer_lib:StyledHRDMapper.cpp.obj
 0001:0001f5e0       ??1RegionMapper@@UEAA@XZ   00000001800205e0 f i colorer_lib:StyledHRDMapper.cpp.obj
 0001:0001f5f0       ??_GRegionMapper@@UEAAPEAXI@Z 00000001800205f0 f i colorer_lib:StyledHRDMapper.cpp.obj
 0001:0001f5f0       ??_ERegionMapper@@UEAAPEAXI@Z 00000001800205f0 f i  CIL library: CIL module
 0001:0001f620       ??0RegionMapperImpl@@QEAA@XZ 0000000180020620 f i colorer_lib:StyledHRDMapper.cpp.obj
 0001:0001f6b0       ??1RegionMapperImpl@@UEAA@XZ 00000001800206b0 f i colorer_lib:StyledHRDMapper.cpp.obj
 0001:0001f720       ??_GRegionMapperImpl@@UEAAPEAXI@Z 0000000180020720 f i colorer_lib:StyledHRDMapper.cpp.obj
 0001:0001f720       ??_ERegionMapperImpl@@UEAAPEAXI@Z 0000000180020720 f i  CIL library: CIL module
 0001:0001f760       ?assignParent@StyledRegion@@UEAAXPEBVRegionDefine@@@Z 0000000180020760 f i colorer_lib:StyledHRDMapper.cpp.obj
 0001:0001f7b0       ?setValues@StyledRegion@@UEAAXPEBVRegionDefine@@@Z 00000001800207b0 f i colorer_lib:StyledHRDMapper.cpp.obj
 0001:0001f7f0       ?clone@StyledRegion@@UEBAPEAVRegionDefine@@XZ 00000001800207f0 f i colorer_lib:StyledHRDMapper.cpp.obj
 0001:0001f880       ??_GStyledHRDMapper@@UEAAPEAXI@Z 0000000180020880 f i colorer_lib:StyledHRDMapper.cpp.obj
 0001:0001f880       ??_EStyledHRDMapper@@UEAAPEAXI@Z 0000000180020880 f i  CIL library: CIL module
 0001:0001f8c0       ??1StyledHRDMapper@@UEAA@XZ 00000001800208c0 f   colorer_lib:StyledHRDMapper.cpp.obj
 0001:0001f9c0       ?loadRegionMappings@StyledHRDMapper@@UEAAXPEAVXmlInputSource@@PEAVErrorHandler@colorer@@@Z 00000001800209c0 f   colorer_lib:StyledHRDMapper.cpp.obj
 0001:00020140       ?saveRegionMappings@StyledHRDMapper@@UEBAXPEAVWriter@@@Z 0000000180021140 f   colorer_lib:StyledHRDMapper.cpp.obj
 0001:00020800       ?setRegionDefine@StyledHRDMapper@@UEAAXAEBVString@@PEBVRegionDefine@@@Z 0000000180021800 f   colorer_lib:StyledHRDMapper.cpp.obj
 0001:00020990       ??1?$Hashtable@PEAVRegionDefine@@@@UEAA@XZ 0000000180021990 f i colorer_lib:StyledHRDMapper.cpp.obj
 0001:000209c0       ??0?$HashtableCore@PEAVRegionDefine@@@@QEAA@XZ 00000001800219c0 f i colorer_lib:StyledHRDMapper.cpp.obj
 0001:00020a40       ?nextkey@?$HashtableCore@PEAVRegionDefine@@@@QEBAPEAVString@@XZ 0000000180021a40 f i colorer_lib:StyledHRDMapper.cpp.obj
 0001:00020b90       ??_E?$HashtableCore@PEAVRegionDefine@@@@UEAAPEAXI@Z 0000000180021b90 f i  CIL library: CIL module
 0001:00020b90       ??_E?$Hashtable@PEAVRegionDefine@@@@UEAAPEAXI@Z 0000000180021b90 f i  CIL library: CIL module
 0001:00020b90       ??_G?$HashtableCore@PEAVRegionDefine@@@@UEAAPEAXI@Z 0000000180021b90 f i colorer_lib:StyledHRDMapper.cpp.obj
 0001:00020b90       ??_G?$Hashtable@PEAVRegionDefine@@@@UEAAPEAXI@Z 0000000180021b90 f i colorer_lib:StyledHRDMapper.cpp.obj
 0001:00022590       dlmalloc                   0000000180023590 f   colorer_lib:dlmalloc.c.obj
 0001:000228f0       dlfree                     00000001800238f0 f   colorer_lib:dlmalloc.c.obj
 0001:00023050       ??1Writer@@UEAA@XZ         0000000180024050 f i colorer_lib:StreamWriter.cpp.obj
 0001:00023060       ??_EWriter@@UEAAPEAXI@Z    0000000180024060 f i  CIL library: CIL module
 0001:00023060       ??_GStreamWriter@@UEAAPEAXI@Z 0000000180024060 f i colorer_lib:StreamWriter.cpp.obj
 0001:00023060       ??_GWriter@@UEAAPEAXI@Z    0000000180024060 f i colorer_lib:StreamWriter.cpp.obj
 0001:00023060       ??_EStreamWriter@@UEAAPEAXI@Z 0000000180024060 f i  CIL library: CIL module
 0001:00023090       ?init@StreamWriter@@IEAAXPEAU_iobuf@@H_N@Z 0000000180024090 f   colorer_lib:StreamWriter.cpp.obj
 0001:00023130       ?write@StreamWriter@@UEAAX_W@Z 0000000180024130 f   colorer_lib:StreamWriter.cpp.obj
 0001:00023190       ??0ErrorHandlerWriter@@QEAA@PEAVWriter@@@Z 0000000180024190 f   colorer_lib:ErrorHandlerWriter.cpp.obj
 0001:00023330       ??_GErrorHandlerWriter@@UEAAPEAXI@Z 0000000180024330 f i colorer_lib:ErrorHandlerWriter.cpp.obj
 0001:00023330       ??_EErrorHandlerWriter@@UEAAPEAXI@Z 0000000180024330 f i  CIL library: CIL module
 0001:00023370       ??1ErrorHandlerWriter@@UEAA@XZ 0000000180024370 f   colorer_lib:ErrorHandlerWriter.cpp.obj
 0001:00023500       ?error@ErrorHandlerWriter@@UEAAXAEBVString@@@Z 0000000180024500 f   colorer_lib:ErrorHandlerWriter.cpp.obj
 0001:00023700       ?fatalError@ErrorHandlerWriter@@UEAAXAEBVString@@@Z 0000000180024700 f   colorer_lib:ErrorHandlerWriter.cpp.obj
 0001:00023900       ?warning@ErrorHandlerWriter@@UEAAXAEBVString@@@Z 0000000180024900 f   colorer_lib:ErrorHandlerWriter.cpp.obj
 0001:00023b00       ?getIssueFatalErrorIfNotFound@InputSource@xercesc_3_1@@UEBA_NXZ 0000000180024b00 f i colorer_lib:ZipXmlInputSource.cpp.obj
 0001:00023b10       ?setIssueFatalErrorIfNotFound@InputSource@xercesc_3_1@@UEAAX_N@Z 0000000180024b10 f i colorer_lib:ZipXmlInputSource.cpp.obj
 0001:00023b20       ?mem_close_file_func@@YAHPEAX0@Z 0000000180024b20 f i colorer_lib:MemoryFile.cpp.obj
 0001:00023b20       ?getInputSource@XmlInputSource@@UEAAPEAVInputSource@xercesc_3_1@@XZ 0000000180024b20 f i colorer_lib:ZipXmlInputSource.cpp.obj
 0001:00023b20       ?createRelative@XmlInputSource@@UEBAPEAV1@PEB_W@Z 0000000180024b20 f i colorer_lib:ZipXmlInputSource.cpp.obj
 0001:00023b20       ?getContentType@UnZip@@UEBAPEB_WXZ 0000000180024b20 f i colorer_lib:ZipXmlInputSource.cpp.obj
 0001:00023b20       ?mem_write_file_func@@YAKPEAX0PEBXK@Z 0000000180024b20 f i colorer_lib:MemoryFile.cpp.obj
 0001:00023b20       ?createRelative@InputSource@colorer@@UEAAPEAV12@PEBVString@@@Z 0000000180024b20 f i colorer_lib:JARInputSource.cpp.obj
 0001:00023b30       ??1XmlInputSource@@UEAA@XZ 0000000180024b30 f i colorer_lib:ZipXmlInputSource.cpp.obj
 0001:00023b40       ??_GXmlInputSource@@UEAAPEAXI@Z 0000000180024b40 f i colorer_lib:ZipXmlInputSource.cpp.obj
 0001:00023b40       ??_EXmlInputSource@@UEAAPEAXI@Z 0000000180024b40 f i  CIL library: CIL module
 0001:00023b70       ??_EZipXmlInputSource@@UEAAPEAXI@Z 0000000180024b70 f i  CIL library: CIL module
 0001:00023b70       ??_GZipXmlInputSource@@UEAAPEAXI@Z 0000000180024b70 f i colorer_lib:ZipXmlInputSource.cpp.obj
 0001:00023bb0       ?create@ZipXmlInputSource@@AEAAXPEB_W0@Z 0000000180024bb0 f   colorer_lib:ZipXmlInputSource.cpp.obj
 0001:00024120       ??0ZipXmlInputSource@@QEAA@PEB_WPEAVXmlInputSource@@@Z 0000000180025120 f   colorer_lib:ZipXmlInputSource.cpp.obj
 0001:000241b0       ??1ZipXmlInputSource@@UEAA@XZ 00000001800251b0 f   colorer_lib:ZipXmlInputSource.cpp.obj
 0001:00024250       ??0ZipXmlInputSource@@QEAA@PEB_W0_N@Z 0000000180025250 f   colorer_lib:ZipXmlInputSource.cpp.obj
 0001:00024a30       ?createRelative@ZipXmlInputSource@@UEBAPEAV1@PEB_W@Z 0000000180025a30 f   colorer_lib:ZipXmlInputSource.cpp.obj
 0001:00024ab0       ?getInputSource@ZipXmlInputSource@@UEAAPEAVInputSource@xercesc_3_1@@XZ 0000000180025ab0 f   colorer_lib:ZipXmlInputSource.cpp.obj
 0001:00024ac0       ?makeStream@ZipXmlInputSource@@UEBAPEAVBinInputStream@xercesc_3_1@@XZ 0000000180025ac0 f   colorer_lib:ZipXmlInputSource.cpp.obj
 0001:00024b60       ??0UnZip@@QEAA@PEBE_KPEBVString@@@Z 0000000180025b60 f   colorer_lib:ZipXmlInputSource.cpp.obj
 0001:00025140       ??_GUnZip@@UEAAPEAXI@Z     0000000180026140 f i colorer_lib:ZipXmlInputSource.cpp.obj
 0001:00025140       ??_EUnZip@@UEAAPEAXI@Z     0000000180026140 f i  CIL library: CIL module
 0001:000251b0       ?readBytes@UnZip@@UEAA_KQEAE_K@Z 00000001800261b0 f   colorer_lib:ZipXmlInputSource.cpp.obj
 0001:00025200       ?get@?$Hashtable@PEAVSharedXmlInputSource@@@@QEBAPEAVSharedXmlInputSource@@PEBVString@@@Z 0000000180026200 f i colorer_lib:ZipXmlInputSource.cpp.obj
 0001:00025280       ??_EZipXmlInputSource@@W7EAAPEAXI@Z 0000000180026280 f i colorer_lib:ZipXmlInputSource.cpp.obj
 0001:00025290       ??0LocalFileXmlInputSource@@QEAA@PEB_W0@Z 0000000180026290 f   colorer_lib:LocalFileXmlInputSource.cpp.obj
 0001:000253b0       ??_ELocalFileXmlInputSource@@UEAAPEAXI@Z 00000001800263b0 f i  CIL library: CIL module
 0001:000253b0       ??_GLocalFileXmlInputSource@@UEAAPEAXI@Z 00000001800263b0 f i colorer_lib:LocalFileXmlInputSource.cpp.obj
 0001:00025420       ?makeStream@LocalFileXmlInputSource@@UEBAPEAVBinInputStream@xercesc_3_1@@XZ 0000000180026420 f   colorer_lib:LocalFileXmlInputSource.cpp.obj
 0001:000256f0       ?createRelative@LocalFileXmlInputSource@@UEBAPEAVXmlInputSource@@PEB_W@Z 00000001800266f0 f   colorer_lib:LocalFileXmlInputSource.cpp.obj
 0001:00025770       ?getInputSource@LocalFileXmlInputSource@@UEAAPEAVInputSource@xercesc_3_1@@XZ 0000000180026770 f   colorer_lib:LocalFileXmlInputSource.cpp.obj
 0001:00025780       ??_ELocalFileXmlInputSource@@WDA@EAAPEAXI@Z 0000000180026780 f i colorer_lib:LocalFileXmlInputSource.cpp.obj
 0001:00025790       ??_ELineRegionsCompactSupport@@UEAAPEAXI@Z 0000000180026790 f i  CIL library: CIL module
 0001:00025790       ??_GLineRegionsCompactSupport@@UEAAPEAXI@Z 0000000180026790 f i colorer_lib:LineRegionsCompactSupport.cpp.obj
 0001:000257d0       ?addLineRegion@LineRegionsCompactSupport@@MEAAXHPEAVLineRegion@@@Z 00000001800267d0 f   colorer_lib:LineRegionsCompactSupport.cpp.obj
 0001:00025b00       ?setElementAt@?$Vector@PEBVRegionDefine@@@@QEAAXQEBVRegionDefine@@H@Z 0000000180026b00 f i colorer_lib:StyledHRDMapper.cpp.obj
 0001:00025b00       ?setElementAt@?$Vector@PEAVLineRegion@@@@QEAAXQEAVLineRegion@@H@Z 0000000180026b00 f i colorer_lib:LineRegionsCompactSupport.cpp.obj
 0001:00025b60       ??0LineRegionsSupport@@QEAA@XZ 0000000180026b60 f   colorer_lib:LineRegionsSupport.cpp.obj
 0001:00025c40       ??_GLineRegionsSupport@@UEAAPEAXI@Z 0000000180026c40 f i colorer_lib:LineRegionsSupport.cpp.obj
 0001:00025c40       ??_ELineRegionsSupport@@UEAAPEAXI@Z 0000000180026c40 f i  CIL library: CIL module
 0001:00025c80       ??1LineRegionsSupport@@UEAA@XZ 0000000180026c80 f   colorer_lib:LineRegionsSupport.cpp.obj
 0001:00025dc0       ?clear@LineRegionsSupport@@QEAAXXZ 0000000180026dc0 f   colorer_lib:LineRegionsSupport.cpp.obj
 0001:00025ea0       ?getLineRegions@LineRegionsSupport@@QEBAPEAVLineRegion@@H@Z 0000000180026ea0 f   colorer_lib:LineRegionsSupport.cpp.obj
 0001:00025f30       ?startParsing@LineRegionsSupport@@UEAAXH@Z 0000000180026f30 f   colorer_lib:LineRegionsSupport.cpp.obj
 0001:00026030       ?clearLine@LineRegionsSupport@@UEAAXHPEAVString@@@Z 0000000180027030 f   colorer_lib:LineRegionsSupport.cpp.obj
 0001:000261b0       ?addRegion@LineRegionsSupport@@UEAAXHPEAVString@@HHPEBVRegion@@@Z 00000001800271b0 f   colorer_lib:LineRegionsSupport.cpp.obj
 0001:000262f0       ?enterScheme@LineRegionsSupport@@UEAAXHPEAVString@@HHPEBVRegion@@PEBVScheme@@@Z 00000001800272f0 f   colorer_lib:LineRegionsSupport.cpp.obj
 0001:00026460       ?leaveScheme@LineRegionsSupport@@UEAAXHPEAVString@@HHPEBVRegion@@PEBVScheme@@@Z 0000000180027460 f   colorer_lib:LineRegionsSupport.cpp.obj
 0001:00026570       ?addLineRegion@LineRegionsSupport@@MEAAXHPEAVLineRegion@@@Z 0000000180027570 f   colorer_lib:LineRegionsSupport.cpp.obj
 0001:00026630       ?lastElement@?$Vector@PEAVLineRegion@@@@QEBAPEAVLineRegion@@XZ 0000000180027630 f i colorer_lib:LineRegionsSupport.cpp.obj
 0001:00026630       ?lastElement@?$Vector@PEAVOutlineItem@@@@QEBAPEAVOutlineItem@@XZ 0000000180027630 f i colorer_lib:Outliner.cpp.obj
 0001:000266d0       ?getAbsolutePath@InputSource@colorer@@SAPEAVString@@PEBV3@0@Z 00000001800276d0 f   colorer_lib:InputSource.cpp.obj
 0001:000266d0       ?getAbsolutePath@XmlInputSource@@SAPEAVString@@PEBV2@0@Z 00000001800276d0 f   colorer_lib:XmlInputSource.cpp.obj
 0001:000268a0       ?newInstance@InputSource@colorer@@SAPEAV12@PEBVString@@PEAV12@@Z 00000001800278a0 f   colorer_lib:InputSource.cpp.obj
 0001:00026ac0       ?isRelative@InputSource@colorer@@SA_NPEBVString@@@Z 0000000180027ac0 f   colorer_lib:InputSource.cpp.obj
 0001:00026b30       ?getPublicId@InputSource@xercesc_3_1@@UEBAPEB_WXZ 0000000180027b30 f i colorer_lib:ZipXmlInputSource.cpp.obj
 0001:00026b30       ?getParent@Region@@UEBAPEBV1@XZ 0000000180027b30 f i colorer_lib:HRCParserImpl.cpp.obj
 0001:00026b30       ?getGroup@FileTypeImpl@@UEAAPEBVString@@XZ 0000000180027b30 f i colorer_lib:HRCParserImpl.cpp.obj
 0001:00026b40       ??0Region@@QEAA@PEBVString@@0PEBV0@H@Z 0000000180027b40 f i colorer_lib:HRCParserImpl.cpp.obj
 0001:00026df0       ??_ERegion@@UEAAPEAXI@Z    0000000180027df0 f i  CIL library: CIL module
 0001:00026df0       ??_GRegion@@UEAAPEAXI@Z    0000000180027df0 f i colorer_lib:HRCParserImpl.cpp.obj
 0001:00026e60       ??1FileType@@MEAA@XZ       0000000180027e60 f i colorer_lib:HRCParserImpl.cpp.obj
 0001:00026e70       ??_GFileType@@MEAAPEAXI@Z  0000000180027e70 f i colorer_lib:HRCParserImpl.cpp.obj
 0001:00026e70       ??_EFileType@@MEAAPEAXI@Z  0000000180027e70 f i  CIL library: CIL module
 0001:00026ea0       ??1Scheme@@MEAA@XZ         0000000180027ea0 f i colorer_lib:HRCParserImpl.cpp.obj
 0001:00026eb0       ??_EScheme@@MEAAPEAXI@Z    0000000180027eb0 f i  CIL library: CIL module
 0001:00026eb0       ??_GScheme@@MEAAPEAXI@Z    0000000180027eb0 f i colorer_lib:HRCParserImpl.cpp.obj
 0001:00026ee0       ??0VirtualEntry@@QEAA@PEBVString@@0@Z 0000000180027ee0 f i colorer_lib:HRCParserImpl.cpp.obj
 0001:00027160       ??3SchemeImpl@@SAXPEAX@Z   0000000180028160 f i colorer_lib:HRCParserImpl.cpp.obj
 0001:00027160       ??3CharacterClass@@SAXPEAX@Z 0000000180028160 f i colorer_lib:cregexp.cpp.obj
 0001:00027160       ??3KeywordList@@SAXPEAX@Z  0000000180028160 f i colorer_lib:HRCParserImpl.cpp.obj
 0001:00027160       ??3SchemeNode@@SAXPEAX@Z   0000000180028160 f i colorer_lib:HRCParserImpl.cpp.obj
 0001:00027160       ??3VirtualEntry@@SAXPEAX@Z 0000000180028160 f i colorer_lib:HRCParserImpl.cpp.obj
 0001:00027170       ?getFileType@SchemeImpl@@UEBAPEAVFileType@@XZ 0000000180028170 f i colorer_lib:HRCParserImpl.cpp.obj
 0001:00027180       ??0SchemeImpl@@IEAA@PEBVString@@@Z 0000000180028180 f i colorer_lib:HRCParserImpl.cpp.obj
 0001:00027320       ??1SchemeImpl@@MEAA@XZ     0000000180028320 f i colorer_lib:HRCParserImpl.cpp.obj
 0001:00027400       ??_ESchemeImpl@@MEAAPEAXI@Z 0000000180028400 f i  CIL library: CIL module
 0001:00027400       ??_GSchemeImpl@@MEAAPEAXI@Z 0000000180028400 f i colorer_lib:HRCParserImpl.cpp.obj
 0001:00027430       ??0HRCParserException@@QEAA@AEBVString@@@Z 0000000180028430 f i colorer_lib:HRCParserImpl.cpp.obj
 0001:00027560       ??1HRCParser@@UEAA@XZ      0000000180028560 f i colorer_lib:HRCParserImpl.cpp.obj
 0001:00027570       ??_EHRCParser@@UEAAPEAXI@Z 0000000180028570 f i  CIL library: CIL module
 0001:00027570       ??_GHRCParser@@UEAAPEAXI@Z 0000000180028570 f i colorer_lib:HRCParserImpl.cpp.obj
 0001:000275a0       ?getDescription@Region@@UEBAPEBVString@@XZ 00000001800285a0 f i colorer_lib:HRCParserImpl.cpp.obj
 0001:000275a0       ?getEncoding@InputSource@xercesc_3_1@@UEBAPEB_WXZ 00000001800285a0 f i colorer_lib:ZipXmlInputSource.cpp.obj
 0001:000275a0       ?getName@FileTypeImpl@@UEAAPEBVString@@XZ 00000001800285a0 f i colorer_lib:HRCParserImpl.cpp.obj
 0001:000275b0       ?curPos@UnZip@@UEBA_KXZ    00000001800285b0 f i colorer_lib:ZipXmlInputSource.cpp.obj
 0001:000275b0       ?getDescription@FileTypeImpl@@UEAAPEBVString@@XZ 00000001800285b0 f i colorer_lib:HRCParserImpl.cpp.obj
 0001:000275b0       ?getSystemId@InputSource@xercesc_3_1@@UEBAPEB_WXZ 00000001800285b0 f i colorer_lib:ZipXmlInputSource.cpp.obj
 0001:000275c0       ?getBaseScheme@FileTypeImpl@@UEAAPEAVScheme@@XZ 00000001800285c0 f i colorer_lib:HRCParserImpl.cpp.obj
 0001:000275f0       ?enumerateParameters@FileTypeImpl@@UEAAPEBVString@@H@Z 00000001800285f0 f i colorer_lib:HRCParserImpl.cpp.obj
 0001:00027650       ?getParameterDescription@FileTypeImpl@@UEAAPEBVString@@AEBV2@@Z 0000000180028650 f i colorer_lib:HRCParserImpl.cpp.obj
 0001:00027660       ?getParamValue@FileTypeImpl@@UEAAPEBVString@@AEBV2@@Z 0000000180028660 f i colorer_lib:HRCParserImpl.cpp.obj
 0001:000276a0       ?getParamValueInt@FileTypeImpl@@UEAAHAEBVString@@H@Z 00000001800286a0 f i colorer_lib:HRCParserImpl.cpp.obj
 0001:000276e0       ?getParamDefaultValue@FileTypeImpl@@UEAAPEBVString@@AEBV2@@Z 00000001800286e0 f i colorer_lib:HRCParserImpl.cpp.obj
 0001:000276f0       ?setParamValue@FileTypeImpl@@UEAAXAEBVString@@PEBV2@@Z 00000001800286f0 f i colorer_lib:HRCParserImpl.cpp.obj
 0001:00027870       ?getPriority@FileTypeImpl@@QEBANPEBVString@@0@Z 0000000180028870 f i colorer_lib:HRCParserImpl.cpp.obj
 0001:000279d0       ??0FileTypeImpl@@IEAA@PEAVHRCParserImpl@@@Z 00000001800289d0 f i colorer_lib:HRCParserImpl.cpp.obj
 0001:00027b30       ??1FileTypeImpl@@MEAA@XZ   0000000180028b30 f i colorer_lib:HRCParserImpl.cpp.obj
 0001:00027fa0       ??_GFileTypeImpl@@MEAAPEAXI@Z 0000000180028fa0 f i colorer_lib:HRCParserImpl.cpp.obj
 0001:00027fa0       ??_EFileTypeImpl@@MEAAPEAXI@Z 0000000180028fa0 f i  CIL library: CIL module
 0001:00027fe0       ??0HRCParserImpl@@QEAA@XZ  0000000180028fe0 f   colorer_lib:HRCParserImpl.cpp.obj
 0001:00028160       ??_EHRCParserImpl@@UEAAPEAXI@Z 0000000180029160 f i  CIL library: CIL module
 0001:00028160       ??_GHRCParserImpl@@UEAAPEAXI@Z 0000000180029160 f i colorer_lib:HRCParserImpl.cpp.obj
 0001:000281a0       ??1HRCParserImpl@@UEAA@XZ  00000001800291a0 f   colorer_lib:HRCParserImpl.cpp.obj
 0001:00028540       ?setErrorHandler@HRCParserImpl@@UEAAXPEAVErrorHandler@colorer@@@Z 0000000180029540 f   colorer_lib:HRCParserImpl.cpp.obj
 0001:00028550       ?loadSource@HRCParserImpl@@UEAAXPEAVXmlInputSource@@@Z 0000000180029550 f   colorer_lib:HRCParserImpl.cpp.obj
 0001:00028630       ?unloadFileType@HRCParserImpl@@IEAAXPEAVFileTypeImpl@@@Z 0000000180029630 f   colorer_lib:HRCParserImpl.cpp.obj
 0001:00028740       ?loadFileType@HRCParserImpl@@IEAAXPEAVFileType@@@Z 0000000180029740 f   colorer_lib:HRCParserImpl.cpp.obj
 0001:00028790       ?chooseFileType@HRCParserImpl@@UEAAPEAVFileType@@PEBVString@@0H@Z 0000000180029790 f   colorer_lib:HRCParserImpl.cpp.obj
 0001:000288c0       ?getFileType@HRCParserImpl@@UEAAPEAVFileType@@PEBVString@@@Z 00000001800298c0 f   colorer_lib:HRCParserImpl.cpp.obj
 0001:000288e0       ?enumerateFileTypes@HRCParserImpl@@UEAAPEAVFileType@@H@Z 00000001800298e0 f   colorer_lib:HRCParserImpl.cpp.obj
 0001:00028940       ?getFileTypesCount@HRCParserImpl@@UEAAHXZ 0000000180029940 f   colorer_lib:HRCParserImpl.cpp.obj
 0001:00028950       ?getRegionCount@HRCParserImpl@@UEAAHXZ 0000000180029950 f   colorer_lib:HRCParserImpl.cpp.obj
 0001:00028960       ?getRegion@HRCParserImpl@@UEAAPEBVRegion@@H@Z 0000000180029960 f   colorer_lib:HRCParserImpl.cpp.obj
 0001:000289a0       ?getRegion@HRCParserImpl@@UEAAPEBVRegion@@PEBVString@@@Z 00000001800299a0 f   colorer_lib:HRCParserImpl.cpp.obj
 0001:000289b0       ?getVersion@HRCParserImpl@@UEAAPEBVString@@XZ 00000001800299b0 f   colorer_lib:HRCParserImpl.cpp.obj
 0001:000289c0       ?parseHRC@HRCParserImpl@@IEAAXPEAVXmlInputSource@@@Z 00000001800299c0 f   colorer_lib:HRCParserImpl.cpp.obj
 0001:00028e90       ??0HRCParserException@@QEAA@AEBV0@@Z 0000000180029e90 f i colorer_lib:HRCParserImpl.cpp.obj
 0001:00028ec0       ?parseHrcBlock@HRCParserImpl@@IEAAXPEBVDOMElement@xercesc_3_1@@@Z 0000000180029ec0 f   colorer_lib:HRCParserImpl.cpp.obj
 0001:00028f60       ?parseHrcBlockElements@HRCParserImpl@@IEAAXPEBVDOMElement@xercesc_3_1@@@Z 0000000180029f60 f   colorer_lib:HRCParserImpl.cpp.obj
 0001:00029470       ?addPrototype@HRCParserImpl@@IEAAXPEBVDOMElement@xercesc_3_1@@@Z 000000018002a470 f   colorer_lib:HRCParserImpl.cpp.obj
 0001:00029d20       ?parsePrototypeBlock@HRCParserImpl@@IEAAXPEBVDOMElement@xercesc_3_1@@@Z 000000018002ad20 f   colorer_lib:HRCParserImpl.cpp.obj
 0001:00029f20       ?addPrototypeLocation@HRCParserImpl@@IEAAXPEBVDOMElement@xercesc_3_1@@@Z 000000018002af20 f   colorer_lib:HRCParserImpl.cpp.obj
 0001:0002a030       ?addPrototypeDetectParam@HRCParserImpl@@IEAAXPEBVDOMElement@xercesc_3_1@@@Z 000000018002b030 f   colorer_lib:HRCParserImpl.cpp.obj
 0001:0002a580       ?addPrototypeParameters@HRCParserImpl@@IEAAXPEBVDOMElement@xercesc_3_1@@@Z 000000018002b580 f   colorer_lib:HRCParserImpl.cpp.obj
 0001:0002b0c0       ?addType@HRCParserImpl@@IEAAXPEBVDOMElement@xercesc_3_1@@@Z 000000018002c0c0 f   colorer_lib:HRCParserImpl.cpp.obj
 0001:0002b5e0       ?parseTypeBlock@HRCParserImpl@@IEAAXPEBVDOMElement@xercesc_3_1@@@Z 000000018002c5e0 f   colorer_lib:HRCParserImpl.cpp.obj
 0001:0002b870       ?addTypeRegion@HRCParserImpl@@IEAAXPEBVDOMElement@xercesc_3_1@@@Z 000000018002c870 f   colorer_lib:HRCParserImpl.cpp.obj
 0001:0002bd20       ?addTypeEntity@HRCParserImpl@@IEAAXPEBVDOMElement@xercesc_3_1@@@Z 000000018002cd20 f   colorer_lib:HRCParserImpl.cpp.obj
 0001:0002bfc0       ?addTypeImport@HRCParserImpl@@IEAAXPEBVDOMElement@xercesc_3_1@@@Z 000000018002cfc0 f   colorer_lib:HRCParserImpl.cpp.obj
 0001:0002c3a0       ?addScheme@HRCParserImpl@@IEAAXPEBVDOMElement@xercesc_3_1@@@Z 000000018002d3a0 f   colorer_lib:HRCParserImpl.cpp.obj
 0001:0002c990       ?parseSchemeBlock@HRCParserImpl@@IEAAXPEAVSchemeImpl@@PEBVDOMElement@xercesc_3_1@@@Z 000000018002d990 f   colorer_lib:HRCParserImpl.cpp.obj
 0001:0002cc50       ?addSchemeInherit@HRCParserImpl@@IEAAXPEAVSchemeImpl@@PEBVDOMElement@xercesc_3_1@@@Z 000000018002dc50 f   colorer_lib:HRCParserImpl.cpp.obj
 0001:0002d320       ?addSchemeRegexp@HRCParserImpl@@IEAAXPEAVSchemeImpl@@PEBVDOMElement@xercesc_3_1@@@Z 000000018002e320 f   colorer_lib:HRCParserImpl.cpp.obj
 0001:0002db40       ?addSchemeBlock@HRCParserImpl@@IEAAXPEAVSchemeImpl@@PEBVDOMElement@xercesc_3_1@@@Z 000000018002eb40 f   colorer_lib:HRCParserImpl.cpp.obj
 0001:0002ed40       ?addSchemeKeywords@HRCParserImpl@@IEAAXPEAVSchemeImpl@@PEBVDOMElement@xercesc_3_1@@@Z 000000018002fd40 f   colorer_lib:HRCParserImpl.cpp.obj
 0001:0002f3e0       ?addKeyword@HRCParserImpl@@IEAAXPEAVSchemeNode@@PEBVRegion@@PEBVDOMElement@xercesc_3_1@@@Z 00000001800303e0 f   colorer_lib:HRCParserImpl.cpp.obj
 0001:0002f8c0       ?getSchemeKeywordsCount@HRCParserImpl@@IEAAHPEBVDOMElement@xercesc_3_1@@@Z 00000001800308c0 f   colorer_lib:HRCParserImpl.cpp.obj
 0001:0002fa10       ?loadRegions@HRCParserImpl@@IEAAXPEAVSchemeNode@@PEBVDOMElement@xercesc_3_1@@_N@Z 0000000180030a10 f   colorer_lib:HRCParserImpl.cpp.obj
 0001:0002fcd0       ?loadBlockRegions@HRCParserImpl@@IEAAXPEAVSchemeNode@@PEBVDOMElement@xercesc_3_1@@@Z 0000000180030cd0 f   colorer_lib:HRCParserImpl.cpp.obj
 0001:0002ff30       ?updateLinks@HRCParserImpl@@IEAAXXZ 0000000180030f30 f   colorer_lib:HRCParserImpl.cpp.obj
 0001:00030b80       ?qualifyOwnName@HRCParserImpl@@IEAAPEAVString@@PEBV2@@Z 0000000180031b80 f   colorer_lib:HRCParserImpl.cpp.obj
 0001:00030ff0       ?checkNameExist@HRCParserImpl@@IEAA_NPEBVString@@PEAVFileTypeImpl@@W4QualifyNameType@1@_N@Z 0000000180031ff0 f   colorer_lib:HRCParserImpl.cpp.obj
 0001:00031290       ?qualifyForeignName@HRCParserImpl@@IEAAPEAVString@@PEBV2@W4QualifyNameType@1@_N@Z 0000000180032290 f   colorer_lib:HRCParserImpl.cpp.obj
 0001:00031d70       ?useEntities@HRCParserImpl@@IEAAPEAVString@@PEBV2@@Z 0000000180032d70 f   colorer_lib:HRCParserImpl.cpp.obj
 0001:00032080       ?getNCRegion@HRCParserImpl@@IEAAPEBVRegion@@PEBVString@@_N@Z 0000000180033080 f   colorer_lib:HRCParserImpl.cpp.obj
 0001:000321e0       ?getNCRegion@HRCParserImpl@@IEAAPEBVRegion@@PEBVDOMElement@xercesc_3_1@@AEBVString@@@Z 00000001800331e0 f   colorer_lib:HRCParserImpl.cpp.obj
 0001:000322e0       ??1?$Hashtable@PEAVFileTypeImpl@@@@UEAA@XZ 00000001800332e0 f i colorer_lib:HRCParserImpl.cpp.obj
 0001:00032310       ??1?$Hashtable@PEAVSchemeImpl@@@@UEAA@XZ 0000000180033310 f i colorer_lib:HRCParserImpl.cpp.obj
 0001:00032340       ??1?$Hashtable@H@@UEAA@XZ  0000000180033340 f i colorer_lib:HRCParserImpl.cpp.obj
 0001:00032370       ?get@?$Hashtable@H@@QEBAHPEBVString@@@Z 0000000180033370 f i colorer_lib:HRCParserImpl.cpp.obj
 0001:000323f0       ??1?$Hashtable@PEBVRegion@@@@UEAA@XZ 00000001800333f0 f i colorer_lib:HRCParserImpl.cpp.obj
 0001:00032420       ??1?$Hashtable@PEAVString@@@@UEAA@XZ 0000000180033420 f i colorer_lib:HRCParserImpl.cpp.obj
 0001:00032450       ??_G?$HashtableCore@PEAVFileTypeImpl@@@@UEAAPEAXI@Z 0000000180033450 f i colorer_lib:HRCParserImpl.cpp.obj
 0001:00032450       ??_E?$HashtableCore@PEAVFileTypeImpl@@@@UEAAPEAXI@Z 0000000180033450 f i  CIL library: CIL module
 0001:00032450       ??_G?$Hashtable@PEAVFileTypeImpl@@@@UEAAPEAXI@Z 0000000180033450 f i colorer_lib:HRCParserImpl.cpp.obj
 0001:00032450       ??_E?$Hashtable@PEAVFileTypeImpl@@@@UEAAPEAXI@Z 0000000180033450 f i  CIL library: CIL module
 0001:000324a0       ??_G?$HashtableCore@PEAVSchemeImpl@@@@UEAAPEAXI@Z 00000001800334a0 f i colorer_lib:HRCParserImpl.cpp.obj
 0001:000324a0       ??_E?$Hashtable@PEAVSchemeImpl@@@@UEAAPEAXI@Z 00000001800334a0 f i  CIL library: CIL module
 0001:000324a0       ??_E?$HashtableCore@PEAVSchemeImpl@@@@UEAAPEAXI@Z 00000001800334a0 f i  CIL library: CIL module
 0001:000324a0       ??_G?$Hashtable@PEAVSchemeImpl@@@@UEAAPEAXI@Z 00000001800334a0 f i colorer_lib:HRCParserImpl.cpp.obj
 0001:000324f0       ??_E?$HashtableCore@H@@UEAAPEAXI@Z 00000001800334f0 f i  CIL library: CIL module
 0001:000324f0       ??_G?$Hashtable@H@@UEAAPEAXI@Z 00000001800334f0 f i colorer_lib:HRCParserImpl.cpp.obj
 0001:000324f0       ??_E?$Hashtable@H@@UEAAPEAXI@Z 00000001800334f0 f i  CIL library: CIL module
 0001:000324f0       ??_G?$HashtableCore@H@@UEAAPEAXI@Z 00000001800334f0 f i colorer_lib:HRCParserImpl.cpp.obj
 0001:00032540       ??_E?$Hashtable@PEBVRegion@@@@UEAAPEAXI@Z 0000000180033540 f i  CIL library: CIL module
 0001:00032540       ??_G?$Hashtable@PEBVRegion@@@@UEAAPEAXI@Z 0000000180033540 f i colorer_lib:HRCParserImpl.cpp.obj
 0001:00032540       ??_E?$HashtableCore@PEBVRegion@@@@UEAAPEAXI@Z 0000000180033540 f i  CIL library: CIL module
 0001:00032540       ??_G?$HashtableCore@PEBVRegion@@@@UEAAPEAXI@Z 0000000180033540 f i colorer_lib:HRCParserImpl.cpp.obj
 0001:00032590       ??0?$HashtableCore@PEAVFileTypeImpl@@@@QEAA@HN@Z 0000000180033590 f i colorer_lib:HRCParserImpl.cpp.obj
 0001:00032620       ?remove@?$HashtableCore@PEAVFarEditor@@@@QEAA_NPEBVString@@@Z 0000000180033620 f i FarEditorSet.cpp.obj
 0001:00032620       ?remove@?$HashtableCore@PEAVFileTypeImpl@@@@QEAA_NPEBVString@@@Z 0000000180033620 f i colorer_lib:HRCParserImpl.cpp.obj
 0001:00032620       ?remove@?$HashtableCore@PEAVString@@@@QEAA_NPEBVString@@@Z 0000000180033620 f i FarEditorSet.cpp.obj
 0001:00032620       ?remove@?$HashtableCore@PEAVSchemeImpl@@@@QEAA_NPEBVString@@@Z 0000000180033620 f i colorer_lib:HRCParserImpl.cpp.obj
 0001:000326f0       ?next_int@?$HashtableCore@PEAVFarEditor@@@@IEBAPEAPEAVFarEditor@@XZ 00000001800336f0 f i FarEditorSet.cpp.obj
 0001:000326f0       ?next_int@?$HashtableCore@PEAVSchemeImpl@@@@IEBAPEAPEAVSchemeImpl@@XZ 00000001800336f0 f i colorer_lib:HRCParserImpl.cpp.obj
 0001:000326f0       ?next_int@?$HashtableCore@PEAVRegionDefine@@@@IEBAPEAPEAVRegionDefine@@XZ 00000001800336f0 f i colorer_lib:StyledHRDMapper.cpp.obj
 0001:000326f0       ?next_int@?$HashtableCore@PEBVString@@@@IEBAPEAPEBVString@@XZ 00000001800336f0 f i colorer_lib:ParserFactory.cpp.obj
 0001:000326f0       ?next_int@?$HashtableCore@PEAVString@@@@IEBAPEAPEAVString@@XZ 00000001800336f0 f i colorer_lib:HRCParserImpl.cpp.obj
 0001:000326f0       ?next_int@?$HashtableCore@PEAV?$Vector@PEBVString@@@@@@IEBAPEAPEAV?$Vector@PEBVString@@@@XZ 00000001800336f0 f i colorer_lib:ParserFactory.cpp.obj
 0001:000326f0       ?next_int@?$HashtableCore@PEAV?$Hashtable@PEAV?$Vector@PEBVString@@@@@@@@IEBAPEAPEAV?$Hashtable@PEAV?$Vector@PEBVString@@@@@@XZ 00000001800336f0 f i colorer_lib:ParserFactory.cpp.obj
 0001:000326f0       ?next_int@?$HashtableCore@PEAVFileTypeImpl@@@@IEBAPEAPEAVFileTypeImpl@@XZ 00000001800336f0 f i colorer_lib:HRCParserImpl.cpp.obj
 0001:00032840       ??0?$HashtableCore@PEAVSchemeImpl@@@@QEAA@HN@Z 0000000180033840 f i colorer_lib:HRCParserImpl.cpp.obj
 0001:000328d0       ?put@?$HashtableCore@PEAVRegionDefine@@@@QEAA_NPEBVString@@PEAVRegionDefine@@@Z 00000001800338d0 f i colorer_lib:StyledHRDMapper.cpp.obj
 0001:000328d0       ?put@?$HashtableCore@PEAVString@@@@QEAA_NPEBVString@@PEAV2@@Z 00000001800338d0 f i FarHrcSettings.cpp.obj
 0001:000328d0       ?put@?$HashtableCore@PEBVRegion@@@@QEAA_NPEBVString@@PEBVRegion@@@Z 00000001800338d0 f i colorer_lib:HRCParserImpl.cpp.obj
 0001:000328d0       ?put@?$HashtableCore@PEAV?$Hashtable@PEAV?$Vector@PEBVString@@@@@@@@QEAA_NPEBVString@@PEAV?$Hashtable@PEAV?$Vector@PEBVString@@@@@@@Z 00000001800338d0 f i colorer_lib:ParserFactory.cpp.obj
 0001:000328d0       ?put@?$HashtableCore@PEBVString@@@@QEAA_NPEBVString@@0@Z 00000001800338d0 f i colorer_lib:ParserFactory.cpp.obj
 0001:000328d0       ?put@?$HashtableCore@PEAVSchemeImpl@@@@QEAA_NPEBVString@@PEAVSchemeImpl@@@Z 00000001800338d0 f i colorer_lib:HRCParserImpl.cpp.obj
 0001:000328d0       ?put@?$HashtableCore@PEAVFarEditor@@@@QEAA_NPEBVString@@PEAVFarEditor@@@Z 00000001800338d0 f i FarEditorSet.cpp.obj
 0001:000328d0       ?put@?$HashtableCore@PEAVFileTypeImpl@@@@QEAA_NPEBVString@@PEAVFileTypeImpl@@@Z 00000001800338d0 f i colorer_lib:HRCParserImpl.cpp.obj
 0001:000328d0       ?put@?$HashtableCore@PEAV?$Vector@PEBVString@@@@@@QEAA_NPEBVString@@PEAV?$Vector@PEBVString@@@@@Z 00000001800338d0 f i colorer_lib:ParserFactory.cpp.obj
 0001:000329e0       ??0?$HashtableCore@H@@QEAA@XZ 00000001800339e0 f i colorer_lib:HRCParserImpl.cpp.obj
 0001:00032a60       ??0?$HashtableCore@PEBVRegion@@@@QEAA@HN@Z 0000000180033a60 f i colorer_lib:HRCParserImpl.cpp.obj
 0001:00032af0       ??0?$HashtableCore@PEAVString@@@@QEAA@XZ 0000000180033af0 f i colorer_lib:HRCParserImpl.cpp.obj
 0001:00032b70       ??_E?$HashtableCore@PEAVString@@@@UEAAPEAXI@Z 0000000180033b70 f i  CIL library: CIL module
 0001:00032b70       ??_G?$Hashtable@PEAVString@@@@UEAAPEAXI@Z 0000000180033b70 f i colorer_lib:HRCParserImpl.cpp.obj
 0001:00032b70       ??_E?$Hashtable@PEAVString@@@@UEAAPEAXI@Z 0000000180033b70 f i  CIL library: CIL module
 0001:00032b70       ??_G?$HashtableCore@PEAVString@@@@UEAAPEAXI@Z 0000000180033b70 f i colorer_lib:HRCParserImpl.cpp.obj
 0001:00032bc0       ?insertElementAt@?$Vector@PEAVString@@@@QEAAXQEAVString@@H@Z 0000000180033bc0 f i FarEditorSet.cpp.obj
 0001:00032bc0       ?insertElementAt@?$Vector@PEAVSchemeNode@@@@QEAAXQEAVSchemeNode@@H@Z 0000000180033bc0 f i colorer_lib:HRCParserImpl.cpp.obj
 0001:00032bc0       ?insertElementAt@?$Vector@PEBVRegion@@@@QEAAXQEBVRegion@@H@Z 0000000180033bc0 f i colorer_lib:HRCParserImpl.cpp.obj
 0001:00032bc0       ?insertElementAt@?$Vector@PEAVFileTypeImpl@@@@QEAAXQEAVFileTypeImpl@@H@Z 0000000180033bc0 f i colorer_lib:HRCParserImpl.cpp.obj
 0001:00032bc0       ?insertElementAt@?$Vector@PEAE@@QEAAXQEAEH@Z 0000000180033bc0 f i colorer_lib:MemoryChunks.cpp.obj
 0001:00032bc0       ?insertElementAt@?$Vector@PEAVOutlineItem@@@@QEAAXQEAVOutlineItem@@H@Z 0000000180033bc0 f i colorer_lib:Outliner.cpp.obj
 0001:00032bc0       ?insertElementAt@?$Vector@PEAVVirtualEntry@@@@QEAAXQEAVVirtualEntry@@H@Z 0000000180033bc0 f i colorer_lib:HRCParserImpl.cpp.obj
 0001:00032bc0       ?insertElementAt@?$Vector@PEAVLineRegion@@@@QEAAXQEAVLineRegion@@H@Z 0000000180033bc0 f i colorer_lib:LineRegionsSupport.cpp.obj
 0001:00032bc0       ?insertElementAt@?$Vector@PEBVString@@@@QEAAXQEBVString@@H@Z 0000000180033bc0 f i colorer_lib:ParserFactory.cpp.obj
 0001:00032bc0       ?insertElementAt@?$Vector@PEAVFileTypeChooser@@@@QEAAXQEAVFileTypeChooser@@H@Z 0000000180033bc0 f i colorer_lib:HRCParserImpl.cpp.obj
 0001:00032bc0       ?insertElementAt@?$Vector@PEAVRegionHandler@@@@QEAAXQEAVRegionHandler@@H@Z 0000000180033bc0 f i colorer_lib:BaseEditor.cpp.obj
 0001:00032bc0       ?insertElementAt@?$Vector@PEAVEditorListener@@@@QEAAXQEAVEditorListener@@H@Z 0000000180033bc0 f i colorer_lib:BaseEditor.cpp.obj
 0001:00032d30       ??1TextParser@@UEAA@XZ     0000000180033d30 f i colorer_lib:TextParserImpl.cpp.obj
 0001:00032d40       ??_GTextParser@@UEAAPEAXI@Z 0000000180033d40 f i colorer_lib:TextParserImpl.cpp.obj
 0001:00032d40       ??_ETextParser@@UEAAPEAXI@Z 0000000180033d40 f i  CIL library: CIL module
 0001:00032d70       ??0TextParserImpl@@QEAA@XZ 0000000180033d70 f   colorer_lib:TextParserImpl.cpp.obj
 0001:00032e30       ??_ETextParserImpl@@UEAAPEAXI@Z 0000000180033e30 f i  CIL library: CIL module
 0001:00032e30       ??_GTextParserImpl@@UEAAPEAXI@Z 0000000180033e30 f i colorer_lib:TextParserImpl.cpp.obj
 0001:00032ec0       ?setFileType@TextParserImpl@@UEAAXPEAVFileType@@@Z 0000000180033ec0 f   colorer_lib:TextParserImpl.cpp.obj
 0001:00032f00       ?setLineSource@TextParserImpl@@UEAAXPEAVLineSource@@@Z 0000000180033f00 f   colorer_lib:TextParserImpl.cpp.obj
 0001:00032f10       ?setRegionHandler@TextParserImpl@@UEAAXPEAVRegionHandler@@@Z 0000000180033f10 f   colorer_lib:TextParserImpl.cpp.obj
 0001:00032f20       ?parse@TextParserImpl@@UEAAHHHW4TextParseMode@@@Z 0000000180033f20 f   colorer_lib:TextParserImpl.cpp.obj
 0001:000331f0       ??_GVTList@@QEAAPEAXI@Z    00000001800341f0 f i colorer_lib:TextParserImpl.cpp.obj
 0001:00033230       ?clearCache@TextParserImpl@@UEAAXXZ 0000000180034230 f   colorer_lib:TextParserImpl.cpp.obj
 0001:00033320       ?addRegion@TextParserImpl@@AEAAXHHHPEBVRegion@@@Z 0000000180034320 f   colorer_lib:TextParserImpl.cpp.obj
 0001:00033360       ?enterScheme@TextParserImpl@@AEAAXHPEAUSMatches@@PEBVSchemeNode@@@Z 0000000180034360 f   colorer_lib:TextParserImpl.cpp.obj
 0001:000334e0       ?leaveScheme@TextParserImpl@@AEAAXHPEAUSMatches@@PEBVSchemeNode@@@Z 00000001800344e0 f   colorer_lib:TextParserImpl.cpp.obj
 0001:00033670       ?fillInvisibleSchemes@TextParserImpl@@AEAAXPEAVParseCache@@@Z 0000000180034670 f   colorer_lib:TextParserImpl.cpp.obj
 0001:000336e0       ?searchKW@TextParserImpl@@AEAAHPEBVSchemeNode@@HHH@Z 00000001800346e0 f   colorer_lib:TextParserImpl.cpp.obj
 0001:00033aa0       ?searchRE@TextParserImpl@@AEAAHPEAVSchemeImpl@@HHH@Z 0000000180034aa0 f   colorer_lib:TextParserImpl.cpp.obj
 0001:00034390       ?colorize@TextParserImpl@@AEAA_NPEAVCRegExp@@_N@Z 0000000180035390 f   colorer_lib:TextParserImpl.cpp.obj
 0001:00034850       ??1SRegInfo@@QEAA@XZ       0000000180035850 f   colorer_lib:cregexp.cpp.obj
 0001:000348f0       ??_GCharacterClass@@QEAAPEAXI@Z 00000001800358f0 f i colorer_lib:cregexp.cpp.obj
 0001:00034920       ??0CRegExp@@QEAA@PEBVString@@@Z 0000000180035920 f   colorer_lib:cregexp.cpp.obj
 0001:00034980       ??1CRegExp@@QEAA@XZ        0000000180035980 f   colorer_lib:cregexp.cpp.obj
 0001:000349f0       ?setRELow@CRegExp@@AEAA?AW4EError@@AEBVString@@@Z 00000001800359f0 f   colorer_lib:cregexp.cpp.obj
 0001:00034d60       ?optimize@CRegExp@@AEAAXXZ 0000000180035d60 f   colorer_lib:cregexp.cpp.obj
 0001:00034de0       ?setStructs@CRegExp@@AEAA?AW4EError@@AEAPEAVSRegInfo@@AEBVString@@AEAH@Z 0000000180035de0 f   colorer_lib:cregexp.cpp.obj
 0001:00036280       ?isWordBoundary@CRegExp@@AEAA_NAEAH@Z 0000000180037280 f   colorer_lib:cregexp.cpp.obj
 0001:000363a0       ?checkMetaSymbol@CRegExp@@AEAA_NW4EMetaSymbols@@AEAH@Z 00000001800373a0 f   colorer_lib:cregexp.cpp.obj
 0001:000369b0       ?insert_stack@CRegExp@@AEAAXPEAPEAVSRegInfo@@0PEAHPEA_NHH00H@Z 00000001800379b0 f   colorer_lib:cregexp.cpp.obj
 0001:00036b30       ?lowParse@CRegExp@@AEAA_NPEAVSRegInfo@@0H@Z 0000000180037b30 f   colorer_lib:cregexp.cpp.obj
 0001:00037880       ?quickCheck@CRegExp@@AEAA_NH@Z 0000000180038880 f i colorer_lib:cregexp.cpp.obj
 0001:00037910       ?parseRE@CRegExp@@AEAA_NH@Z 0000000180038910 f i colorer_lib:cregexp.cpp.obj
 0001:00037a20       ?getBracketNo@CRegExp@@QEAAHPEBVString@@@Z 0000000180038a20 f   colorer_lib:cregexp.cpp.obj
 0001:00037c40       ?resolveEntity@BaseEntityResolver@@UEAAPEAVInputSource@xercesc_3_1@@PEAVXMLResourceIdentifier@3@@Z 0000000180038c40 f   colorer_lib:BaseEntityResolver.cpp.obj
 0001:00037d10       ?getRegionDefine@RegionMapperImpl@@UEBAPEBVRegionDefine@@PEBVRegion@@@Z 0000000180038d10 f   colorer_lib:RegionMapperImpl.cpp.obj
 0001:00037e70       ?getRegionDefine@RegionMapperImpl@@UEBAPEBVRegionDefine@@AEBVString@@@Z 0000000180038e70 f   colorer_lib:RegionMapperImpl.cpp.obj
 0001:00037e80       ?setSize@?$Vector@PEAVOutlineItem@@@@QEAAXH@Z 0000000180038e80 f i colorer_lib:Outliner.cpp.obj
 0001:00037e80       ?setSize@?$Vector@PEBVRegionDefine@@@@QEAAXH@Z 0000000180038e80 f i colorer_lib:RegionMapperImpl.cpp.obj
 0001:00037e80       ?setSize@?$Vector@PEAVLineRegion@@@@QEAAXH@Z 0000000180038e80 f i colorer_lib:LineRegionsSupport.cpp.obj
 0001:00037f50       ?ensureCapacity@?$Vector@PEAVOutlineItem@@@@QEAAXH@Z 0000000180038f50 f i colorer_lib:Outliner.cpp.obj
 0001:00037f50       ?ensureCapacity@?$Vector@PEAVString@@@@QEAAXH@Z 0000000180038f50 f i colorer_lib:TextLinesStore.cpp.obj
 0001:00037f50       ?ensureCapacity@?$Vector@PEBVRegionDefine@@@@QEAAXH@Z 0000000180038f50 f i colorer_lib:RegionMapperImpl.cpp.obj
 0001:00037f50       ?ensureCapacity@?$Vector@PEAVLineRegion@@@@QEAAXH@Z 0000000180038f50 f i colorer_lib:LineRegionsSupport.cpp.obj
 0001:00037ff0       ?getNumber@UnicodeTools@@SA_NPEBVString@@PEAN@Z 0000000180038ff0 f   colorer_lib:UnicodeTools.cpp.obj
 0001:00038430       ?getNumber@UnicodeTools@@SAHPEBVString@@@Z 0000000180039430 f   colorer_lib:UnicodeTools.cpp.obj
 0001:000384e0       ?getHex@UnicodeTools@@SAH_W@Z 00000001800394e0 f   colorer_lib:UnicodeTools.cpp.obj
 0001:00038550       ?getHexNumber@UnicodeTools@@SAHPEBVString@@@Z 0000000180039550 f   colorer_lib:UnicodeTools.cpp.obj
 0001:00038650       ?getCurlyContent@UnicodeTools@@SAPEAVDString@@AEBVString@@H@Z 0000000180039650 f   colorer_lib:UnicodeTools.cpp.obj
 0001:00038800       ?getEscapedChar@UnicodeTools@@SA_WAEBVString@@HAEAH@Z 0000000180039800 f   colorer_lib:UnicodeTools.cpp.obj
 0001:00038960       ?write@Writer@@UEAAXAEBVString@@@Z 0000000180039960 f   colorer_lib:Writer.cpp.obj
 0001:000389b0       ?write@Writer@@UEAAXPEBVString@@@Z 00000001800399b0 f   colorer_lib:Writer.cpp.obj
 0001:000389c0       ?write@Writer@@UEAAXAEBVString@@HH@Z 00000001800399c0 f   colorer_lib:Writer.cpp.obj
 0001:00038a30       ?write@Writer@@UEAAXPEBVString@@HH@Z 0000000180039a30 f   colorer_lib:Writer.cpp.obj
 0001:00039a60       unzClose                   000000018003aa60 f   colorer_lib:unzip.c.obj
 0001:00039f60       unzGetCurrentFileInfo      000000018003af60 f   colorer_lib:unzip.c.obj
 0001:0003a020       unzGoToFirstFile           000000018003b020 f   colorer_lib:unzip.c.obj
 0001:0003a090       unzGoToNextFile            000000018003b090 f   colorer_lib:unzip.c.obj
 0001:0003a140       unzLocateFile              000000018003b140 f   colorer_lib:unzip.c.obj
 0001:0003a590       unzOpenCurrentFile3        000000018003b590 f   colorer_lib:unzip.c.obj
 0001:0003a770       unzReadCurrentFile         000000018003b770 f   colorer_lib:unzip.c.obj
 0001:0003aa80       unzCloseCurrentFile        000000018003ba80 f   colorer_lib:unzip.c.obj
 0001:0003ab80       ??_GSharedXmlInputSource@@EEAAPEAXI@Z 000000018003bb80 f i colorer_lib:SharedXmlInputSource.cpp.obj
 0001:0003ab80       ??_ESharedXmlInputSource@@EEAAPEAXI@Z 000000018003bb80 f i  CIL library: CIL module
 0001:0003abc0       ??1SharedXmlInputSource@@EEAA@XZ 000000018003bbc0 f   colorer_lib:SharedXmlInputSource.cpp.obj
 0001:0003ad10       ?getSharedInputSource@SharedXmlInputSource@@SAPEAV1@PEB_W0@Z 000000018003bd10 f   colorer_lib:SharedXmlInputSource.cpp.obj
 0001:0003af40       ?openStream@SharedXmlInputSource@@QEAAXXZ 000000018003bf40 f   colorer_lib:SharedXmlInputSource.cpp.obj
 0001:0003afc0       ??_E?$HashtableCore@PEAVSharedXmlInputSource@@@@UEAAPEAXI@Z 000000018003bfc0 f i  CIL library: CIL module
 0001:0003afc0       ??_G?$HashtableCore@PEAVSharedXmlInputSource@@@@UEAAPEAXI@Z 000000018003bfc0 f i colorer_lib:SharedXmlInputSource.cpp.obj
 0001:0003afc0       ??_E?$Hashtable@PEAVSharedXmlInputSource@@@@UEAAPEAXI@Z 000000018003bfc0 f i  CIL library: CIL module
 0001:0003afc0       ??_G?$Hashtable@PEAVSharedXmlInputSource@@@@UEAAPEAXI@Z 000000018003bfc0 f i colorer_lib:SharedXmlInputSource.cpp.obj
 0001:0003b010       ??0?$HashtableCore@PEAVSharedXmlInputSource@@@@QEAA@XZ 000000018003c010 f i colorer_lib:SharedXmlInputSource.cpp.obj
 0001:0003b090       ?put@?$HashtableCore@PEAVSharedXmlInputSource@@@@QEAA_NPEBVString@@PEAVSharedXmlInputSource@@@Z 000000018003c090 f i colorer_lib:SharedXmlInputSource.cpp.obj
 0001:0003b1a0       ?remove@?$HashtableCore@PEAVSharedXmlInputSource@@@@QEAA_NPEBVString@@@Z 000000018003c1a0 f i colorer_lib:SharedXmlInputSource.cpp.obj
 0001:0003b270       ?mem_open_file_func@@YAPEAXPEAXPEBDH@Z 000000018003c270 f   colorer_lib:MemoryFile.cpp.obj
 0001:0003b280       ?mem_read_file_func@@YAKPEAX00K@Z 000000018003c280 f   colorer_lib:MemoryFile.cpp.obj
 0001:0003b2d0       ?mem_tell_file_func@@YAJPEAX0@Z 000000018003c2d0 f   colorer_lib:MemoryFile.cpp.obj
 0001:0003b2e0       ?mem_seek_file_func@@YAJPEAX0KH@Z 000000018003c2e0 f   colorer_lib:MemoryFile.cpp.obj
 0001:0003b330       ?mem_error_file_func@@YAHPEAX0@Z 000000018003c330 f   colorer_lib:MemoryFile.cpp.obj
 0001:0003b340       ??1InputSource@colorer@@UEAA@XZ 000000018003c340 f i colorer_lib:JARInputSource.cpp.obj
 0001:0003b350       ??_EInputSource@colorer@@UEAAPEAXI@Z 000000018003c350 f i  CIL library: CIL module
 0001:0003b350       ??_GInputSource@colorer@@UEAAPEAXI@Z 000000018003c350 f i colorer_lib:JARInputSource.cpp.obj
 0001:0003b380       ??0JARInputSource@@QEAA@PEBVString@@PEAVInputSource@colorer@@@Z 000000018003c380 f   colorer_lib:JARInputSource.cpp.obj
 0001:0003ba90       ??_EJARInputSource@@UEAAPEAXI@Z 000000018003ca90 f i  CIL library: CIL module
 0001:0003ba90       ??_GJARInputSource@@UEAAPEAXI@Z 000000018003ca90 f i colorer_lib:JARInputSource.cpp.obj
 0001:0003bad0       ??1JARInputSource@@UEAA@XZ 000000018003cad0 f   colorer_lib:JARInputSource.cpp.obj
 0001:0003bb50       ??0JARInputSource@@IEAA@PEBVString@@PEAV0@_N@Z 000000018003cb50 f   colorer_lib:JARInputSource.cpp.obj
 0001:0003c140       ?createRelative@JARInputSource@@MEAAPEAVInputSource@colorer@@PEBVString@@@Z 000000018003d140 f   colorer_lib:JARInputSource.cpp.obj
 0001:0003c1a0       ?openStream@JARInputSource@@UEAAPEBEXZ 000000018003d1a0 f   colorer_lib:JARInputSource.cpp.obj
 0001:0003c7a0       ?closeStream@JARInputSource@@UEAAXXZ 000000018003d7a0 f   colorer_lib:JARInputSource.cpp.obj
 0001:0003c9a0       ?length@JARInputSource@@UEBAHXZ 000000018003d9a0 f   colorer_lib:JARInputSource.cpp.obj
 0001:0003ca20       ??0FileInputSource@@QEAA@PEBVString@@PEAV0@@Z 000000018003da20 f   colorer_lib:FileInputSource.cpp.obj
 0001:0003d380       ??_GFileInputSource@@UEAAPEAXI@Z 000000018003e380 f i colorer_lib:FileInputSource.cpp.obj
 0001:0003d380       ??_EFileInputSource@@UEAAPEAXI@Z 000000018003e380 f i  CIL library: CIL module
 0001:0003d400       ?createRelative@FileInputSource@@MEAAPEAVInputSource@colorer@@PEBVString@@@Z 000000018003e400 f   colorer_lib:FileInputSource.cpp.obj
 0001:0003d460       ?openStream@FileInputSource@@UEAAPEBEXZ 000000018003e460 f   colorer_lib:FileInputSource.cpp.obj
 0001:0003d750       ?closeStream@FileInputSource@@UEAAXXZ 000000018003e750 f   colorer_lib:FileInputSource.cpp.obj
 0001:0003d950       ?length@FileInputSource@@UEBAHXZ 000000018003e950 f   colorer_lib:FileInputSource.cpp.obj
 0001:0003d9d0       ??0KeywordList@@QEAA@XZ    000000018003e9d0 f   colorer_lib:HRCParserHelpers.cpp.obj
 0001:0003da60       ??1KeywordList@@QEAA@XZ    000000018003ea60 f   colorer_lib:HRCParserHelpers.cpp.obj
 0001:0003daf0       ?kwCompare@@YAHPEBX0@Z     000000018003eaf0 f   colorer_lib:HRCParserHelpers.cpp.obj
 0001:0003db00       ?kwCompareI@@YAHPEBX0@Z    000000018003eb00 f   colorer_lib:HRCParserHelpers.cpp.obj
 0001:0003db10       ?substrIndex@KeywordList@@QEAAXXZ 000000018003eb10 f   colorer_lib:HRCParserHelpers.cpp.obj
 0001:0003dd90       ??0SchemeNode@@QEAA@XZ     000000018003ed90 f   colorer_lib:HRCParserHelpers.cpp.obj
 0001:0003de60       ??1SchemeNode@@QEAA@XZ     000000018003ee60 f   colorer_lib:HRCParserHelpers.cpp.obj
 0001:0003dff0       ??1CharacterClass@@QEAA@XZ 000000018003eff0 f   colorer_lib:CharacterClass.cpp.obj
 0001:0003e020       ?createCharClass@CharacterClass@@SAPEAV1@AEBVString@@HPEAH@Z 000000018003f020 f   colorer_lib:CharacterClass.cpp.obj
 0001:0003eb80       ?addChar@CharacterClass@@QEAAX_W@Z 000000018003fb80 f   colorer_lib:CharacterClass.cpp.obj
 0001:0003ebf0       ?addRange@CharacterClass@@QEAAX_W0@Z 000000018003fbf0 f   colorer_lib:CharacterClass.cpp.obj
 0001:0003ecc0       ?addCategory@CharacterClass@@QEAAXW4ECharCategory@@@Z 000000018003fcc0 f   colorer_lib:CharacterClass.cpp.obj
 0001:0003ed90       ?addCategory@CharacterClass@@QEAAXAEBVString@@@Z 000000018003fd90 f   colorer_lib:CharacterClass.cpp.obj
 0001:0003ef80       ?addCategory@CharacterClass@@QEAAXPEBD@Z 000000018003ff80 f   colorer_lib:CharacterClass.cpp.obj
 0001:0003f040       ?clearCategory@CharacterClass@@QEAAXAEBVString@@@Z 0000000180040040 f   colorer_lib:CharacterClass.cpp.obj
 0001:0003f1a0       ?clearCategory@CharacterClass@@QEAAXPEBD@Z 00000001800401a0 f   colorer_lib:CharacterClass.cpp.obj
 0001:0003f260       ?addClass@CharacterClass@@QEAAXAEBV1@@Z 0000000180040260 f   colorer_lib:CharacterClass.cpp.obj
 0001:0003f390       ?intersectClass@CharacterClass@@QEAAXAEBV1@@Z 0000000180040390 f   colorer_lib:CharacterClass.cpp.obj
 0001:0003f4b0       ?clearClass@CharacterClass@@QEAAXAEBV1@@Z 00000001800404b0 f   colorer_lib:CharacterClass.cpp.obj
 0001:0003f5e0       ?clear@CharacterClass@@QEAAXXZ 00000001800405e0 f   colorer_lib:CharacterClass.cpp.obj
 0001:0003f660       ?fill@CharacterClass@@QEAAXXZ 0000000180040660 f   colorer_lib:CharacterClass.cpp.obj
 0001:0003f770       ?inClass@CharacterClass@@QEBA_N_W@Z 0000000180040770 f   colorer_lib:CharacterClass.cpp.obj
 0001:0003f7c0       ??1ParseCache@@QEAA@XZ     00000001800407c0 f   colorer_lib:TextParserHelpers.cpp.obj
 0001:0003f900       ?searchLine@ParseCache@@QEAAPEAV1@HPEAPEAV1@@Z 0000000180040900 f   colorer_lib:TextParserHelpers.cpp.obj
 0001:0003f990       ?deltree@VTList@@QEAAXXZ   0000000180040990 f   colorer_lib:TextParserHelpers.cpp.obj
 0001:0003f9d0       ?push@VTList@@QEAA_NPEAVSchemeNode@@@Z 00000001800409d0 f   colorer_lib:TextParserHelpers.cpp.obj
 0001:0003fa90       ?pushvirt@VTList@@QEAAPEAVSchemeImpl@@PEAV2@@Z 0000000180040a90 f   colorer_lib:TextParserHelpers.cpp.obj
 0001:0003fb70       ?clear@VTList@@QEAAXXZ     0000000180040b70 f   colorer_lib:TextParserHelpers.cpp.obj
 0001:0003fc00       ?store@VTList@@QEAAPEAPEAV?$Vector@PEAVVirtualEntry@@@@XZ 0000000180040c00 f   colorer_lib:TextParserHelpers.cpp.obj
 0001:0003fcb0       ?restore@VTList@@QEAA_NPEAPEAV?$Vector@PEAVVirtualEntry@@@@@Z 0000000180040cb0 f   colorer_lib:TextParserHelpers.cpp.obj
 0001:0003fec0       crc32                      0000000180040ec0 f   colorer_lib:crc32.c.obj
 0001:000401f0       inflateResetKeep           00000001800411f0 f   colorer_lib:inflate.c.obj
 0001:00040270       inflateReset2              0000000180041270 f   colorer_lib:inflate.c.obj
 0001:00040310       inflateInit2_              0000000180041310 f   colorer_lib:inflate.c.obj
 0001:000404d0       inflate                    00000001800414d0 f   colorer_lib:inflate.c.obj
 0001:00041ba0       ?getLocation@SharedInputSource@@UEBAPEBVString@@XZ 0000000180042ba0 f i colorer_lib:SharedInputSource.cpp.obj
 0001:00041bb0       ?openStream@SharedInputSource@@UEAAPEBEXZ 0000000180042bb0 f i colorer_lib:SharedInputSource.cpp.obj
 0001:00041bb0       ?getInputSource@SharedXmlInputSource@@UEAAPEAVInputSource@xercesc_3_1@@XZ 0000000180042bb0 f i colorer_lib:SharedXmlInputSource.cpp.obj
 0001:00041bc0       ?closeStream@SharedInputSource@@UEAAXXZ 0000000180042bc0 f i colorer_lib:SharedInputSource.cpp.obj
 0001:00041bd0       ?length@SharedInputSource@@UEBAHXZ 0000000180042bd0 f i colorer_lib:SharedInputSource.cpp.obj
 0001:00041be0       ??_ESharedInputSource@@EEAAPEAXI@Z 0000000180042be0 f i  CIL library: CIL module
 0001:00041be0       ??_GSharedInputSource@@EEAAPEAXI@Z 0000000180042be0 f i colorer_lib:SharedInputSource.cpp.obj
 0001:00041c20       ??1SharedInputSource@@EEAA@XZ 0000000180042c20 f   colorer_lib:SharedInputSource.cpp.obj
 0001:00041ca0       ?getInputSource@SharedInputSource@@SAPEAV1@PEBVString@@PEAVInputSource@colorer@@@Z 0000000180042ca0 f   colorer_lib:SharedInputSource.cpp.obj
 0001:00041da0       ?get@?$Hashtable@PEAVSharedInputSource@@@@QEBAPEAVSharedInputSource@@PEBVString@@@Z 0000000180042da0 f i colorer_lib:SharedInputSource.cpp.obj
 0001:00041e20       ??0?$HashtableCore@PEAVSharedInputSource@@@@QEAA@XZ 0000000180042e20 f i colorer_lib:SharedInputSource.cpp.obj
 0001:00041ea0       ?put@?$HashtableCore@PEAVSharedInputSource@@@@QEAA_NPEBVString@@PEAVSharedInputSource@@@Z 0000000180042ea0 f i colorer_lib:SharedInputSource.cpp.obj
 0001:00041fb0       ?remove@?$HashtableCore@PEAVSharedInputSource@@@@QEAA_NPEBVString@@@Z 0000000180042fb0 f i colorer_lib:SharedInputSource.cpp.obj
 0001:00042080       ??_E?$HashtableCore@PEAVSharedInputSource@@@@UEAAPEAXI@Z 0000000180043080 f i  CIL library: CIL module
 0001:00042080       ??_E?$Hashtable@PEAVSharedInputSource@@@@UEAAPEAXI@Z 0000000180043080 f i  CIL library: CIL module
 0001:00042080       ??_G?$HashtableCore@PEAVSharedInputSource@@@@UEAAPEAXI@Z 0000000180043080 f i colorer_lib:SharedInputSource.cpp.obj
 0001:00042080       ??_G?$Hashtable@PEAVSharedInputSource@@@@UEAAPEAXI@Z 0000000180043080 f i colorer_lib:SharedInputSource.cpp.obj
 0001:000420d0       ??0?$HashEntry@PEAVFarEditor@@@@QEAA@HPEBVString@@PEAVFarEditor@@PEAV0@@Z 00000001800430d0 f i FarEditorSet.cpp.obj
 0001:000420d0       ??0?$HashEntry@PEBVString@@@@QEAA@HPEBVString@@0PEAV0@@Z 00000001800430d0 f i colorer_lib:ParserFactory.cpp.obj
 0001:000420d0       ??0?$HashEntry@PEAVSchemeImpl@@@@QEAA@HPEBVString@@PEAVSchemeImpl@@PEAV0@@Z 00000001800430d0 f i colorer_lib:HRCParserImpl.cpp.obj
 0001:000420d0       ??0?$HashEntry@PEAVString@@@@QEAA@HPEBVString@@PEAV1@PEAV0@@Z 00000001800430d0 f i FarHrcSettings.cpp.obj
 0001:000420d0       ??0?$HashEntry@PEBVRegion@@@@QEAA@HPEBVString@@PEBVRegion@@PEAV0@@Z 00000001800430d0 f i colorer_lib:HRCParserImpl.cpp.obj
 0001:000420d0       ??0?$HashEntry@PEAVSharedXmlInputSource@@@@QEAA@HPEBVString@@PEAVSharedXmlInputSource@@PEAV0@@Z 00000001800430d0 f i colorer_lib:SharedXmlInputSource.cpp.obj
 0001:000420d0       ??0?$HashEntry@PEAV?$Vector@PEBVString@@@@@@QEAA@HPEBVString@@PEAV?$Vector@PEBVString@@@@PEAV0@@Z 00000001800430d0 f i colorer_lib:ParserFactory.cpp.obj
 0001:000420d0       ??0?$HashEntry@PEAVSharedInputSource@@@@QEAA@HPEBVString@@PEAVSharedInputSource@@PEAV0@@Z 00000001800430d0 f i colorer_lib:SharedInputSource.cpp.obj
 0001:000420d0       ??0?$HashEntry@PEAVFileTypeImpl@@@@QEAA@HPEBVString@@PEAVFileTypeImpl@@PEAV0@@Z 00000001800430d0 f i colorer_lib:HRCParserImpl.cpp.obj
 0001:000420d0       ??0?$HashEntry@PEAV?$Hashtable@PEAV?$Vector@PEBVString@@@@@@@@QEAA@HPEBVString@@PEAV?$Hashtable@PEAV?$Vector@PEBVString@@@@@@PEAV0@@Z 00000001800430d0 f i colorer_lib:ParserFactory.cpp.obj
 0001:000420d0       ??0?$HashEntry@PEAVRegionDefine@@@@QEAA@HPEBVString@@PEAVRegionDefine@@PEAV0@@Z 00000001800430d0 f i colorer_lib:StyledHRDMapper.cpp.obj
 0001:00042250       ?rehash@?$HashtableCore@PEAVFarEditor@@@@IEAAXXZ 0000000180043250 f i FarEditorSet.cpp.obj
 0001:00042250       ?rehash@?$HashtableCore@PEAV?$Hashtable@PEAV?$Vector@PEBVString@@@@@@@@IEAAXXZ 0000000180043250 f i colorer_lib:ParserFactory.cpp.obj
 0001:00042250       ?rehash@?$HashtableCore@PEAV?$Vector@PEBVString@@@@@@IEAAXXZ 0000000180043250 f i colorer_lib:ParserFactory.cpp.obj
 0001:00042250       ?rehash@?$HashtableCore@PEAVString@@@@IEAAXXZ 0000000180043250 f i FarHrcSettings.cpp.obj
 0001:00042250       ?rehash@?$HashtableCore@PEAVSharedInputSource@@@@IEAAXXZ 0000000180043250 f i colorer_lib:SharedInputSource.cpp.obj
 0001:00042250       ?rehash@?$HashtableCore@PEAVFileTypeImpl@@@@IEAAXXZ 0000000180043250 f i colorer_lib:HRCParserImpl.cpp.obj
 0001:00042250       ?rehash@?$HashtableCore@PEAVSharedXmlInputSource@@@@IEAAXXZ 0000000180043250 f i colorer_lib:SharedXmlInputSource.cpp.obj
 0001:00042250       ?rehash@?$HashtableCore@PEAVSchemeImpl@@@@IEAAXXZ 0000000180043250 f i colorer_lib:HRCParserImpl.cpp.obj
 0001:00042250       ?rehash@?$HashtableCore@PEBVString@@@@IEAAXXZ 0000000180043250 f i colorer_lib:ParserFactory.cpp.obj
 0001:00042250       ?rehash@?$HashtableCore@PEAVRegionDefine@@@@IEAAXXZ 0000000180043250 f i colorer_lib:StyledHRDMapper.cpp.obj
 0001:00042250       ?rehash@?$HashtableCore@PEBVRegion@@@@IEAAXXZ 0000000180043250 f i colorer_lib:HRCParserImpl.cpp.obj
 0001:000423a0       ?setBit@BitArray@@QEAAXH@Z 00000001800433a0 f   colorer_lib:BitArray.cpp.obj
 0001:00042430       ?clearBit@BitArray@@QEAAXH@Z 0000000180043430 f   colorer_lib:BitArray.cpp.obj
 0001:000424c0       ?addRange@BitArray@@QEAAXHH@Z 00000001800434c0 f   colorer_lib:BitArray.cpp.obj
 0001:00042600       ?addBitArray@BitArray@@QEAAXPEADH@Z 0000000180043600 f   colorer_lib:BitArray.cpp.obj
 0001:000426a0       ?clearBitArray@BitArray@@QEAAXPEADH@Z 00000001800436a0 f   colorer_lib:BitArray.cpp.obj
 0001:00042740       adler32                    0000000180043740 f   colorer_lib:adler32.c.obj
 0001:00042a50       inflate_fast               0000000180043a50 f   colorer_lib:inffast.c.obj
 0001:00042f40       zcalloc                    0000000180043f40 f   colorer_lib:zutil.c.obj
 0001:00042f50       zcfree                     0000000180043f50 f   colorer_lib:zutil.c.obj
 0001:00042f60       inflate_table              0000000180043f60 f   colorer_lib:inftrees.c.obj
 0001:000433c0       ??_EPanicHandler@xercesc_3_1@@UEAAPEAXI@Z 00000001800443c0 f i  CIL library: CIL module
 0001:000433c0       ??_GPanicHandler@xercesc_3_1@@UEAAPEAXI@Z 00000001800443c0 f i xerces-c_3_1:PlatformUtils.cpp.obj
 0001:000433ec       ??0XMLPlatformUtilsException@xercesc_3_1@@QEAA@AEBV01@@Z 00000001800443ec f i xerces-c_3_1:PlatformUtils.cpp.obj
 0001:00043410       ??1XMLPlatformUtilsException@xercesc_3_1@@UEAA@XZ 0000000180044410 f i xerces-c_3_1:PlatformUtils.cpp.obj
 0001:00043420       ?duplicate@XMLPlatformUtilsException@xercesc_3_1@@UEBAPEAVXMLException@2@XZ 0000000180044420 f i xerces-c_3_1:PlatformUtils.cpp.obj
 0001:00043484       ?getType@XMLPlatformUtilsException@xercesc_3_1@@UEBAPEB_WXZ 0000000180044484 f i xerces-c_3_1:PlatformUtils.cpp.obj
 0001:0004348c       ??_GXMLPlatformUtilsException@xercesc_3_1@@UEAAPEAXI@Z 000000018004448c f i xerces-c_3_1:PlatformUtils.cpp.obj
 0001:0004348c       ??_EXMLPlatformUtilsException@xercesc_3_1@@UEAAPEAXI@Z 000000018004448c f i  CIL library: CIL module
 0001:000434cc       ??0RuntimeException@xercesc_3_1@@QEAA@AEBV01@@Z 00000001800444cc f i xerces-c_3_1:PlatformUtils.cpp.obj
 0001:000434f0       ??1RuntimeException@xercesc_3_1@@UEAA@XZ 00000001800444f0 f i xerces-c_3_1:PlatformUtils.cpp.obj
 0001:00043500       ?duplicate@RuntimeException@xercesc_3_1@@UEBAPEAVXMLException@2@XZ 0000000180044500 f i xerces-c_3_1:PlatformUtils.cpp.obj
 0001:00043564       ?getType@RuntimeException@xercesc_3_1@@UEBAPEB_WXZ 0000000180044564 f i xerces-c_3_1:PlatformUtils.cpp.obj
 0001:0004356c       ??_ERuntimeException@xercesc_3_1@@UEAAPEAXI@Z 000000018004456c f i  CIL library: CIL module
 0001:0004356c       ??_GRuntimeException@xercesc_3_1@@UEAAPEAXI@Z 000000018004456c f i xerces-c_3_1:PlatformUtils.cpp.obj
 0001:000435ac       ??_EDefaultPanicHandler@xercesc_3_1@@UEAAPEAXI@Z 00000001800445ac f i  CIL library: CIL module
 0001:000435ac       ??_GDefaultPanicHandler@xercesc_3_1@@UEAAPEAXI@Z 00000001800445ac f i xerces-c_3_1:PlatformUtils.cpp.obj
 0001:000435dc       ??_EMemoryManager@xercesc_3_1@@UEAAPEAXI@Z 00000001800445dc f i  CIL library: CIL module
 0001:000435dc       ??_GMemoryManagerImpl@xercesc_3_1@@UEAAPEAXI@Z 00000001800445dc f i xerces-c_3_1:PlatformUtils.cpp.obj
 0001:000435dc       ??_GMemoryManager@xercesc_3_1@@UEAAPEAXI@Z 00000001800445dc f i xerces-c_3_1:PlatformUtils.cpp.obj
 0001:000435dc       ??_EMemoryManagerImpl@xercesc_3_1@@UEAAPEAXI@Z 00000001800445dc f i  CIL library: CIL module
 0001:00043608       ?Initialize@XMLPlatformUtils@xercesc_3_1@@SAXQEBD0QEAVPanicHandler@2@QEAVMemoryManager@2@@Z 0000000180044608 f   xerces-c_3_1:PlatformUtils.cpp.obj
 0001:0004389c       ?Terminate@XMLPlatformUtils@xercesc_3_1@@SAXXZ 000000018004489c f   xerces-c_3_1:PlatformUtils.cpp.obj
 0001:00043a54       ?loadAMsgSet@XMLPlatformUtils@xercesc_3_1@@CAPEAVXMLMsgLoader@2@QEB_W@Z 0000000180044a54 f   xerces-c_3_1:PlatformUtils.cpp.obj
 0001:00043aac       ?closeFile@XMLPlatformUtils@xercesc_3_1@@SAXPEAXQEAVMemoryManager@2@@Z 0000000180044aac f   xerces-c_3_1:PlatformUtils.cpp.obj
 0001:00043b24       ?writeBufferToFile@XMLPlatformUtils@xercesc_3_1@@SAXQEAX_KQEBEQEAVMemoryManager@2@@Z 0000000180044b24 f   xerces-c_3_1:PlatformUtils.cpp.obj
 0001:00043ba0       ?isRelative@XMLPlatformUtils@xercesc_3_1@@SA_NQEB_WQEAVMemoryManager@2@@Z 0000000180044ba0 f   xerces-c_3_1:PlatformUtils.cpp.obj
 0001:00043c18       ?weavePaths@XMLPlatformUtils@xercesc_3_1@@SAPEA_WQEB_W0QEAVMemoryManager@2@@Z 0000000180044c18 f   xerces-c_3_1:PlatformUtils.cpp.obj
 0001:00043d9c       ?removeDotSlash@XMLPlatformUtils@xercesc_3_1@@SAXQEA_WQEAVMemoryManager@2@@Z 0000000180044d9c f   xerces-c_3_1:PlatformUtils.cpp.obj
 0001:00043ef0       ?removeDotDotSlash@XMLPlatformUtils@xercesc_3_1@@SAXQEA_WQEAVMemoryManager@2@@Z 0000000180044ef0 f   xerces-c_3_1:PlatformUtils.cpp.obj
 0001:0004413c       ??0SAXException@xercesc_3_1@@QEAA@AEBV01@@Z 000000018004513c f i xerces-c_3_1:XercesDOMParser.cpp.obj
 0001:000441d0       ??1SAXException@xercesc_3_1@@UEAA@XZ 00000001800451d0 f i xerces-c_3_1:XercesDOMParser.cpp.obj
 0001:000441ec       ?getMessage@SAXException@xercesc_3_1@@UEBAPEB_WXZ 00000001800451ec f i xerces-c_3_1:XercesDOMParser.cpp.obj
 0001:000441ec       ?getLineNumber@DOMLocatorImpl@xercesc_3_1@@UEBA_KXZ 00000001800451ec f i xerces-c_3_1:DOMLocatorImpl.cpp.obj
 0001:000441ec       ?getByteStream@DOMLSOutputImpl@xercesc_3_1@@UEBAPEAVXMLFormatTarget@2@XZ 00000001800451ec f i xerces-c_3_1:DOMLSOutputImpl.cpp.obj
 0001:000441ec       ?getTargetNamespace@SchemaGrammar@xercesc_3_1@@UEBAPEB_WXZ 00000001800451ec f i xerces-c_3_1:SchemaGrammar.cpp.obj
 0001:000441ec       ?getLineNumber@XSDLocator@xercesc_3_1@@UEBA_KXZ 00000001800451ec f i xerces-c_3_1:XSDDOMParser.cpp.obj
 0001:000441ec       ?getStringData@DOMLSInputImpl@xercesc_3_1@@UEBAPEB_WXZ 00000001800451ec f i xerces-c_3_1:DOMLSInputImpl.cpp.obj
 0001:000441ec       ?getRoot@DOMNodeIteratorImpl@xercesc_3_1@@UEAAPEAVDOMNode@2@XZ 00000001800451ec f i xerces-c_3_1:DOMNodeIteratorImpl.cpp.obj
 0001:000441f4       ??_ESAXException@xercesc_3_1@@UEAAPEAXI@Z 00000001800451f4 f i  CIL library: CIL module
 0001:000441f4       ??_GSAXException@xercesc_3_1@@UEAAPEAXI@Z 00000001800451f4 f i xerces-c_3_1:XercesDOMParser.cpp.obj
 0001:0004423c       ??0IOException@xercesc_3_1@@QEAA@AEBV01@@Z 000000018004523c f i xerces-c_3_1:XercesDOMParser.cpp.obj
 0001:00044260       ??1IOException@xercesc_3_1@@UEAA@XZ 0000000180045260 f i xerces-c_3_1:XercesDOMParser.cpp.obj
 0001:00044270       ?duplicate@IOException@xercesc_3_1@@UEBAPEAVXMLException@2@XZ 0000000180045270 f i xerces-c_3_1:XercesDOMParser.cpp.obj
 0001:000442d4       ?getType@IOException@xercesc_3_1@@UEBAPEB_WXZ 00000001800452d4 f i xerces-c_3_1:XercesDOMParser.cpp.obj
 0001:000442dc       ??_EIOException@xercesc_3_1@@UEAAPEAXI@Z 00000001800452dc f i  CIL library: CIL module
 0001:000442dc       ??_GIOException@xercesc_3_1@@UEAAPEAXI@Z 00000001800452dc f i xerces-c_3_1:XercesDOMParser.cpp.obj
 0001:0004431c       ??0XercesDOMParser@xercesc_3_1@@QEAA@QEAVXMLValidator@1@QEAVMemoryManager@1@QEAVXMLGrammarPool@1@@Z 000000018004531c f   xerces-c_3_1:XercesDOMParser.cpp.obj
 0001:00044384       ??_GXercesDOMParser@xercesc_3_1@@UEAAPEAXI@Z 0000000180045384 f i xerces-c_3_1:XercesDOMParser.cpp.obj
 0001:00044384       ??_EXercesDOMParser@xercesc_3_1@@UEAAPEAXI@Z 0000000180045384 f i  CIL library: CIL module
 0001:000443c0       ??1XercesDOMParser@xercesc_3_1@@UEAA@XZ 00000001800453c0 f   xerces-c_3_1:XercesDOMParser.cpp.obj
 0001:000443fc       ?setErrorHandler@XercesDOMParser@xercesc_3_1@@QEAAXQEAVErrorHandler@2@@Z 00000001800453fc f   xerces-c_3_1:XercesDOMParser.cpp.obj
 0001:00044438       ?error@XercesDOMParser@xercesc_3_1@@UEAAXIQEB_WW4ErrTypes@XMLErrorReporter@2@000_K2@Z 0000000180045438 f   xerces-c_3_1:XercesDOMParser.cpp.obj
 0001:00044518       ?resolveEntity@XercesDOMParser@xercesc_3_1@@UEAAPEAVInputSource@2@PEAVXMLResourceIdentifier@2@@Z 0000000180045518 f   xerces-c_3_1:XercesDOMParser.cpp.obj
 0001:00044554       ??_EXercesDOMParser@xercesc_3_1@@WBI@EAAPEAXI@Z 0000000180045554 f i xerces-c_3_1:XercesDOMParser.cpp.obj
 0001:00044560       ??_EXercesDOMParser@xercesc_3_1@@WCA@EAAPEAXI@Z 0000000180045560 f i xerces-c_3_1:XercesDOMParser.cpp.obj
 0001:0004456c       ??_EXercesDOMParser@xercesc_3_1@@W7EAAPEAXI@Z 000000018004556c f i xerces-c_3_1:XercesDOMParser.cpp.obj
 0001:00044578       ??_EXercesDOMParser@xercesc_3_1@@WBA@EAAPEAXI@Z 0000000180045578 f i xerces-c_3_1:XercesDOMParser.cpp.obj
 0001:00044584       ??1AnnotationErrorReporter@xercesc_3_1@@UEAA@XZ 0000000180045584 f i xerces-c_3_1:TraverseSchema.cpp.obj
 0001:00044584       ??1XMLErrorReporter@xercesc_3_1@@UEAA@XZ 0000000180045584 f i xerces-c_3_1:AbstractDOMParser.cpp.obj
 0001:00044590       ??0ArrayIndexOutOfBoundsException@xercesc_3_1@@QEAA@AEBV01@@Z 0000000180045590 f i xerces-c_3_1:AbstractDOMParser.cpp.obj
 0001:000445b4       ??1ArrayIndexOutOfBoundsException@xercesc_3_1@@UEAA@XZ 00000001800455b4 f i xerces-c_3_1:AbstractDOMParser.cpp.obj
 0001:000445c4       ?duplicate@ArrayIndexOutOfBoundsException@xercesc_3_1@@UEBAPEAVXMLException@2@XZ 00000001800455c4 f i xerces-c_3_1:AbstractDOMParser.cpp.obj
 0001:00044628       ?getType@ArrayIndexOutOfBoundsException@xercesc_3_1@@UEBAPEB_WXZ 0000000180045628 f i xerces-c_3_1:AbstractDOMParser.cpp.obj
 0001:00044630       ??_EArrayIndexOutOfBoundsException@xercesc_3_1@@UEAAPEAXI@Z 0000000180045630 f i  CIL library: CIL module
 0001:00044630       ??_GArrayIndexOutOfBoundsException@xercesc_3_1@@UEAAPEAXI@Z 0000000180045630 f i xerces-c_3_1:AbstractDOMParser.cpp.obj
 0001:00044670       ?append@XMLBuffer@xercesc_3_1@@QEAAXQEB_W@Z 0000000180045670 f i xerces-c_3_1:AbstractDOMParser.cpp.obj
 0001:000446e0       ??1XMLDocumentHandler@xercesc_3_1@@UEAA@XZ 00000001800456e0 f i xerces-c_3_1:AbstractDOMParser.cpp.obj
 0001:000446ec       ??_EXMLDocumentHandler@xercesc_3_1@@UEAAPEAXI@Z 00000001800456ec f i  CIL library: CIL module
 0001:000446ec       ??_GXMLDocumentHandler@xercesc_3_1@@UEAAPEAXI@Z 00000001800456ec f i xerces-c_3_1:AbstractDOMParser.cpp.obj
 0001:00044718       ??1XMLEntityHandler@xercesc_3_1@@UEAA@XZ 0000000180045718 f i xerces-c_3_1:AbstractDOMParser.cpp.obj
 0001:00044724       ??_GXMLEntityHandler@xercesc_3_1@@UEAAPEAXI@Z 0000000180045724 f i xerces-c_3_1:AbstractDOMParser.cpp.obj
 0001:00044724       ??_EXMLEntityHandler@xercesc_3_1@@UEAAPEAXI@Z 0000000180045724 f i  CIL library: CIL module
 0001:00044750       ??1DocTypeHandler@xercesc_3_1@@UEAA@XZ 0000000180045750 f i xerces-c_3_1:AbstractDOMParser.cpp.obj
 0001:0004475c       ??_GDocTypeHandler@xercesc_3_1@@UEAAPEAXI@Z 000000018004575c f i xerces-c_3_1:AbstractDOMParser.cpp.obj
 0001:0004475c       ??_EDocTypeHandler@xercesc_3_1@@UEAAPEAXI@Z 000000018004575c f i  CIL library: CIL module
 0001:00044788       ??1XMLBufBid@xercesc_3_1@@QEAA@XZ 0000000180045788 f i xerces-c_3_1:AbstractDOMParser.cpp.obj
 0001:00044794       ??1PSVIHandler@xercesc_3_1@@UEAA@XZ 0000000180045794 f i xerces-c_3_1:AbstractDOMParser.cpp.obj
 0001:000447a0       ??_GPSVIHandler@xercesc_3_1@@UEAAPEAXI@Z 00000001800457a0 f i xerces-c_3_1:AbstractDOMParser.cpp.obj
 0001:000447a0       ??_EPSVIHandler@xercesc_3_1@@UEAAPEAXI@Z 00000001800457a0 f i  CIL library: CIL module
 0001:000447cc       ?setExternalSchemaLocation@XMLScanner@xercesc_3_1@@QEAAXQEB_W@Z 00000001800457cc f i xerces-c_3_1:AbstractDOMParser.cpp.obj
 0001:00044858       ?setExternalNoNamespaceSchemaLocation@XMLScanner@xercesc_3_1@@QEAAXQEB_W@Z 0000000180045858 f i xerces-c_3_1:AbstractDOMParser.cpp.obj
 0001:000448e4       ?getPooledString@DOMDocumentImpl@xercesc_3_1@@QEAAPEB_WPEB_W@Z 00000001800458e4 f i xerces-c_3_1:AbstractDOMParser.cpp.obj
 0001:00044a18       ??0AbstractDOMParser@xercesc_3_1@@IEAA@QEAVXMLValidator@1@QEAVMemoryManager@1@QEAVXMLGrammarPool@1@@Z 0000000180045a18 f   xerces-c_3_1:AbstractDOMParser.cpp.obj
 0001:00044ba4       ??_EAbstractDOMParser@xercesc_3_1@@UEAAPEAXI@Z 0000000180045ba4 f i  CIL library: CIL module
 0001:00044ba4       ??_GAbstractDOMParser@xercesc_3_1@@UEAAPEAXI@Z 0000000180045ba4 f i xerces-c_3_1:AbstractDOMParser.cpp.obj
 0001:00044be0       ??1AbstractDOMParser@xercesc_3_1@@UEAA@XZ 0000000180045be0 f   xerces-c_3_1:AbstractDOMParser.cpp.obj
 0001:00044c7c       ?cleanUp@AbstractDOMParser@xercesc_3_1@@AEAAXXZ 0000000180045c7c f   xerces-c_3_1:AbstractDOMParser.cpp.obj
 0001:00044d04       ??_GGrammarResolver@xercesc_3_1@@QEAAPEAXI@Z 0000000180045d04 f i xerces-c_3_1:AbstractDOMParser.cpp.obj
 0001:00044dfc       ?reset@AbstractDOMParser@xercesc_3_1@@QEAAXXZ 0000000180045dfc f   xerces-c_3_1:AbstractDOMParser.cpp.obj
 0001:00044f08       ?resetInProgress@AbstractDOMParser@xercesc_3_1@@AEAAXXZ 0000000180045f08 f   xerces-c_3_1:AbstractDOMParser.cpp.obj
 0001:00044f10       ?resetPool@AbstractDOMParser@xercesc_3_1@@IEAAXXZ 0000000180045f10 f   xerces-c_3_1:AbstractDOMParser.cpp.obj
 0001:00044fac       ?setPSVIHandler@AbstractDOMParser@xercesc_3_1@@UEAAXQEAVPSVIHandler@2@@Z 0000000180045fac f   xerces-c_3_1:AbstractDOMParser.cpp.obj
 0001:00044fdc       ?setValidationScheme@AbstractDOMParser@xercesc_3_1@@QEAAXW4ValSchemes@12@@Z 0000000180045fdc f   xerces-c_3_1:AbstractDOMParser.cpp.obj
 0001:00045010       ?parse@AbstractDOMParser@xercesc_3_1@@QEAAXAEBVInputSource@2@@Z 0000000180046010 f   xerces-c_3_1:AbstractDOMParser.cpp.obj
 0001:000450f8       ?parse@AbstractDOMParser@xercesc_3_1@@QEAAXQEB_W@Z 00000001800460f8 f   xerces-c_3_1:AbstractDOMParser.cpp.obj
 0001:000451e0       ?parse@AbstractDOMParser@xercesc_3_1@@QEAAXQEBD@Z 00000001800461e0 f   xerces-c_3_1:AbstractDOMParser.cpp.obj
 0001:000452c8       ?handleElementPSVI@AbstractDOMParser@xercesc_3_1@@UEAAXQEB_W0PEAVPSVIElement@2@@Z 00000001800462c8 f   xerces-c_3_1:AbstractDOMParser.cpp.obj
 0001:000455f8       ?handlePartialElementPSVI@AbstractDOMParser@xercesc_3_1@@UEAAXQEB_W0PEAVPSVIElement@2@@Z 00000001800465f8 f   xerces-c_3_1:AbstractDOMParser.cpp.obj
 0001:00045618       ?handleAttributesPSVI@AbstractDOMParser@xercesc_3_1@@UEAAXQEB_W0PEAVPSVIAttributeList@2@@Z 0000000180046618 f   xerces-c_3_1:AbstractDOMParser.cpp.obj
 0001:000459bc       ?docCharacters@AbstractDOMParser@xercesc_3_1@@UEAAXQEB_W_K_N@Z 00000001800469bc f   xerces-c_3_1:AbstractDOMParser.cpp.obj
 0001:00045a40       ?docComment@AbstractDOMParser@xercesc_3_1@@UEAAXQEB_W@Z 0000000180046a40 f   xerces-c_3_1:AbstractDOMParser.cpp.obj
 0001:00045a84       ?docPI@AbstractDOMParser@xercesc_3_1@@UEAAXQEB_W0@Z 0000000180046a84 f   xerces-c_3_1:AbstractDOMParser.cpp.obj
 0001:00045ac4       ?endEntityReference@AbstractDOMParser@xercesc_3_1@@UEAAXAEBVXMLEntityDecl@2@@Z 0000000180046ac4 f   xerces-c_3_1:AbstractDOMParser.cpp.obj
 0001:00045b40       ?endElement@AbstractDOMParser@xercesc_3_1@@UEAAXAEBVXMLElementDecl@2@I_NQEB_W@Z 0000000180046b40 f   xerces-c_3_1:AbstractDOMParser.cpp.obj
 0001:00045cb8       ?ignorableWhitespace@AbstractDOMParser@xercesc_3_1@@UEAAXQEB_W_K_N@Z 0000000180046cb8 f   xerces-c_3_1:AbstractDOMParser.cpp.obj
 0001:00045d68       ?resetDocument@AbstractDOMParser@xercesc_3_1@@UEAAXXZ 0000000180046d68 f   xerces-c_3_1:AbstractDOMParser.cpp.obj
 0001:00045d70       ?startDocument@AbstractDOMParser@xercesc_3_1@@UEAAXXZ 0000000180046d70 f   xerces-c_3_1:AbstractDOMParser.cpp.obj
 0001:00045e64       ?endDocument@AbstractDOMParser@xercesc_3_1@@UEAAXXZ 0000000180046e64 f   xerces-c_3_1:AbstractDOMParser.cpp.obj
 0001:00045e9c       ?startElement@AbstractDOMParser@xercesc_3_1@@UEAAXAEBVXMLElementDecl@2@IQEB_WAEBV?$RefVectorOf@VXMLAttr@xercesc_3_1@@@2@_K_N4@Z 0000000180046e9c f   xerces-c_3_1:AbstractDOMParser.cpp.obj
 0001:00046698       ?startEntityReference@AbstractDOMParser@xercesc_3_1@@UEAAXAEBVXMLEntityDecl@2@@Z 0000000180047698 f   xerces-c_3_1:AbstractDOMParser.cpp.obj
 0001:0004677c       ?XMLDecl@AbstractDOMParser@xercesc_3_1@@UEAAXQEB_W000@Z 000000018004777c f   xerces-c_3_1:AbstractDOMParser.cpp.obj
 0001:0004682c       ?attDef@AbstractDOMParser@xercesc_3_1@@UEAAXAEBVDTDElementDecl@2@AEBVDTDAttDef@2@_N@Z 000000018004782c f   xerces-c_3_1:AbstractDOMParser.cpp.obj
 0001:00046ce0       ?doctypeComment@AbstractDOMParser@xercesc_3_1@@UEAAXQEB_W@Z 0000000180047ce0 f   xerces-c_3_1:AbstractDOMParser.cpp.obj
 0001:00046e3c       ?doctypeDecl@AbstractDOMParser@xercesc_3_1@@UEAAXAEBVDTDElementDecl@2@QEB_W1_N2@Z 0000000180047e3c f   xerces-c_3_1:AbstractDOMParser.cpp.obj
 0001:00046e98       ?doctypePI@AbstractDOMParser@xercesc_3_1@@UEAAXQEB_W0@Z 0000000180047e98 f   xerces-c_3_1:AbstractDOMParser.cpp.obj
 0001:00046fec       ?doctypeWhitespace@AbstractDOMParser@xercesc_3_1@@UEAAXQEB_W_K@Z 0000000180047fec f   xerces-c_3_1:AbstractDOMParser.cpp.obj
 0001:00047068       ?elementDecl@AbstractDOMParser@xercesc_3_1@@UEAAXAEBVDTDElementDecl@2@_N@Z 0000000180048068 f   xerces-c_3_1:AbstractDOMParser.cpp.obj
 0001:000471e8       ?endAttList@AbstractDOMParser@xercesc_3_1@@UEAAXAEBVDTDElementDecl@2@@Z 00000001800481e8 f   xerces-c_3_1:AbstractDOMParser.cpp.obj
 0001:00047598       ?endIntSubset@AbstractDOMParser@xercesc_3_1@@UEAAXXZ 0000000180048598 f   xerces-c_3_1:AbstractDOMParser.cpp.obj
 0001:000475e0       ?entityDecl@AbstractDOMParser@xercesc_3_1@@UEAAXAEBVDTDEntityDecl@2@_N1@Z 00000001800485e0 f   xerces-c_3_1:AbstractDOMParser.cpp.obj
 0001:00047a90       ?resetDocType@AbstractDOMParser@xercesc_3_1@@UEAAXXZ 0000000180048a90 f   xerces-c_3_1:AbstractDOMParser.cpp.obj
 0001:00047a98       ?notationDecl@AbstractDOMParser@xercesc_3_1@@UEAAXAEBVXMLNotationDecl@2@_N@Z 0000000180048a98 f   xerces-c_3_1:AbstractDOMParser.cpp.obj
 0001:00047e10       ?startAttList@AbstractDOMParser@xercesc_3_1@@UEAAXAEBVDTDElementDecl@2@@Z 0000000180048e10 f   xerces-c_3_1:AbstractDOMParser.cpp.obj
 0001:00047f0c       ?startIntSubset@AbstractDOMParser@xercesc_3_1@@UEAAXXZ 0000000180048f0c f   xerces-c_3_1:AbstractDOMParser.cpp.obj
 0001:00047f18       ?TextDecl@AbstractDOMParser@xercesc_3_1@@UEAAXQEB_W0@Z 0000000180048f18 f   xerces-c_3_1:AbstractDOMParser.cpp.obj
 0001:00047f8c       ?createCDATASection@AbstractDOMParser@xercesc_3_1@@MEAAPEAVDOMCDATASection@2@PEB_W_K@Z 0000000180048f8c f   xerces-c_3_1:AbstractDOMParser.cpp.obj
 0001:0004803c       ?createText@AbstractDOMParser@xercesc_3_1@@MEAAPEAVDOMText@2@PEB_W_K@Z 000000018004903c f   xerces-c_3_1:AbstractDOMParser.cpp.obj
 0001:000480ec       ?createElement@AbstractDOMParser@xercesc_3_1@@MEAAPEAVDOMElement@2@PEB_W@Z 00000001800490ec f   xerces-c_3_1:AbstractDOMParser.cpp.obj
 0001:00048154       ?createElementNS@AbstractDOMParser@xercesc_3_1@@MEAAPEAVDOMElement@2@PEB_W000@Z 0000000180049154 f   xerces-c_3_1:AbstractDOMParser.cpp.obj
 0001:000481ec       ?createAttr@AbstractDOMParser@xercesc_3_1@@MEAAPEAVDOMAttr@2@PEB_W@Z 00000001800491ec f   xerces-c_3_1:AbstractDOMParser.cpp.obj
 0001:00048254       ?createAttrNS@AbstractDOMParser@xercesc_3_1@@MEAAPEAVDOMAttr@2@PEB_W000@Z 0000000180049254 f   xerces-c_3_1:AbstractDOMParser.cpp.obj
 0001:000482e8       ??1?$BaseRefVectorOf@VDOMDocumentImpl@xercesc_3_1@@@xercesc_3_1@@UEAA@XZ 00000001800492e8 f i xerces-c_3_1:AbstractDOMParser.cpp.obj
 0001:000482f4       ?elementAt@?$BaseRefVectorOf@VKVStringPair@xercesc_3_1@@@xercesc_3_1@@QEBAPEBVKVStringPair@2@_K@Z 00000001800492f4 f i xerces-c_3_1:SGXMLScanner.cpp.obj
 0001:000482f4       ?elementAt@?$BaseRefVectorOf@VXMLAttr@xercesc_3_1@@@xercesc_3_1@@QEBAPEBVXMLAttr@2@_K@Z 00000001800492f4 f i xerces-c_3_1:AbstractDOMParser.cpp.obj
 0001:00048360       ??_E?$BaseRefVectorOf@VDOMDocumentImpl@xercesc_3_1@@@xercesc_3_1@@UEAAPEAXI@Z 0000000180049360 f i  CIL library: CIL module
 0001:00048360       ??_G?$BaseRefVectorOf@VDOMDocumentImpl@xercesc_3_1@@@xercesc_3_1@@UEAAPEAXI@Z 0000000180049360 f i xerces-c_3_1:AbstractDOMParser.cpp.obj
 0001:00048390       ??_G?$RefVectorOf@VDOMDocumentImpl@xercesc_3_1@@@xercesc_3_1@@UEAAPEAXI@Z 0000000180049390 f i xerces-c_3_1:AbstractDOMParser.cpp.obj
 0001:00048390       ??_E?$RefVectorOf@VDOMDocumentImpl@xercesc_3_1@@@xercesc_3_1@@UEAAPEAXI@Z 0000000180049390 f i  CIL library: CIL module
 0001:0004842c       ??_EAbstractDOMParser@xercesc_3_1@@WBI@EAAPEAXI@Z 000000018004942c f i xerces-c_3_1:AbstractDOMParser.cpp.obj
 0001:00048438       ??_EAbstractDOMParser@xercesc_3_1@@WCA@EAAPEAXI@Z 0000000180049438 f i xerces-c_3_1:AbstractDOMParser.cpp.obj
 0001:00048444       ??_EAbstractDOMParser@xercesc_3_1@@W7EAAPEAXI@Z 0000000180049444 f i xerces-c_3_1:AbstractDOMParser.cpp.obj
 0001:00048450       ??_EAbstractDOMParser@xercesc_3_1@@WBA@EAAPEAXI@Z 0000000180049450 f i xerces-c_3_1:AbstractDOMParser.cpp.obj
 0001:0004845c       ??0SAXException@xercesc_3_1@@QEAA@QEB_WQEAVMemoryManager@1@@Z 000000018004945c f i xerces-c_3_1:SAXParseException.cpp.obj
 0001:000484ec       ??_ESAXParseException@xercesc_3_1@@UEAAPEAXI@Z 00000001800494ec f i  CIL library: CIL module
 0001:000484ec       ??_GSAXParseException@xercesc_3_1@@UEAAPEAXI@Z 00000001800494ec f i xerces-c_3_1:SAXParseException.cpp.obj
 0001:00048528       ??0SAXParseException@xercesc_3_1@@QEAA@QEB_W00_K1QEAVMemoryManager@1@@Z 0000000180049528 f   xerces-c_3_1:SAXParseException.cpp.obj
 0001:00048624       ??0SAXParseException@xercesc_3_1@@QEAA@AEBV01@@Z 0000000180049624 f   xerces-c_3_1:SAXParseException.cpp.obj
 0001:00048720       ??1SAXParseException@xercesc_3_1@@UEAA@XZ 0000000180049720 f   xerces-c_3_1:SAXParseException.cpp.obj
 0001:0004877c       ??0IllegalArgumentException@xercesc_3_1@@QEAA@AEBV01@@Z 000000018004977c f i xerces-c_3_1:XMLString.cpp.obj
 0001:000487a0       ??1IllegalArgumentException@xercesc_3_1@@UEAA@XZ 00000001800497a0 f i xerces-c_3_1:XMLString.cpp.obj
 0001:000487b0       ?duplicate@IllegalArgumentException@xercesc_3_1@@UEBAPEAVXMLException@2@XZ 00000001800497b0 f i xerces-c_3_1:XMLString.cpp.obj
 0001:00048814       ?getType@IllegalArgumentException@xercesc_3_1@@UEBAPEB_WXZ 0000000180049814 f i xerces-c_3_1:XMLString.cpp.obj
 0001:0004881c       ??_EIllegalArgumentException@xercesc_3_1@@UEAAPEAXI@Z 000000018004981c f i  CIL library: CIL module
 0001:0004881c       ??_GIllegalArgumentException@xercesc_3_1@@UEAAPEAXI@Z 000000018004981c f i xerces-c_3_1:XMLString.cpp.obj
 0001:0004885c       ??0NumberFormatException@xercesc_3_1@@QEAA@AEBV01@@Z 000000018004985c f i xerces-c_3_1:XMLString.cpp.obj
 0001:00048880       ??1NumberFormatException@xercesc_3_1@@UEAA@XZ 0000000180049880 f i xerces-c_3_1:XMLString.cpp.obj
 0001:00048890       ?duplicate@NumberFormatException@xercesc_3_1@@UEBAPEAVXMLException@2@XZ 0000000180049890 f i xerces-c_3_1:XMLString.cpp.obj
 0001:000488f4       ?getType@NumberFormatException@xercesc_3_1@@UEBAPEB_WXZ 00000001800498f4 f i xerces-c_3_1:XMLString.cpp.obj
 0001:000488fc       ??_GNumberFormatException@xercesc_3_1@@UEAAPEAXI@Z 00000001800498fc f i xerces-c_3_1:XMLString.cpp.obj
 0001:000488fc       ??_ENumberFormatException@xercesc_3_1@@UEAAPEAXI@Z 00000001800498fc f i  CIL library: CIL module
 0001:0004893c       ?replaceTokens@XMLString@xercesc_3_1@@SA_KQEA_W_KQEB_W222QEAVMemoryManager@2@@Z 000000018004993c f   xerces-c_3_1:XMLString.cpp.obj
 0001:00048ab8       ?replicate@XMLString@xercesc_3_1@@SAPEADQEBDQEAVMemoryManager@2@@Z 0000000180049ab8 f   xerces-c_3_1:XMLString.cpp.obj
 0001:00048b10       ?isValidNOTATION@XMLString@xercesc_3_1@@SA_NQEB_WQEAVMemoryManager@2@@Z 0000000180049b10 f   xerces-c_3_1:XMLString.cpp.obj
 0001:00048c68       ?isValidEncName@XMLString@xercesc_3_1@@SA_NQEB_W@Z 0000000180049c68 f   xerces-c_3_1:XMLString.cpp.obj
 0001:00048cd4       ?isAlphaNum@XMLString@xercesc_3_1@@SA_N_W@Z 0000000180049cd4 f   xerces-c_3_1:XMLString.cpp.obj
 0001:00048cfc       ?isHex@XMLString@xercesc_3_1@@SA_N_W@Z 0000000180049cfc f   xerces-c_3_1:XMLString.cpp.obj
 0001:00048d28       ?sizeToText@XMLString@xercesc_3_1@@SAX_KQEA_W0IQEAVMemoryManager@2@@Z 0000000180049d28 f   xerces-c_3_1:XMLString.cpp.obj
 0001:00048ea4       ?binToText@XMLString@xercesc_3_1@@SAXKQEA_W_KIQEAVMemoryManager@2@@Z 0000000180049ea4 f   xerces-c_3_1:XMLString.cpp.obj
 0001:00049098       ?binToText@XMLString@xercesc_3_1@@SAXHQEA_W_KIQEAVMemoryManager@2@@Z 000000018004a098 f   xerces-c_3_1:XMLString.cpp.obj
 0001:000490cc       ?catString@XMLString@xercesc_3_1@@SAXQEA_WQEB_W@Z 000000018004a0cc f   xerces-c_3_1:XMLString.cpp.obj
 0001:00049110       ?compareIStringASCII@XMLString@xercesc_3_1@@SAHQEB_W0@Z 000000018004a110 f   xerces-c_3_1:XMLString.cpp.obj
 0001:000491a8       ?compareNString@XMLString@xercesc_3_1@@SAHQEB_W0_K@Z 000000018004a1a8 f   xerces-c_3_1:XMLString.cpp.obj
 0001:000491e8       ?compareString@XMLString@xercesc_3_1@@SAHQEB_W0@Z 000000018004a1e8 f   xerces-c_3_1:XMLString.cpp.obj
 0001:00049260       ?regionMatches@XMLString@xercesc_3_1@@SA_NQEB_WH0H_K@Z 000000018004a260 f   xerces-c_3_1:XMLString.cpp.obj
 0001:000492fc       ?regionIMatches@XMLString@xercesc_3_1@@SA_NQEB_WH0H_K@Z 000000018004a2fc f   xerces-c_3_1:XMLString.cpp.obj
 0001:000493a0       ?copyNString@XMLString@xercesc_3_1@@SA_NQEA_WQEB_W_K@Z 000000018004a3a0 f   xerces-c_3_1:XMLString.cpp.obj
 0001:0004940c       ?findAny@XMLString@xercesc_3_1@@SAPEA_WQEA_WQEB_W@Z 000000018004a40c f   xerces-c_3_1:XMLString.cpp.obj
 0001:0004940c       ?findAny@XMLString@xercesc_3_1@@SAPEB_WQEB_W0@Z 000000018004a40c f   xerces-c_3_1:XMLString.cpp.obj
 0001:00049444       ?patternMatch@XMLString@xercesc_3_1@@SAHQEB_W0@Z 000000018004a444 f   xerces-c_3_1:XMLString.cpp.obj
 0001:000494c4       ?indexOf@XMLString@xercesc_3_1@@SAHQEB_W_W@Z 000000018004a4c4 f   xerces-c_3_1:XMLString.cpp.obj
 0001:000494f8       ?indexOf@XMLString@xercesc_3_1@@SAHQEB_W_W_KQEAVMemoryManager@2@@Z 000000018004a4f8 f   xerces-c_3_1:XMLString.cpp.obj
 0001:000495a4       ?textToBin@XMLString@xercesc_3_1@@SA_NQEB_WAEAIQEAVMemoryManager@2@@Z 000000018004a5a4 f   xerces-c_3_1:XMLString.cpp.obj
 0001:0004970c       ?parseInt@XMLString@xercesc_3_1@@SAHQEB_WQEAVMemoryManager@2@@Z 000000018004a70c f   xerces-c_3_1:XMLString.cpp.obj
 0001:0004995c       ?trim@XMLString@xercesc_3_1@@SAXQEA_W@Z 000000018004a95c f   xerces-c_3_1:XMLString.cpp.obj
 0001:00049a04       ?subString@XMLString@xercesc_3_1@@SAXQEA_WQEB_W_K2QEAVMemoryManager@2@@Z 000000018004aa04 f   xerces-c_3_1:XMLString.cpp.obj
 0001:00049a4c       ?subString@XMLString@xercesc_3_1@@SAXQEA_WQEB_W_K22QEAVMemoryManager@2@@Z 000000018004aa4c f   xerces-c_3_1:XMLString.cpp.obj
 0001:00049b50       ?tokenizeString@XMLString@xercesc_3_1@@SAPEAV?$BaseRefVectorOf@_W@2@QEB_WQEAVMemoryManager@2@@Z 000000018004ab50 f   xerces-c_3_1:XMLString.cpp.obj
 0001:00049ce8       ?isInList@XMLString@xercesc_3_1@@SA_NQEB_W0@Z 000000018004ace8 f   xerces-c_3_1:XMLString.cpp.obj
 0001:00049d80       ?isWSReplaced@XMLString@xercesc_3_1@@SA_NQEB_W@Z 000000018004ad80 f   xerces-c_3_1:XMLString.cpp.obj
 0001:00049dac       ?replaceWS@XMLString@xercesc_3_1@@SAXPEA_WQEAVMemoryManager@2@@Z 000000018004adac f   xerces-c_3_1:XMLString.cpp.obj
 0001:00049ddc       ?isWSCollapsed@XMLString@xercesc_3_1@@SA_NQEB_W@Z 000000018004addc f   xerces-c_3_1:XMLString.cpp.obj
 0001:00049e50       ?collapseWS@XMLString@xercesc_3_1@@SAXPEA_WQEAVMemoryManager@2@@Z 000000018004ae50 f   xerces-c_3_1:XMLString.cpp.obj
 0001:00049f40       ?removeChar@XMLString@xercesc_3_1@@SAXQEB_WAEB_WAEAVXMLBuffer@2@@Z 000000018004af40 f   xerces-c_3_1:XMLString.cpp.obj
 0001:00049fc0       ?fixURI@XMLString@xercesc_3_1@@SAXQEB_WQEA_W@Z 000000018004afc0 f   xerces-c_3_1:XMLString.cpp.obj
 0001:0004a13c       ??1?$BaseRefVectorOf@_W@xercesc_3_1@@UEAA@XZ 000000018004b13c f i xerces-c_3_1:XMLString.cpp.obj
 0001:0004a148       ?setElementAt@?$BaseRefVectorOf@_W@xercesc_3_1@@UEAAXQEA_W_K@Z 000000018004b148 f i xerces-c_3_1:XMLString.cpp.obj
 0001:0004a1ec       ?removeAllElements@?$BaseRefVectorOf@_W@xercesc_3_1@@UEAAXXZ 000000018004b1ec f i xerces-c_3_1:XMLString.cpp.obj
 0001:0004a23c       ?removeElementAt@?$BaseRefVectorOf@_W@xercesc_3_1@@UEAAX_K@Z 000000018004b23c f i xerces-c_3_1:XMLString.cpp.obj
 0001:0004a314       ?removeLastElement@?$BaseRefVectorOf@_W@xercesc_3_1@@UEAAXXZ 000000018004b314 f i xerces-c_3_1:XMLString.cpp.obj
 0001:0004a348       ?cleanup@?$BaseRefVectorOf@_W@xercesc_3_1@@UEAAXXZ 000000018004b348 f i xerces-c_3_1:XMLString.cpp.obj
 0001:0004a398       ?setElementAt@?$RefArrayVectorOf@_W@xercesc_3_1@@UEAAXQEA_W_K@Z 000000018004b398 f i xerces-c_3_1:XMLString.cpp.obj
 0001:0004a43c       ?removeAllElements@?$RefArrayVectorOf@_W@xercesc_3_1@@UEAAXXZ 000000018004b43c f i xerces-c_3_1:XMLString.cpp.obj
 0001:0004a48c       ?removeElementAt@?$RefArrayVectorOf@_W@xercesc_3_1@@UEAAX_K@Z 000000018004b48c f i xerces-c_3_1:XMLString.cpp.obj
 0001:0004a560       ?removeLastElement@?$RefArrayVectorOf@_W@xercesc_3_1@@UEAAXXZ 000000018004b560 f i xerces-c_3_1:XMLString.cpp.obj
 0001:0004a598       ?cleanup@?$RefArrayVectorOf@_W@xercesc_3_1@@UEAAXXZ 000000018004b598 f i xerces-c_3_1:XMLString.cpp.obj
 0001:0004a5e8       ??_E?$BaseRefVectorOf@_W@xercesc_3_1@@UEAAPEAXI@Z 000000018004b5e8 f i  CIL library: CIL module
 0001:0004a5e8       ??_G?$BaseRefVectorOf@_W@xercesc_3_1@@UEAAPEAXI@Z 000000018004b5e8 f i xerces-c_3_1:XMLString.cpp.obj
 0001:0004a618       ??_E?$RefArrayVectorOf@_W@xercesc_3_1@@UEAAPEAXI@Z 000000018004b618 f i  CIL library: CIL module
 0001:0004a618       ??_G?$RefArrayVectorOf@_W@xercesc_3_1@@UEAAPEAXI@Z 000000018004b618 f i xerces-c_3_1:XMLString.cpp.obj
 0001:0004a6ac       ??0?$BaseRefVectorOf@_W@xercesc_3_1@@QEAA@_K_NQEAVMemoryManager@1@@Z 000000018004b6ac f i xerces-c_3_1:XMLString.cpp.obj
 0001:0004a714       ??2XMemory@xercesc_3_1@@SAPEAX_K@Z 000000018004b714 f   xerces-c_3_1:XMemory.cpp.obj
 0001:0004a740       ??3XMemory@xercesc_3_1@@SAXPEAX@Z 000000018004b740 f   xerces-c_3_1:XMemory.cpp.obj
 0001:0004a740       ??3XMemory@xercesc_3_1@@SAXPEAXPEAVMemoryManager@1@@Z 000000018004b740 f   xerces-c_3_1:XMemory.cpp.obj
 0001:0004a75c       ??1BinInputStream@xercesc_3_1@@UEAA@XZ 000000018004b75c f   xerces-c_3_1:BinInputStream.cpp.obj
 0001:0004a768       ??_GBinInputStream@xercesc_3_1@@UEAAPEAXI@Z 000000018004b768 f i xerces-c_3_1:BinInputStream.cpp.obj
 0001:0004a768       ??_EBinInputStream@xercesc_3_1@@UEAAPEAXI@Z 000000018004b768 f i  CIL library: CIL module
 0001:0004a798       ??1InputSource@xercesc_3_1@@UEAA@XZ 000000018004b798 f   xerces-c_3_1:InputSource.cpp.obj
 0001:0004a7dc       ??_GInputSource@xercesc_3_1@@UEAAPEAXI@Z 000000018004b7dc f i xerces-c_3_1:InputSource.cpp.obj
 0001:0004a7dc       ??_EInputSource@xercesc_3_1@@UEAAPEAXI@Z 000000018004b7dc f i  CIL library: CIL module
 0001:0004a818       ?setEncoding@InputSource@xercesc_3_1@@UEAAXQEB_W@Z 000000018004b818 f   xerces-c_3_1:InputSource.cpp.obj
 0001:0004a898       ?setPublicId@InputSource@xercesc_3_1@@UEAAXQEB_W@Z 000000018004b898 f   xerces-c_3_1:InputSource.cpp.obj
 0001:0004a918       ?setSystemId@InputSource@xercesc_3_1@@UEAAXQEB_W@Z 000000018004b918 f   xerces-c_3_1:InputSource.cpp.obj
 0001:0004a998       ??0BinFileInputStream@xercesc_3_1@@QEAA@QEB_WQEAVMemoryManager@1@@Z 000000018004b998 f   xerces-c_3_1:BinFileInputStream.cpp.obj
 0001:0004aa34       ??_GBinFileInputStream@xercesc_3_1@@UEAAPEAXI@Z 000000018004ba34 f i xerces-c_3_1:BinFileInputStream.cpp.obj
 0001:0004aa34       ??_EBinFileInputStream@xercesc_3_1@@UEAAPEAXI@Z 000000018004ba34 f i  CIL library: CIL module
 0001:0004aa70       ??1BinFileInputStream@xercesc_3_1@@UEAA@XZ 000000018004ba70 f   xerces-c_3_1:BinFileInputStream.cpp.obj
 0001:0004aab4       ?getSize@BinFileInputStream@xercesc_3_1@@QEBA_KXZ 000000018004bab4 f   xerces-c_3_1:BinFileInputStream.cpp.obj
 0001:0004ab2c       ?curPos@BinFileInputStream@xercesc_3_1@@UEBA_KXZ 000000018004bb2c f   xerces-c_3_1:BinFileInputStream.cpp.obj
 0001:0004aba4       ?readBytes@BinFileInputStream@xercesc_3_1@@UEAA_KQEAE_K@Z 000000018004bba4 f   xerces-c_3_1:BinFileInputStream.cpp.obj
 0001:0004ac24       ??0LocalFileInputSource@xercesc_3_1@@QEAA@QEB_W0QEAVMemoryManager@1@@Z 000000018004bc24 f   xerces-c_3_1:LocalFileInputSource.cpp.obj
 0001:0004ad18       ??_GLocalFileInputSource@xercesc_3_1@@UEAAPEAXI@Z 000000018004bd18 f i xerces-c_3_1:LocalFileInputSource.cpp.obj
 0001:0004ad18       ??_ELocalFileInputSource@xercesc_3_1@@UEAAPEAXI@Z 000000018004bd18 f i  CIL library: CIL module
 0001:0004ad58       ??0LocalFileInputSource@xercesc_3_1@@QEAA@QEB_WQEAVMemoryManager@1@@Z 000000018004bd58 f   xerces-c_3_1:LocalFileInputSource.cpp.obj
 0001:0004af7c       ??1LocalFileInputSource@xercesc_3_1@@UEAA@XZ 000000018004bf7c f   xerces-c_3_1:LocalFileInputSource.cpp.obj
 0001:0004af8c       ?makeStream@LocalFileInputSource@xercesc_3_1@@UEBAPEAVBinInputStream@2@XZ 000000018004bf8c f   xerces-c_3_1:LocalFileInputSource.cpp.obj
 0001:0004b020       ?panic@DefaultPanicHandler@xercesc_3_1@@UEAAXW4PanicReasons@PanicHandler@2@@Z 000000018004c020 f   xerces-c_3_1:DefaultPanicHandler.cpp.obj
 0001:0004b0b8       ??0OutOfMemoryException@xercesc_3_1@@QEAA@AEBV01@@Z 000000018004c0b8 f   xerces-c_3_1:MemoryManagerImpl.cpp.obj
 0001:0004b0b8       ?getExceptionMemoryManager@MemoryManagerImpl@xercesc_3_1@@UEAAPEAVMemoryManager@2@XZ 000000018004c0b8 f   xerces-c_3_1:MemoryManagerImpl.cpp.obj
 0001:0004b0bc       ?allocate@MemoryManagerImpl@xercesc_3_1@@UEAAPEAX_K@Z 000000018004c0bc f   xerces-c_3_1:MemoryManagerImpl.cpp.obj
 0001:0004b108       ?deallocate@MemoryManagerImpl@xercesc_3_1@@UEAAXPEAX@Z 000000018004c108 f   xerces-c_3_1:MemoryManagerImpl.cpp.obj
 0001:0004b124       ??0ENameMap@xercesc_3_1@@IEAA@QEB_W@Z 000000018004c124 f i xerces-c_3_1:TransService.cpp.obj
 0001:0004b1a4       ??_E?$EEndianNameMapFor@VXMLUCS4Transcoder@xercesc_3_1@@@xercesc_3_1@@UEAAPEAXI@Z 000000018004c1a4 f i  CIL library: CIL module
 0001:0004b1a4       ??_E?$ENameMapFor@VXMLUTF8Transcoder@xercesc_3_1@@@xercesc_3_1@@UEAAPEAXI@Z 000000018004c1a4 f i  CIL library: CIL module
 0001:0004b1a4       ??_G?$ENameMapFor@VXMLASCIITranscoder@xercesc_3_1@@@xercesc_3_1@@UEAAPEAXI@Z 000000018004c1a4 f i xerces-c_3_1:TransService.cpp.obj
 0001:0004b1a4       ??_E?$ENameMapFor@VXMLIBM1140Transcoder@xercesc_3_1@@@xercesc_3_1@@UEAAPEAXI@Z 000000018004c1a4 f i  CIL library: CIL module
 0001:0004b1a4       ??_EENameMap@xercesc_3_1@@UEAAPEAXI@Z 000000018004c1a4 f i  CIL library: CIL module
 0001:0004b1a4       ??_E?$ENameMapFor@VXML88591Transcoder@xercesc_3_1@@@xercesc_3_1@@UEAAPEAXI@Z 000000018004c1a4 f i  CIL library: CIL module
 0001:0004b1a4       ??_G?$EEndianNameMapFor@VXMLUCS4Transcoder@xercesc_3_1@@@xercesc_3_1@@UEAAPEAXI@Z 000000018004c1a4 f i xerces-c_3_1:TransService.cpp.obj
 0001:0004b1a4       ??_G?$ENameMapFor@VXMLUTF8Transcoder@xercesc_3_1@@@xercesc_3_1@@UEAAPEAXI@Z 000000018004c1a4 f i xerces-c_3_1:TransService.cpp.obj
 0001:0004b1a4       ??_G?$ENameMapFor@VXML88591Transcoder@xercesc_3_1@@@xercesc_3_1@@UEAAPEAXI@Z 000000018004c1a4 f i xerces-c_3_1:TransService.cpp.obj
 0001:0004b1a4       ??_G?$ENameMapFor@VXMLChTranscoder@xercesc_3_1@@@xercesc_3_1@@UEAAPEAXI@Z 000000018004c1a4 f i xerces-c_3_1:TransService.cpp.obj
 0001:0004b1a4       ??_E?$ENameMapFor@VXMLASCIITranscoder@xercesc_3_1@@@xercesc_3_1@@UEAAPEAXI@Z 000000018004c1a4 f i  CIL library: CIL module
 0001:0004b1a4       ??_G?$ENameMapFor@VXMLEBCDICTranscoder@xercesc_3_1@@@xercesc_3_1@@UEAAPEAXI@Z 000000018004c1a4 f i xerces-c_3_1:TransService.cpp.obj
 0001:0004b1a4       ??_G?$ENameMapFor@VXMLIBM1047Transcoder@xercesc_3_1@@@xercesc_3_1@@UEAAPEAXI@Z 000000018004c1a4 f i xerces-c_3_1:TransService.cpp.obj
 0001:0004b1a4       ??_G?$ENameMapFor@VXMLWin1252Transcoder@xercesc_3_1@@@xercesc_3_1@@UEAAPEAXI@Z 000000018004c1a4 f i xerces-c_3_1:TransService.cpp.obj
 0001:0004b1a4       ??_E?$ENameMapFor@VXMLEBCDICTranscoder@xercesc_3_1@@@xercesc_3_1@@UEAAPEAXI@Z 000000018004c1a4 f i  CIL library: CIL module
 0001:0004b1a4       ??_E?$ENameMapFor@VXMLIBM1047Transcoder@xercesc_3_1@@@xercesc_3_1@@UEAAPEAXI@Z 000000018004c1a4 f i  CIL library: CIL module
 0001:0004b1a4       ??_E?$ENameMapFor@VXMLWin1252Transcoder@xercesc_3_1@@@xercesc_3_1@@UEAAPEAXI@Z 000000018004c1a4 f i  CIL library: CIL module
 0001:0004b1a4       ??_E?$ENameMapFor@VXMLChTranscoder@xercesc_3_1@@@xercesc_3_1@@UEAAPEAXI@Z 000000018004c1a4 f i  CIL library: CIL module
 0001:0004b1a4       ??_G?$EEndianNameMapFor@VXMLUTF16Transcoder@xercesc_3_1@@@xercesc_3_1@@UEAAPEAXI@Z 000000018004c1a4 f i xerces-c_3_1:TransService.cpp.obj
 0001:0004b1a4       ??_G?$ENameMapFor@VXMLIBM1140Transcoder@xercesc_3_1@@@xercesc_3_1@@UEAAPEAXI@Z 000000018004c1a4 f i xerces-c_3_1:TransService.cpp.obj
 0001:0004b1a4       ??_GENameMap@xercesc_3_1@@UEAAPEAXI@Z 000000018004c1a4 f i xerces-c_3_1:TransService.cpp.obj
 0001:0004b1a4       ??_E?$EEndianNameMapFor@VXMLUTF16Transcoder@xercesc_3_1@@@xercesc_3_1@@UEAAPEAXI@Z 000000018004c1a4 f i  CIL library: CIL module
 0001:0004b1f0       ??0TranscodingException@xercesc_3_1@@QEAA@AEBV01@@Z 000000018004c1f0 f i xerces-c_3_1:TransService.cpp.obj
 0001:0004b214       ??1TranscodingException@xercesc_3_1@@UEAA@XZ 000000018004c214 f i xerces-c_3_1:TransService.cpp.obj
 0001:0004b224       ?duplicate@TranscodingException@xercesc_3_1@@UEBAPEAVXMLException@2@XZ 000000018004c224 f i xerces-c_3_1:TransService.cpp.obj
 0001:0004b288       ?getType@TranscodingException@xercesc_3_1@@UEBAPEB_WXZ 000000018004c288 f i xerces-c_3_1:TransService.cpp.obj
 0001:0004b290       ??_GTranscodingException@xercesc_3_1@@UEAAPEAXI@Z 000000018004c290 f i xerces-c_3_1:TransService.cpp.obj
 0001:0004b290       ??_ETranscodingException@xercesc_3_1@@UEAAPEAXI@Z 000000018004c290 f i  CIL library: CIL module
 0001:0004b2d0       ?initializeTransService@XMLInitializer@xercesc_3_1@@KAXXZ 000000018004c2d0 f   xerces-c_3_1:TransService.cpp.obj
 0001:0004b3d0       ?terminateTransService@XMLInitializer@xercesc_3_1@@KAXXZ 000000018004c3d0 f   xerces-c_3_1:TransService.cpp.obj
 0001:0004b4b4       ??_GXMLTransService@xercesc_3_1@@UEAAPEAXI@Z 000000018004c4b4 f i xerces-c_3_1:TransService.cpp.obj
 0001:0004b4b4       ??_EXMLTransService@xercesc_3_1@@UEAAPEAXI@Z 000000018004c4b4 f i  CIL library: CIL module
 0001:0004b4e4       ??1XMLTransService@xercesc_3_1@@UEAA@XZ 000000018004c4e4 f   xerces-c_3_1:TransService.cpp.obj
 0001:0004b4f0       ?makeNewTranscoderFor@XMLTransService@xercesc_3_1@@QEAAPEAVXMLTranscoder@2@QEB_WAEAW4Codes@12@_KQEAVMemoryManager@2@@Z 000000018004c4f0 f   xerces-c_3_1:TransService.cpp.obj
 0001:0004b618       ?makeNewTranscoderFor@XMLTransService@xercesc_3_1@@QEAAPEAVXMLTranscoder@2@W4Encodings@XMLRecognizer@2@AEAW4Codes@12@_KQEAVMemoryManager@2@@Z 000000018004c618 f   xerces-c_3_1:TransService.cpp.obj
 0001:0004b71c       ?initTransService@XMLTransService@xercesc_3_1@@MEAAXXZ 000000018004c71c f   xerces-c_3_1:TransService.cpp.obj
 0001:0004c45c       ??0XMLTranscoder@xercesc_3_1@@IEAA@QEB_W_KQEAVMemoryManager@1@@Z 000000018004d45c f   xerces-c_3_1:TransService.cpp.obj
 0001:0004c4e4       ?put@?$RefHashTableOf@VENameMap@xercesc_3_1@@UStringHasher@2@@xercesc_3_1@@QEAAXPEAXQEAVENameMap@2@@Z 000000018004d4e4 f i xerces-c_3_1:TransService.cpp.obj
 0001:0004c5b0       ??1?$BaseRefVectorOf@VENameMap@xercesc_3_1@@@xercesc_3_1@@UEAA@XZ 000000018004d5b0 f i xerces-c_3_1:TransService.cpp.obj
 0001:0004c5bc       ?makeNew@?$ENameMapFor@VXMLChTranscoder@xercesc_3_1@@@xercesc_3_1@@UEBAPEAVXMLTranscoder@2@_KQEAVMemoryManager@2@@Z 000000018004d5bc f i xerces-c_3_1:TransService.cpp.obj
 0001:0004c62c       ?makeNew@?$ENameMapFor@VXMLASCIITranscoder@xercesc_3_1@@@xercesc_3_1@@UEBAPEAVXMLTranscoder@2@_KQEAVMemoryManager@2@@Z 000000018004d62c f i xerces-c_3_1:TransService.cpp.obj
 0001:0004c69c       ?makeNew@?$ENameMapFor@VXMLUTF8Transcoder@xercesc_3_1@@@xercesc_3_1@@UEBAPEAVXMLTranscoder@2@_KQEAVMemoryManager@2@@Z 000000018004d69c f i xerces-c_3_1:TransService.cpp.obj
 0001:0004c70c       ?makeNew@?$ENameMapFor@VXML88591Transcoder@xercesc_3_1@@@xercesc_3_1@@UEBAPEAVXMLTranscoder@2@_KQEAVMemoryManager@2@@Z 000000018004d70c f i xerces-c_3_1:TransService.cpp.obj
 0001:0004c77c       ??0?$EEndianNameMapFor@VXMLUTF16Transcoder@xercesc_3_1@@@xercesc_3_1@@QEAA@QEB_W_N@Z 000000018004d77c f i xerces-c_3_1:TransService.cpp.obj
 0001:0004c7b0       ?makeNew@?$EEndianNameMapFor@VXMLUTF16Transcoder@xercesc_3_1@@@xercesc_3_1@@UEBAPEAVXMLTranscoder@2@_KQEAVMemoryManager@2@@Z 000000018004d7b0 f i xerces-c_3_1:TransService.cpp.obj
 0001:0004c830       ??0?$EEndianNameMapFor@VXMLUCS4Transcoder@xercesc_3_1@@@xercesc_3_1@@QEAA@QEB_W_N@Z 000000018004d830 f i xerces-c_3_1:TransService.cpp.obj
 0001:0004c864       ?makeNew@?$EEndianNameMapFor@VXMLUCS4Transcoder@xercesc_3_1@@@xercesc_3_1@@UEBAPEAVXMLTranscoder@2@_KQEAVMemoryManager@2@@Z 000000018004d864 f i xerces-c_3_1:TransService.cpp.obj
 0001:0004c8e4       ?makeNew@?$ENameMapFor@VXMLEBCDICTranscoder@xercesc_3_1@@@xercesc_3_1@@UEBAPEAVXMLTranscoder@2@_KQEAVMemoryManager@2@@Z 000000018004d8e4 f i xerces-c_3_1:TransService.cpp.obj
 0001:0004c970       ?makeNew@?$ENameMapFor@VXMLIBM1047Transcoder@xercesc_3_1@@@xercesc_3_1@@UEBAPEAVXMLTranscoder@2@_KQEAVMemoryManager@2@@Z 000000018004d970 f i xerces-c_3_1:TransService.cpp.obj
 0001:0004c9fc       ?makeNew@?$ENameMapFor@VXMLIBM1140Transcoder@xercesc_3_1@@@xercesc_3_1@@UEBAPEAVXMLTranscoder@2@_KQEAVMemoryManager@2@@Z 000000018004d9fc f i xerces-c_3_1:TransService.cpp.obj
 0001:0004ca88       ?makeNew@?$ENameMapFor@VXMLWin1252Transcoder@xercesc_3_1@@@xercesc_3_1@@UEBAPEAVXMLTranscoder@2@_KQEAVMemoryManager@2@@Z 000000018004da88 f i xerces-c_3_1:TransService.cpp.obj
 0001:0004cb14       ??_G?$BaseRefVectorOf@VENameMap@xercesc_3_1@@@xercesc_3_1@@UEAAPEAXI@Z 000000018004db14 f i xerces-c_3_1:TransService.cpp.obj
 0001:0004cb14       ??_E?$BaseRefVectorOf@VENameMap@xercesc_3_1@@@xercesc_3_1@@UEAAPEAXI@Z 000000018004db14 f i  CIL library: CIL module
 0001:0004cb44       ??_G?$RefVectorOf@VENameMap@xercesc_3_1@@@xercesc_3_1@@UEAAPEAXI@Z 000000018004db44 f i xerces-c_3_1:TransService.cpp.obj
 0001:0004cb44       ??_E?$RefVectorOf@VENameMap@xercesc_3_1@@@xercesc_3_1@@UEAAPEAXI@Z 000000018004db44 f i  CIL library: CIL module
 0001:0004cbe0       ?isAllSpaces@XMLChar1_0@xercesc_3_1@@SA_NQEB_W_K@Z 000000018004dbe0 f   xerces-c_3_1:XMLChar.cpp.obj
 0001:0004cc14       ?isValidNCName@XMLChar1_0@xercesc_3_1@@SA_NQEB_W_K@Z 000000018004dc14 f   xerces-c_3_1:XMLChar.cpp.obj
 0001:0004cc54       ?isValidName@XMLChar1_0@xercesc_3_1@@SA_NQEB_W@Z 000000018004dc54 f   xerces-c_3_1:XMLChar.cpp.obj
 0001:0004cc84       ?isValidQName@XMLChar1_0@xercesc_3_1@@SA_NQEB_W_K@Z 000000018004dc84 f   xerces-c_3_1:XMLChar.cpp.obj
 0001:0004cd08       ?isValidName@XMLChar1_1@xercesc_3_1@@SA_NQEB_W@Z 000000018004dd08 f   xerces-c_3_1:XMLChar.cpp.obj
 0001:0004cdc4       ??1XMLException@xercesc_3_1@@UEAA@XZ 000000018004ddc4 f   xerces-c_3_1:XMLException.cpp.obj
 0001:0004cdfc       ??_GXMLException@xercesc_3_1@@UEAAPEAXI@Z 000000018004ddfc f i xerces-c_3_1:XMLException.cpp.obj
 0001:0004cdfc       ??_EXMLException@xercesc_3_1@@UEAAPEAXI@Z 000000018004ddfc f i  CIL library: CIL module
 0001:0004ce38       ??0XMLException@xercesc_3_1@@QEAA@QEBD_KQEAVMemoryManager@1@@Z 000000018004de38 f   xerces-c_3_1:XMLException.cpp.obj
 0001:0004cea4       ??0XMLException@xercesc_3_1@@QEAA@AEBV01@@Z 000000018004dea4 f   xerces-c_3_1:XMLException.cpp.obj
 0001:0004cf60       ?loadExceptText@XMLException@xercesc_3_1@@IEAAXW4Codes@XMLExcepts@2@@Z 000000018004df60 f   xerces-c_3_1:XMLException.cpp.obj
 0001:0004d028       ?loadExceptText@XMLException@xercesc_3_1@@IEAAXW4Codes@XMLExcepts@2@QEB_W111@Z 000000018004e028 f   xerces-c_3_1:XMLException.cpp.obj
 0001:0004d118       ?loadExceptText@XMLException@xercesc_3_1@@IEAAXW4Codes@XMLExcepts@2@QEBD111@Z 000000018004e118 f   xerces-c_3_1:XMLException.cpp.obj
 0001:0004d208       ?setLocale@XMLMsgLoader@xercesc_3_1@@SAXQEBD@Z 000000018004e208 f   xerces-c_3_1:XMLMsgLoader.cpp.obj
 0001:0004d278       ??_EWindowsFileMgr@xercesc_3_1@@UEAAPEAXI@Z 000000018004e278 f i  CIL library: CIL module
 0001:0004d278       ??_GXMLFileMgr@xercesc_3_1@@UEAAPEAXI@Z 000000018004e278 f i xerces-c_3_1:WindowsFileMgr.cpp.obj
 0001:0004d278       ??_GWindowsFileMgr@xercesc_3_1@@UEAAPEAXI@Z 000000018004e278 f i xerces-c_3_1:WindowsFileMgr.cpp.obj
 0001:0004d278       ??_EXMLFileMgr@xercesc_3_1@@UEAAPEAXI@Z 000000018004e278 f i  CIL library: CIL module
 0001:0004d2a8       ?fileOpen@WindowsFileMgr@xercesc_3_1@@UEAAPEAXPEB_W_NQEAVMemoryManager@2@@Z 000000018004e2a8 f   xerces-c_3_1:WindowsFileMgr.cpp.obj
 0001:0004d4f0       ?fileOpen@WindowsFileMgr@xercesc_3_1@@UEAAPEAXPEBD_NQEAVMemoryManager@2@@Z 000000018004e4f0 f   xerces-c_3_1:WindowsFileMgr.cpp.obj
 0001:0004d560       ?openStdIn@WindowsFileMgr@xercesc_3_1@@UEAAPEAXQEAVMemoryManager@2@@Z 000000018004e560 f   xerces-c_3_1:WindowsFileMgr.cpp.obj
 0001:0004d6a4       ?fileClose@WindowsFileMgr@xercesc_3_1@@UEAAXPEAXQEAVMemoryManager@2@@Z 000000018004e6a4 f   xerces-c_3_1:WindowsFileMgr.cpp.obj
 0001:0004d760       ?fileReset@WindowsFileMgr@xercesc_3_1@@UEAAXPEAXQEAVMemoryManager@2@@Z 000000018004e760 f   xerces-c_3_1:WindowsFileMgr.cpp.obj
 0001:0004d828       ?curPos@WindowsFileMgr@xercesc_3_1@@UEAA_KPEAXQEAVMemoryManager@2@@Z 000000018004e828 f   xerces-c_3_1:WindowsFileMgr.cpp.obj
 0001:0004d91c       ?fileSize@WindowsFileMgr@xercesc_3_1@@UEAA_KPEAXQEAVMemoryManager@2@@Z 000000018004e91c f   xerces-c_3_1:WindowsFileMgr.cpp.obj
 0001:0004da08       ?fileRead@WindowsFileMgr@xercesc_3_1@@UEAA_KPEAX_KPEAEQEAVMemoryManager@2@@Z 000000018004ea08 f   xerces-c_3_1:WindowsFileMgr.cpp.obj
 0001:0004db04       ?fileWrite@WindowsFileMgr@xercesc_3_1@@UEAAXPEAX_KPEBEQEAVMemoryManager@2@@Z 000000018004eb04 f   xerces-c_3_1:WindowsFileMgr.cpp.obj
 0001:0004dc2c       ?getFullPath@WindowsFileMgr@xercesc_3_1@@UEAAPEA_WQEB_WQEAVMemoryManager@2@@Z 000000018004ec2c f   xerces-c_3_1:WindowsFileMgr.cpp.obj
 0001:0004dd50       ?getCurrentDirectory@WindowsFileMgr@xercesc_3_1@@UEAAPEA_WQEAVMemoryManager@2@@Z 000000018004ed50 f   xerces-c_3_1:WindowsFileMgr.cpp.obj
 0001:0004de14       ?isRelative@WindowsFileMgr@xercesc_3_1@@UEAA_NQEB_WQEAVMemoryManager@2@@Z 000000018004ee14 f   xerces-c_3_1:WindowsFileMgr.cpp.obj
 0001:0004de60       ??0Win32TransService@xercesc_3_1@@QEAA@PEAVMemoryManager@1@@Z 000000018004ee60 f   xerces-c_3_1:Win32TransService.cpp.obj
 0001:0004e4c8       ??_EWin32TransService@xercesc_3_1@@UEAAPEAXI@Z 000000018004f4c8 f i  CIL library: CIL module
 0001:0004e4c8       ??_GWin32TransService@xercesc_3_1@@UEAAPEAXI@Z 000000018004f4c8 f i xerces-c_3_1:Win32TransService.cpp.obj
 0001:0004e504       ??1Win32TransService@xercesc_3_1@@UEAA@XZ 000000018004f504 f   xerces-c_3_1:Win32TransService.cpp.obj
 0001:0004e600       ?compareIString@Win32TransService@xercesc_3_1@@UEAAHQEB_W0@Z 000000018004f600 f   xerces-c_3_1:Win32TransService.cpp.obj
 0001:0004e60c       ?compareNIString@Win32TransService@xercesc_3_1@@UEAAHQEB_W0_K@Z 000000018004f60c f   xerces-c_3_1:Win32TransService.cpp.obj
 0001:0004e620       ?getId@Win32TransService@xercesc_3_1@@UEBAPEB_WXZ 000000018004f620 f   xerces-c_3_1:Win32TransService.cpp.obj
 0001:0004e628       ?makeNewLCPTranscoder@Win32TransService@xercesc_3_1@@UEAAPEAVXMLLCPTranscoder@2@PEAVMemoryManager@2@@Z 000000018004f628 f   xerces-c_3_1:Win32TransService.cpp.obj
 0001:0004e65c       ?upperCase@Win32TransService@xercesc_3_1@@UEAAXQEA_W@Z 000000018004f65c f   xerces-c_3_1:Win32TransService.cpp.obj
 0001:0004e664       ?lowerCase@Win32TransService@xercesc_3_1@@UEAAXQEA_W@Z 000000018004f664 f   xerces-c_3_1:Win32TransService.cpp.obj
 0001:0004e66c       ?makeNewXMLTranscoder@Win32TransService@xercesc_3_1@@MEAAPEAVXMLTranscoder@2@QEB_WAEAW4Codes@XMLTransService@2@_KQEAVMemoryManager@2@@Z 000000018004f66c f   xerces-c_3_1:Win32TransService.cpp.obj
 0001:0004e744       ??0Win32Transcoder@xercesc_3_1@@QEAA@QEB_WI_KQEAVMemoryManager@1@@Z 000000018004f744 f   xerces-c_3_1:Win32TransService.cpp.obj
 0001:0004e808       ?transcodeFrom@Win32Transcoder@xercesc_3_1@@UEAA_KQEBE_KQEA_W1AEA_KQEAE@Z 000000018004f808 f   xerces-c_3_1:Win32TransService.cpp.obj
 0001:0004e9f0       ?transcodeTo@Win32Transcoder@xercesc_3_1@@UEAA_KQEB_W_KQEAE1AEA_KW4UnRepOpts@XMLTranscoder@2@@Z 000000018004f9f0 f   xerces-c_3_1:Win32TransService.cpp.obj
 0001:0004eb5c       ?canTranscodeTo@Win32Transcoder@xercesc_3_1@@UEAA_NI@Z 000000018004fb5c f   xerces-c_3_1:Win32TransService.cpp.obj
 0001:0004ec04       ??_EWin32LCPTranscoder@xercesc_3_1@@UEAAPEAXI@Z 000000018004fc04 f i  CIL library: CIL module
 0001:0004ec04       ??_GWin32LCPTranscoder@xercesc_3_1@@UEAAPEAXI@Z 000000018004fc04 f i xerces-c_3_1:Win32TransService.cpp.obj
 0001:0004ec04       ??_EXMLLCPTranscoder@xercesc_3_1@@UEAAPEAXI@Z 000000018004fc04 f i  CIL library: CIL module
 0001:0004ec04       ??_GXMLLCPTranscoder@xercesc_3_1@@UEAAPEAXI@Z 000000018004fc04 f i xerces-c_3_1:TransService.cpp.obj
 0001:0004ec34       ?calcRequiredSize@Win32LCPTranscoder@xercesc_3_1@@UEAA_KQEBDQEAVMemoryManager@2@@Z 000000018004fc34 f   xerces-c_3_1:Win32TransService.cpp.obj
 0001:0004ec68       ?calcRequiredSize@Win32LCPTranscoder@xercesc_3_1@@UEAA_KQEB_WQEAVMemoryManager@2@@Z 000000018004fc68 f   xerces-c_3_1:Win32TransService.cpp.obj
 0001:0004eca0       ?transcode@Win32LCPTranscoder@xercesc_3_1@@UEAAPEADQEB_WQEAVMemoryManager@2@@Z 000000018004fca0 f   xerces-c_3_1:Win32TransService.cpp.obj
 0001:0004ed40       ?transcode@Win32LCPTranscoder@xercesc_3_1@@UEAAPEA_WQEBDQEAVMemoryManager@2@@Z 000000018004fd40 f   xerces-c_3_1:Win32TransService.cpp.obj
 0001:0004ede8       ?transcode@Win32LCPTranscoder@xercesc_3_1@@UEAA_NQEBDQEA_W_KQEAVMemoryManager@2@@Z 000000018004fde8 f   xerces-c_3_1:Win32TransService.cpp.obj
 0001:0004ee30       ?transcode@Win32LCPTranscoder@xercesc_3_1@@UEAA_NQEB_WQEAD_KQEAVMemoryManager@2@@Z 000000018004fe30 f   xerces-c_3_1:Win32TransService.cpp.obj
 0001:0004ee9c       ?put@?$RefHashTableOf@VCPMapEntry@xercesc_3_1@@UStringHasher@2@@xercesc_3_1@@QEAAXPEAXQEAVCPMapEntry@2@@Z 000000018004fe9c f i xerces-c_3_1:Win32TransService.cpp.obj
 0001:0004ef70       ??0EmptyStackException@xercesc_3_1@@QEAA@AEBV01@@Z 000000018004ff70 f i xerces-c_3_1:DOMDocumentImpl.cpp.obj
 0001:0004ef94       ??1EmptyStackException@xercesc_3_1@@UEAA@XZ 000000018004ff94 f i xerces-c_3_1:DOMDocumentImpl.cpp.obj
 0001:0004efa4       ?duplicate@EmptyStackException@xercesc_3_1@@UEBAPEAVXMLException@2@XZ 000000018004ffa4 f i xerces-c_3_1:DOMDocumentImpl.cpp.obj
 0001:0004f008       ?getType@EmptyStackException@xercesc_3_1@@UEBAPEB_WXZ 0000000180050008 f i xerces-c_3_1:DOMDocumentImpl.cpp.obj
 0001:0004f010       ??_EEmptyStackException@xercesc_3_1@@UEAAPEAXI@Z 0000000180050010 f i  CIL library: CIL module
 0001:0004f010       ??_GEmptyStackException@xercesc_3_1@@UEAAPEAXI@Z 0000000180050010 f i xerces-c_3_1:DOMDocumentImpl.cpp.obj
 0001:0004f050       ??0NoSuchElementException@xercesc_3_1@@QEAA@AEBV01@@Z 0000000180050050 f i xerces-c_3_1:DOMDocumentImpl.cpp.obj
 0001:0004f074       ??1NoSuchElementException@xercesc_3_1@@UEAA@XZ 0000000180050074 f i xerces-c_3_1:DOMDocumentImpl.cpp.obj
 0001:0004f084       ?duplicate@NoSuchElementException@xercesc_3_1@@UEBAPEAVXMLException@2@XZ 0000000180050084 f i xerces-c_3_1:DOMDocumentImpl.cpp.obj
 0001:0004f0e8       ?getType@NoSuchElementException@xercesc_3_1@@UEBAPEB_WXZ 00000001800500e8 f i xerces-c_3_1:DOMDocumentImpl.cpp.obj
 0001:0004f0f0       ??_ENoSuchElementException@xercesc_3_1@@UEAAPEAXI@Z 00000001800500f0 f i  CIL library: CIL module
 0001:0004f0f0       ??_GNoSuchElementException@xercesc_3_1@@UEAAPEAXI@Z 00000001800500f0 f i xerces-c_3_1:DOMDocumentImpl.cpp.obj
 0001:0004f130       ??0NullPointerException@xercesc_3_1@@QEAA@AEBV01@@Z 0000000180050130 f i xerces-c_3_1:DOMDocumentImpl.cpp.obj
 0001:0004f154       ??1NullPointerException@xercesc_3_1@@UEAA@XZ 0000000180050154 f i xerces-c_3_1:DOMDocumentImpl.cpp.obj
 0001:0004f164       ?duplicate@NullPointerException@xercesc_3_1@@UEBAPEAVXMLException@2@XZ 0000000180050164 f i xerces-c_3_1:DOMDocumentImpl.cpp.obj
 0001:0004f1c8       ?getType@NullPointerException@xercesc_3_1@@UEBAPEB_WXZ 00000001800501c8 f i xerces-c_3_1:DOMDocumentImpl.cpp.obj
 0001:0004f1d0       ??_ENullPointerException@xercesc_3_1@@UEAAPEAXI@Z 00000001800501d0 f i  CIL library: CIL module
 0001:0004f1d0       ??_GNullPointerException@xercesc_3_1@@UEAAPEAXI@Z 00000001800501d0 f i xerces-c_3_1:DOMDocumentImpl.cpp.obj
 0001:0004f210       ??_EDOMDocumentRange@xercesc_3_1@@UEAAPEAXI@Z 0000000180050210 f i  CIL library: CIL module
 0001:0004f210       ??_GDOMDocumentRange@xercesc_3_1@@UEAAPEAXI@Z 0000000180050210 f i xerces-c_3_1:DOMDocumentImpl.cpp.obj
 0001:0004f23c       ??_GDOMDocumentTraversal@xercesc_3_1@@UEAAPEAXI@Z 000000018005023c f i xerces-c_3_1:DOMDocumentImpl.cpp.obj
 0001:0004f23c       ??_EDOMDocumentTraversal@xercesc_3_1@@UEAAPEAXI@Z 000000018005023c f i  CIL library: CIL module
 0001:0004f268       ??_GDOMXPathEvaluator@xercesc_3_1@@UEAAPEAXI@Z 0000000180050268 f i xerces-c_3_1:DOMDocumentImpl.cpp.obj
 0001:0004f268       ??_EDOMXPathEvaluator@xercesc_3_1@@UEAAPEAXI@Z 0000000180050268 f i  CIL library: CIL module
 0001:0004f294       ??1DOMDocument@xercesc_3_1@@UEAA@XZ 0000000180050294 f i xerces-c_3_1:DOMDocumentImpl.cpp.obj
 0001:0004f2c0       ??_GDOMDocument@xercesc_3_1@@UEAAPEAXI@Z 00000001800502c0 f i xerces-c_3_1:DOMDocumentImpl.cpp.obj
 0001:0004f2c0       ??_EDOMDocument@xercesc_3_1@@UEAAPEAXI@Z 00000001800502c0 f i  CIL library: CIL module
 0001:0004f310       ??1DOMMemoryManager@xercesc_3_1@@UEAA@XZ 0000000180050310 f i xerces-c_3_1:DOMDocumentImpl.cpp.obj
 0001:0004f31c       ??_EDOMMemoryManager@xercesc_3_1@@UEAAPEAXI@Z 000000018005031c f i  CIL library: CIL module
 0001:0004f31c       ??_GDOMMemoryManager@xercesc_3_1@@UEAAPEAXI@Z 000000018005031c f i xerces-c_3_1:DOMDocumentImpl.cpp.obj
 0001:0004f348       ??0DOMDocumentImpl@xercesc_3_1@@QEAA@PEAVDOMImplementation@1@QEAVMemoryManager@1@@Z 0000000180050348 f   xerces-c_3_1:DOMDocumentImpl.cpp.obj
 0001:0004f508       ??_GDOMDocumentImpl@xercesc_3_1@@UEAAPEAXI@Z 0000000180050508 f i xerces-c_3_1:DOMDocumentImpl.cpp.obj
 0001:0004f508       ??_EDOMDocumentImpl@xercesc_3_1@@UEAAPEAXI@Z 0000000180050508 f i  CIL library: CIL module
 0001:0004f544       ??1DOMParentNode@xercesc_3_1@@QEAA@XZ 0000000180050544 f i xerces-c_3_1:DOMDocumentImpl.cpp.obj
 0001:0004f550       ??0DOMDocumentImpl@xercesc_3_1@@QEAA@PEB_W0PEAVDOMDocumentType@1@PEAVDOMImplementation@1@QEAVMemoryManager@1@@Z 0000000180050550 f   xerces-c_3_1:DOMDocumentImpl.cpp.obj
 0001:0004f794       ?setDocumentType@DOMDocumentImpl@xercesc_3_1@@QEAAXPEAVDOMDocumentType@2@@Z 0000000180050794 f   xerces-c_3_1:DOMDocumentImpl.cpp.obj
 0001:0004f834       ??1DOMDocumentImpl@xercesc_3_1@@UEAA@XZ 0000000180050834 f   xerces-c_3_1:DOMDocumentImpl.cpp.obj
 0001:0004fa2c       ??_G?$RefHash2KeysTableOf@V?$KeyRefPair@XVDOMUserDataHandler@xercesc_3_1@@@xercesc_3_1@@UPtrHasher@2@@xercesc_3_1@@QEAAPEAXI@Z 0000000180050a2c f i xerces-c_3_1:DOMDocumentImpl.cpp.obj
 0001:0004fae0       ?cloneNode@DOMDocumentImpl@xercesc_3_1@@UEBAPEAVDOMNode@2@_N@Z 0000000180050ae0 f   xerces-c_3_1:DOMDocumentImpl.cpp.obj
 0001:0004fc0c       ?getNodeName@DOMDocumentImpl@xercesc_3_1@@UEBAPEB_WXZ 0000000180050c0c f   xerces-c_3_1:DOMDocumentImpl.cpp.obj
 0001:0004fc14       ?getNodeType@DOMDocumentImpl@xercesc_3_1@@UEBA?AW4NodeType@DOMNode@2@XZ 0000000180050c14 f   xerces-c_3_1:DOMDocumentImpl.cpp.obj
 0001:0004fc1c       ?createAttribute@DOMDocumentImpl@xercesc_3_1@@UEAAPEAVDOMAttr@2@PEB_W@Z 0000000180050c1c f   xerces-c_3_1:DOMDocumentImpl.cpp.obj
 0001:0004fcdc       ?createCDATASection@DOMDocumentImpl@xercesc_3_1@@UEAAPEAVDOMCDATASection@2@PEB_W@Z 0000000180050cdc f   xerces-c_3_1:DOMDocumentImpl.cpp.obj
 0001:0004fd7c       ?createComment@DOMDocumentImpl@xercesc_3_1@@UEAAPEAVDOMComment@2@PEB_W@Z 0000000180050d7c f   xerces-c_3_1:DOMDocumentImpl.cpp.obj
 0001:0004fe1c       ?createDocumentFragment@DOMDocumentImpl@xercesc_3_1@@UEAAPEAVDOMDocumentFragment@2@XZ 0000000180050e1c f   xerces-c_3_1:DOMDocumentImpl.cpp.obj
 0001:0004fea8       ?createDocumentType@DOMDocumentImpl@xercesc_3_1@@UEAAPEAVDOMDocumentType@2@PEB_W@Z 0000000180050ea8 f   xerces-c_3_1:DOMDocumentImpl.cpp.obj
 0001:0004ff6c       ?createDocumentType@DOMDocumentImpl@xercesc_3_1@@UEAAPEAVDOMDocumentType@2@PEB_W00@Z 0000000180050f6c f   xerces-c_3_1:DOMDocumentImpl.cpp.obj
 0001:0005004c       ?createElement@DOMDocumentImpl@xercesc_3_1@@UEAAPEAVDOMElement@2@PEB_W@Z 000000018005104c f   xerces-c_3_1:DOMDocumentImpl.cpp.obj
 0001:0005010c       ?createElementNoCheck@DOMDocumentImpl@xercesc_3_1@@UEAAPEAVDOMElement@2@PEB_W@Z 000000018005110c f   xerces-c_3_1:DOMDocumentImpl.cpp.obj
 0001:00050160       ?createEntity@DOMDocumentImpl@xercesc_3_1@@UEAAPEAVDOMEntity@2@PEB_W@Z 0000000180051160 f   xerces-c_3_1:DOMDocumentImpl.cpp.obj
 0001:00050224       ?createEntityReference@DOMDocumentImpl@xercesc_3_1@@UEAAPEAVDOMEntityReference@2@PEB_W@Z 0000000180051224 f   xerces-c_3_1:DOMDocumentImpl.cpp.obj
 0001:000502e4       ?createEntityReferenceByParser@DOMDocumentImpl@xercesc_3_1@@QEAAPEAVDOMEntityReference@2@PEB_W@Z 00000001800512e4 f   xerces-c_3_1:DOMDocumentImpl.cpp.obj
 0001:000503a0       ?createNotation@DOMDocumentImpl@xercesc_3_1@@UEAAPEAVDOMNotation@2@PEB_W@Z 00000001800513a0 f   xerces-c_3_1:DOMDocumentImpl.cpp.obj
 0001:000504bc       ?createProcessingInstruction@DOMDocumentImpl@xercesc_3_1@@UEAAPEAVDOMProcessingInstruction@2@PEB_W0@Z 00000001800514bc f   xerces-c_3_1:DOMDocumentImpl.cpp.obj
 0001:000505e8       ?createTextNode@DOMDocumentImpl@xercesc_3_1@@UEAAPEAVDOMText@2@PEB_W@Z 00000001800515e8 f   xerces-c_3_1:DOMDocumentImpl.cpp.obj
 0001:00050688       ?createNodeIterator@DOMDocumentImpl@xercesc_3_1@@UEAAPEAVDOMNodeIterator@2@PEAVDOMNode@2@KPEAVDOMNodeFilter@2@_N@Z 0000000180051688 f   xerces-c_3_1:DOMDocumentImpl.cpp.obj
 0001:000507e4       ?getNodeIterators@DOMDocumentImpl@xercesc_3_1@@UEBAPEAV?$RefVectorOf@VDOMNodeIteratorImpl@xercesc_3_1@@@2@XZ 00000001800517e4 f   xerces-c_3_1:DOMDocumentImpl.cpp.obj
 0001:000507ec       ?removeNodeIterator@DOMDocumentImpl@xercesc_3_1@@UEAAXPEAVDOMNodeIteratorImpl@2@@Z 00000001800517ec f   xerces-c_3_1:DOMDocumentImpl.cpp.obj
 0001:00050860       ?createExpression@DOMDocumentImpl@xercesc_3_1@@UEAAPEAVDOMXPathExpression@2@PEB_WPEBVDOMXPathNSResolver@2@@Z 0000000180051860 f   xerces-c_3_1:DOMDocumentImpl.cpp.obj
 0001:000508cc       ?createNSResolver@DOMDocumentImpl@xercesc_3_1@@UEAAPEAVDOMXPathNSResolver@2@PEBVDOMNode@2@@Z 00000001800518cc f   xerces-c_3_1:DOMDocumentImpl.cpp.obj
 0001:00050938       ?evaluate@DOMDocumentImpl@xercesc_3_1@@UEAAPEAVDOMXPathResult@2@PEB_WPEBVDOMNode@2@PEBVDOMXPathNSResolver@2@W4ResultType@32@PEAV32@@Z 0000000180051938 f   xerces-c_3_1:DOMDocumentImpl.cpp.obj
 0001:000509ac       ?createTreeWalker@DOMDocumentImpl@xercesc_3_1@@UEAAPEAVDOMTreeWalker@2@PEAVDOMNode@2@KPEAVDOMNodeFilter@2@_N@Z 00000001800519ac f   xerces-c_3_1:DOMDocumentImpl.cpp.obj
 0001:00050a48       ?getDoctype@DOMDocumentImpl@xercesc_3_1@@UEBAPEAVDOMDocumentType@2@XZ 0000000180051a48 f   xerces-c_3_1:DOMDocumentImpl.cpp.obj
 0001:00050a50       ?getDocumentElement@DOMDocumentImpl@xercesc_3_1@@UEBAPEAVDOMElement@2@XZ 0000000180051a50 f   xerces-c_3_1:DOMDocumentImpl.cpp.obj
 0001:00050a58       ?getElementsByTagName@DOMDocumentImpl@xercesc_3_1@@UEBAPEAVDOMNodeList@2@PEB_W@Z 0000000180051a58 f   xerces-c_3_1:DOMDocumentImpl.cpp.obj
 0001:00050a74       ?getImplementation@DOMDocumentImpl@xercesc_3_1@@UEBAPEAVDOMImplementation@2@XZ 0000000180051a74 f   xerces-c_3_1:DOMDocumentImpl.cpp.obj
 0001:00050a7c       ?insertBefore@DOMDocumentImpl@xercesc_3_1@@UEAAPEAVDOMNode@2@PEAV32@0@Z 0000000180051a7c f   xerces-c_3_1:DOMDocumentImpl.cpp.obj
 0001:00050b80       ?replaceChild@DOMDocumentImpl@xercesc_3_1@@UEAAPEAVDOMNode@2@PEAV32@0@Z 0000000180051b80 f   xerces-c_3_1:DOMDocumentImpl.cpp.obj
 0001:00050c34       ?removeChild@DOMDocumentImpl@xercesc_3_1@@UEAAPEAVDOMNode@2@PEAV32@@Z 0000000180051c34 f   xerces-c_3_1:DOMDocumentImpl.cpp.obj
 0001:00050c8c       ?importNode@DOMDocumentImpl@xercesc_3_1@@UEAAPEAVDOMNode@2@PEBV32@_N@Z 0000000180051c8c f   xerces-c_3_1:DOMDocumentImpl.cpp.obj
 0001:00050c9c       ?createElementNS@DOMDocumentImpl@xercesc_3_1@@UEAAPEAVDOMElement@2@PEB_W0@Z 0000000180051c9c f   xerces-c_3_1:DOMDocumentImpl.cpp.obj
 0001:00050d70       ?createElementNS@DOMDocumentImpl@xercesc_3_1@@UEAAPEAVDOMElement@2@PEB_W0_K1@Z 0000000180051d70 f   xerces-c_3_1:DOMDocumentImpl.cpp.obj
 0001:00050e68       ?createAttributeNS@DOMDocumentImpl@xercesc_3_1@@UEAAPEAVDOMAttr@2@PEB_W0@Z 0000000180051e68 f   xerces-c_3_1:DOMDocumentImpl.cpp.obj
 0001:00050f54       ?getElementsByTagNameNS@DOMDocumentImpl@xercesc_3_1@@UEBAPEAVDOMNodeList@2@PEB_W0@Z 0000000180051f54 f   xerces-c_3_1:DOMDocumentImpl.cpp.obj
 0001:00050f74       ?getElementById@DOMDocumentImpl@xercesc_3_1@@UEBAPEAVDOMElement@2@PEB_W@Z 0000000180051f74 f   xerces-c_3_1:DOMDocumentImpl.cpp.obj
 0001:00050fa4       ?getElements@DOMDocumentTypeImpl@xercesc_3_1@@UEBAPEAVDOMNamedNodeMap@2@XZ 0000000180051fa4 f   xerces-c_3_1:DOMDocumentTypeImpl.cpp.obj
 0001:00050fa4       ?getBaseURI@DOMDocumentImpl@xercesc_3_1@@UEBAPEB_WXZ 0000000180051fa4 f   xerces-c_3_1:DOMDocumentImpl.cpp.obj
 0001:00050fa4       ?getInputEncoding@DOMEntityImpl@xercesc_3_1@@UEBAPEB_WXZ 0000000180051fa4 f   xerces-c_3_1:DOMEntityImpl.cpp.obj
 0001:00050fa4       ?getXmlEncoding@DOMDocumentImpl@xercesc_3_1@@UEBAPEB_WXZ 0000000180051fa4 f   xerces-c_3_1:DOMDocumentImpl.cpp.obj
 0001:00050fa4       ?getNamespaceURI@DOMElementNSImpl@xercesc_3_1@@UEBAPEB_WXZ 0000000180051fa4 f   xerces-c_3_1:DOMElementNSImpl.cpp.obj
 0001:00050fac       ?createRange@DOMDocumentImpl@xercesc_3_1@@UEAAPEAVDOMRange@2@XZ 0000000180051fac f   xerces-c_3_1:DOMDocumentImpl.cpp.obj
 0001:00051170       ?getRanges@DOMDocumentImpl@xercesc_3_1@@UEBAPEAV?$RefVectorOf@VDOMRangeImpl@xercesc_3_1@@@2@XZ 0000000180052170 f   xerces-c_3_1:DOMDocumentImpl.cpp.obj
 0001:00051178       ?removeRange@DOMDocumentImpl@xercesc_3_1@@UEAAXPEAVDOMRangeImpl@2@@Z 0000000180052178 f   xerces-c_3_1:DOMDocumentImpl.cpp.obj
 0001:000511ec       ?isKidOK@DOMDocumentImpl@xercesc_3_1@@SA_NPEAVDOMNode@2@0@Z 00000001800521ec f   xerces-c_3_1:DOMDocumentImpl.cpp.obj
 0001:000513ac       ?changed@DOMDocumentImpl@xercesc_3_1@@UEAAXXZ 00000001800523ac f   xerces-c_3_1:DOMDocumentImpl.cpp.obj
 0001:000513b4       ?changes@DOMDocumentImpl@xercesc_3_1@@UEBAHXZ 00000001800523b4 f   xerces-c_3_1:DOMDocumentImpl.cpp.obj
 0001:000513bc       ?appendChild@DOMDocumentImpl@xercesc_3_1@@UEAAPEAVDOMNode@2@PEAV32@@Z 00000001800523bc f   xerces-c_3_1:DOMDocumentImpl.cpp.obj
 0001:000513c8       ?getChildNodes@DOMAttrImpl@xercesc_3_1@@UEBAPEAVDOMNodeList@2@XZ 00000001800523c8 f   xerces-c_3_1:DOMAttrImpl.cpp.obj
 0001:000513c8       ?getChildNodes@DOMDocumentFragmentImpl@xercesc_3_1@@UEBAPEAVDOMNodeList@2@XZ 00000001800523c8 f   xerces-c_3_1:DOMDocumentFragmentImpl.cpp.obj
 0001:000513c8       ?getChildNodes@DOMEntityReferenceImpl@xercesc_3_1@@UEBAPEAVDOMNodeList@2@XZ 00000001800523c8 f   xerces-c_3_1:DOMEntityReferenceImpl.cpp.obj
 0001:000513c8       ?getChildNodes@DOMDocumentImpl@xercesc_3_1@@UEBAPEAVDOMNodeList@2@XZ 00000001800523c8 f   xerces-c_3_1:DOMDocumentImpl.cpp.obj
 0001:000513c8       ?getChildNodes@DOMDocumentTypeImpl@xercesc_3_1@@UEBAPEAVDOMNodeList@2@XZ 00000001800523c8 f   xerces-c_3_1:DOMDocumentTypeImpl.cpp.obj
 0001:000513c8       ?getChildNodes@DOMElementImpl@xercesc_3_1@@UEBAPEAVDOMNodeList@2@XZ 00000001800523c8 f   xerces-c_3_1:DOMElementImpl.cpp.obj
 0001:000513d0       ?isSameNode@DOMDocumentTypeImpl@xercesc_3_1@@UEBA_NPEBVDOMNode@2@@Z 00000001800523d0 f   xerces-c_3_1:DOMDocumentTypeImpl.cpp.obj
 0001:000513d0       ?isSameNode@DOMEntityReferenceImpl@xercesc_3_1@@UEBA_NPEBVDOMNode@2@@Z 00000001800523d0 f   xerces-c_3_1:DOMEntityReferenceImpl.cpp.obj
 0001:000513d0       ?isSameNode@DOMDocumentFragmentImpl@xercesc_3_1@@UEBA_NPEBVDOMNode@2@@Z 00000001800523d0 f   xerces-c_3_1:DOMDocumentFragmentImpl.cpp.obj
 0001:000513d0       ?isSameNode@DOMNotationImpl@xercesc_3_1@@UEBA_NPEBVDOMNode@2@@Z 00000001800523d0 f   xerces-c_3_1:DOMNotationImpl.cpp.obj
 0001:000513d0       ?isSameNode@DOMEntityImpl@xercesc_3_1@@UEBA_NPEBVDOMNode@2@@Z 00000001800523d0 f   xerces-c_3_1:DOMEntityImpl.cpp.obj
 0001:000513d0       ?isSameNode@DOMAttrImpl@xercesc_3_1@@UEBA_NPEBVDOMNode@2@@Z 00000001800523d0 f   xerces-c_3_1:DOMAttrImpl.cpp.obj
 0001:000513d0       ?isSameNode@DOMTextImpl@xercesc_3_1@@UEBA_NPEBVDOMNode@2@@Z 00000001800523d0 f   xerces-c_3_1:DOMTextImpl.cpp.obj
 0001:000513d0       ?isSameNode@DOMElementImpl@xercesc_3_1@@UEBA_NPEBVDOMNode@2@@Z 00000001800523d0 f   xerces-c_3_1:DOMElementImpl.cpp.obj
 0001:000513d0       ?isSameNode@DOMProcessingInstructionImpl@xercesc_3_1@@UEBA_NPEBVDOMNode@2@@Z 00000001800523d0 f   xerces-c_3_1:DOMProcessingInstructionImpl.cpp.obj
 0001:000513d0       ?isSameNode@DOMDocumentImpl@xercesc_3_1@@UEBA_NPEBVDOMNode@2@@Z 00000001800523d0 f   xerces-c_3_1:DOMDocumentImpl.cpp.obj
 0001:000513d0       ?isSameNode@DOMCommentImpl@xercesc_3_1@@UEBA_NPEBVDOMNode@2@@Z 00000001800523d0 f   xerces-c_3_1:DOMCommentImpl.cpp.obj
 0001:000513d0       ?isSameNode@DOMCDATASectionImpl@xercesc_3_1@@UEBA_NPEBVDOMNode@2@@Z 00000001800523d0 f   xerces-c_3_1:DOMCDATASectionImpl.cpp.obj
 0001:000513d8       ?cloneString@DOMDocumentImpl@xercesc_3_1@@UEAAPEA_WPEB_W@Z 00000001800523d8 f   xerces-c_3_1:DOMDocumentImpl.cpp.obj
 0001:0005144c       ?getMemoryAllocationBlockSize@DOMDocumentImpl@xercesc_3_1@@UEBA_KXZ 000000018005244c f   xerces-c_3_1:DOMDocumentImpl.cpp.obj
 0001:00051454       ?setMemoryAllocationBlockSize@DOMDocumentImpl@xercesc_3_1@@UEAAX_K@Z 0000000180052454 f   xerces-c_3_1:DOMDocumentImpl.cpp.obj
 0001:00051468       ?allocate@DOMDocumentImpl@xercesc_3_1@@UEAAPEAX_K@Z 0000000180052468 f   xerces-c_3_1:DOMDocumentImpl.cpp.obj
 0001:00051568       ?deleteHeap@DOMDocumentImpl@xercesc_3_1@@QEAAXXZ 0000000180052568 f   xerces-c_3_1:DOMDocumentImpl.cpp.obj
 0001:000515b0       ?getDeepNodeList@DOMDocumentImpl@xercesc_3_1@@QEAAPEAVDOMNodeList@2@PEBVDOMNode@2@PEB_W@Z 00000001800525b0 f   xerces-c_3_1:DOMDocumentImpl.cpp.obj
 0001:00051690       ?getDeepNodeList@DOMDocumentImpl@xercesc_3_1@@QEAAPEAVDOMNodeList@2@PEBVDOMNode@2@PEB_W1@Z 0000000180052690 f   xerces-c_3_1:DOMDocumentImpl.cpp.obj
 0001:00051784       ?getXmlStandalone@DOMDocumentImpl@xercesc_3_1@@UEBA_NXZ 0000000180052784 f   xerces-c_3_1:DOMDocumentImpl.cpp.obj
 0001:00051784       ?getValidated@SchemaGrammar@xercesc_3_1@@UEBA_NXZ 0000000180052784 f   xerces-c_3_1:SchemaGrammar.cpp.obj
 0001:00051788       ?setXmlVersion@DOMDocumentImpl@xercesc_3_1@@UEAAXPEB_W@Z 0000000180052788 f   xerces-c_3_1:DOMDocumentImpl.cpp.obj
 0001:00051864       ?getInternalSubset@DOMDocumentTypeImpl@xercesc_3_1@@UEBAPEB_WXZ 0000000180052864 f   xerces-c_3_1:DOMDocumentTypeImpl.cpp.obj
 0001:00051864       ?getDocumentURI@DOMDocumentImpl@xercesc_3_1@@UEBAPEB_WXZ 0000000180052864 f   xerces-c_3_1:DOMDocumentImpl.cpp.obj
 0001:00051864       ?getBaseURI@DOMEntityImpl@xercesc_3_1@@UEBAPEB_WXZ 0000000180052864 f   xerces-c_3_1:DOMEntityImpl.cpp.obj
 0001:0005186c       ?setDocumentURI@DOMDocumentImpl@xercesc_3_1@@UEAAXPEB_W@Z 000000018005286c f   xerces-c_3_1:DOMDocumentImpl.cpp.obj
 0001:000518dc       ?getStrictErrorChecking@DOMDocumentImpl@xercesc_3_1@@UEBA_NXZ 00000001800528dc f   xerces-c_3_1:DOMDocumentImpl.cpp.obj
 0001:000518e4       ?setStrictErrorChecking@DOMDocumentImpl@xercesc_3_1@@UEAAX_N@Z 00000001800528e4 f   xerces-c_3_1:DOMDocumentImpl.cpp.obj
 0001:000518ec       ?adoptNode@DOMDocumentImpl@xercesc_3_1@@UEAAPEAVDOMNode@2@PEAV32@@Z 00000001800528ec f   xerces-c_3_1:DOMDocumentImpl.cpp.obj
 0001:000519c4       ?normalizeDocument@DOMDocumentImpl@xercesc_3_1@@UEAAXXZ 00000001800529c4 f   xerces-c_3_1:DOMDocumentImpl.cpp.obj
 0001:00051af8       ?getDOMConfig@DOMDocumentImpl@xercesc_3_1@@UEBAPEAVDOMConfiguration@2@XZ 0000000180052af8 f   xerces-c_3_1:DOMDocumentImpl.cpp.obj
 0001:00051b60       ?importNode@DOMDocumentImpl@xercesc_3_1@@MEAAPEAVDOMNode@2@PEBV32@_N1@Z 0000000180052b60 f   xerces-c_3_1:DOMDocumentImpl.cpp.obj
 0001:0005250c       ?setUserData@DOMDocumentImpl@xercesc_3_1@@QEAAPEAXPEAVDOMNodeImpl@2@PEB_WPEAXPEAVDOMUserDataHandler@2@@Z 000000018005350c f   xerces-c_3_1:DOMDocumentImpl.cpp.obj
 0001:000526c4       ?callUserDataHandlers@DOMDocumentImpl@xercesc_3_1@@QEBAXPEBVDOMNodeImpl@2@W4DOMOperationType@DOMUserDataHandler@2@PEBVDOMNode@2@PEAV62@@Z 00000001800536c4 f   xerces-c_3_1:DOMDocumentImpl.cpp.obj
 0001:000528ec       ?renameNode@DOMDocumentImpl@xercesc_3_1@@UEAAPEAVDOMNode@2@PEAV32@PEB_W1@Z 00000001800538ec f   xerces-c_3_1:DOMDocumentImpl.cpp.obj
 0001:000529d4       ?release@DOMDocumentImpl@xercesc_3_1@@UEAAXXZ 00000001800539d4 f   xerces-c_3_1:DOMDocumentImpl.cpp.obj
 0001:00052a74       ?releaseDocNotifyUserData@DOMDocumentImpl@xercesc_3_1@@QEAAXPEAVDOMNode@2@@Z 0000000180053a74 f   xerces-c_3_1:DOMDocumentImpl.cpp.obj
 0001:00052b38       ?release@DOMDocumentImpl@xercesc_3_1@@UEAAXPEAVDOMNode@2@W4NodeObjectType@DOMMemoryManager@2@@Z 0000000180053b38 f   xerces-c_3_1:DOMDocumentImpl.cpp.obj
 0001:00052c58       ?popBuffer@DOMDocumentImpl@xercesc_3_1@@QEAAPEAVDOMBuffer@2@_K@Z 0000000180053c58 f   xerces-c_3_1:DOMDocumentImpl.cpp.obj
 0001:00052db4       ?allocate@DOMDocumentImpl@xercesc_3_1@@UEAAPEAX_KW4NodeObjectType@DOMMemoryManager@2@@Z 0000000180053db4 f   xerces-c_3_1:DOMDocumentImpl.cpp.obj
 0001:00052e14       ?isSupported@DOMDocumentImpl@xercesc_3_1@@UEBA_NPEB_W0@Z 0000000180053e14 f   xerces-c_3_1:DOMDocumentImpl.cpp.obj
 0001:00052f08       ?getFeature@DOMDocumentImpl@xercesc_3_1@@UEBAPEAXPEB_W0@Z 0000000180053f08 f   xerces-c_3_1:DOMDocumentImpl.cpp.obj
 0001:00052f90       ??1?$XMLEnumerator@V?$KeyRefPair@XVDOMUserDataHandler@xercesc_3_1@@@xercesc_3_1@@@xercesc_3_1@@UEAA@XZ 0000000180053f90 f i xerces-c_3_1:DOMDocumentImpl.cpp.obj
 0001:00052f9c       ??1?$XMLEnumerator@H@xercesc_3_1@@UEAA@XZ 0000000180053f9c f i xerces-c_3_1:DOMDocumentImpl.cpp.obj
 0001:00052fa8       ??_G?$XMLEnumerator@V?$KeyRefPair@XVDOMUserDataHandler@xercesc_3_1@@@xercesc_3_1@@@xercesc_3_1@@UEAAPEAXI@Z 0000000180053fa8 f i xerces-c_3_1:DOMDocumentImpl.cpp.obj
 0001:00052fa8       ??_E?$XMLEnumerator@V?$KeyRefPair@XVDOMUserDataHandler@xercesc_3_1@@@xercesc_3_1@@@xercesc_3_1@@UEAAPEAXI@Z 0000000180053fa8 f i  CIL library: CIL module
 0001:00052fd4       ??_G?$XMLEnumerator@H@xercesc_3_1@@UEAAPEAXI@Z 0000000180053fd4 f i xerces-c_3_1:DOMDocumentImpl.cpp.obj
 0001:00052fd4       ??_E?$XMLEnumerator@H@xercesc_3_1@@UEAAPEAXI@Z 0000000180053fd4 f i  CIL library: CIL module
 0001:00053000       ??0?$DOMDeepNodeListPool@VDOMDeepNodeListImpl@xercesc_3_1@@UPtrHasher@2@@xercesc_3_1@@QEAA@_K_N0@Z 0000000180054000 f i xerces-c_3_1:DOMDocumentImpl.cpp.obj
 0001:00053098       ?cleanup@?$DOMDeepNodeListPool@VDOMDeepNodeListImpl@xercesc_3_1@@UPtrHasher@2@@xercesc_3_1@@QEAAXXZ 0000000180054098 f i xerces-c_3_1:DOMDocumentImpl.cpp.obj
 0001:00053160       ?getById@?$DOMDeepNodeListPool@VDOMDeepNodeListImpl@xercesc_3_1@@UPtrHasher@2@@xercesc_3_1@@QEAAPEAVDOMDeepNodeListImpl@2@_K@Z 0000000180054160 f i xerces-c_3_1:DOMDocumentImpl.cpp.obj
 0001:000531d4       ?put@?$DOMDeepNodeListPool@VDOMDeepNodeListImpl@xercesc_3_1@@UPtrHasher@2@@xercesc_3_1@@QEAA_KPEAXPEA_W1QEAVDOMDeepNodeListImpl@2@@Z 00000001800541d4 f i xerces-c_3_1:DOMDocumentImpl.cpp.obj
 0001:000534b4       ??1?$BaseRefVectorOf@VDOMRangeImpl@xercesc_3_1@@@xercesc_3_1@@UEAA@XZ 00000001800544b4 f i xerces-c_3_1:DOMDocumentImpl.cpp.obj
 0001:000534c0       ??1?$BaseRefVectorOf@VDOMNodeIteratorImpl@xercesc_3_1@@@xercesc_3_1@@UEAA@XZ 00000001800544c0 f i xerces-c_3_1:DOMDocumentImpl.cpp.obj
 0001:000534cc       ?removeKey@?$RefHash2KeysTableOf@V?$KeyRefPair@XVDOMUserDataHandler@xercesc_3_1@@@xercesc_3_1@@UPtrHasher@2@@xercesc_3_1@@QEAAXQEBX@Z 00000001800544cc f i xerces-c_3_1:DOMDocumentImpl.cpp.obj
 0001:00053578       ?removeKey@?$RefHash2KeysTableOf@V?$KeyRefPair@XVDOMUserDataHandler@xercesc_3_1@@@xercesc_3_1@@UPtrHasher@2@@xercesc_3_1@@QEAAXQEBXH@Z 0000000180054578 f i xerces-c_3_1:DOMDocumentImpl.cpp.obj
 0001:00053654       ?transferElement@?$RefHash2KeysTableOf@V?$KeyRefPair@XVDOMUserDataHandler@xercesc_3_1@@@xercesc_3_1@@UPtrHasher@2@@xercesc_3_1@@QEAAXQEBXPEAX@Z 0000000180054654 f i xerces-c_3_1:DOMDocumentImpl.cpp.obj
 0001:000537a4       ?put@?$RefHash2KeysTableOf@V?$KeyRefPair@XVDOMUserDataHandler@xercesc_3_1@@@xercesc_3_1@@UPtrHasher@2@@xercesc_3_1@@QEAAXPEAXHQEAV?$KeyRefPair@XVDOMUserDataHandler@xercesc_3_1@@@2@@Z 00000001800547a4 f i xerces-c_3_1:DOMDocumentImpl.cpp.obj
 0001:00053888       ??A?$RefArrayOf@V?$RefStackOf@VDOMNode@xercesc_3_1@@@xercesc_3_1@@@xercesc_3_1@@QEAAAEAPEAV?$RefStackOf@VDOMNode@xercesc_3_1@@@1@_K@Z 0000000180054888 f i xerces-c_3_1:DOMDocumentImpl.cpp.obj
 0001:000538f4       ??1?$BaseRefVectorOf@VDOMBuffer@xercesc_3_1@@@xercesc_3_1@@UEAA@XZ 00000001800548f4 f i xerces-c_3_1:DOMDocumentImpl.cpp.obj
 0001:00053900       ?setElementAt@?$BaseRefVectorOf@VDOMBuffer@xercesc_3_1@@@xercesc_3_1@@UEAAXQEAVDOMBuffer@2@_K@Z 0000000180054900 f i xerces-c_3_1:DOMDocumentImpl.cpp.obj
 0001:000539a8       ?removeAllElements@?$BaseRefVectorOf@VDOMBuffer@xercesc_3_1@@@xercesc_3_1@@UEAAXXZ 00000001800549a8 f i xerces-c_3_1:DOMDocumentImpl.cpp.obj
 0001:00053a00       ?removeElementAt@?$BaseRefVectorOf@VDOMBuffer@xercesc_3_1@@@xercesc_3_1@@UEAAX_K@Z 0000000180054a00 f i xerces-c_3_1:DOMDocumentImpl.cpp.obj
 0001:00053adc       ?removeLastElement@?$BaseRefVectorOf@VDOMBuffer@xercesc_3_1@@@xercesc_3_1@@UEAAXXZ 0000000180054adc f i xerces-c_3_1:DOMDocumentImpl.cpp.obj
 0001:00053b14       ?cleanup@?$BaseRefVectorOf@VDOMBuffer@xercesc_3_1@@@xercesc_3_1@@UEAAXXZ 0000000180054b14 f i xerces-c_3_1:DOMDocumentImpl.cpp.obj
 0001:00053b6c       ??1?$RefVectorOf@VDOMBuffer@xercesc_3_1@@@xercesc_3_1@@UEAA@XZ 0000000180054b6c f i xerces-c_3_1:DOMDocumentImpl.cpp.obj
 0001:00053be4       ??0?$RefHash2KeysTableOfEnumerator@V?$KeyRefPair@XVDOMUserDataHandler@xercesc_3_1@@@xercesc_3_1@@UPtrHasher@2@@xercesc_3_1@@QEAA@QEAV?$RefHash2KeysTableOf@V?$KeyRefPair@XVDOMUserDataHandler@xercesc_3_1@@@xercesc_3_1@@UPtrHasher@2@@1@_NQEAVMemoryManager@1@@Z 0000000180054be4 f i xerces-c_3_1:DOMDocumentImpl.cpp.obj
 0001:00053c7c       ??1?$RefHash2KeysTableOfEnumerator@V?$KeyRefPair@XVDOMUserDataHandler@xercesc_3_1@@@xercesc_3_1@@UPtrHasher@2@@xercesc_3_1@@UEAA@XZ 0000000180054c7c f i xerces-c_3_1:DOMDocumentImpl.cpp.obj
 0001:00053cc4       ?nextElement@?$RefHash2KeysTableOfEnumerator@V?$KeyRefPair@XVDOMUserDataHandler@xercesc_3_1@@@xercesc_3_1@@UPtrHasher@2@@xercesc_3_1@@UEAAAEAV?$KeyRefPair@XVDOMUserDataHandler@xercesc_3_1@@@2@XZ 0000000180054cc4 f i xerces-c_3_1:DOMDocumentImpl.cpp.obj
 0001:00053d4c       ?Reset@?$RefHash2KeysTableOfEnumerator@V?$KeyRefPair@XVDOMUserDataHandler@xercesc_3_1@@@xercesc_3_1@@UPtrHasher@2@@xercesc_3_1@@UEAAXXZ 0000000180054d4c f i xerces-c_3_1:DOMDocumentImpl.cpp.obj
 0001:00053d74       ??0?$ValueVectorOf@H@xercesc_3_1@@QEAA@_KQEAVMemoryManager@1@_N@Z 0000000180054d74 f i xerces-c_3_1:DOMDocumentImpl.cpp.obj
 0001:00053d74       ??0?$ValueVectorOf@I@xercesc_3_1@@QEAA@_KQEAVMemoryManager@1@_N@Z 0000000180054d74 f i xerces-c_3_1:XTemplateSerializer.cpp.obj
 0001:00053dc0       ?addElement@?$ValueVectorOf@I@xercesc_3_1@@QEAAXAEBI@Z 0000000180054dc0 f i xerces-c_3_1:XTemplateSerializer.cpp.obj
 0001:00053dc0       ?addElement@?$ValueVectorOf@H@xercesc_3_1@@QEAAXAEBH@Z 0000000180054dc0 f i xerces-c_3_1:DOMDocumentImpl.cpp.obj
 0001:00053eb0       ??1?$ValueVectorEnumerator@H@xercesc_3_1@@UEAA@XZ 0000000180054eb0 f i xerces-c_3_1:DOMDocumentImpl.cpp.obj
 0001:00053f18       ?hasMoreElements@?$ValueVectorEnumerator@H@xercesc_3_1@@UEBA_NXZ 0000000180054f18 f i xerces-c_3_1:DOMDocumentImpl.cpp.obj
 0001:00053f28       ?nextElement@?$ValueVectorEnumerator@H@xercesc_3_1@@UEAAAEAHXZ 0000000180054f28 f i xerces-c_3_1:DOMDocumentImpl.cpp.obj
 0001:00053f50       ?Reset@?$ValueVectorEnumerator@H@xercesc_3_1@@UEAAXXZ 0000000180054f50 f i xerces-c_3_1:DOMDocumentImpl.cpp.obj
 0001:00053f50       ?Reset@?$BaseRefVectorEnumerator@VSchemaInfo@xercesc_3_1@@@xercesc_3_1@@UEAAXXZ 0000000180054f50 f i xerces-c_3_1:TraverseSchema.cpp.obj
 0001:00053f58       ??1?$BaseRefVectorOf@VDOMNode@xercesc_3_1@@@xercesc_3_1@@UEAA@XZ 0000000180054f58 f i xerces-c_3_1:DOMDocumentImpl.cpp.obj
 0001:00053f64       ??1?$RefVectorOf@VDOMNode@xercesc_3_1@@@xercesc_3_1@@UEAA@XZ 0000000180054f64 f i xerces-c_3_1:DOMDocumentImpl.cpp.obj
 0001:00053fdc       ??_G?$BaseRefVectorOf@VDOMRangeImpl@xercesc_3_1@@@xercesc_3_1@@UEAAPEAXI@Z 0000000180054fdc f i xerces-c_3_1:DOMDocumentImpl.cpp.obj
 0001:00053fdc       ??_E?$BaseRefVectorOf@VDOMRangeImpl@xercesc_3_1@@@xercesc_3_1@@UEAAPEAXI@Z 0000000180054fdc f i  CIL library: CIL module
 0001:0005400c       ??_E?$RefVectorOf@VDOMRangeImpl@xercesc_3_1@@@xercesc_3_1@@UEAAPEAXI@Z 000000018005500c f i  CIL library: CIL module
 0001:0005400c       ??_G?$RefVectorOf@VDOMRangeImpl@xercesc_3_1@@@xercesc_3_1@@UEAAPEAXI@Z 000000018005500c f i xerces-c_3_1:DOMDocumentImpl.cpp.obj
 0001:000540a8       ??_G?$BaseRefVectorOf@VDOMNodeIteratorImpl@xercesc_3_1@@@xercesc_3_1@@UEAAPEAXI@Z 00000001800550a8 f i xerces-c_3_1:DOMDocumentImpl.cpp.obj
 0001:000540a8       ??_E?$BaseRefVectorOf@VDOMNodeIteratorImpl@xercesc_3_1@@@xercesc_3_1@@UEAAPEAXI@Z 00000001800550a8 f i  CIL library: CIL module
 0001:000540d8       ??_E?$RefVectorOf@VDOMNodeIteratorImpl@xercesc_3_1@@@xercesc_3_1@@UEAAPEAXI@Z 00000001800550d8 f i  CIL library: CIL module
 0001:000540d8       ??_G?$RefVectorOf@VDOMNodeIteratorImpl@xercesc_3_1@@@xercesc_3_1@@UEAAPEAXI@Z 00000001800550d8 f i xerces-c_3_1:DOMDocumentImpl.cpp.obj
 0001:00054174       ??_E?$BaseRefVectorOf@VDOMBuffer@xercesc_3_1@@@xercesc_3_1@@UEAAPEAXI@Z 0000000180055174 f i  CIL library: CIL module
 0001:00054174       ??_G?$BaseRefVectorOf@VDOMBuffer@xercesc_3_1@@@xercesc_3_1@@UEAAPEAXI@Z 0000000180055174 f i xerces-c_3_1:DOMDocumentImpl.cpp.obj
 0001:000541a4       ??_E?$RefVectorOf@VDOMBuffer@xercesc_3_1@@@xercesc_3_1@@UEAAPEAXI@Z 00000001800551a4 f i  CIL library: CIL module
 0001:000541a4       ??_G?$RefVectorOf@VDOMBuffer@xercesc_3_1@@@xercesc_3_1@@UEAAPEAXI@Z 00000001800551a4 f i xerces-c_3_1:DOMDocumentImpl.cpp.obj
 0001:000541e0       ??_E?$RefHash2KeysTableOfEnumerator@V?$KeyRefPair@XVDOMUserDataHandler@xercesc_3_1@@@xercesc_3_1@@UPtrHasher@2@@xercesc_3_1@@UEAAPEAXI@Z 00000001800551e0 f i  CIL library: CIL module
 0001:000541e0       ??_G?$RefHash2KeysTableOfEnumerator@V?$KeyRefPair@XVDOMUserDataHandler@xercesc_3_1@@@xercesc_3_1@@UPtrHasher@2@@xercesc_3_1@@UEAAPEAXI@Z 00000001800551e0 f i xerces-c_3_1:DOMDocumentImpl.cpp.obj
 0001:0005421c       ??_G?$ValueVectorEnumerator@H@xercesc_3_1@@UEAAPEAXI@Z 000000018005521c f i xerces-c_3_1:DOMDocumentImpl.cpp.obj
 0001:0005421c       ??_E?$ValueVectorEnumerator@H@xercesc_3_1@@UEAAPEAXI@Z 000000018005521c f i  CIL library: CIL module
 0001:00054258       ??_G?$BaseRefVectorOf@VDOMNode@xercesc_3_1@@@xercesc_3_1@@UEAAPEAXI@Z 0000000180055258 f i xerces-c_3_1:DOMDocumentImpl.cpp.obj
 0001:00054258       ??_E?$BaseRefVectorOf@VDOMNode@xercesc_3_1@@@xercesc_3_1@@UEAAPEAXI@Z 0000000180055258 f i  CIL library: CIL module
 0001:00054288       ??_E?$RefVectorOf@VDOMNode@xercesc_3_1@@@xercesc_3_1@@UEAAPEAXI@Z 0000000180055288 f i  CIL library: CIL module
 0001:00054288       ??_G?$RefVectorOf@VDOMNode@xercesc_3_1@@@xercesc_3_1@@UEAAPEAXI@Z 0000000180055288 f i xerces-c_3_1:DOMDocumentImpl.cpp.obj
 0001:000542c4       ?findBucketElem@?$DOMDeepNodeListPool@VDOMDeepNodeListImpl@xercesc_3_1@@UPtrHasher@2@@xercesc_3_1@@AEAAPEAU?$DOMDeepNodeListPoolTableBucketElem@VDOMDeepNodeListImpl@xercesc_3_1@@@2@QEBXQEB_W1AEA_K@Z 00000001800552c4 f i xerces-c_3_1:DOMDocumentImpl.cpp.obj
 0001:0005440c       ?rehash@?$RefHash2KeysTableOf@V?$KeyRefPair@XVDOMUserDataHandler@xercesc_3_1@@@xercesc_3_1@@UPtrHasher@2@@xercesc_3_1@@AEAAXXZ 000000018005540c f i xerces-c_3_1:DOMDocumentImpl.cpp.obj
 0001:000544d8       ?orphanElementAt@?$BaseRefVectorOf@VXMLReader@xercesc_3_1@@@xercesc_3_1@@QEAAPEAVXMLReader@2@_K@Z 00000001800554d8 f i xerces-c_3_1:ReaderMgr.cpp.obj
 0001:000544d8       ?orphanElementAt@?$BaseRefVectorOf@VDOMBuffer@xercesc_3_1@@@xercesc_3_1@@QEAAPEAVDOMBuffer@2@_K@Z 00000001800554d8 f i xerces-c_3_1:DOMDocumentImpl.cpp.obj
 0001:000544d8       ?orphanElementAt@?$BaseRefVectorOf@VXMLEntityDecl@xercesc_3_1@@@xercesc_3_1@@QEAAPEAVXMLEntityDecl@2@_K@Z 00000001800554d8 f i xerces-c_3_1:ReaderMgr.cpp.obj
 0001:000544d8       ?orphanElementAt@?$BaseRefVectorOf@VDOMNode@xercesc_3_1@@@xercesc_3_1@@QEAAPEAVDOMNode@2@_K@Z 00000001800554d8 f i xerces-c_3_1:DOMDocumentImpl.cpp.obj
 0001:000544d8       ?orphanElementAt@?$BaseRefVectorOf@V?$RefHashTableOf@VValueStore@xercesc_3_1@@UPtrHasher@2@@xercesc_3_1@@@xercesc_3_1@@QEAAPEAV?$RefHashTableOf@VValueStore@xercesc_3_1@@UPtrHasher@2@@2@_K@Z 00000001800554d8 f i xerces-c_3_1:ValueStoreCache.cpp.obj
 0001:0005458c       ?findNext@?$RefHash2KeysTableOfEnumerator@V?$KeyRefPair@XVDOMUserDataHandler@xercesc_3_1@@@xercesc_3_1@@UPtrHasher@2@@xercesc_3_1@@AEAAXXZ 000000018005558c f i xerces-c_3_1:DOMDocumentImpl.cpp.obj
 0001:00054634       ??0?$RefVectorOf@VDOMNode@xercesc_3_1@@@xercesc_3_1@@QEAA@_K_NQEAVMemoryManager@1@@Z 0000000180055634 f i xerces-c_3_1:DOMDocumentImpl.cpp.obj
 0001:000546a8       ??_EDOMDocumentImpl@xercesc_3_1@@WBI@EAAPEAXI@Z 00000001800556a8 f i xerces-c_3_1:DOMDocumentImpl.cpp.obj
 0001:000546b4       ??_EDOMDocument@xercesc_3_1@@WBI@EAAPEAXI@Z 00000001800556b4 f i xerces-c_3_1:DOMDocumentImpl.cpp.obj
 0001:000546c0       ??_EDOMDocumentImpl@xercesc_3_1@@WCA@EAAPEAXI@Z 00000001800556c0 f i xerces-c_3_1:DOMDocumentImpl.cpp.obj
 0001:000546cc       ??_9DOMXPathExpression@xercesc_3_1@@$BBA@AA 00000001800556cc f i xerces-c_3_1:DOMDocumentImpl.cpp.obj
 0001:000546d4       ??_EDOMDocumentImpl@xercesc_3_1@@W7EAAPEAXI@Z 00000001800556d4 f i xerces-c_3_1:DOMDocumentImpl.cpp.obj
 0001:000546e0       ??_EDOMDocument@xercesc_3_1@@W7EAAPEAXI@Z 00000001800556e0 f i xerces-c_3_1:DOMDocumentImpl.cpp.obj
 0001:000546ec       ??_EDOMDocumentImpl@xercesc_3_1@@WBA@EAAPEAXI@Z 00000001800556ec f i xerces-c_3_1:DOMDocumentImpl.cpp.obj
 0001:000546f8       ??_EDOMDocument@xercesc_3_1@@WBA@EAAPEAXI@Z 00000001800556f8 f i xerces-c_3_1:DOMDocumentImpl.cpp.obj
 0001:00054704       ?initializeStaticData@XMLInitializer@xercesc_3_1@@KAXXZ 0000000180055704 f   xerces-c_3_1:XMLInitializer.cpp.obj
 0001:00054c0c       ?terminateStaticData@XMLInitializer@xercesc_3_1@@KAXXZ 0000000180055c0c f   xerces-c_3_1:XMLInitializer.cpp.obj
 0001:000550e8       ??1XMLMsgLoader@xercesc_3_1@@UEAA@XZ 00000001800560e8 f i xerces-c_3_1:InMemMsgLoader.cpp.obj
 0001:000550f4       ??_EXMLMsgLoader@xercesc_3_1@@UEAAPEAXI@Z 00000001800560f4 f i  CIL library: CIL module
 0001:000550f4       ??_GXMLMsgLoader@xercesc_3_1@@UEAAPEAXI@Z 00000001800560f4 f i xerces-c_3_1:InMemMsgLoader.cpp.obj
 0001:00055124       ??0InMemMsgLoader@xercesc_3_1@@QEAA@QEB_W@Z 0000000180056124 f   xerces-c_3_1:InMemMsgLoader.cpp.obj
 0001:000552dc       ??_EInMemMsgLoader@xercesc_3_1@@UEAAPEAXI@Z 00000001800562dc f i  CIL library: CIL module
 0001:000552dc       ??_GInMemMsgLoader@xercesc_3_1@@UEAAPEAXI@Z 00000001800562dc f i xerces-c_3_1:InMemMsgLoader.cpp.obj
 0001:00055340       ?loadMsg@InMemMsgLoader@xercesc_3_1@@UEAA_NIQEA_W_K@Z 0000000180056340 f   xerces-c_3_1:InMemMsgLoader.cpp.obj
 0001:000554e8       ?loadMsg@InMemMsgLoader@xercesc_3_1@@UEAA_NIQEA_W_KQEB_W222QEAVMemoryManager@2@@Z 00000001800564e8 f   xerces-c_3_1:InMemMsgLoader.cpp.obj
 0001:0005554c       ?loadMsg@InMemMsgLoader@xercesc_3_1@@UEAA_NIQEA_W_KQEBD222QEAVMemoryManager@2@@Z 000000018005654c f   xerces-c_3_1:InMemMsgLoader.cpp.obj
 0001:000556a4       ??0XMLMutex@xercesc_3_1@@QEAA@QEAVMemoryManager@1@@Z 00000001800566a4 f   xerces-c_3_1:Mutexes.cpp.obj
 0001:00055708       ??1XMLMutex@xercesc_3_1@@QEAA@XZ 0000000180056708 f   xerces-c_3_1:Mutexes.cpp.obj
 0001:00055778       ??0XMLMutexLock@xercesc_3_1@@QEAA@QEAVXMLMutex@1@@Z 0000000180056778 f   xerces-c_3_1:Mutexes.cpp.obj
 0001:000557d4       ??1XMLMutexLock@xercesc_3_1@@QEAA@XZ 00000001800567d4 f   xerces-c_3_1:Mutexes.cpp.obj
 0001:00055820       ??_GWindowsMutexMgr@xercesc_3_1@@UEAAPEAXI@Z 0000000180056820 f i xerces-c_3_1:WindowsMutexMgr.cpp.obj
 0001:00055820       ??_EWindowsMutexMgr@xercesc_3_1@@UEAAPEAXI@Z 0000000180056820 f i  CIL library: CIL module
 0001:00055820       ??_EXMLMutexMgr@xercesc_3_1@@UEAAPEAXI@Z 0000000180056820 f i  CIL library: CIL module
 0001:00055820       ??_GXMLMutexMgr@xercesc_3_1@@UEAAPEAXI@Z 0000000180056820 f i xerces-c_3_1:WindowsMutexMgr.cpp.obj
 0001:00055850       ?create@WindowsMutexMgr@xercesc_3_1@@UEAAPEAXQEAVMemoryManager@2@@Z 0000000180056850 f   xerces-c_3_1:WindowsMutexMgr.cpp.obj
 0001:0005587c       ?destroy@WindowsMutexMgr@xercesc_3_1@@UEAAXPEAXQEAVMemoryManager@2@@Z 000000018005687c f   xerces-c_3_1:WindowsMutexMgr.cpp.obj
 0001:000558ac       ?lock@WindowsMutexMgr@xercesc_3_1@@UEAAXPEAX@Z 00000001800568ac f   xerces-c_3_1:WindowsMutexMgr.cpp.obj
 0001:000558b8       ?unlock@WindowsMutexMgr@xercesc_3_1@@UEAAXPEAX@Z 00000001800568b8 f   xerces-c_3_1:WindowsMutexMgr.cpp.obj
 0001:000558c4       ??1XMLBuffer@xercesc_3_1@@QEAA@XZ 00000001800568c4 f i xerces-c_3_1:XMLScanner.cpp.obj
 0001:000558d4       ??1XMLBufferFullHandler@xercesc_3_1@@UEAA@XZ 00000001800568d4 f i xerces-c_3_1:XMLScanner.cpp.obj
 0001:000558e0       ??_EXMLBufferFullHandler@xercesc_3_1@@UEAAPEAXI@Z 00000001800568e0 f i  CIL library: CIL module
 0001:000558e0       ??_GXMLBufferFullHandler@xercesc_3_1@@UEAAPEAXI@Z 00000001800568e0 f i xerces-c_3_1:XMLScanner.cpp.obj
 0001:0005590c       ?skippedString@ReaderMgr@xercesc_3_1@@QEAA_NQEB_W@Z 000000018005690c f i xerces-c_3_1:XMLScanner.cpp.obj
 0001:000559c4       ?peekString@ReaderMgr@xercesc_3_1@@QEAA_NQEB_W@Z 00000001800569c4 f i xerces-c_3_1:XMLScanner.cpp.obj
 0001:00055a74       ??1ThrowEOEJanitor@xercesc_3_1@@QEAA@XZ 0000000180056a74 f i xerces-c_3_1:XMLScanner.cpp.obj
 0001:00055a80       ?bufferFull@XMLScanner@xercesc_3_1@@UEAA_NAEAVXMLBuffer@2@@Z 0000000180056a80 f i xerces-c_3_1:XMLScanner.cpp.obj
 0001:00055a94       ??0UnexpectedEOFException@xercesc_3_1@@QEAA@AEBV01@@Z 0000000180056a94 f i xerces-c_3_1:XMLScanner.cpp.obj
 0001:00055ab8       ??1UnexpectedEOFException@xercesc_3_1@@UEAA@XZ 0000000180056ab8 f i xerces-c_3_1:XMLScanner.cpp.obj
 0001:00055ac8       ?duplicate@UnexpectedEOFException@xercesc_3_1@@UEBAPEAVXMLException@2@XZ 0000000180056ac8 f i xerces-c_3_1:XMLScanner.cpp.obj
 0001:00055b2c       ?getType@UnexpectedEOFException@xercesc_3_1@@UEBAPEB_WXZ 0000000180056b2c f i xerces-c_3_1:XMLScanner.cpp.obj
 0001:00055b34       ??_GUnexpectedEOFException@xercesc_3_1@@UEAAPEAXI@Z 0000000180056b34 f i xerces-c_3_1:XMLScanner.cpp.obj
 0001:00055b34       ??_EUnexpectedEOFException@xercesc_3_1@@UEAAPEAXI@Z 0000000180056b34 f i  CIL library: CIL module
 0001:00055b74       ??0MalformedURLException@xercesc_3_1@@QEAA@AEBV01@@Z 0000000180056b74 f i xerces-c_3_1:XMLScanner.cpp.obj
 0001:00055b98       ??1MalformedURLException@xercesc_3_1@@UEAA@XZ 0000000180056b98 f i xerces-c_3_1:XMLScanner.cpp.obj
 0001:00055ba8       ?duplicate@MalformedURLException@xercesc_3_1@@UEBAPEAVXMLException@2@XZ 0000000180056ba8 f i xerces-c_3_1:XMLScanner.cpp.obj
 0001:00055c0c       ?getType@MalformedURLException@xercesc_3_1@@UEBAPEB_WXZ 0000000180056c0c f i xerces-c_3_1:XMLScanner.cpp.obj
 0001:00055c14       ??_EMalformedURLException@xercesc_3_1@@UEAAPEAXI@Z 0000000180056c14 f i  CIL library: CIL module
 0001:00055c14       ??_GMalformedURLException@xercesc_3_1@@UEAAPEAXI@Z 0000000180056c14 f i xerces-c_3_1:XMLScanner.cpp.obj
 0001:00055c54       ??0XMLScanner@xercesc_3_1@@QEAA@QEAVXMLValidator@1@QEAVGrammarResolver@1@QEAVMemoryManager@1@@Z 0000000180056c54 f   xerces-c_3_1:XMLScanner.cpp.obj
 0001:00056048       ??_EXMLScanner@xercesc_3_1@@UEAAPEAXI@Z 0000000180057048 f i  CIL library: CIL module
 0001:00056048       ??_GXMLScanner@xercesc_3_1@@UEAAPEAXI@Z 0000000180057048 f i xerces-c_3_1:XMLScanner.cpp.obj
 0001:00056084       ??1XMLScanner@xercesc_3_1@@UEAA@XZ 0000000180057084 f   xerces-c_3_1:XMLScanner.cpp.obj
 0001:00056174       ?scanDocument@XMLScanner@xercesc_3_1@@QEAAXQEB_W@Z 0000000180057174 f   xerces-c_3_1:XMLScanner.cpp.obj
 0001:000564c4       ?scanDocument@XMLScanner@xercesc_3_1@@QEAAXQEBD@Z 00000001800574c4 f   xerces-c_3_1:XMLScanner.cpp.obj
 0001:00056518       ?setParseSettings@XMLScanner@xercesc_3_1@@QEAAXQEAV12@@Z 0000000180057518 f   xerces-c_3_1:XMLScanner.cpp.obj
 0001:00056638       ?commonInit@XMLScanner@xercesc_3_1@@AEAAXXZ 0000000180057638 f   xerces-c_3_1:XMLScanner.cpp.obj
 0001:000567fc       ?cleanUp@XMLScanner@xercesc_3_1@@AEAAXXZ 00000001800577fc f   xerces-c_3_1:XMLScanner.cpp.obj
 0001:000568f4       ?emitError@XMLScanner@xercesc_3_1@@QEAAXW4Codes@XMLErrs@2@@Z 00000001800578f4 f   xerces-c_3_1:XMLScanner.cpp.obj
 0001:00056a1c       ?emitError@XMLScanner@xercesc_3_1@@QEAAXW4Codes@XMLErrs@2@QEB_W111@Z 0000000180057a1c f   xerces-c_3_1:XMLScanner.cpp.obj
 0001:00056b70       ?emitError@XMLScanner@xercesc_3_1@@QEAAXW4Codes@XMLErrs@2@QEBD111@Z 0000000180057b70 f   xerces-c_3_1:XMLScanner.cpp.obj
 0001:00056c74       ?emitError@XMLScanner@xercesc_3_1@@QEAAXW4Codes@XMLErrs@2@W43XMLExcepts@2@QEB_W222@Z 0000000180057c74 f   xerces-c_3_1:XMLScanner.cpp.obj
 0001:00056dd8       ?scanMiscellaneous@XMLScanner@xercesc_3_1@@IEAAXXZ 0000000180057dd8 f   xerces-c_3_1:XMLScanner.cpp.obj
 0001:00056fa4       ?scanPI@XMLScanner@xercesc_3_1@@IEAAXXZ 0000000180057fa4 f   xerces-c_3_1:XMLScanner.cpp.obj
 0001:000573dc       ?scanProlog@XMLScanner@xercesc_3_1@@IEAAXXZ 00000001800583dc f   xerces-c_3_1:XMLScanner.cpp.obj
 0001:00057618       ?scanXMLDecl@XMLScanner@xercesc_3_1@@IEAAXW4DeclTypes@12@@Z 0000000180058618 f   xerces-c_3_1:XMLScanner.cpp.obj
 0001:00057f7c       ?getURIText@XMLScanner@xercesc_3_1@@QEBAPEB_WI@Z 0000000180058f7c f   xerces-c_3_1:XMLScanner.cpp.obj
 0001:00057fc4       ?getURIText@XMLScanner@xercesc_3_1@@QEBA_NIAEAVXMLBuffer@2@@Z 0000000180058fc4 f   xerces-c_3_1:XMLScanner.cpp.obj
 0001:00058038       ?checkXMLDecl@XMLScanner@xercesc_3_1@@QEAA_N_N@Z 0000000180059038 f   xerces-c_3_1:XMLScanner.cpp.obj
 0001:000581f4       ?loadGrammar@XMLScanner@xercesc_3_1@@QEAAPEAVGrammar@2@QEB_WF_N@Z 00000001800591f4 f   xerces-c_3_1:XMLScanner.cpp.obj
 0001:00058608       ?loadGrammar@XMLScanner@xercesc_3_1@@QEAAPEAVGrammar@2@QEBDF_N@Z 0000000180059608 f   xerces-c_3_1:XMLScanner.cpp.obj
 0001:00058684       ?setURIStringPool@XMLScanner@xercesc_3_1@@QEAAXQEAVXMLStringPool@2@@Z 0000000180059684 f   xerces-c_3_1:XMLScanner.cpp.obj
 0001:000586f8       ?checkInternalDTD@XMLScanner@xercesc_3_1@@IEAAX_NQEB_W1@Z 00000001800596f8 f   xerces-c_3_1:XMLScanner.cpp.obj
 0001:00058824       ?checkIDRefs@XMLScanner@xercesc_3_1@@IEAAXXZ 0000000180059824 f   xerces-c_3_1:XMLScanner.cpp.obj
 0001:000588bc       ?senseNextToken@XMLScanner@xercesc_3_1@@IEAA?AW4XMLTokens@12@AEA_K@Z 00000001800598bc f   xerces-c_3_1:XMLScanner.cpp.obj
 0001:000589f4       ?scanCharRef@XMLScanner@xercesc_3_1@@IEAA_NAEA_W0@Z 00000001800599f4 f   xerces-c_3_1:XMLScanner.cpp.obj
 0001:00058c58       ?scanComment@XMLScanner@xercesc_3_1@@IEAAXXZ 0000000180059c58 f   xerces-c_3_1:XMLScanner.cpp.obj
 0001:00058f10       ?scanEq@XMLScanner@xercesc_3_1@@IEAA_N_N@Z 0000000180059f10 f   xerces-c_3_1:XMLScanner.cpp.obj
 0001:00058f94       ?getNewUIntPtr@XMLScanner@xercesc_3_1@@IEAAPEAIXZ 0000000180059f94 f   xerces-c_3_1:XMLScanner.cpp.obj
 0001:00059094       ?resetUIntPool@XMLScanner@xercesc_3_1@@IEAAXXZ 000000018005a094 f   xerces-c_3_1:XMLScanner.cpp.obj
 0001:000590dc       ?recreateUIntPool@XMLScanner@xercesc_3_1@@IEAAXXZ 000000018005a0dc f   xerces-c_3_1:XMLScanner.cpp.obj
 0001:00059194       ?resolvePrefix@XMLScanner@xercesc_3_1@@IEAAIQEB_WW4MapModes@ElemStack@2@@Z 000000018005a194 f   xerces-c_3_1:XMLScanner.cpp.obj
 0001:000592c4       ?resolveQName@XMLScanner@xercesc_3_1@@QEAAIQEB_WAEAVXMLBuffer@2@W4MapModes@ElemStack@2@AEAH@Z 000000018005a2c4 f   xerces-c_3_1:XMLScanner.cpp.obj
 0001:0005931c       ?resolveQNameWithColon@XMLScanner@xercesc_3_1@@IEAAIQEB_WAEAVXMLBuffer@2@W4MapModes@ElemStack@2@H@Z 000000018005a31c f   xerces-c_3_1:XMLScanner.cpp.obj
 0001:000593cc       ??1?$XMLEnumerator@VXMLRefInfo@xercesc_3_1@@@xercesc_3_1@@UEAA@XZ 000000018005a3cc f i xerces-c_3_1:XMLScanner.cpp.obj
 0001:000593d8       ??_E?$XMLEnumerator@VXMLRefInfo@xercesc_3_1@@@xercesc_3_1@@UEAAPEAXI@Z 000000018005a3d8 f i  CIL library: CIL module
 0001:000593d8       ??_G?$XMLEnumerator@VXMLRefInfo@xercesc_3_1@@@xercesc_3_1@@UEAAPEAXI@Z 000000018005a3d8 f i xerces-c_3_1:XMLScanner.cpp.obj
 0001:00059404       ?removeAll@?$RefHash2KeysTableOf@VXMLAttr@xercesc_3_1@@UStringHasher@2@@xercesc_3_1@@QEAAXXZ 000000018005a404 f i xerces-c_3_1:XMLScanner.cpp.obj
 0001:000594ac       ??1?$BaseRefVectorOf@VXMLAttr@xercesc_3_1@@@xercesc_3_1@@UEAA@XZ 000000018005a4ac f i xerces-c_3_1:XMLScanner.cpp.obj
 0001:000594b8       ?setElementAt@?$BaseRefVectorOf@VXMLAttr@xercesc_3_1@@@xercesc_3_1@@UEAAXQEAVXMLAttr@2@_K@Z 000000018005a4b8 f i xerces-c_3_1:XMLScanner.cpp.obj
 0001:00059574       ?removeAllElements@?$BaseRefVectorOf@VXMLAttr@xercesc_3_1@@@xercesc_3_1@@UEAAXXZ 000000018005a574 f i xerces-c_3_1:XMLScanner.cpp.obj
 0001:000595e0       ?removeElementAt@?$BaseRefVectorOf@VXMLAttr@xercesc_3_1@@@xercesc_3_1@@UEAAX_K@Z 000000018005a5e0 f i xerces-c_3_1:XMLScanner.cpp.obj
 0001:000596d0       ?removeLastElement@?$BaseRefVectorOf@VXMLAttr@xercesc_3_1@@@xercesc_3_1@@UEAAXXZ 000000018005a6d0 f i xerces-c_3_1:XMLScanner.cpp.obj
 0001:00059718       ?cleanup@?$BaseRefVectorOf@VXMLAttr@xercesc_3_1@@@xercesc_3_1@@UEAAXXZ 000000018005a718 f i xerces-c_3_1:XMLScanner.cpp.obj
 0001:00059784       ??0?$RefVectorOf@VXMLAttr@xercesc_3_1@@@xercesc_3_1@@QEAA@_K_NQEAVMemoryManager@1@@Z 000000018005a784 f i xerces-c_3_1:XMLScanner.cpp.obj
 0001:000597f8       ??1?$RefVectorOf@VXMLAttr@xercesc_3_1@@@xercesc_3_1@@UEAA@XZ 000000018005a7f8 f i xerces-c_3_1:XMLScanner.cpp.obj
 0001:00059884       ??0?$RefHashTableOfEnumerator@VXMLRefInfo@xercesc_3_1@@UStringHasher@2@@xercesc_3_1@@QEAA@QEAV?$RefHashTableOf@VXMLRefInfo@xercesc_3_1@@UStringHasher@2@@1@_NQEAVMemoryManager@1@@Z 000000018005a884 f i xerces-c_3_1:XMLScanner.cpp.obj
 0001:00059918       ??1?$RefHashTableOfEnumerator@VXMLRefInfo@xercesc_3_1@@UStringHasher@2@@xercesc_3_1@@UEAA@XZ 000000018005a918 f i xerces-c_3_1:XMLScanner.cpp.obj
 0001:0005998c       ??_G?$BaseRefVectorOf@VXMLAttr@xercesc_3_1@@@xercesc_3_1@@UEAAPEAXI@Z 000000018005a98c f i xerces-c_3_1:XMLScanner.cpp.obj
 0001:0005998c       ??_E?$BaseRefVectorOf@VXMLAttr@xercesc_3_1@@@xercesc_3_1@@UEAAPEAXI@Z 000000018005a98c f i  CIL library: CIL module
 0001:000599bc       ??_G?$RefVectorOf@VXMLAttr@xercesc_3_1@@@xercesc_3_1@@UEAAPEAXI@Z 000000018005a9bc f i xerces-c_3_1:XMLScanner.cpp.obj
 0001:000599bc       ??_E?$RefVectorOf@VXMLAttr@xercesc_3_1@@@xercesc_3_1@@UEAAPEAXI@Z 000000018005a9bc f i  CIL library: CIL module
 0001:000599f8       ??_E?$RefHashTableOfEnumerator@VXMLRefInfo@xercesc_3_1@@UStringHasher@2@@xercesc_3_1@@UEAAPEAXI@Z 000000018005a9f8 f i  CIL library: CIL module
 0001:000599f8       ??_G?$RefHashTableOfEnumerator@VXMLRefInfo@xercesc_3_1@@UStringHasher@2@@xercesc_3_1@@UEAAPEAXI@Z 000000018005a9f8 f i xerces-c_3_1:XMLScanner.cpp.obj
 0001:00059a34       ??0XMLReader@xercesc_3_1@@QEAA@QEB_W0QEAVBinInputStream@1@W4RefFrom@01@W4Types@01@W4Sources@01@_N5_KW4XMLVersion@01@QEAVMemoryManager@1@@Z 000000018005aa34 f   xerces-c_3_1:XMLReader.cpp.obj
 0001:00059e8c       ??0XMLReader@xercesc_3_1@@QEAA@QEB_W0QEAVBinInputStream@1@0W4RefFrom@01@W4Types@01@W4Sources@01@_N5_KW4XMLVersion@01@QEAVMemoryManager@1@@Z 000000018005ae8c f   xerces-c_3_1:XMLReader.cpp.obj
 0001:0005a378       ??0XMLReader@xercesc_3_1@@QEAA@QEB_W0QEAVBinInputStream@1@W4Encodings@XMLRecognizer@1@W4RefFrom@01@W4Types@01@W4Sources@01@_N6_KW4XMLVersion@01@QEAVMemoryManager@1@@Z 000000018005b378 f   xerces-c_3_1:XMLReader.cpp.obj
 0001:0005a6d0       ?getSrcOffset@XMLReader@xercesc_3_1@@QEBA_KXZ 000000018005b6d0 f   xerces-c_3_1:XMLReader.cpp.obj
 0001:0005a788       ?refreshCharBuffer@XMLReader@xercesc_3_1@@QEAA_NXZ 000000018005b788 f   xerces-c_3_1:XMLReader.cpp.obj
 0001:0005aab4       ?getName@XMLReader@xercesc_3_1@@QEAA_NAEAVXMLBuffer@2@_N@Z 000000018005bab4 f   xerces-c_3_1:XMLReader.cpp.obj
 0001:0005acb4       ?getNCName@XMLReader@xercesc_3_1@@QEAA_NAEAVXMLBuffer@2@@Z 000000018005bcb4 f   xerces-c_3_1:XMLReader.cpp.obj
 0001:0005aec8       ?skipSpaces@XMLReader@xercesc_3_1@@QEAA_NAEA_N_N@Z 000000018005bec8 f   xerces-c_3_1:XMLReader.cpp.obj
 0001:0005af50       ?setEncoding@XMLReader@xercesc_3_1@@QEAA_NQEB_W@Z 000000018005bf50 f   xerces-c_3_1:XMLReader.cpp.obj
 0001:0005b5b8       ?doInitDecode@XMLReader@xercesc_3_1@@AEAAXXZ 000000018005c5b8 f   xerces-c_3_1:XMLReader.cpp.obj
 0001:0005bb94       ?refreshRawBuffer@XMLReader@xercesc_3_1@@AEAAXXZ 000000018005cb94 f   xerces-c_3_1:XMLReader.cpp.obj
 0001:0005bc14       ?handleEOL@XMLReader@xercesc_3_1@@AEAAXAEA_W_N@Z 000000018005cc14 f   xerces-c_3_1:XMLReader.cpp.obj
 0001:0005bd84       ?getDatatypeValidator@DatatypeValidatorFactory@xercesc_3_1@@QEBAPEAVDatatypeValidator@2@QEB_W@Z 000000018005cd84 f i xerces-c_3_1:GrammarResolver.cpp.obj
 0001:0005be08       ??0GrammarResolver@xercesc_3_1@@QEAA@QEAVXMLGrammarPool@1@QEAVMemoryManager@1@@Z 000000018005ce08 f   xerces-c_3_1:GrammarResolver.cpp.obj
 0001:0005bf88       ??_GXSModel@xercesc_3_1@@QEAAPEAXI@Z 000000018005cf88 f i xerces-c_3_1:GrammarResolver.cpp.obj
 0001:0005bfc4       ?getDatatypeValidator@GrammarResolver@xercesc_3_1@@QEAAPEAVDatatypeValidator@2@QEB_W0@Z 000000018005cfc4 f   xerces-c_3_1:GrammarResolver.cpp.obj
 0001:0005c18c       ?getGrammar@GrammarResolver@xercesc_3_1@@QEAAPEAVGrammar@2@QEB_W@Z 000000018005d18c f   xerces-c_3_1:GrammarResolver.cpp.obj
 0001:0005c274       ?getGrammar@GrammarResolver@xercesc_3_1@@QEAAPEAVGrammar@2@QEAVXMLGrammarDescription@2@@Z 000000018005d274 f   xerces-c_3_1:GrammarResolver.cpp.obj
 0001:0005c324       ?getGrammarEnumerator@GrammarResolver@xercesc_3_1@@QEBA?AV?$RefHashTableOfEnumerator@VGrammar@xercesc_3_1@@UStringHasher@2@@2@XZ 000000018005d324 f   xerces-c_3_1:GrammarResolver.cpp.obj
 0001:0005c34c       ?putGrammar@GrammarResolver@xercesc_3_1@@QEAAXQEAVGrammar@2@@Z 000000018005d34c f   xerces-c_3_1:GrammarResolver.cpp.obj
 0001:0005c3c8       ?cacheGrammars@GrammarResolver@xercesc_3_1@@QEAAXXZ 000000018005d3c8 f   xerces-c_3_1:GrammarResolver.cpp.obj
 0001:0005c510       ?cacheGrammarFromParse@GrammarResolver@xercesc_3_1@@QEAAX_N@Z 000000018005d510 f   xerces-c_3_1:GrammarResolver.cpp.obj
 0001:0005c570       ?orphanGrammar@GrammarResolver@xercesc_3_1@@QEAAPEAVGrammar@2@QEB_W@Z 000000018005d570 f   xerces-c_3_1:GrammarResolver.cpp.obj
 0001:0005c5f4       ?getXSModel@GrammarResolver@xercesc_3_1@@QEAAPEAVXSModel@2@XZ 000000018005d5f4 f   xerces-c_3_1:GrammarResolver.cpp.obj
 0001:0005c8c4       ??1?$XMLEnumerator@VGrammar@xercesc_3_1@@@xercesc_3_1@@UEAA@XZ 000000018005d8c4 f i xerces-c_3_1:GrammarResolver.cpp.obj
 0001:0005c8d0       ??_G?$XMLEnumerator@VGrammar@xercesc_3_1@@@xercesc_3_1@@UEAAPEAXI@Z 000000018005d8d0 f i xerces-c_3_1:GrammarResolver.cpp.obj
 0001:0005c8d0       ??_E?$XMLEnumerator@VGrammar@xercesc_3_1@@@xercesc_3_1@@UEAAPEAXI@Z 000000018005d8d0 f i  CIL library: CIL module
 0001:0005c8fc       ??0?$RefHashTableOf@VGrammar@xercesc_3_1@@UStringHasher@2@@xercesc_3_1@@QEAA@_K_NQEAVMemoryManager@1@@Z 000000018005d8fc f i xerces-c_3_1:GrammarResolver.cpp.obj
 0001:0005c9a4       ?removeKey@?$RefHashTableOf@VGrammar@xercesc_3_1@@UStringHasher@2@@xercesc_3_1@@QEAAXQEBX@Z 000000018005d9a4 f i xerces-c_3_1:GrammarResolver.cpp.obj
 0001:0005cb00       ?orphanKey@?$RefHashTableOf@VGrammar@xercesc_3_1@@UStringHasher@2@@xercesc_3_1@@QEAAPEAVGrammar@2@QEBX@Z 000000018005db00 f i xerces-c_3_1:GrammarResolver.cpp.obj
 0001:0005cc64       ??0?$RefHashTableOfEnumerator@VGrammar@xercesc_3_1@@UStringHasher@2@@xercesc_3_1@@QEAA@QEAV?$RefHashTableOf@VGrammar@xercesc_3_1@@UStringHasher@2@@1@_NQEAVMemoryManager@1@@Z 000000018005dc64 f i xerces-c_3_1:GrammarResolver.cpp.obj
 0001:0005ccf8       ??1?$RefHashTableOfEnumerator@VGrammar@xercesc_3_1@@UStringHasher@2@@xercesc_3_1@@UEAA@XZ 000000018005dcf8 f i xerces-c_3_1:GrammarResolver.cpp.obj
 0001:0005cd6c       ?nextElement@?$RefHashTableOfEnumerator@VXercesAttGroupInfo@xercesc_3_1@@UStringHasher@2@@xercesc_3_1@@UEAAAEAVXercesAttGroupInfo@2@XZ 000000018005dd6c f i xerces-c_3_1:XSModel.cpp.obj
 0001:0005cd6c       ?nextElement@?$RefHashTableOfEnumerator@VValueStore@xercesc_3_1@@UPtrHasher@2@@xercesc_3_1@@UEAAAEAVValueStore@2@XZ 000000018005dd6c f i xerces-c_3_1:ValueStoreCache.cpp.obj
 0001:0005cd6c       ?nextElement@?$RefHashTableOfEnumerator@VFieldValueMap@xercesc_3_1@@UICValueHasher@2@@xercesc_3_1@@UEAAAEAVFieldValueMap@2@XZ 000000018005dd6c f i xerces-c_3_1:ValueStore.cpp.obj
 0001:0005cd6c       ?nextElement@?$RefHashTableOfEnumerator@VComplexTypeInfo@xercesc_3_1@@UStringHasher@2@@xercesc_3_1@@UEAAAEAVComplexTypeInfo@2@XZ 000000018005dd6c f i xerces-c_3_1:XSModel.cpp.obj
 0001:0005cd6c       ?nextElement@?$RefHashTableOfEnumerator@VGrammar@xercesc_3_1@@UStringHasher@2@@xercesc_3_1@@UEAAAEAVGrammar@2@XZ 000000018005dd6c f i xerces-c_3_1:GrammarResolver.cpp.obj
 0001:0005cd6c       ?nextElement@?$RefHashTableOfEnumerator@_WUStringHasher@xercesc_3_1@@@xercesc_3_1@@UEAAAEA_WXZ 000000018005dd6c f i xerces-c_3_1:DOMNormalizer.cpp.obj
 0001:0005cd6c       ?nextElement@?$RefHashTableOfEnumerator@VXSAnnotation@xercesc_3_1@@UPtrHasher@2@@xercesc_3_1@@UEAAAEAVXSAnnotation@2@XZ 000000018005dd6c f i xerces-c_3_1:XTemplateSerializer.cpp.obj
 0001:0005cd6c       ?nextElement@?$RefHashTableOfEnumerator@VDTDAttDef@xercesc_3_1@@UStringHasher@2@@xercesc_3_1@@UEAAAEAVDTDAttDef@2@XZ 000000018005dd6c f i xerces-c_3_1:XTemplateSerializer.cpp.obj
 0001:0005cd6c       ?nextElement@?$RefHashTableOfEnumerator@VXercesGroupInfo@xercesc_3_1@@UStringHasher@2@@xercesc_3_1@@UEAAAEAVXercesGroupInfo@2@XZ 000000018005dd6c f i xerces-c_3_1:XSModel.cpp.obj
 0001:0005cd6c       ?nextElement@?$RefHashTableOfEnumerator@VKVStringPair@xercesc_3_1@@UStringHasher@2@@xercesc_3_1@@UEAAAEAVKVStringPair@2@XZ 000000018005dd6c f i xerces-c_3_1:DOMXPathNSResolverImpl.cpp.obj
 0001:0005cd6c       ?nextElement@?$RefHashTableOfEnumerator@VXMLRefInfo@xercesc_3_1@@UStringHasher@2@@xercesc_3_1@@UEAAAEAVXMLRefInfo@2@XZ 000000018005dd6c f i xerces-c_3_1:XMLScanner.cpp.obj
 0001:0005cd6c       ?nextElement@?$RefHashTableOfEnumerator@VDatatypeValidator@xercesc_3_1@@UStringHasher@2@@xercesc_3_1@@UEAAAEAVDatatypeValidator@2@XZ 000000018005dd6c f i xerces-c_3_1:XSModel.cpp.obj
 0001:0005cd6c       ?nextElement@?$RefHashTableOfEnumerator@VXMLAttDef@xercesc_3_1@@UStringHasher@2@@xercesc_3_1@@UEAAAEAVXMLAttDef@2@XZ 000000018005dd6c f i xerces-c_3_1:XSModel.cpp.obj
 0001:0005cdf4       ??0?$ValueVectorOf@PEA_W@xercesc_3_1@@QEAA@_KQEAVMemoryManager@1@_N@Z 000000018005ddf4 f i xerces-c_3_1:GrammarResolver.cpp.obj
 0001:0005cdf4       ??0?$ValueVectorOf@PEAVXMLAttr@xercesc_3_1@@@xercesc_3_1@@QEAA@_KQEAVMemoryManager@1@_N@Z 000000018005ddf4 f i xerces-c_3_1:DGXMLScanner.cpp.obj
 0001:0005ce48       ??_G?$RefHashTableOfEnumerator@VGrammar@xercesc_3_1@@UStringHasher@2@@xercesc_3_1@@UEAAPEAXI@Z 000000018005de48 f i xerces-c_3_1:GrammarResolver.cpp.obj
 0001:0005ce48       ??_E?$RefHashTableOfEnumerator@VGrammar@xercesc_3_1@@UStringHasher@2@@xercesc_3_1@@UEAAPEAXI@Z 000000018005de48 f i  CIL library: CIL module
 0001:0005ce84       ??1DOMTypeInfo@xercesc_3_1@@UEAA@XZ 000000018005de84 f i xerces-c_3_1:DOMTypeInfoImpl.cpp.obj
 0001:0005ce90       ??_EDOMTypeInfo@xercesc_3_1@@UEAAPEAXI@Z 000000018005de90 f i  CIL library: CIL module
 0001:0005ce90       ??_GDOMTypeInfo@xercesc_3_1@@UEAAPEAXI@Z 000000018005de90 f i xerces-c_3_1:DOMTypeInfoImpl.cpp.obj
 0001:0005cebc       ??1DOMPSVITypeInfo@xercesc_3_1@@UEAA@XZ 000000018005debc f i xerces-c_3_1:DOMTypeInfoImpl.cpp.obj
 0001:0005cec8       ??_GDOMPSVITypeInfo@xercesc_3_1@@UEAAPEAXI@Z 000000018005dec8 f i xerces-c_3_1:DOMTypeInfoImpl.cpp.obj
 0001:0005cec8       ??_EDOMPSVITypeInfo@xercesc_3_1@@UEAAPEAXI@Z 000000018005dec8 f i  CIL library: CIL module
 0001:0005cef4       ??_GDOMTypeInfoImpl@xercesc_3_1@@UEAAPEAXI@Z 000000018005def4 f i xerces-c_3_1:DOMTypeInfoImpl.cpp.obj
 0001:0005cef4       ??_EDOMTypeInfoImpl@xercesc_3_1@@UEAAPEAXI@Z 000000018005def4 f i  CIL library: CIL module
 0001:0005cf2c       ??0DOMTypeInfoImpl@xercesc_3_1@@QEAA@PEAVDOMDocumentImpl@1@PEBVDOMPSVITypeInfo@1@@Z 000000018005df2c f   xerces-c_3_1:DOMTypeInfoImpl.cpp.obj
 0001:0005d0f4       ?getTypeName@DOMTypeInfoImpl@xercesc_3_1@@UEBAPEB_WXZ 000000018005e0f4 f   xerces-c_3_1:DOMTypeInfoImpl.cpp.obj
 0001:0005d140       ?getTypeNamespace@DOMTypeInfoImpl@xercesc_3_1@@UEBAPEB_WXZ 000000018005e140 f   xerces-c_3_1:DOMTypeInfoImpl.cpp.obj
 0001:0005d190       ?isDerivedFrom@DOMTypeInfoImpl@xercesc_3_1@@UEBA_NPEB_W0W4DerivationMethods@DOMTypeInfo@2@@Z 000000018005e190 f   xerces-c_3_1:DOMTypeInfoImpl.cpp.obj
 0001:0005d28c       ?getStringProperty@DOMTypeInfoImpl@xercesc_3_1@@UEBAPEB_WW4PSVIProperty@DOMPSVITypeInfo@2@@Z 000000018005e28c f   xerces-c_3_1:DOMTypeInfoImpl.cpp.obj
 0001:0005d2c8       ?getNumericProperty@DOMTypeInfoImpl@xercesc_3_1@@UEBAHW4PSVIProperty@DOMPSVITypeInfo@2@@Z 000000018005e2c8 f   xerces-c_3_1:DOMTypeInfoImpl.cpp.obj
 0001:0005d328       ?setStringProperty@DOMTypeInfoImpl@xercesc_3_1@@UEAAXW4PSVIProperty@DOMPSVITypeInfo@2@PEB_W@Z 000000018005e328 f   xerces-c_3_1:DOMTypeInfoImpl.cpp.obj
 0001:0005d364       ?setNumericProperty@DOMTypeInfoImpl@xercesc_3_1@@UEAAXW4PSVIProperty@DOMPSVITypeInfo@2@H@Z 000000018005e364 f   xerces-c_3_1:DOMTypeInfoImpl.cpp.obj
 0001:0005d3d8       ??_EDOMTypeInfoImpl@xercesc_3_1@@W7EAAPEAXI@Z 000000018005e3d8 f i xerces-c_3_1:DOMTypeInfoImpl.cpp.obj
 0001:0005d3e4       ?cloneNode@DOMTextImpl@xercesc_3_1@@UEBAPEAVDOMNode@2@_N@Z 000000018005e3e4 f   xerces-c_3_1:DOMTextImpl.cpp.obj
 0001:0005d4a8       ?getNodeName@DOMTextImpl@xercesc_3_1@@UEBAPEB_WXZ 000000018005e4a8 f   xerces-c_3_1:DOMTextImpl.cpp.obj
 0001:0005d4b0       ?getNodeType@DOMTextImpl@xercesc_3_1@@UEBA?AW4NodeType@DOMNode@2@XZ 000000018005e4b0 f   xerces-c_3_1:DOMTextImpl.cpp.obj
 0001:0005d4b8       ?splitText@DOMTextImpl@xercesc_3_1@@UEAAPEAVDOMText@2@_K@Z 000000018005e4b8 f   xerces-c_3_1:DOMTextImpl.cpp.obj
 0001:0005d684       ?isIgnorableWhitespace@DOMCDATASectionImpl@xercesc_3_1@@UEBA_NXZ 000000018005e684 f   xerces-c_3_1:DOMCDATASectionImpl.cpp.obj
 0001:0005d684       ?isIgnorableWhitespace@DOMTextImpl@xercesc_3_1@@UEBA_NXZ 000000018005e684 f   xerces-c_3_1:DOMTextImpl.cpp.obj
 0001:0005d690       ?setIgnorableWhitespace@DOMTextImpl@xercesc_3_1@@MEAAX_N@Z 000000018005e690 f   xerces-c_3_1:DOMTextImpl.cpp.obj
 0001:0005d6a8       ?getWholeText@DOMCDATASectionImpl@xercesc_3_1@@UEBAPEB_WXZ 000000018005e6a8 f   xerces-c_3_1:DOMCDATASectionImpl.cpp.obj
 0001:0005d6a8       ?getWholeText@DOMTextImpl@xercesc_3_1@@UEBAPEB_WXZ 000000018005e6a8 f   xerces-c_3_1:DOMTextImpl.cpp.obj
 0001:0005d924       ?release@DOMTextImpl@xercesc_3_1@@UEAAXXZ 000000018005e924 f   xerces-c_3_1:DOMTextImpl.cpp.obj
 0001:0005da6c       ?getTextContent@DOMTextImpl@xercesc_3_1@@UEBAPEB_WXZ 000000018005ea6c f   xerces-c_3_1:DOMTextImpl.cpp.obj
 0001:0005da6c       ?getTextContent@DOMCDATASectionImpl@xercesc_3_1@@UEBAPEB_WXZ 000000018005ea6c f   xerces-c_3_1:DOMCDATASectionImpl.cpp.obj
 0001:0005da6c       ?getTextContent@DOMDocumentImpl@xercesc_3_1@@UEBAPEB_WXZ 000000018005ea6c f   xerces-c_3_1:DOMDocumentImpl.cpp.obj
 0001:0005da6c       ?getTextContent@DOMAttrImpl@xercesc_3_1@@UEBAPEB_WXZ 000000018005ea6c f   xerces-c_3_1:DOMAttrImpl.cpp.obj
 0001:0005da6c       ?getTextContent@DOMCommentImpl@xercesc_3_1@@UEBAPEB_WXZ 000000018005ea6c f   xerces-c_3_1:DOMCommentImpl.cpp.obj
 0001:0005da6c       ?getTextContent@DOMElementImpl@xercesc_3_1@@UEBAPEB_WXZ 000000018005ea6c f   xerces-c_3_1:DOMElementImpl.cpp.obj
 0001:0005da6c       ?getTextContent@DOMNotationImpl@xercesc_3_1@@UEBAPEB_WXZ 000000018005ea6c f   xerces-c_3_1:DOMNotationImpl.cpp.obj
 0001:0005da6c       ?getTextContent@DOMDocumentTypeImpl@xercesc_3_1@@UEBAPEB_WXZ 000000018005ea6c f   xerces-c_3_1:DOMDocumentTypeImpl.cpp.obj
 0001:0005da6c       ?getTextContent@DOMDocumentFragmentImpl@xercesc_3_1@@UEBAPEB_WXZ 000000018005ea6c f   xerces-c_3_1:DOMDocumentFragmentImpl.cpp.obj
 0001:0005da6c       ?getTextContent@DOMProcessingInstructionImpl@xercesc_3_1@@UEBAPEB_WXZ 000000018005ea6c f   xerces-c_3_1:DOMProcessingInstructionImpl.cpp.obj
 0001:0005da6c       ?getTextContent@DOMEntityReferenceImpl@xercesc_3_1@@UEBAPEB_WXZ 000000018005ea6c f   xerces-c_3_1:DOMEntityReferenceImpl.cpp.obj
 0001:0005da6c       ?getTextContent@DOMEntityImpl@xercesc_3_1@@UEBAPEB_WXZ 000000018005ea6c f   xerces-c_3_1:DOMEntityImpl.cpp.obj
 0001:0005da78       ?setTextContent@DOMNotationImpl@xercesc_3_1@@UEAAXPEB_W@Z 000000018005ea78 f   xerces-c_3_1:DOMNotationImpl.cpp.obj
 0001:0005da78       ?setTextContent@DOMCDATASectionImpl@xercesc_3_1@@UEAAXPEB_W@Z 000000018005ea78 f   xerces-c_3_1:DOMCDATASectionImpl.cpp.obj
 0001:0005da78       ?setTextContent@DOMTextImpl@xercesc_3_1@@UEAAXPEB_W@Z 000000018005ea78 f   xerces-c_3_1:DOMTextImpl.cpp.obj
 0001:0005da78       ?setTextContent@DOMDocumentImpl@xercesc_3_1@@UEAAXPEB_W@Z 000000018005ea78 f   xerces-c_3_1:DOMDocumentImpl.cpp.obj
 0001:0005da78       ?setTextContent@DOMCommentImpl@xercesc_3_1@@UEAAXPEB_W@Z 000000018005ea78 f   xerces-c_3_1:DOMCommentImpl.cpp.obj
 0001:0005da78       ?setTextContent@DOMEntityReferenceImpl@xercesc_3_1@@UEAAXPEB_W@Z 000000018005ea78 f   xerces-c_3_1:DOMEntityReferenceImpl.cpp.obj
 0001:0005da78       ?setTextContent@DOMDocumentFragmentImpl@xercesc_3_1@@UEAAXPEB_W@Z 000000018005ea78 f   xerces-c_3_1:DOMDocumentFragmentImpl.cpp.obj
 0001:0005da78       ?setTextContent@DOMEntityImpl@xercesc_3_1@@UEAAXPEB_W@Z 000000018005ea78 f   xerces-c_3_1:DOMEntityImpl.cpp.obj
 0001:0005da78       ?setTextContent@DOMAttrImpl@xercesc_3_1@@UEAAXPEB_W@Z 000000018005ea78 f   xerces-c_3_1:DOMAttrImpl.cpp.obj
 0001:0005da78       ?setTextContent@DOMDocumentTypeImpl@xercesc_3_1@@UEAAXPEB_W@Z 000000018005ea78 f   xerces-c_3_1:DOMDocumentTypeImpl.cpp.obj
 0001:0005da78       ?setTextContent@DOMElementImpl@xercesc_3_1@@UEAAXPEB_W@Z 000000018005ea78 f   xerces-c_3_1:DOMElementImpl.cpp.obj
 0001:0005da78       ?setTextContent@DOMProcessingInstructionImpl@xercesc_3_1@@UEAAXPEB_W@Z 000000018005ea78 f   xerces-c_3_1:DOMProcessingInstructionImpl.cpp.obj
 0001:0005da84       ?appendData@DOMCommentImpl@xercesc_3_1@@UEAAXPEB_W@Z 000000018005ea84 f   xerces-c_3_1:DOMCommentImpl.cpp.obj
 0001:0005da84       ?appendData@DOMCDATASectionImpl@xercesc_3_1@@UEAAXPEB_W@Z 000000018005ea84 f   xerces-c_3_1:DOMCDATASectionImpl.cpp.obj
 0001:0005da84       ?appendData@DOMTextImpl@xercesc_3_1@@UEAAXPEB_W@Z 000000018005ea84 f   xerces-c_3_1:DOMTextImpl.cpp.obj
 0001:0005da98       ?appendData@DOMTextImpl@xercesc_3_1@@UEAAXPEB_W_K@Z 000000018005ea98 f   xerces-c_3_1:DOMTextImpl.cpp.obj
 0001:0005db44       ?getPooledNString@DOMDocumentImpl@xercesc_3_1@@QEAAPEB_WPEB_W_K@Z 000000018005eb44 f i xerces-c_3_1:DOMAttrNSImpl.cpp.obj
 0001:0005dc68       ?removeAttrFromIDNodeMap@DOMAttrImpl@xercesc_3_1@@UEAAXXZ 000000018005ec68 f i xerces-c_3_1:DOMAttrNSImpl.cpp.obj
 0001:0005dca4       ?addAttrToIDNodeMap@DOMAttrImpl@xercesc_3_1@@UEAAXXZ 000000018005eca4 f i xerces-c_3_1:DOMAttrNSImpl.cpp.obj
 0001:0005dd38       ??0DOMAttrNSImpl@xercesc_3_1@@QEAA@PEAVDOMDocument@1@PEB_W111@Z 000000018005ed38 f   xerces-c_3_1:DOMAttrNSImpl.cpp.obj
 0001:0005de0c       ?cloneNode@DOMAttrNSImpl@xercesc_3_1@@UEBAPEAVDOMNode@2@_N@Z 000000018005ee0c f   xerces-c_3_1:DOMAttrNSImpl.cpp.obj
 0001:0005deb8       ?setPrefix@DOMAttrNSImpl@xercesc_3_1@@UEAAXPEB_W@Z 000000018005eeb8 f   xerces-c_3_1:DOMAttrNSImpl.cpp.obj
 0001:0005e378       ?release@DOMAttrNSImpl@xercesc_3_1@@UEAAXXZ 000000018005f378 f   xerces-c_3_1:DOMAttrNSImpl.cpp.obj
 0001:0005e4bc       ?rename@DOMAttrNSImpl@xercesc_3_1@@UEAAPEAVDOMNode@2@PEB_W0@Z 000000018005f4bc f   xerces-c_3_1:DOMAttrNSImpl.cpp.obj
 0001:0005e534       ?setName@DOMAttrNSImpl@xercesc_3_1@@QEAAXPEB_W0@Z 000000018005f534 f   xerces-c_3_1:DOMAttrNSImpl.cpp.obj
 0001:0005e864       ??0DOMEntityImpl@xercesc_3_1@@QEAA@PEAVDOMDocument@1@PEB_W@Z 000000018005f864 f   xerces-c_3_1:DOMEntityImpl.cpp.obj
 0001:0005e920       ??0DOMEntityImpl@xercesc_3_1@@QEAA@AEBV01@_N@Z 000000018005f920 f   xerces-c_3_1:DOMEntityImpl.cpp.obj
 0001:0005ea14       ?cloneNode@DOMEntityImpl@xercesc_3_1@@UEBAPEAVDOMNode@2@_N@Z 000000018005fa14 f   xerces-c_3_1:DOMEntityImpl.cpp.obj
 0001:0005eab0       ?getNodeType@DOMEntityImpl@xercesc_3_1@@UEBA?AW4NodeType@DOMNode@2@XZ 000000018005fab0 f   xerces-c_3_1:DOMEntityImpl.cpp.obj
 0001:0005eab8       ?setNotationName@DOMEntityImpl@xercesc_3_1@@UEAAXPEB_W@Z 000000018005fab8 f   xerces-c_3_1:DOMEntityImpl.cpp.obj
 0001:0005eae0       ?setPublicId@DOMEntityImpl@xercesc_3_1@@UEAAXPEB_W@Z 000000018005fae0 f   xerces-c_3_1:DOMEntityImpl.cpp.obj
 0001:0005eb08       ?setSystemId@DOMEntityImpl@xercesc_3_1@@UEAAXPEB_W@Z 000000018005fb08 f   xerces-c_3_1:DOMEntityImpl.cpp.obj
 0001:0005eb30       ?setBaseURI@DOMEntityImpl@xercesc_3_1@@UEAAXPEB_W@Z 000000018005fb30 f   xerces-c_3_1:DOMEntityImpl.cpp.obj
 0001:0005ebb0       ?setEntityRef@DOMEntityImpl@xercesc_3_1@@UEAAXPEAVDOMEntityReference@2@@Z 000000018005fbb0 f   xerces-c_3_1:DOMEntityImpl.cpp.obj
 0001:0005ebb8       ?cloneEntityRefTree@DOMEntityImpl@xercesc_3_1@@IEBAXXZ 000000018005fbb8 f   xerces-c_3_1:DOMEntityImpl.cpp.obj
 0001:0005ec18       ?getFirstChild@DOMEntityImpl@xercesc_3_1@@UEBAPEAVDOMNode@2@XZ 000000018005fc18 f   xerces-c_3_1:DOMEntityImpl.cpp.obj
 0001:0005ec30       ?getLastChild@DOMEntityImpl@xercesc_3_1@@UEBAPEAVDOMNode@2@XZ 000000018005fc30 f   xerces-c_3_1:DOMEntityImpl.cpp.obj
 0001:0005ec68       ?getChildNodes@DOMEntityImpl@xercesc_3_1@@UEBAPEAVDOMNodeList@2@XZ 000000018005fc68 f   xerces-c_3_1:DOMEntityImpl.cpp.obj
 0001:0005ec80       ?hasChildNodes@DOMEntityImpl@xercesc_3_1@@UEBA_NXZ 000000018005fc80 f   xerces-c_3_1:DOMEntityImpl.cpp.obj
 0001:0005eca0       ?release@DOMEntityImpl@xercesc_3_1@@UEAAXXZ 000000018005fca0 f   xerces-c_3_1:DOMEntityImpl.cpp.obj
 0001:0005ede4       ?appendChild@DOMEntityImpl@xercesc_3_1@@UEAAPEAVDOMNode@2@PEAV32@@Z 000000018005fde4 f   xerces-c_3_1:DOMEntityImpl.cpp.obj
 0001:0005ee14       ?insertBefore@DOMEntityImpl@xercesc_3_1@@UEAAPEAVDOMNode@2@PEAV32@0@Z 000000018005fe14 f   xerces-c_3_1:DOMEntityImpl.cpp.obj
 0001:0005ee50       ?normalize@DOMEntityImpl@xercesc_3_1@@UEAAXXZ 000000018005fe50 f   xerces-c_3_1:DOMEntityImpl.cpp.obj
 0001:0005ee6c       ?removeChild@DOMEntityImpl@xercesc_3_1@@UEAAPEAVDOMNode@2@PEAV32@@Z 000000018005fe6c f   xerces-c_3_1:DOMEntityImpl.cpp.obj
 0001:0005ee98       ?replaceChild@DOMEntityImpl@xercesc_3_1@@UEAAPEAVDOMNode@2@PEAV32@0@Z 000000018005fe98 f   xerces-c_3_1:DOMEntityImpl.cpp.obj
 0001:0005eee0       ?isSupported@DOMEntityImpl@xercesc_3_1@@UEBA_NPEB_W0@Z 000000018005fee0 f   xerces-c_3_1:DOMEntityImpl.cpp.obj
 0001:0005eee0       ?isSupported@DOMCommentImpl@xercesc_3_1@@UEBA_NPEB_W0@Z 000000018005fee0 f   xerces-c_3_1:DOMCommentImpl.cpp.obj
 0001:0005eee0       ?isSupported@DOMEntityReferenceImpl@xercesc_3_1@@UEBA_NPEB_W0@Z 000000018005fee0 f   xerces-c_3_1:DOMEntityReferenceImpl.cpp.obj
 0001:0005eee0       ?isSupported@DOMProcessingInstructionImpl@xercesc_3_1@@UEBA_NPEB_W0@Z 000000018005fee0 f   xerces-c_3_1:DOMProcessingInstructionImpl.cpp.obj
 0001:0005eee0       ?isSupported@DOMNotationImpl@xercesc_3_1@@UEBA_NPEB_W0@Z 000000018005fee0 f   xerces-c_3_1:DOMNotationImpl.cpp.obj
 0001:0005eee0       ?isSupported@DOMCDATASectionImpl@xercesc_3_1@@UEBA_NPEB_W0@Z 000000018005fee0 f   xerces-c_3_1:DOMCDATASectionImpl.cpp.obj
 0001:0005eee0       ?isSupported@DOMTextImpl@xercesc_3_1@@UEBA_NPEB_W0@Z 000000018005fee0 f   xerces-c_3_1:DOMTextImpl.cpp.obj
 0001:0005eee0       ?isSupported@DOMDocumentFragmentImpl@xercesc_3_1@@UEBA_NPEB_W0@Z 000000018005fee0 f   xerces-c_3_1:DOMDocumentFragmentImpl.cpp.obj
 0001:0005eee0       ?isSupported@DOMElementImpl@xercesc_3_1@@UEBA_NPEB_W0@Z 000000018005fee0 f   xerces-c_3_1:DOMElementImpl.cpp.obj
 0001:0005eef0       ?isEqualNode@DOMEntityImpl@xercesc_3_1@@UEBA_NPEBVDOMNode@2@@Z 000000018005fef0 f   xerces-c_3_1:DOMEntityImpl.cpp.obj
 0001:0005ef1c       ?setUserData@DOMNotationImpl@xercesc_3_1@@UEAAPEAXPEB_WPEAXPEAVDOMUserDataHandler@2@@Z 000000018005ff1c f   xerces-c_3_1:DOMNotationImpl.cpp.obj
 0001:0005ef1c       ?setUserData@DOMEntityReferenceImpl@xercesc_3_1@@UEAAPEAXPEB_WPEAXPEAVDOMUserDataHandler@2@@Z 000000018005ff1c f   xerces-c_3_1:DOMEntityReferenceImpl.cpp.obj
 0001:0005ef1c       ?setUserData@DOMDocumentImpl@xercesc_3_1@@UEAAPEAXPEB_WPEAXPEAVDOMUserDataHandler@2@@Z 000000018005ff1c f   xerces-c_3_1:DOMDocumentImpl.cpp.obj
 0001:0005ef1c       ?setUserData@DOMDocumentTypeImpl@xercesc_3_1@@UEAAPEAXPEB_WPEAXPEAVDOMUserDataHandler@2@@Z 000000018005ff1c f   xerces-c_3_1:DOMDocumentTypeImpl.cpp.obj
 0001:0005ef1c       ?setUserData@DOMElementImpl@xercesc_3_1@@UEAAPEAXPEB_WPEAXPEAVDOMUserDataHandler@2@@Z 000000018005ff1c f   xerces-c_3_1:DOMElementImpl.cpp.obj
 0001:0005ef1c       ?setUserData@DOMCommentImpl@xercesc_3_1@@UEAAPEAXPEB_WPEAXPEAVDOMUserDataHandler@2@@Z 000000018005ff1c f   xerces-c_3_1:DOMCommentImpl.cpp.obj
 0001:0005ef1c       ?setUserData@DOMEntityImpl@xercesc_3_1@@UEAAPEAXPEB_WPEAXPEAVDOMUserDataHandler@2@@Z 000000018005ff1c f   xerces-c_3_1:DOMEntityImpl.cpp.obj
 0001:0005ef1c       ?setUserData@DOMAttrImpl@xercesc_3_1@@UEAAPEAXPEB_WPEAXPEAVDOMUserDataHandler@2@@Z 000000018005ff1c f   xerces-c_3_1:DOMAttrImpl.cpp.obj
 0001:0005ef1c       ?setUserData@DOMCDATASectionImpl@xercesc_3_1@@UEAAPEAXPEB_WPEAXPEAVDOMUserDataHandler@2@@Z 000000018005ff1c f   xerces-c_3_1:DOMCDATASectionImpl.cpp.obj
 0001:0005ef1c       ?setUserData@DOMProcessingInstructionImpl@xercesc_3_1@@UEAAPEAXPEB_WPEAXPEAVDOMUserDataHandler@2@@Z 000000018005ff1c f   xerces-c_3_1:DOMProcessingInstructionImpl.cpp.obj
 0001:0005ef1c       ?setUserData@DOMTextImpl@xercesc_3_1@@UEAAPEAXPEB_WPEAXPEAVDOMUserDataHandler@2@@Z 000000018005ff1c f   xerces-c_3_1:DOMTextImpl.cpp.obj
 0001:0005ef1c       ?setUserData@DOMDocumentFragmentImpl@xercesc_3_1@@UEAAPEAXPEB_WPEAXPEAVDOMUserDataHandler@2@@Z 000000018005ff1c f   xerces-c_3_1:DOMDocumentFragmentImpl.cpp.obj
 0001:0005ef28       ?lookupPrefix@DOMEntityReferenceImpl@xercesc_3_1@@UEBAPEB_WPEB_W@Z 000000018005ff28 f   xerces-c_3_1:DOMEntityReferenceImpl.cpp.obj
 0001:0005ef28       ?lookupPrefix@DOMDocumentImpl@xercesc_3_1@@UEBAPEB_WPEB_W@Z 000000018005ff28 f   xerces-c_3_1:DOMDocumentImpl.cpp.obj
 0001:0005ef28       ?lookupPrefix@DOMElementImpl@xercesc_3_1@@UEBAPEB_WPEB_W@Z 000000018005ff28 f   xerces-c_3_1:DOMElementImpl.cpp.obj
 0001:0005ef28       ?lookupPrefix@DOMProcessingInstructionImpl@xercesc_3_1@@UEBAPEB_WPEB_W@Z 000000018005ff28 f   xerces-c_3_1:DOMProcessingInstructionImpl.cpp.obj
 0001:0005ef28       ?lookupPrefix@DOMAttrImpl@xercesc_3_1@@UEBAPEB_WPEB_W@Z 000000018005ff28 f   xerces-c_3_1:DOMAttrImpl.cpp.obj
 0001:0005ef28       ?lookupPrefix@DOMCommentImpl@xercesc_3_1@@UEBAPEB_WPEB_W@Z 000000018005ff28 f   xerces-c_3_1:DOMCommentImpl.cpp.obj
 0001:0005ef28       ?lookupPrefix@DOMDocumentTypeImpl@xercesc_3_1@@UEBAPEB_WPEB_W@Z 000000018005ff28 f   xerces-c_3_1:DOMDocumentTypeImpl.cpp.obj
 0001:0005ef28       ?lookupPrefix@DOMCDATASectionImpl@xercesc_3_1@@UEBAPEB_WPEB_W@Z 000000018005ff28 f   xerces-c_3_1:DOMCDATASectionImpl.cpp.obj
 0001:0005ef28       ?lookupPrefix@DOMNotationImpl@xercesc_3_1@@UEBAPEB_WPEB_W@Z 000000018005ff28 f   xerces-c_3_1:DOMNotationImpl.cpp.obj
 0001:0005ef28       ?lookupPrefix@DOMTextImpl@xercesc_3_1@@UEBAPEB_WPEB_W@Z 000000018005ff28 f   xerces-c_3_1:DOMTextImpl.cpp.obj
 0001:0005ef28       ?lookupPrefix@DOMEntityImpl@xercesc_3_1@@UEBAPEB_WPEB_W@Z 000000018005ff28 f   xerces-c_3_1:DOMEntityImpl.cpp.obj
 0001:0005ef28       ?lookupPrefix@DOMDocumentFragmentImpl@xercesc_3_1@@UEBAPEB_WPEB_W@Z 000000018005ff28 f   xerces-c_3_1:DOMDocumentFragmentImpl.cpp.obj
 0001:0005ef34       ?getXmlEncoding@DOMEntityImpl@xercesc_3_1@@UEBAPEB_WXZ 000000018005ff34 f   xerces-c_3_1:DOMEntityImpl.cpp.obj
 0001:0005ef34       ?getPublicId@DOMDocumentTypeImpl@xercesc_3_1@@UEBAPEB_WXZ 000000018005ff34 f   xerces-c_3_1:DOMDocumentTypeImpl.cpp.obj
 0001:0005ef34       ?getEnumString@UnionDatatypeValidator@xercesc_3_1@@UEBAPEBV?$RefArrayVectorOf@_W@2@XZ 000000018005ff34 f   xerces-c_3_1:UnionDatatypeValidator.cpp.obj
 0001:0005ef34       ?getLocalName@DOMElementNSImpl@xercesc_3_1@@UEBAPEB_WXZ 000000018005ff34 f   xerces-c_3_1:DOMElementNSImpl.cpp.obj
 0001:0005ef3c       ??1XMLInternalErrorHandler@xercesc_3_1@@UEAA@XZ 000000018005ff3c f i xerces-c_3_1:XIncludeUtils.cpp.obj
 0001:0005ef48       ??_GXMLInternalErrorHandler@xercesc_3_1@@UEAAPEAXI@Z 000000018005ff48 f i xerces-c_3_1:XIncludeUtils.cpp.obj
 0001:0005ef48       ??_EXMLInternalErrorHandler@xercesc_3_1@@UEAAPEAXI@Z 000000018005ff48 f i  CIL library: CIL module
 0001:0005ef74       ?warning@XMLInternalErrorHandler@xercesc_3_1@@UEAAXAEBVSAXParseException@2@@Z 000000018005ff74 f i xerces-c_3_1:XIncludeUtils.cpp.obj
 0001:0005ef90       ?error@XMLInternalErrorHandler@xercesc_3_1@@UEAAXAEBVSAXParseException@2@@Z 000000018005ff90 f i xerces-c_3_1:XIncludeUtils.cpp.obj
 0001:0005efac       ?fatalError@XMLInternalErrorHandler@xercesc_3_1@@UEAAXAEBVSAXParseException@2@@Z 000000018005ffac f i xerces-c_3_1:XIncludeUtils.cpp.obj
 0001:0005efc8       ?resetErrors@XMLInternalErrorHandler@xercesc_3_1@@UEAAXXZ 000000018005ffc8 f i xerces-c_3_1:XIncludeUtils.cpp.obj
 0001:0005efd4       ??1XIncludeUtils@xercesc_3_1@@AEAA@XZ 000000018005ffd4 f   xerces-c_3_1:XIncludeUtils.cpp.obj
 0001:0005f034       ?parseDOMNodeDoingXInclude@XIncludeUtils@xercesc_3_1@@AEAA_NPEAVDOMNode@2@PEAVDOMDocument@2@PEAVXMLEntityHandler@2@@Z 0000000180060034 f   xerces-c_3_1:XIncludeUtils.cpp.obj
 0001:0005f288       ?doDOMNodeXInclude@XIncludeUtils@xercesc_3_1@@AEAA_NPEAVDOMNode@2@PEAVDOMDocument@2@PEAVXMLEntityHandler@2@@Z 0000000180060288 f   xerces-c_3_1:XIncludeUtils.cpp.obj
 0001:0006051c       ?doXIncludeXMLFileDOM@XIncludeUtils@xercesc_3_1@@AEAAPEAVDOMDocument@2@PEB_W0PEAVDOMNode@2@PEAV32@PEAVXMLEntityHandler@2@@Z 000000018006151c f   xerces-c_3_1:XIncludeUtils.cpp.obj
 0001:00060970       ?doXIncludeTEXTFileDOM@XIncludeUtils@xercesc_3_1@@AEAAPEAVDOMText@2@PEB_W00PEAVDOMNode@2@PEAVDOMDocument@2@PEAVXMLEntityHandler@2@@Z 0000000180061970 f   xerces-c_3_1:XIncludeUtils.cpp.obj
 0001:00060db8       ?isXIIncludeDOMNode@XIncludeUtils@xercesc_3_1@@CA_NPEAVDOMNode@2@@Z 0000000180061db8 f   xerces-c_3_1:XIncludeUtils.cpp.obj
 0001:00060e64       ?isXIFallbackDOMNode@XIncludeUtils@xercesc_3_1@@CA_NPEAVDOMNode@2@@Z 0000000180061e64 f   xerces-c_3_1:XIncludeUtils.cpp.obj
 0001:00060f10       ?reportError@XIncludeUtils@xercesc_3_1@@AEAA_NQEBVDOMNode@2@W4Codes@XMLErrs@2@QEB_W2@Z 0000000180061f10 f   xerces-c_3_1:XIncludeUtils.cpp.obj
 0001:00061024       ?elementAt@?$BaseRefVectorOf@VXercesStep@xercesc_3_1@@@xercesc_3_1@@QEAAPEAVXercesStep@2@_K@Z 0000000180062024 f i xerces-c_3_1:XPathMatcher.cpp.obj
 0001:00061024       ?elementAt@?$BaseRefVectorOf@_W@xercesc_3_1@@QEAAPEA_W_K@Z 0000000180062024 f i xerces-c_3_1:SGXMLScanner.cpp.obj
 0001:00061024       ?elementAt@?$BaseRefVectorOf@VDOMNode@xercesc_3_1@@@xercesc_3_1@@QEAAPEAVDOMNode@2@_K@Z 0000000180062024 f i xerces-c_3_1:XIncludeUtils.cpp.obj
 0001:0006107c       ??0DOMElementNSImpl@xercesc_3_1@@QEAA@PEAVDOMDocument@1@PEB_W1@Z 000000018006207c f   xerces-c_3_1:DOMElementNSImpl.cpp.obj
 0001:000610e0       ??0DOMElementNSImpl@xercesc_3_1@@QEAA@PEAVDOMDocument@1@PEB_W111@Z 00000001800620e0 f   xerces-c_3_1:DOMElementNSImpl.cpp.obj
 0001:000611bc       ??0DOMElementNSImpl@xercesc_3_1@@QEAA@AEBV01@_N@Z 00000001800621bc f   xerces-c_3_1:DOMElementNSImpl.cpp.obj
 0001:00061210       ?cloneNode@DOMElementNSImpl@xercesc_3_1@@UEBAPEAVDOMNode@2@_N@Z 0000000180062210 f   xerces-c_3_1:DOMElementNSImpl.cpp.obj
 0001:000612ac       ?setPrefix@DOMElementNSImpl@xercesc_3_1@@UEAAXPEB_W@Z 00000001800622ac f   xerces-c_3_1:DOMElementNSImpl.cpp.obj
 0001:000616b8       ?release@DOMElementNSImpl@xercesc_3_1@@UEAAXXZ 00000001800626b8 f   xerces-c_3_1:DOMElementNSImpl.cpp.obj
 0001:000617fc       ?rename@DOMElementNSImpl@xercesc_3_1@@UEAAPEAVDOMNode@2@PEB_W0@Z 00000001800627fc f   xerces-c_3_1:DOMElementNSImpl.cpp.obj
 0001:00061840       ?setName@DOMElementNSImpl@xercesc_3_1@@QEAAXPEB_W0@Z 0000000180062840 f   xerces-c_3_1:DOMElementNSImpl.cpp.obj
 0001:00061a6c       ?getSchemaTypeInfo@DOMElementNSImpl@xercesc_3_1@@UEBAPEBVDOMTypeInfo@2@XZ 0000000180062a6c f   xerces-c_3_1:DOMElementNSImpl.cpp.obj
 0001:00061a80       ?setSchemaTypeInfo@DOMElementNSImpl@xercesc_3_1@@UEAAXPEBVDOMTypeInfoImpl@2@@Z 0000000180062a80 f   xerces-c_3_1:DOMElementNSImpl.cpp.obj
 0001:00061a88       ?isSupported@DOMAttrImpl@xercesc_3_1@@UEBA_NPEB_W0@Z 0000000180062a88 f   xerces-c_3_1:DOMAttrImpl.cpp.obj
 0001:00061a88       ?isSupported@DOMElementNSImpl@xercesc_3_1@@UEBA_NPEB_W0@Z 0000000180062a88 f   xerces-c_3_1:DOMElementNSImpl.cpp.obj
 0001:00061aec       ?getFeature@DOMElementNSImpl@xercesc_3_1@@UEBAPEAXPEB_W0@Z 0000000180062aec f   xerces-c_3_1:DOMElementNSImpl.cpp.obj
 0001:00061b44       ??1XMLNumber@xercesc_3_1@@UEAA@XZ 0000000180062b44 f i xerces-c_3_1:XMLNumber.cpp.obj
 0001:00061b44       ??1Grammar@xercesc_3_1@@UEAA@XZ 0000000180062b44 f i xerces-c_3_1:DTDGrammar.cpp.obj
 0001:00061b44       ??1XMLDTDDescription@xercesc_3_1@@UEAA@XZ 0000000180062b44 f i xerces-c_3_1:XMLDTDDescription.cpp.obj
 0001:00061b44       ??1XSerializable@xercesc_3_1@@UEAA@XZ 0000000180062b44 f i xerces-c_3_1:QName.cpp.obj
 0001:00061b44       ??1XMLAttDefList@xercesc_3_1@@UEAA@XZ 0000000180062b44 f i xerces-c_3_1:SchemaAttDefList.cpp.obj
 0001:00061b44       ??1XMLSchemaDescription@xercesc_3_1@@UEAA@XZ 0000000180062b44 f i xerces-c_3_1:XMLSchemaDescription.cpp.obj
 0001:00061b50       ??_EXSerializable@xercesc_3_1@@UEAAPEAXI@Z 0000000180062b50 f i  CIL library: CIL module
 0001:00061b50       ??_GXSerializable@xercesc_3_1@@UEAAPEAXI@Z 0000000180062b50 f i xerces-c_3_1:QName.cpp.obj
 0001:00061b7c       ??_EQName@xercesc_3_1@@UEAAPEAXI@Z 0000000180062b7c f i  CIL library: CIL module
 0001:00061b7c       ??_GQName@xercesc_3_1@@UEAAPEAXI@Z 0000000180062b7c f i xerces-c_3_1:QName.cpp.obj
 0001:00061bb8       ??0QName@xercesc_3_1@@QEAA@QEB_W0IQEAVMemoryManager@1@@Z 0000000180062bb8 f   xerces-c_3_1:QName.cpp.obj
 0001:00061c34       ??0QName@xercesc_3_1@@QEAA@QEB_WIQEAVMemoryManager@1@@Z 0000000180062c34 f   xerces-c_3_1:QName.cpp.obj
 0001:00061ca8       ??1QName@xercesc_3_1@@UEAA@XZ 0000000180062ca8 f   xerces-c_3_1:QName.cpp.obj
 0001:00061ce0       ??0QName@xercesc_3_1@@QEAA@AEBV01@@Z 0000000180062ce0 f   xerces-c_3_1:QName.cpp.obj
 0001:00061df8       ?getRawName@QName@xercesc_3_1@@QEBAPEB_WXZ 0000000180062df8 f   xerces-c_3_1:QName.cpp.obj
 0001:00061df8       ?getRawName@QName@xercesc_3_1@@QEAAPEA_WXZ 0000000180062df8 f   xerces-c_3_1:QName.cpp.obj
 0001:00061ef8       ?setName@QName@xercesc_3_1@@QEAAXQEB_W0I@Z 0000000180062ef8 f   xerces-c_3_1:QName.cpp.obj
 0001:00061f94       ?setName@QName@xercesc_3_1@@QEAAXQEB_WI@Z 0000000180062f94 f   xerces-c_3_1:QName.cpp.obj
 0001:000620a0       ?setNPrefix@QName@xercesc_3_1@@QEAAXPEB_W_K@Z 00000001800630a0 f   xerces-c_3_1:QName.cpp.obj
 0001:00062128       ?setNLocalPart@QName@xercesc_3_1@@QEAAXPEB_W_K@Z 0000000180063128 f   xerces-c_3_1:QName.cpp.obj
 0001:000621b0       ?setValues@QName@xercesc_3_1@@QEAAXAEBV12@@Z 00000001800631b0 f   xerces-c_3_1:QName.cpp.obj
 0001:0006223c       ??8QName@xercesc_3_1@@QEBA_NAEBV01@@Z 000000018006323c f   xerces-c_3_1:QName.cpp.obj
 0001:00062354       ?cleanUp@QName@xercesc_3_1@@QEAAXXZ 0000000180063354 f   xerces-c_3_1:QName.cpp.obj
 0001:0006239c       ?createObject@QName@xercesc_3_1@@SAPEAVXSerializable@2@PEAVMemoryManager@2@@Z 000000018006339c f   xerces-c_3_1:QName.cpp.obj
 0001:000623f0       ?getProtoType@QName@xercesc_3_1@@UEBAPEAVXProtoType@2@XZ 00000001800633f0 f   xerces-c_3_1:QName.cpp.obj
 0001:000623f8       ?serialize@QName@xercesc_3_1@@UEAAXAEAVXSerializeEngine@2@@Z 00000001800633f8 f   xerces-c_3_1:QName.cpp.obj
 0001:000624a4       ??1DOMNamedNodeMap@xercesc_3_1@@UEAA@XZ 00000001800634a4 f i xerces-c_3_1:DOMAttrMapImpl.cpp.obj
 0001:000624b0       ??_GDOMNamedNodeMap@xercesc_3_1@@UEAAPEAXI@Z 00000001800634b0 f i xerces-c_3_1:DOMAttrMapImpl.cpp.obj
 0001:000624b0       ??_EDOMNamedNodeMap@xercesc_3_1@@UEAAPEAXI@Z 00000001800634b0 f i  CIL library: CIL module
 0001:000624b0       ??_GDOMNamedNodeMapImpl@xercesc_3_1@@UEAAPEAXI@Z 00000001800634b0 f i xerces-c_3_1:DOMNamedNodeMapImpl.cpp.obj
 0001:000624b0       ??_EDOMNamedNodeMapImpl@xercesc_3_1@@UEAAPEAXI@Z 00000001800634b0 f i  CIL library: CIL module
 0001:000624b0       ??_EDOMAttrMapImpl@xercesc_3_1@@UEAAPEAXI@Z 00000001800634b0 f i  CIL library: CIL module
 0001:000624b0       ??_GDOMAttrMapImpl@xercesc_3_1@@UEAAPEAXI@Z 00000001800634b0 f i xerces-c_3_1:DOMAttrMapImpl.cpp.obj
 0001:000624dc       ?hasDefaults@DOMAttrMapImpl@xercesc_3_1@@UEAA_NXZ 00000001800634dc f i xerces-c_3_1:DOMAttrMapImpl.cpp.obj
 0001:000624e0       ?hasDefaults@DOMAttrMapImpl@xercesc_3_1@@UEAAX_N@Z 00000001800634e0 f i xerces-c_3_1:DOMAttrMapImpl.cpp.obj
 0001:000624e4       ??0DOMAttrMapImpl@xercesc_3_1@@QEAA@PEAVDOMNode@1@PEBV01@@Z 00000001800634e4 f   xerces-c_3_1:DOMAttrMapImpl.cpp.obj
 0001:0006254c       ?cloneContent@DOMAttrMapImpl@xercesc_3_1@@MEAAXPEBV12@@Z 000000018006354c f   xerces-c_3_1:DOMAttrMapImpl.cpp.obj
 0001:00062674       ?cloneAttrMap@DOMAttrMapImpl@xercesc_3_1@@UEAAPEAV12@PEAVDOMNode@2@@Z 0000000180063674 f   xerces-c_3_1:DOMAttrMapImpl.cpp.obj
 0001:00062700       ?setReadOnly@DOMAttrMapImpl@xercesc_3_1@@UEAAX_N0@Z 0000000180063700 f   xerces-c_3_1:DOMAttrMapImpl.cpp.obj
 0001:00062784       ?findNamePoint@DOMAttrMapImpl@xercesc_3_1@@UEBAHPEB_W@Z 0000000180063784 f   xerces-c_3_1:DOMAttrMapImpl.cpp.obj
 0001:00062828       ?getNamedItem@DOMAttrMapImpl@xercesc_3_1@@UEBAPEAVDOMNode@2@PEB_W@Z 0000000180063828 f   xerces-c_3_1:DOMAttrMapImpl.cpp.obj
 0001:00062858       ?setNamedItem@DOMAttrMapImpl@xercesc_3_1@@UEAAPEAVDOMNode@2@PEAV32@@Z 0000000180063858 f   xerces-c_3_1:DOMAttrMapImpl.cpp.obj
 0001:00062b64       ?findNamePoint@DOMAttrMapImpl@xercesc_3_1@@UEBAHPEB_W0@Z 0000000180063b64 f   xerces-c_3_1:DOMAttrMapImpl.cpp.obj
 0001:00062d2c       ?getNamedItemNS@DOMAttrMapImpl@xercesc_3_1@@UEBAPEAVDOMNode@2@PEB_W0@Z 0000000180063d2c f   xerces-c_3_1:DOMAttrMapImpl.cpp.obj
 0001:00062d5c       ?setNamedItemNS@DOMAttrMapImpl@xercesc_3_1@@UEAAPEAVDOMNode@2@PEAV32@@Z 0000000180063d5c f   xerces-c_3_1:DOMAttrMapImpl.cpp.obj
 0001:00063080       ?removeNamedItem@DOMAttrMapImpl@xercesc_3_1@@UEAAPEAVDOMNode@2@PEB_W@Z 0000000180064080 f   xerces-c_3_1:DOMAttrMapImpl.cpp.obj
 0001:00063240       ?removeNamedItemNS@DOMAttrMapImpl@xercesc_3_1@@UEAAPEAVDOMNode@2@PEB_W0@Z 0000000180064240 f   xerces-c_3_1:DOMAttrMapImpl.cpp.obj
 0001:00063414       ?removeNamedItemAt@DOMAttrMapImpl@xercesc_3_1@@UEAAPEAVDOMNode@2@_K@Z 0000000180064414 f   xerces-c_3_1:DOMAttrMapImpl.cpp.obj
 0001:00063608       ?reconcileDefaultAttributes@DOMAttrMapImpl@xercesc_3_1@@QEAAXPEBV12@@Z 0000000180064608 f   xerces-c_3_1:DOMAttrMapImpl.cpp.obj
 0001:00063708       ?getLength@DOMAttrMapImpl@xercesc_3_1@@UEBA_KXZ 0000000180064708 f   xerces-c_3_1:DOMAttrMapImpl.cpp.obj
 0001:00063718       ?item@DOMAttrMapImpl@xercesc_3_1@@UEBAPEAVDOMNode@2@_K@Z 0000000180064718 f   xerces-c_3_1:DOMAttrMapImpl.cpp.obj
 0001:00063734       ??0DOMAttrImpl@xercesc_3_1@@QEAA@PEAVDOMDocument@1@PEB_W@Z 0000000180064734 f   xerces-c_3_1:DOMAttrImpl.cpp.obj
 0001:000637bc       ??0DOMAttrImpl@xercesc_3_1@@QEAA@AEBV01@_N@Z 00000001800647bc f   xerces-c_3_1:DOMAttrImpl.cpp.obj
 0001:000638a0       ??1DOMElementImpl@xercesc_3_1@@UEAA@XZ 00000001800648a0 f   xerces-c_3_1:DOMElementImpl.cpp.obj
 0001:000638a0       ??1DOMAttrImpl@xercesc_3_1@@UEAA@XZ 00000001800648a0 f   xerces-c_3_1:DOMAttrImpl.cpp.obj
 0001:000638b8       ?cloneNode@DOMAttrImpl@xercesc_3_1@@UEBAPEAVDOMNode@2@_N@Z 00000001800648b8 f   xerces-c_3_1:DOMAttrImpl.cpp.obj
 0001:00063944       ?getNodeName@DOMAttrImpl@xercesc_3_1@@UEBAPEB_WXZ 0000000180064944 f   xerces-c_3_1:DOMAttrImpl.cpp.obj
 0001:00063944       ?getName@DOMAttrImpl@xercesc_3_1@@UEBAPEB_WXZ 0000000180064944 f   xerces-c_3_1:DOMAttrImpl.cpp.obj
 0001:00063944       ?getTypeDefinition@PSVIElement@xercesc_3_1@@UEAAPEAVXSTypeDefinition@2@XZ 0000000180064944 f   xerces-c_3_1:PSVIElement.cpp.obj
 0001:00063944       ?getFullName@DTDAttDef@xercesc_3_1@@UEBAPEB_WXZ 0000000180064944 f   xerces-c_3_1:DTDAttDef.cpp.obj
 0001:00063944       ?getNodeName@DOMEntityImpl@xercesc_3_1@@UEBAPEB_WXZ 0000000180064944 f   xerces-c_3_1:DOMEntityImpl.cpp.obj
 0001:00063944       ?getTypeDefinition@PSVIAttribute@xercesc_3_1@@UEAAPEAVXSTypeDefinition@2@XZ 0000000180064944 f   xerces-c_3_1:PSVIAttribute.cpp.obj
 0001:0006394c       ?getNodeValue@DOMAttrImpl@xercesc_3_1@@UEBAPEB_WXZ 000000018006494c f   xerces-c_3_1:DOMAttrImpl.cpp.obj
 0001:00063958       ?getSpecified@DOMAttrImpl@xercesc_3_1@@UEBA_NXZ 0000000180064958 f   xerces-c_3_1:DOMAttrImpl.cpp.obj
 0001:00063964       ?getValue@DOMAttrImpl@xercesc_3_1@@UEBAPEB_WXZ 0000000180064964 f   xerces-c_3_1:DOMAttrImpl.cpp.obj
 0001:00063aa8       ?getTextValue@DOMAttrImpl@xercesc_3_1@@IEBAXPEAVDOMNode@2@AEAVXMLBuffer@2@@Z 0000000180064aa8 f   xerces-c_3_1:DOMAttrImpl.cpp.obj
 0001:00063b40       ?setNodeValue@DOMAttrImpl@xercesc_3_1@@UEAAXPEB_W@Z 0000000180064b40 f   xerces-c_3_1:DOMAttrImpl.cpp.obj
 0001:00063b4c       ?setSpecified@DOMAttrImpl@xercesc_3_1@@UEAAX_N@Z 0000000180064b4c f   xerces-c_3_1:DOMAttrImpl.cpp.obj
 0001:00063b64       ?setValue@DOMAttrImpl@xercesc_3_1@@UEAAXPEB_W@Z 0000000180064b64 f   xerces-c_3_1:DOMAttrImpl.cpp.obj
 0001:00063ca8       ?setValueFast@DOMAttrImpl@xercesc_3_1@@UEAAXPEB_W@Z 0000000180064ca8 f   xerces-c_3_1:DOMAttrImpl.cpp.obj
 0001:00063cf4       ?release@DOMAttrImpl@xercesc_3_1@@UEAAXXZ 0000000180064cf4 f   xerces-c_3_1:DOMAttrImpl.cpp.obj
 0001:00063e34       ?isId@DOMAttrImpl@xercesc_3_1@@UEBA_NXZ 0000000180064e34 f   xerces-c_3_1:DOMAttrImpl.cpp.obj
 0001:00063e40       ?rename@DOMAttrImpl@xercesc_3_1@@UEAAPEAVDOMNode@2@PEB_W0@Z 0000000180064e40 f   xerces-c_3_1:DOMAttrImpl.cpp.obj
 0001:00063fb8       ?getSchemaTypeInfo@DOMAttrImpl@xercesc_3_1@@UEBAPEBVDOMTypeInfo@2@XZ 0000000180064fb8 f   xerces-c_3_1:DOMAttrImpl.cpp.obj
 0001:00063fcc       ?setSchemaTypeInfo@DOMAttrImpl@xercesc_3_1@@UEAAXPEBVDOMTypeInfoImpl@2@@Z 0000000180064fcc f   xerces-c_3_1:DOMAttrImpl.cpp.obj
 0001:00063fd4       ?getFeature@DOMAttrImpl@xercesc_3_1@@UEBAPEAXPEB_W0@Z 0000000180064fd4 f   xerces-c_3_1:DOMAttrImpl.cpp.obj
 0001:00064028       ?appendChild@DOMAttrImpl@xercesc_3_1@@UEAAPEAVDOMNode@2@PEAV32@@Z 0000000180065028 f   xerces-c_3_1:DOMAttrImpl.cpp.obj
 0001:00064028       ?appendChild@DOMEntityReferenceImpl@xercesc_3_1@@UEAAPEAVDOMNode@2@PEAV32@@Z 0000000180065028 f   xerces-c_3_1:DOMEntityReferenceImpl.cpp.obj
 0001:00064028       ?appendChild@DOMDocumentFragmentImpl@xercesc_3_1@@UEAAPEAVDOMNode@2@PEAV32@@Z 0000000180065028 f   xerces-c_3_1:DOMDocumentFragmentImpl.cpp.obj
 0001:00064028       ?appendChild@DOMDocumentTypeImpl@xercesc_3_1@@UEAAPEAVDOMNode@2@PEAV32@@Z 0000000180065028 f   xerces-c_3_1:DOMDocumentTypeImpl.cpp.obj
 0001:00064028       ?appendChild@DOMElementImpl@xercesc_3_1@@UEAAPEAVDOMNode@2@PEAV32@@Z 0000000180065028 f   xerces-c_3_1:DOMElementImpl.cpp.obj
 0001:00064034       ?createObject@AbstractStringValidator@xercesc_3_1@@SAPEAVXSerializable@2@PEAVMemoryManager@2@@Z 0000000180065034 f   xerces-c_3_1:AbstractStringValidator.cpp.obj
 0001:00064034       ?getLastChild@DOMCDATASectionImpl@xercesc_3_1@@UEBAPEAVDOMNode@2@XZ 0000000180065034 f   xerces-c_3_1:DOMCDATASectionImpl.cpp.obj
 0001:00064034       ?getPrefix@DOMElementImpl@xercesc_3_1@@UEBAPEB_WXZ 0000000180065034 f   xerces-c_3_1:DOMElementImpl.cpp.obj
 0001:00064034       ?getContentLeafNameTypeVector@MixedContentModel@xercesc_3_1@@UEBAPEAVContentLeafNameTypeVector@2@XZ 0000000180065034 f   xerces-c_3_1:MixedContentModel.cpp.obj
 0001:00064034       ?getNodeValue@DOMEntityReferenceImpl@xercesc_3_1@@UEBAPEB_WXZ 0000000180065034 f   xerces-c_3_1:DOMEntityReferenceImpl.cpp.obj
 0001:00064034       ?getNamespaceURI@DOMDocumentFragmentImpl@xercesc_3_1@@UEBAPEB_WXZ 0000000180065034 f   xerces-c_3_1:DOMDocumentFragmentImpl.cpp.obj
 0001:00064034       ?createObject@XMLNumber@xercesc_3_1@@SAPEAVXSerializable@2@PEAVMemoryManager@2@@Z 0000000180065034 f   xerces-c_3_1:XMLNumber.cpp.obj
 0001:00064034       ?getLocalName@DOMEntityReferenceImpl@xercesc_3_1@@UEBAPEB_WXZ 0000000180065034 f   xerces-c_3_1:DOMEntityReferenceImpl.cpp.obj
 0001:00064034       ?getLocalName@DOMAttrImpl@xercesc_3_1@@UEBAPEB_WXZ 0000000180065034 f   xerces-c_3_1:DOMAttrImpl.cpp.obj
 0001:00064034       ?getAttributes@DOMCommentImpl@xercesc_3_1@@UEBAPEAVDOMNamedNodeMap@2@XZ 0000000180065034 f   xerces-c_3_1:DOMCommentImpl.cpp.obj
 0001:00064034       ?createObject@XMLEntityDecl@xercesc_3_1@@SAPEAVXSerializable@2@PEAVMemoryManager@2@@Z 0000000180065034 f   xerces-c_3_1:XMLEntityDecl.cpp.obj
 0001:00064034       ?getURIForPrefix@ValidationContext@xercesc_3_1@@UEAAPEB_WPEA_W@Z 0000000180065034 f   xerces-c_3_1:ValidationContextImpl.cpp.obj
 0001:00064034       ?getFirstChild@DOMCommentImpl@xercesc_3_1@@UEBAPEAVDOMNode@2@XZ 0000000180065034 f   xerces-c_3_1:DOMCommentImpl.cpp.obj
 0001:00064034       ?getFeature@DOMCommentImpl@xercesc_3_1@@UEBAPEAXPEB_W0@Z 0000000180065034 f   xerces-c_3_1:DOMCommentImpl.cpp.obj
 0001:00064034       ?getPrefix@DOMCommentImpl@xercesc_3_1@@UEBAPEB_WXZ 0000000180065034 f   xerces-c_3_1:DOMCommentImpl.cpp.obj
 0001:00064034       ?getName@XSObject@xercesc_3_1@@UEBAPEB_WXZ 0000000180065034 f   xerces-c_3_1:XSObject.cpp.obj
 0001:00064034       ?getAttributes@DOMDocumentImpl@xercesc_3_1@@UEBAPEAVDOMNamedNodeMap@2@XZ 0000000180065034 f   xerces-c_3_1:DOMDocumentImpl.cpp.obj
 0001:00064034       ?getEncoding@BinInputStream@xercesc_3_1@@UEBAPEB_WXZ 0000000180065034 f   xerces-c_3_1:BinInputStream.cpp.obj
 0001:00064034       ?getNodeValue@DOMNotationImpl@xercesc_3_1@@UEBAPEB_WXZ 0000000180065034 f   xerces-c_3_1:DOMNotationImpl.cpp.obj
 0001:00064034       ?getNextSibling@DOMNotationImpl@xercesc_3_1@@UEBAPEAVDOMNode@2@XZ 0000000180065034 f   xerces-c_3_1:DOMNotationImpl.cpp.obj
 0001:00064034       ?getPrefix@DOMProcessingInstructionImpl@xercesc_3_1@@UEBAPEB_WXZ 0000000180065034 f   xerces-c_3_1:DOMProcessingInstructionImpl.cpp.obj
 0001:00064034       ?getFeature@DOMImplementationImpl@xercesc_3_1@@UEBAPEAXPEB_W0@Z 0000000180065034 f   xerces-c_3_1:DOMImplementationImpl.cpp.obj
 0001:00064034       ?getPrefix@DOMDocumentFragmentImpl@xercesc_3_1@@UEBAPEB_WXZ 0000000180065034 f   xerces-c_3_1:DOMDocumentFragmentImpl.cpp.obj
 0001:00064034       ?getNextSibling@DOMDocumentFragmentImpl@xercesc_3_1@@UEBAPEAVDOMNode@2@XZ 0000000180065034 f   xerces-c_3_1:DOMDocumentFragmentImpl.cpp.obj
 0001:00064034       ?getEntityDeclPool@WFXMLScanner@xercesc_3_1@@UEAAPEAV?$NameIdPool@VDTDEntityDecl@xercesc_3_1@@@2@XZ 0000000180065034 f   xerces-c_3_1:WFXMLScanner.cpp.obj
 0001:00064034       ?getContentType@BinFileInputStream@xercesc_3_1@@UEBAPEB_WXZ 0000000180065034 f   xerces-c_3_1:BinFileInputStream.cpp.obj
 0001:00064034       ?loadGrammar@WFXMLScanner@xercesc_3_1@@UEAAPEAVGrammar@2@AEBVInputSource@2@F_N@Z 0000000180065034 f   xerces-c_3_1:WFXMLScanner.cpp.obj
 0001:00064034       ?getFeature@DOMTextImpl@xercesc_3_1@@UEBAPEAXPEB_W0@Z 0000000180065034 f   xerces-c_3_1:DOMTextImpl.cpp.obj
 0001:00064034       ?getNodeValue@DOMElementImpl@xercesc_3_1@@UEBAPEB_WXZ 0000000180065034 f   xerces-c_3_1:DOMElementImpl.cpp.obj
 0001:00064034       ?getPrefix@DOMEntityImpl@xercesc_3_1@@UEBAPEB_WXZ 0000000180065034 f   xerces-c_3_1:DOMEntityImpl.cpp.obj
 0001:00064034       ?getLocalName@DOMDocumentImpl@xercesc_3_1@@UEBAPEB_WXZ 0000000180065034 f   xerces-c_3_1:DOMDocumentImpl.cpp.obj
 0001:00064034       ?getPrefix@DOMDocumentTypeImpl@xercesc_3_1@@UEBAPEB_WXZ 0000000180065034 f   xerces-c_3_1:DOMDocumentTypeImpl.cpp.obj
 0001:00064034       ?getNamespaceURI@DOMProcessingInstructionImpl@xercesc_3_1@@UEBAPEB_WXZ 0000000180065034 f   xerces-c_3_1:DOMProcessingInstructionImpl.cpp.obj
 0001:00064034       ?getFirstChild@DOMCDATASectionImpl@xercesc_3_1@@UEBAPEAVDOMNode@2@XZ 0000000180065034 f   xerces-c_3_1:DOMCDATASectionImpl.cpp.obj
 0001:00064034       ?createObject@XMLDTDDescription@xercesc_3_1@@SAPEAVXSerializable@2@PEAVMemoryManager@2@@Z 0000000180065034 f   xerces-c_3_1:XMLDTDDescription.cpp.obj
 0001:00064034       ?getFirstChild@DOMNotationImpl@xercesc_3_1@@UEBAPEAVDOMNode@2@XZ 0000000180065034 f   xerces-c_3_1:DOMNotationImpl.cpp.obj
 0001:00064034       ?getLocalName@DOMCDATASectionImpl@xercesc_3_1@@UEBAPEB_WXZ 0000000180065034 f   xerces-c_3_1:DOMCDATASectionImpl.cpp.obj
 0001:00064034       ?getLocalName@DOMNotationImpl@xercesc_3_1@@UEBAPEB_WXZ 0000000180065034 f   xerces-c_3_1:DOMNotationImpl.cpp.obj
 0001:00064034       ?getContentLeafNameTypeVector@AllContentModel@xercesc_3_1@@UEBAPEAVContentLeafNameTypeVector@2@XZ 0000000180065034 f   xerces-c_3_1:AllContentModel.cpp.obj
 0001:00064034       ?createObject@DatatypeValidator@xercesc_3_1@@SAPEAVXSerializable@2@PEAVMemoryManager@2@@Z 0000000180065034 f   xerces-c_3_1:DatatypeValidator.cpp.obj
 0001:00064034       ?getLocalName@DOMEntityImpl@xercesc_3_1@@UEBAPEB_WXZ 0000000180065034 f   xerces-c_3_1:DOMEntityImpl.cpp.obj
 0001:00064034       ?getPreviousSibling@DOMAttrImpl@xercesc_3_1@@UEBAPEAVDOMNode@2@XZ 0000000180065034 f   xerces-c_3_1:DOMAttrImpl.cpp.obj
 0001:00064034       ?getLocalName@DOMTextImpl@xercesc_3_1@@UEBAPEB_WXZ 0000000180065034 f   xerces-c_3_1:DOMTextImpl.cpp.obj
 0001:00064034       ?getOwnerDocument@DOMDocumentImpl@xercesc_3_1@@UEBAPEAVDOMDocument@2@XZ 0000000180065034 f   xerces-c_3_1:DOMDocumentImpl.cpp.obj
 0001:00064034       ?getParentNode@DOMAttrImpl@xercesc_3_1@@UEBAPEAVDOMNode@2@XZ 0000000180065034 f   xerces-c_3_1:DOMAttrImpl.cpp.obj
 0001:00064034       ?getObjectType@SchemaElementDecl@xercesc_3_1@@UEBA?AW4objectType@XMLElementDecl@2@XZ 0000000180065034 f   xerces-c_3_1:SchemaElementDecl.cpp.obj
 0001:00064034       ?getNodeValue@DOMDocumentTypeImpl@xercesc_3_1@@UEBAPEB_WXZ 0000000180065034 f   xerces-c_3_1:DOMDocumentTypeImpl.cpp.obj
 0001:00064034       ?createObject@XMLElementDecl@xercesc_3_1@@SAPEAVXSerializable@2@PEAVMemoryManager@2@@Z 0000000180065034 f   xerces-c_3_1:XMLElementDecl.cpp.obj
 0001:00064034       ?getNamespaceURI@DOMCDATASectionImpl@xercesc_3_1@@UEBAPEB_WXZ 0000000180065034 f   xerces-c_3_1:DOMCDATASectionImpl.cpp.obj
 0001:00064034       ?createObject@XMLAttDefList@xercesc_3_1@@SAPEAVXSerializable@2@PEAVMemoryManager@2@@Z 0000000180065034 f   xerces-c_3_1:XMLAttDefList.cpp.obj
 0001:00064034       ?getNamespaceURI@DOMNotationImpl@xercesc_3_1@@UEBAPEB_WXZ 0000000180065034 f   xerces-c_3_1:DOMNotationImpl.cpp.obj
 0001:00064034       ?getNextSibling@DOMAttrImpl@xercesc_3_1@@UEBAPEAVDOMNode@2@XZ 0000000180065034 f   xerces-c_3_1:DOMAttrImpl.cpp.obj
 0001:00064034       ?createObject@XMLGrammarDescription@xercesc_3_1@@SAPEAVXSerializable@2@PEAVMemoryManager@2@@Z 0000000180065034 f   xerces-c_3_1:XMLGrammarDescription.cpp.obj
 0001:00064034       ?getAttributes@DOMEntityReferenceImpl@xercesc_3_1@@UEBAPEAVDOMNamedNodeMap@2@XZ 0000000180065034 f   xerces-c_3_1:DOMEntityReferenceImpl.cpp.obj
 0001:00064034       ?getAttributes@DOMNotationImpl@xercesc_3_1@@UEBAPEAVDOMNamedNodeMap@2@XZ 0000000180065034 f   xerces-c_3_1:DOMNotationImpl.cpp.obj
 0001:00064034       __set_flsgetvalue          0000000180065034 f   LIBCMT:tidtable.obj
 0001:00064034       ?createObject@IdentityConstraint@xercesc_3_1@@SAPEAVXSerializable@2@PEAVMemoryManager@2@@Z 0000000180065034 f   xerces-c_3_1:IdentityConstraint.cpp.obj
 0001:00064034       ?getFeature@DOMEntityImpl@xercesc_3_1@@UEBAPEAXPEB_W0@Z 0000000180065034 f   xerces-c_3_1:DOMEntityImpl.cpp.obj
 0001:00064034       ?getParentNode@DOMNotationImpl@xercesc_3_1@@UEBAPEAVDOMNode@2@XZ 0000000180065034 f   xerces-c_3_1:DOMNotationImpl.cpp.obj
 0001:00064034       ?getAttributes@DOMDocumentFragmentImpl@xercesc_3_1@@UEBAPEAVDOMNamedNodeMap@2@XZ 0000000180065034 f   xerces-c_3_1:DOMDocumentFragmentImpl.cpp.obj
 0001:00064034       ?getPreviousSibling@DOMDocumentFragmentImpl@xercesc_3_1@@UEBAPEAVDOMNode@2@XZ 0000000180065034 f   xerces-c_3_1:DOMDocumentFragmentImpl.cpp.obj
 0001:00064034       ?getAttributes@DOMDocumentTypeImpl@xercesc_3_1@@UEBAPEAVDOMNamedNodeMap@2@XZ 0000000180065034 f   xerces-c_3_1:DOMDocumentTypeImpl.cpp.obj
 0001:00064034       ?getPrefix@DOMTextImpl@xercesc_3_1@@UEBAPEB_WXZ 0000000180065034 f   xerces-c_3_1:DOMTextImpl.cpp.obj
 0001:00064034       ?resolveSystemId@XMLScanner@xercesc_3_1@@MEAAPEAVInputSource@2@QEB_W0@Z 0000000180065034 f   xerces-c_3_1:XMLScanner.cpp.obj
 0001:00064034       ?getGrammarType@XMLDTDDescription@xercesc_3_1@@UEBA?AW4GrammarType@Grammar@2@XZ 0000000180065034 f   xerces-c_3_1:XMLDTDDescriptionImpl.cpp.obj
 0001:00064034       ?createObject@AbstractNumericFacetValidator@xercesc_3_1@@SAPEAVXSerializable@2@PEAVMemoryManager@2@@Z 0000000180065034 f   xerces-c_3_1:AbstractNumericFacetValidator.cpp.obj
 0001:00064034       ?getPreviousSibling@DOMNotationImpl@xercesc_3_1@@UEBAPEAVDOMNode@2@XZ 0000000180065034 f   xerces-c_3_1:DOMNotationImpl.cpp.obj
 0001:00064034       ?getNamespaceURI@DOMDocumentImpl@xercesc_3_1@@UEBAPEB_WXZ 0000000180065034 f   xerces-c_3_1:DOMDocumentImpl.cpp.obj
 0001:00064034       ?getEnumString@BooleanDatatypeValidator@xercesc_3_1@@UEBAPEBV?$RefArrayVectorOf@_W@2@XZ 0000000180065034 f   xerces-c_3_1:BooleanDatatypeValidator.cpp.obj
 0001:00064034       ?getNamespaceItem@XSObject@xercesc_3_1@@UEAAPEAVXSNamespaceItem@2@XZ 0000000180065034 f   xerces-c_3_1:XSObject.cpp.obj
 0001:00064034       ?getRelatedException@DOMErrorImpl@xercesc_3_1@@UEBAPEAXXZ 0000000180065034 f   xerces-c_3_1:DOMErrorImpl.cpp.obj
 0001:00064034       ?getNodeValue@DOMDocumentFragmentImpl@xercesc_3_1@@UEBAPEB_WXZ 0000000180065034 f   xerces-c_3_1:DOMDocumentFragmentImpl.cpp.obj
 0001:00064034       ?getNamespace@XSObject@xercesc_3_1@@UEAAPEB_WXZ 0000000180065034 f   xerces-c_3_1:XSObject.cpp.obj
 0001:00064034       ?createObject@Grammar@xercesc_3_1@@SAPEAVXSerializable@2@PEAVMemoryManager@2@@Z 0000000180065034 f   xerces-c_3_1:Grammar.cpp.obj
 0001:00064034       ?getPrefix@DOMCDATASectionImpl@xercesc_3_1@@UEBAPEB_WXZ 0000000180065034 f   xerces-c_3_1:DOMCDATASectionImpl.cpp.obj
 0001:00064034       ?getLastChild@DOMNotationImpl@xercesc_3_1@@UEBAPEAVDOMNode@2@XZ 0000000180065034 f   xerces-c_3_1:DOMNotationImpl.cpp.obj
 0001:00064034       ?getEntityDeclPool@SGXMLScanner@xercesc_3_1@@UEAAPEAV?$NameIdPool@VDTDEntityDecl@xercesc_3_1@@@2@XZ 0000000180065034 f   xerces-c_3_1:SGXMLScanner.cpp.obj
 0001:00064034       ?createObject@XMLSchemaDescription@xercesc_3_1@@SAPEAVXSerializable@2@PEAVMemoryManager@2@@Z 0000000180065034 f   xerces-c_3_1:XMLSchemaDescription.cpp.obj
 0001:00064034       ?getLocalName@DOMProcessingInstructionImpl@xercesc_3_1@@UEBAPEB_WXZ 0000000180065034 f   xerces-c_3_1:DOMProcessingInstructionImpl.cpp.obj
 0001:00064034       ?getFeature@DOMDocumentFragmentImpl@xercesc_3_1@@UEBAPEAXPEB_W0@Z 0000000180065034 f   xerces-c_3_1:DOMDocumentFragmentImpl.cpp.obj
 0001:00064034       ?getPrefix@DOMDocumentImpl@xercesc_3_1@@UEBAPEB_WXZ 0000000180065034 f   xerces-c_3_1:DOMDocumentImpl.cpp.obj
 0001:00064034       ?resolveSystemId@WFXMLScanner@xercesc_3_1@@EEAAPEAVInputSource@2@QEB_W0@Z 0000000180065034 f   xerces-c_3_1:WFXMLScanner.cpp.obj
 0001:00064034       ?getPrefix@DOMAttrImpl@xercesc_3_1@@UEBAPEB_WXZ 0000000180065034 f   xerces-c_3_1:DOMAttrImpl.cpp.obj
 0001:00064034       ?getNamespaceURI@DOMEntityImpl@xercesc_3_1@@UEBAPEB_WXZ 0000000180065034 f   xerces-c_3_1:DOMEntityImpl.cpp.obj
 0001:00064034       ?size@Token@xercesc_3_1@@UEBA_KXZ 0000000180065034 f   xerces-c_3_1:RangeToken.cpp.obj
 0001:00064034       ?getCurrentGrammarType@DGXMLScanner@xercesc_3_1@@UEBA?AW4GrammarType@Grammar@2@XZ 0000000180065034 f   xerces-c_3_1:DGXMLScanner.cpp.obj
 0001:00064034       ?getFeature@DOMNotationImpl@xercesc_3_1@@UEBAPEAXPEB_W0@Z 0000000180065034 f   xerces-c_3_1:DOMNotationImpl.cpp.obj
 0001:00064034       ?getParentNode@DOMEntityImpl@xercesc_3_1@@UEBAPEAVDOMNode@2@XZ 0000000180065034 f   xerces-c_3_1:DOMEntityImpl.cpp.obj
 0001:00064034       ?createObject@XMLAbstractDoubleFloat@xercesc_3_1@@SAPEAVXSerializable@2@PEAVMemoryManager@2@@Z 0000000180065034 f   xerces-c_3_1:XMLAbstractDoubleFloat.cpp.obj
 0001:00064034       ?getContentType@BinMemInputStream@xercesc_3_1@@UEBAPEB_WXZ 0000000180065034 f   xerces-c_3_1:BinMemInputStream.cpp.obj
 0001:00064034       ?getLocalName@DOMCommentImpl@xercesc_3_1@@UEBAPEB_WXZ 0000000180065034 f   xerces-c_3_1:DOMCommentImpl.cpp.obj
 0001:00064034       ?getEnumString@AnySimpleTypeDatatypeValidator@xercesc_3_1@@UEBAPEBV?$RefArrayVectorOf@_W@2@XZ 0000000180065034 f   xerces-c_3_1:AnySimpleTypeDatatypeValidator.cpp.obj
 0001:00064034       ?getPrefix@DOMEntityReferenceImpl@xercesc_3_1@@UEBAPEB_WXZ 0000000180065034 f   xerces-c_3_1:DOMEntityReferenceImpl.cpp.obj
 0001:00064034       ?getContentLeafNameTypeVector@SimpleContentModel@xercesc_3_1@@UEBAPEAVContentLeafNameTypeVector@2@XZ 0000000180065034 f   xerces-c_3_1:SimpleContentModel.cpp.obj
 0001:00064034       ?getNamespaceURI@DOMTextImpl@xercesc_3_1@@UEBAPEB_WXZ 0000000180065034 f   xerces-c_3_1:DOMTextImpl.cpp.obj
 0001:00064034       ?getNoParen@Token@xercesc_3_1@@UEBAHXZ 0000000180065034 f   xerces-c_3_1:RangeToken.cpp.obj
 0001:00064034       ?getGrammarType@DTDGrammar@xercesc_3_1@@UEBA?AW4GrammarType@Grammar@2@XZ 0000000180065034 f   xerces-c_3_1:DTDGrammar.cpp.obj
 0001:00064034       ?getNamespaceURI@DOMElementImpl@xercesc_3_1@@UEBAPEB_WXZ 0000000180065034 f   xerces-c_3_1:DOMElementImpl.cpp.obj
 0001:00064034       ?getFirstChild@DOMTextImpl@xercesc_3_1@@UEBAPEAVDOMNode@2@XZ 0000000180065034 f   xerces-c_3_1:DOMTextImpl.cpp.obj
 0001:00064034       ?createObject@DateTimeValidator@xercesc_3_1@@SAPEAVXSerializable@2@PEAVMemoryManager@2@@Z 0000000180065034 f   xerces-c_3_1:DateTimeValidator.cpp.obj
 0001:00064034       ?getLocalName@DOMDocumentTypeImpl@xercesc_3_1@@UEBAPEB_WXZ 0000000180065034 f   xerces-c_3_1:DOMDocumentTypeImpl.cpp.obj
 0001:00064034       ?getPreviousSibling@DOMDocumentImpl@xercesc_3_1@@UEBAPEAVDOMNode@2@XZ 0000000180065034 f   xerces-c_3_1:DOMDocumentImpl.cpp.obj
 0001:00064034       ?getAttributes@DOMTextImpl@xercesc_3_1@@UEBAPEAVDOMNamedNodeMap@2@XZ 0000000180065034 f   xerces-c_3_1:DOMTextImpl.cpp.obj
 0001:00064034       ?getReferenceNo@Token@xercesc_3_1@@UEBAHXZ 0000000180065034 f   xerces-c_3_1:RangeToken.cpp.obj
 0001:00064034       ?getNamespaceURI@DOMDocumentTypeImpl@xercesc_3_1@@UEBAPEB_WXZ 0000000180065034 f   xerces-c_3_1:DOMDocumentTypeImpl.cpp.obj
 0001:00064034       ?getString@Token@xercesc_3_1@@UEBAPEB_WXZ 0000000180065034 f   xerces-c_3_1:RangeToken.cpp.obj
 0001:00064034       ?getFeature@DOMElementImpl@xercesc_3_1@@UEBAPEAXPEB_W0@Z 0000000180065034 f   xerces-c_3_1:DOMElementImpl.cpp.obj
 0001:00064034       ?getLocalName@DOMElementImpl@xercesc_3_1@@UEBAPEB_WXZ 0000000180065034 f   xerces-c_3_1:DOMElementImpl.cpp.obj
 0001:00064034       ?getFirstChild@DOMProcessingInstructionImpl@xercesc_3_1@@UEBAPEAVDOMNode@2@XZ 0000000180065034 f   xerces-c_3_1:DOMProcessingInstructionImpl.cpp.obj
 0001:00064034       ?getNamespaceURI@DOMEntityReferenceImpl@xercesc_3_1@@UEBAPEB_WXZ 0000000180065034 f   xerces-c_3_1:DOMEntityReferenceImpl.cpp.obj
 0001:00064034       ?getFeature@DOMProcessingInstructionImpl@xercesc_3_1@@UEBAPEAXPEB_W0@Z 0000000180065034 f   xerces-c_3_1:DOMProcessingInstructionImpl.cpp.obj
 0001:00064034       ?getPreviousSibling@DOMEntityImpl@xercesc_3_1@@UEBAPEAVDOMNode@2@XZ 0000000180065034 f   xerces-c_3_1:DOMEntityImpl.cpp.obj
 0001:00064034       ?getFeature@DOMEntityReferenceImpl@xercesc_3_1@@UEBAPEAXPEB_W0@Z 0000000180065034 f   xerces-c_3_1:DOMEntityReferenceImpl.cpp.obj
 0001:00064034       ?getLastChild@DOMProcessingInstructionImpl@xercesc_3_1@@UEBAPEAVDOMNode@2@XZ 0000000180065034 f   xerces-c_3_1:DOMProcessingInstructionImpl.cpp.obj
 0001:00064034       ?getAttributes@DOMCDATASectionImpl@xercesc_3_1@@UEBAPEAVDOMNamedNodeMap@2@XZ 0000000180065034 f   xerces-c_3_1:DOMCDATASectionImpl.cpp.obj
 0001:00064034       ?getEntityDeclPool@WFXMLScanner@xercesc_3_1@@UEBAPEBV?$NameIdPool@VDTDEntityDecl@xercesc_3_1@@@2@XZ 0000000180065034 f   xerces-c_3_1:WFXMLScanner.cpp.obj
 0001:00064034       ?getParentNode@DOMDocumentFragmentImpl@xercesc_3_1@@UEBAPEAVDOMNode@2@XZ 0000000180065034 f   xerces-c_3_1:DOMDocumentFragmentImpl.cpp.obj
 0001:00064034       ?getSign@XMLDateTime@xercesc_3_1@@UEBAHXZ 0000000180065034 f   xerces-c_3_1:XMLDateTime.cpp.obj
 0001:00064034       ?getLastChild@DOMTextImpl@xercesc_3_1@@UEBAPEAVDOMNode@2@XZ 0000000180065034 f   xerces-c_3_1:DOMTextImpl.cpp.obj
 0001:00064034       ?getNodeValue@DOMEntityImpl@xercesc_3_1@@UEBAPEB_WXZ 0000000180065034 f   xerces-c_3_1:DOMEntityImpl.cpp.obj
 0001:00064034       ?getAttributes@DOMEntityImpl@xercesc_3_1@@UEBAPEAVDOMNamedNodeMap@2@XZ 0000000180065034 f   xerces-c_3_1:DOMEntityImpl.cpp.obj
 0001:00064034       ?getNodeValue@DOMDocumentImpl@xercesc_3_1@@UEBAPEB_WXZ 0000000180065034 f   xerces-c_3_1:DOMDocumentImpl.cpp.obj
 0001:00064034       ?getParentNode@DOMDocumentImpl@xercesc_3_1@@UEBAPEAVDOMNode@2@XZ 0000000180065034 f   xerces-c_3_1:DOMDocumentImpl.cpp.obj
 0001:00064034       _matherr                   0000000180065034 f   LIBCMT:_matherr_.obj
 0001:00064034       ?getNextSibling@DOMEntityImpl@xercesc_3_1@@UEBAPEAVDOMNode@2@XZ 0000000180065034 f   xerces-c_3_1:DOMEntityImpl.cpp.obj
 0001:00064034       ?getEntityDeclPool@SGXMLScanner@xercesc_3_1@@UEBAPEBV?$NameIdPool@VDTDEntityDecl@xercesc_3_1@@@2@XZ 0000000180065034 f   xerces-c_3_1:SGXMLScanner.cpp.obj
 0001:00064034       ?getPrefix@DOMNotationImpl@xercesc_3_1@@UEBAPEB_WXZ 0000000180065034 f   xerces-c_3_1:DOMNotationImpl.cpp.obj
 0001:00064034       ?createObject@XMLAttDef@xercesc_3_1@@SAPEAVXSerializable@2@PEAVMemoryManager@2@@Z 0000000180065034 f   xerces-c_3_1:XMLAttDef.cpp.obj
 0001:00064034       ?getNextSibling@DOMDocumentImpl@xercesc_3_1@@UEBAPEAVDOMNode@2@XZ 0000000180065034 f   xerces-c_3_1:DOMDocumentImpl.cpp.obj
 0001:00064034       ?createObject@AbstractNumericValidator@xercesc_3_1@@SAPEAVXSerializable@2@PEAVMemoryManager@2@@Z 0000000180065034 f   xerces-c_3_1:AbstractNumericValidator.cpp.obj
 0001:00064034       ?getFeature@DOMCDATASectionImpl@xercesc_3_1@@UEBAPEAXPEB_W0@Z 0000000180065034 f   xerces-c_3_1:DOMCDATASectionImpl.cpp.obj
 0001:00064034       ?getLocalName@DOMDocumentFragmentImpl@xercesc_3_1@@UEBAPEB_WXZ 0000000180065034 f   xerces-c_3_1:DOMDocumentFragmentImpl.cpp.obj
 0001:00064034       ?getLastChild@DOMCommentImpl@xercesc_3_1@@UEBAPEAVDOMNode@2@XZ 0000000180065034 f   xerces-c_3_1:DOMCommentImpl.cpp.obj
 0001:00064034       ?getNamespaceURI@DOMCommentImpl@xercesc_3_1@@UEBAPEB_WXZ 0000000180065034 f   xerces-c_3_1:DOMCommentImpl.cpp.obj
 0001:00064034       ?getAttributes@DOMAttrImpl@xercesc_3_1@@UEBAPEAVDOMNamedNodeMap@2@XZ 0000000180065034 f   xerces-c_3_1:DOMAttrImpl.cpp.obj
 0001:00064034       ?getNamespaceURI@DOMAttrImpl@xercesc_3_1@@UEBAPEB_WXZ 0000000180065034 f   xerces-c_3_1:DOMAttrImpl.cpp.obj
 0001:00064034       ?getChild@Token@xercesc_3_1@@UEBAPEAV12@_K@Z 0000000180065034 f   xerces-c_3_1:RangeToken.cpp.obj
 0001:00064034       ?getType@IC_Unique@xercesc_3_1@@UEBAFXZ 0000000180065034 f   xerces-c_3_1:IC_Unique.cpp.obj
 0001:00064034       ?getAttributes@DOMProcessingInstructionImpl@xercesc_3_1@@UEBAPEAVDOMNamedNodeMap@2@XZ 0000000180065034 f   xerces-c_3_1:DOMProcessingInstructionImpl.cpp.obj
 0001:00064038       ?getBaseURI@DOMTextImpl@xercesc_3_1@@UEBAPEB_WXZ 0000000180065038 f   xerces-c_3_1:DOMTextImpl.cpp.obj
 0001:00064038       ?getBaseURI@DOMCommentImpl@xercesc_3_1@@UEBAPEB_WXZ 0000000180065038 f   xerces-c_3_1:DOMCommentImpl.cpp.obj
 0001:00064038       ?getBaseURI@DOMAttrImpl@xercesc_3_1@@UEBAPEB_WXZ 0000000180065038 f   xerces-c_3_1:DOMAttrImpl.cpp.obj
 0001:00064038       ?getBaseURI@DOMDocumentFragmentImpl@xercesc_3_1@@UEBAPEB_WXZ 0000000180065038 f   xerces-c_3_1:DOMDocumentFragmentImpl.cpp.obj
 0001:00064038       ?getBaseURI@DOMCDATASectionImpl@xercesc_3_1@@UEBAPEB_WXZ 0000000180065038 f   xerces-c_3_1:DOMCDATASectionImpl.cpp.obj
 0001:00064038       ?getBaseURI@DOMDocumentTypeImpl@xercesc_3_1@@UEBAPEB_WXZ 0000000180065038 f   xerces-c_3_1:DOMDocumentTypeImpl.cpp.obj
 0001:00064044       ??_EXSElementDeclaration@xercesc_3_1@@UEAAPEAXI@Z 0000000180065044 f i  CIL library: CIL module
 0001:00064044       ??_GXSElementDeclaration@xercesc_3_1@@UEAAPEAXI@Z 0000000180065044 f i xerces-c_3_1:XSElementDeclaration.cpp.obj
 0001:000640a8       ??_G?$XSNamedMap@VXSIDCDefinition@xercesc_3_1@@@xercesc_3_1@@QEAAPEAXI@Z 00000001800650a8 f i xerces-c_3_1:XSElementDeclaration.cpp.obj
 0001:000640a8       ??_G?$XSNamedMap@VXSObject@xercesc_3_1@@@xercesc_3_1@@QEAAPEAXI@Z 00000001800650a8 f i xerces-c_3_1:XSModel.cpp.obj
 0001:00064194       ?getName@XSElementDeclaration@xercesc_3_1@@UEBAPEB_WXZ 0000000180065194 f   xerces-c_3_1:XSElementDeclaration.cpp.obj
 0001:000641a4       ?getNamespace@XSElementDeclaration@xercesc_3_1@@UEAAPEB_WXZ 00000001800651a4 f   xerces-c_3_1:XSElementDeclaration.cpp.obj
 0001:000641c4       ??_EDOMImplementationLS@xercesc_3_1@@UEAAPEAXI@Z 00000001800651c4 f i  CIL library: CIL module
 0001:000641c4       ??_GDOMImplementationLS@xercesc_3_1@@UEAAPEAXI@Z 00000001800651c4 f i xerces-c_3_1:DOMImplementationImpl.cpp.obj
 0001:000641f0       ??_GDOMImplementationSource@xercesc_3_1@@UEAAPEAXI@Z 00000001800651f0 f i xerces-c_3_1:DOMImplementationImpl.cpp.obj
 0001:000641f0       ??_EDOMImplementationSource@xercesc_3_1@@UEAAPEAXI@Z 00000001800651f0 f i  CIL library: CIL module
 0001:0006421c       ??_GDOMImplementationImpl@xercesc_3_1@@UEAAPEAXI@Z 000000018006521c f i xerces-c_3_1:DOMImplementationImpl.cpp.obj
 0001:0006421c       ??_EDOMImplementationImpl@xercesc_3_1@@UEAAPEAXI@Z 000000018006521c f i  CIL library: CIL module
 0001:00064258       ?hasFeature@DOMImplementationImpl@xercesc_3_1@@UEBA_NPEB_W0@Z 0000000180065258 f   xerces-c_3_1:DOMImplementationImpl.cpp.obj
 0001:00064450       ?createDocumentType@DOMImplementationImpl@xercesc_3_1@@UEAAPEAVDOMDocumentType@2@PEB_W00@Z 0000000180065450 f   xerces-c_3_1:DOMImplementationImpl.cpp.obj
 0001:00064504       ?createDocument@DOMImplementationImpl@xercesc_3_1@@UEAAPEAVDOMDocument@2@PEB_W0PEAVDOMDocumentType@2@QEAVMemoryManager@2@@Z 0000000180065504 f   xerces-c_3_1:DOMImplementationImpl.cpp.obj
 0001:00064598       ?createDocument@DOMImplementationImpl@xercesc_3_1@@UEAAPEAVDOMDocument@2@QEAVMemoryManager@2@@Z 0000000180065598 f   xerces-c_3_1:DOMImplementationImpl.cpp.obj
 0001:00064608       ?createLSParser@DOMImplementationImpl@xercesc_3_1@@UEAAPEAVDOMLSParser@2@W4DOMImplementationLSMode@DOMImplementationLS@2@QEB_WQEAVMemoryManager@2@QEAVXMLGrammarPool@2@@Z 0000000180065608 f   xerces-c_3_1:DOMImplementationImpl.cpp.obj
 0001:0006469c       ?createLSSerializer@DOMImplementationImpl@xercesc_3_1@@UEAAPEAVDOMLSSerializer@2@QEAVMemoryManager@2@@Z 000000018006569c f   xerces-c_3_1:DOMImplementationImpl.cpp.obj
 0001:000646e4       ?createLSInput@DOMImplementationImpl@xercesc_3_1@@UEAAPEAVDOMLSInput@2@QEAVMemoryManager@2@@Z 00000001800656e4 f   xerces-c_3_1:DOMImplementationImpl.cpp.obj
 0001:0006473c       ?createLSOutput@DOMImplementationImpl@xercesc_3_1@@UEAAPEAVDOMLSOutput@2@QEAVMemoryManager@2@@Z 000000018006573c f   xerces-c_3_1:DOMImplementationImpl.cpp.obj
 0001:00064784       ?getDOMImplementation@DOMImplementationImpl@xercesc_3_1@@UEBAPEAVDOMImplementation@2@PEB_W@Z 0000000180065784 f   xerces-c_3_1:DOMImplementationImpl.cpp.obj
 0001:0006486c       ?getDOMImplementationList@DOMImplementationImpl@xercesc_3_1@@UEBAPEAVDOMImplementationList@2@PEB_W@Z 000000018006586c f   xerces-c_3_1:DOMImplementationImpl.cpp.obj
 0001:000648ec       ??_EDOMImplementationImpl@xercesc_3_1@@W7EAAPEAXI@Z 00000001800658ec f i xerces-c_3_1:DOMImplementationImpl.cpp.obj
 0001:000648f8       ??0XMLAttr@xercesc_3_1@@QEAA@QEAVMemoryManager@1@@Z 00000001800658f8 f   xerces-c_3_1:XMLAttr.cpp.obj
 0001:00064988       ??0XMLAttr@xercesc_3_1@@QEAA@IQEB_W00W4AttTypes@XMLAttDef@1@_NQEAVMemoryManager@1@PEAVDatatypeValidator@1@2@Z 0000000180065988 f   xerces-c_3_1:XMLAttr.cpp.obj
 0001:00064a64       ??0XMLAttr@xercesc_3_1@@QEAA@IQEB_W0W4AttTypes@XMLAttDef@1@_NQEAVMemoryManager@1@PEAVDatatypeValidator@1@2@Z 0000000180065a64 f   xerces-c_3_1:XMLAttr.cpp.obj
 0001:00064b34       ?setValue@XMLAttr@xercesc_3_1@@QEAAXQEB_W@Z 0000000180065b34 f   xerces-c_3_1:XMLAttr.cpp.obj
 0001:00064bd0       ?cleanUp@XMLAttr@xercesc_3_1@@AEAAXXZ 0000000180065bd0 f   xerces-c_3_1:XMLAttr.cpp.obj
 0001:00064c00       ??0DOMNodeImpl@xercesc_3_1@@QEAA@AEBV01@@Z 0000000180065c00 f   xerces-c_3_1:DOMNodeImpl.cpp.obj
 0001:00064c40       ?getOwnerDocument@DOMNodeImpl@xercesc_3_1@@QEBAPEAVDOMDocument@2@XZ 0000000180065c40 f   xerces-c_3_1:DOMNodeImpl.cpp.obj
 0001:00064c94       ?removeChild@DOMNodeImpl@xercesc_3_1@@QEAAPEAVDOMNode@2@PEAV32@@Z 0000000180065c94 f   xerces-c_3_1:DOMNodeImpl.cpp.obj
 0001:00064d04       ?replaceChild@DOMNodeImpl@xercesc_3_1@@QEAAPEAVDOMNode@2@PEAV32@0@Z 0000000180065d04 f   xerces-c_3_1:DOMNodeImpl.cpp.obj
 0001:00064d04       ?appendChild@DOMNodeImpl@xercesc_3_1@@QEAAPEAVDOMNode@2@PEAV32@@Z 0000000180065d04 f   xerces-c_3_1:DOMNodeImpl.cpp.obj
 0001:00064d04       ?insertBefore@DOMNodeImpl@xercesc_3_1@@QEAAPEAVDOMNode@2@PEAV32@0@Z 0000000180065d04 f   xerces-c_3_1:DOMNodeImpl.cpp.obj
 0001:00064d74       ?setReadOnly@DOMNodeImpl@xercesc_3_1@@QEAAX_N0@Z 0000000180065d74 f   xerces-c_3_1:DOMNodeImpl.cpp.obj
 0001:00064e10       ?setPrefix@DOMNodeImpl@xercesc_3_1@@QEAAXPEB_W@Z 0000000180065e10 f   xerces-c_3_1:DOMNodeImpl.cpp.obj
 0001:00064e80       ?mapPrefix@DOMNodeImpl@xercesc_3_1@@SAPEB_WPEB_W0F@Z 0000000180065e80 f   xerces-c_3_1:DOMNodeImpl.cpp.obj
 0001:00065034       ?setUserData@DOMNodeImpl@xercesc_3_1@@QEAAPEAXPEB_WPEAXPEAVDOMUserDataHandler@2@@Z 0000000180066034 f   xerces-c_3_1:DOMNodeImpl.cpp.obj
 0001:000650bc       ?getUserData@DOMNodeImpl@xercesc_3_1@@QEBAPEAXPEB_W@Z 00000001800660bc f   xerces-c_3_1:DOMNodeImpl.cpp.obj
 0001:00065174       ?callUserDataHandlers@DOMNodeImpl@xercesc_3_1@@QEBAXW4DOMOperationType@DOMUserDataHandler@2@PEBVDOMNode@2@PEAV52@@Z 0000000180066174 f   xerces-c_3_1:DOMNodeImpl.cpp.obj
 0001:000651d4       ?isEqualNode@DOMNodeImpl@xercesc_3_1@@QEBA_NPEBVDOMNode@2@@Z 00000001800661d4 f   xerces-c_3_1:DOMNodeImpl.cpp.obj
 0001:0006547c       ?lookupPrefix@DOMNodeImpl@xercesc_3_1@@QEBAPEB_WPEB_W@Z 000000018006647c f   xerces-c_3_1:DOMNodeImpl.cpp.obj
 0001:00065530       ?getElementAncestor@DOMNodeImpl@xercesc_3_1@@QEBAPEAVDOMNode@2@PEBV32@@Z 0000000180066530 f   xerces-c_3_1:DOMNodeImpl.cpp.obj
 0001:0006556c       ?lookupPrefix@DOMNodeImpl@xercesc_3_1@@QEBAPEB_WQEB_WPEAVDOMElement@2@@Z 000000018006656c f   xerces-c_3_1:DOMNodeImpl.cpp.obj
 0001:000658a0       ?lookupNamespaceURI@DOMNodeImpl@xercesc_3_1@@QEBAPEB_WPEB_W@Z 00000001800668a0 f   xerces-c_3_1:DOMNodeImpl.cpp.obj
 0001:00065bc0       ?getBaseURI@DOMNodeImpl@xercesc_3_1@@QEBAPEB_WXZ 0000000180066bc0 f   xerces-c_3_1:DOMNodeImpl.cpp.obj
 0001:00065bec       ?getTreeParentNode@DOMNodeImpl@xercesc_3_1@@QEBAPEBVDOMNode@2@PEBV32@@Z 0000000180066bec f   xerces-c_3_1:DOMNodeImpl.cpp.obj
 0001:00065c50       ?compareDocumentPosition@DOMNodeImpl@xercesc_3_1@@QEBAFPEBVDOMNode@2@@Z 0000000180066c50 f   xerces-c_3_1:DOMNodeImpl.cpp.obj
 0001:00065e88       ?getTextContent@DOMNodeImpl@xercesc_3_1@@QEBAPEB_WXZ 0000000180066e88 f   xerces-c_3_1:DOMNodeImpl.cpp.obj
 0001:00065f00       ?getTextContent@DOMNodeImpl@xercesc_3_1@@QEBAPEB_WPEA_WAEA_K@Z 0000000180066f00 f   xerces-c_3_1:DOMNodeImpl.cpp.obj
 0001:00066044       ?setTextContent@DOMNodeImpl@xercesc_3_1@@QEAAXPEB_W@Z 0000000180067044 f   xerces-c_3_1:DOMNodeImpl.cpp.obj
 0001:0006628c       ?isDefaultNamespace@DOMNodeImpl@xercesc_3_1@@QEBA_NPEB_W@Z 000000018006728c f   xerces-c_3_1:DOMNodeImpl.cpp.obj
 0001:00066438       ??0EndOfEntityException@xercesc_3_1@@QEAA@AEBV01@@Z 0000000180067438 f i xerces-c_3_1:ReaderMgr.cpp.obj
 0001:0006644c       ??_ELocator@xercesc_3_1@@UEAAPEAXI@Z 000000018006744c f i  CIL library: CIL module
 0001:0006644c       ??_GLocator@xercesc_3_1@@UEAAPEAXI@Z 000000018006744c f i xerces-c_3_1:ReaderMgr.cpp.obj
 0001:00066478       ??_GReaderMgr@xercesc_3_1@@UEAAPEAXI@Z 0000000180067478 f i xerces-c_3_1:ReaderMgr.cpp.obj
 0001:00066478       ??_EReaderMgr@xercesc_3_1@@UEAAPEAXI@Z 0000000180067478 f i  CIL library: CIL module
 0001:000664b4       ??1ReaderMgr@xercesc_3_1@@UEAA@XZ 00000001800674b4 f   xerces-c_3_1:ReaderMgr.cpp.obj
 0001:0006653c       ??_GXMLReader@xercesc_3_1@@QEAAPEAXI@Z 000000018006753c f i xerces-c_3_1:ReaderMgr.cpp.obj
 0001:000665c4       ?getNextChar@ReaderMgr@xercesc_3_1@@QEAA_WXZ 00000001800675c4 f   xerces-c_3_1:ReaderMgr.cpp.obj
 0001:00066684       ?getSpaces@ReaderMgr@xercesc_3_1@@QEAAXAEAVXMLBuffer@2@@Z 0000000180067684 f   xerces-c_3_1:ReaderMgr.cpp.obj
 0001:00066750       ?peekNextChar@ReaderMgr@xercesc_3_1@@QEAA_WXZ 0000000180067750 f   xerces-c_3_1:ReaderMgr.cpp.obj
 0001:000667f8       ?skippedChar@ReaderMgr@xercesc_3_1@@QEAA_N_W@Z 00000001800677f8 f   xerces-c_3_1:ReaderMgr.cpp.obj
 0001:0006686c       ?skippedSpace@ReaderMgr@xercesc_3_1@@QEAA_NXZ 000000018006786c f   xerces-c_3_1:ReaderMgr.cpp.obj
 0001:000668fc       ?skipIfQuote@ReaderMgr@xercesc_3_1@@QEAA_NAEA_W@Z 00000001800678fc f   xerces-c_3_1:ReaderMgr.cpp.obj
 0001:00066980       ?skipPastSpaces@ReaderMgr@xercesc_3_1@@QEAAXAEA_N_N@Z 0000000180067980 f   xerces-c_3_1:ReaderMgr.cpp.obj
 0001:000669d0       ?skipPastSpaces@ReaderMgr@xercesc_3_1@@QEAAXXZ 00000001800679d0 f   xerces-c_3_1:ReaderMgr.cpp.obj
 0001:00066a08       ?skipQuotedString@ReaderMgr@xercesc_3_1@@QEAAX_W@Z 0000000180067a08 f   xerces-c_3_1:ReaderMgr.cpp.obj
 0001:00066a38       ?skipUntilInOrWS@ReaderMgr@xercesc_3_1@@QEAA_WQEB_W@Z 0000000180067a38 f   xerces-c_3_1:ReaderMgr.cpp.obj
 0001:00066a98       ?cleanStackBackTo@ReaderMgr@xercesc_3_1@@QEAAX_K@Z 0000000180067a98 f   xerces-c_3_1:ReaderMgr.cpp.obj
 0001:00066b5c       ?createReader@ReaderMgr@xercesc_3_1@@QEAAPEAVXMLReader@2@AEBVInputSource@2@_NW4RefFrom@32@W4Types@32@W4Sources@32@1_K@Z 0000000180067b5c f   xerces-c_3_1:ReaderMgr.cpp.obj
 0001:00066d04       ?createReader@ReaderMgr@xercesc_3_1@@QEAAPEAVXMLReader@2@QEB_W0_NW4RefFrom@32@W4Types@32@W4Sources@32@AEAPEAVInputSource@2@1_K1@Z 0000000180067d04 f   xerces-c_3_1:ReaderMgr.cpp.obj
 0001:000671b8       ?createReader@ReaderMgr@xercesc_3_1@@QEAAPEAVXMLReader@2@QEB_W00_NW4RefFrom@32@W4Types@32@W4Sources@32@AEAPEAVInputSource@2@1_K1@Z 00000001800681b8 f   xerces-c_3_1:ReaderMgr.cpp.obj
 0001:00067678       ?createIntEntReader@ReaderMgr@xercesc_3_1@@QEAAPEAVXMLReader@2@QEB_WW4RefFrom@32@W4Types@32@0_K_N4_K@Z 0000000180068678 f   xerces-c_3_1:ReaderMgr.cpp.obj
 0001:00067790       ?getLastExtEntityInfo@ReaderMgr@xercesc_3_1@@QEBAXAEAULastExtEntityInfo@12@@Z 0000000180068790 f   xerces-c_3_1:ReaderMgr.cpp.obj
 0001:0006780c       ?pushReader@ReaderMgr@xercesc_3_1@@QEAA_NQEAVXMLReader@2@QEAVXMLEntityDecl@2@@Z 000000018006880c f   xerces-c_3_1:ReaderMgr.cpp.obj
 0001:00067b4c       ?reset@ReaderMgr@xercesc_3_1@@QEAAXXZ 0000000180068b4c f   xerces-c_3_1:ReaderMgr.cpp.obj
 0001:00067b98       ?getPublicId@ReaderMgr@xercesc_3_1@@UEBAPEB_WXZ 0000000180068b98 f   xerces-c_3_1:ReaderMgr.cpp.obj
 0001:00067bd8       ?getSystemId@ReaderMgr@xercesc_3_1@@UEBAPEB_WXZ 0000000180068bd8 f   xerces-c_3_1:ReaderMgr.cpp.obj
 0001:00067c18       ?getColumnNumber@ReaderMgr@xercesc_3_1@@UEBA_KXZ 0000000180068c18 f   xerces-c_3_1:ReaderMgr.cpp.obj
 0001:00067c54       ?getLineNumber@ReaderMgr@xercesc_3_1@@UEBA_KXZ 0000000180068c54 f   xerces-c_3_1:ReaderMgr.cpp.obj
 0001:00067c90       ?getLastExtEntity@ReaderMgr@xercesc_3_1@@AEBAPEBVXMLReader@2@AEAPEBVXMLEntityDecl@2@@Z 0000000180068c90 f   xerces-c_3_1:ReaderMgr.cpp.obj
 0001:00067d24       ?popReader@ReaderMgr@xercesc_3_1@@AEAA_NXZ 0000000180068d24 f   xerces-c_3_1:ReaderMgr.cpp.obj
 0001:00067e2c       ??1?$BaseRefVectorOf@VXMLReader@xercesc_3_1@@@xercesc_3_1@@UEAA@XZ 0000000180068e2c f i xerces-c_3_1:ReaderMgr.cpp.obj
 0001:00067e38       ?setElementAt@?$BaseRefVectorOf@VXMLReader@xercesc_3_1@@@xercesc_3_1@@UEAAXQEAVXMLReader@2@_K@Z 0000000180068e38 f i xerces-c_3_1:ReaderMgr.cpp.obj
 0001:00067edc       ?removeAllElements@?$BaseRefVectorOf@VXMLReader@xercesc_3_1@@@xercesc_3_1@@UEAAXXZ 0000000180068edc f i xerces-c_3_1:ReaderMgr.cpp.obj
 0001:00067f2c       ?removeElementAt@?$BaseRefVectorOf@VXMLReader@xercesc_3_1@@@xercesc_3_1@@UEAAX_K@Z 0000000180068f2c f i xerces-c_3_1:ReaderMgr.cpp.obj
 0001:00068000       ?removeLastElement@?$BaseRefVectorOf@VXMLReader@xercesc_3_1@@@xercesc_3_1@@UEAAXXZ 0000000180069000 f i xerces-c_3_1:ReaderMgr.cpp.obj
 0001:00068034       ?cleanup@?$BaseRefVectorOf@VXMLReader@xercesc_3_1@@@xercesc_3_1@@UEAAXXZ 0000000180069034 f i xerces-c_3_1:ReaderMgr.cpp.obj
 0001:00068084       ??1?$RefVectorOf@VXMLReader@xercesc_3_1@@@xercesc_3_1@@UEAA@XZ 0000000180069084 f i xerces-c_3_1:ReaderMgr.cpp.obj
 0001:000680f8       ?elementAt@?$RefStackOf@VXMLReader@xercesc_3_1@@@xercesc_3_1@@QEBAPEBVXMLReader@2@_K@Z 00000001800690f8 f i xerces-c_3_1:ReaderMgr.cpp.obj
 0001:000680f8       ?elementAt@?$RefStackOf@VXMLEntityDecl@xercesc_3_1@@@xercesc_3_1@@QEBAPEBVXMLEntityDecl@2@_K@Z 00000001800690f8 f i xerces-c_3_1:ReaderMgr.cpp.obj
 0001:00068164       ??1?$BaseRefVectorOf@VXMLEntityDecl@xercesc_3_1@@@xercesc_3_1@@UEAA@XZ 0000000180069164 f i xerces-c_3_1:ReaderMgr.cpp.obj
 0001:00068170       ??1?$RefVectorOf@VXMLEntityDecl@xercesc_3_1@@@xercesc_3_1@@UEAA@XZ 0000000180069170 f i xerces-c_3_1:ReaderMgr.cpp.obj
 0001:000681e8       ?pop@?$RefStackOf@VXMLEntityDecl@xercesc_3_1@@@xercesc_3_1@@QEAAPEAVXMLEntityDecl@2@XZ 00000001800691e8 f i xerces-c_3_1:ReaderMgr.cpp.obj
 0001:000681e8       ?pop@?$RefStackOf@VXMLReader@xercesc_3_1@@@xercesc_3_1@@QEAAPEAVXMLReader@2@XZ 00000001800691e8 f i xerces-c_3_1:ReaderMgr.cpp.obj
 0001:00068254       ??_G?$BaseRefVectorOf@VXMLReader@xercesc_3_1@@@xercesc_3_1@@UEAAPEAXI@Z 0000000180069254 f i xerces-c_3_1:ReaderMgr.cpp.obj
 0001:00068254       ??_E?$BaseRefVectorOf@VXMLReader@xercesc_3_1@@@xercesc_3_1@@UEAAPEAXI@Z 0000000180069254 f i  CIL library: CIL module
 0001:00068284       ??_E?$RefVectorOf@VXMLReader@xercesc_3_1@@@xercesc_3_1@@UEAAPEAXI@Z 0000000180069284 f i  CIL library: CIL module
 0001:00068284       ??_G?$RefVectorOf@VXMLReader@xercesc_3_1@@@xercesc_3_1@@UEAAPEAXI@Z 0000000180069284 f i xerces-c_3_1:ReaderMgr.cpp.obj
 0001:000682c0       ??_E?$BaseRefVectorOf@VXMLEntityDecl@xercesc_3_1@@@xercesc_3_1@@UEAAPEAXI@Z 00000001800692c0 f i  CIL library: CIL module
 0001:000682c0       ??_G?$BaseRefVectorOf@VXMLEntityDecl@xercesc_3_1@@@xercesc_3_1@@UEAAPEAXI@Z 00000001800692c0 f i xerces-c_3_1:ReaderMgr.cpp.obj
 0001:000682f0       ??_E?$RefVectorOf@VXMLEntityDecl@xercesc_3_1@@@xercesc_3_1@@UEAAPEAXI@Z 00000001800692f0 f i  CIL library: CIL module
 0001:000682f0       ??_G?$RefVectorOf@VXMLEntityDecl@xercesc_3_1@@@xercesc_3_1@@UEAAPEAXI@Z 00000001800692f0 f i xerces-c_3_1:ReaderMgr.cpp.obj
 0001:0006832c       ??_EDOMNode@xercesc_3_1@@UEAAPEAXI@Z 000000018006932c f i  CIL library: CIL module
 0001:0006832c       ??_EDOMCommentImpl@xercesc_3_1@@UEAAPEAXI@Z 000000018006932c f i  CIL library: CIL module
 0001:0006832c       ??_EDOMCDATASectionImpl@xercesc_3_1@@UEAAPEAXI@Z 000000018006932c f i  CIL library: CIL module
 0001:0006832c       ??_GDOMCommentImpl@xercesc_3_1@@UEAAPEAXI@Z 000000018006932c f i xerces-c_3_1:DOMCommentImpl.cpp.obj
 0001:0006832c       ??_EDOMTextImpl@xercesc_3_1@@UEAAPEAXI@Z 000000018006932c f i  CIL library: CIL module
 0001:0006832c       ??_EDOMProcessingInstructionImpl@xercesc_3_1@@UEAAPEAXI@Z 000000018006932c f i  CIL library: CIL module
 0001:0006832c       ??_EDOMNotationImpl@xercesc_3_1@@UEAAPEAXI@Z 000000018006932c f i  CIL library: CIL module
 0001:0006832c       ??_GDOMTextImpl@xercesc_3_1@@UEAAPEAXI@Z 000000018006932c f i xerces-c_3_1:DOMTextImpl.cpp.obj
 0001:0006832c       ??_GDOMCDATASectionImpl@xercesc_3_1@@UEAAPEAXI@Z 000000018006932c f i xerces-c_3_1:DOMCDATASectionImpl.cpp.obj
 0001:0006832c       ??_GDOMNotationImpl@xercesc_3_1@@UEAAPEAXI@Z 000000018006932c f i xerces-c_3_1:DOMNotationImpl.cpp.obj
 0001:0006832c       ??_GDOMNode@xercesc_3_1@@UEAAPEAXI@Z 000000018006932c f i xerces-c_3_1:DOMDocumentImpl.cpp.obj
 0001:0006832c       ??_GDOMProcessingInstructionImpl@xercesc_3_1@@UEAAPEAXI@Z 000000018006932c f i xerces-c_3_1:DOMProcessingInstructionImpl.cpp.obj
 0001:00068358       ?cloneNode@DOMCDATASectionImpl@xercesc_3_1@@UEBAPEAVDOMNode@2@_N@Z 0000000180069358 f   xerces-c_3_1:DOMCDATASectionImpl.cpp.obj
 0001:00068408       ?getNodeName@DOMCDATASectionImpl@xercesc_3_1@@UEBAPEB_WXZ 0000000180069408 f   xerces-c_3_1:DOMCDATASectionImpl.cpp.obj
 0001:00068410       ?splitText@DOMCDATASectionImpl@xercesc_3_1@@UEAAPEAVDOMText@2@_K@Z 0000000180069410 f   xerces-c_3_1:DOMCDATASectionImpl.cpp.obj
 0001:000685dc       ?getIsElementContentWhitespace@DOMCDATASectionImpl@xercesc_3_1@@UEBA_NXZ 00000001800695dc f   xerces-c_3_1:DOMCDATASectionImpl.cpp.obj
 0001:000685dc       ?getIsElementContentWhitespace@DOMTextImpl@xercesc_3_1@@UEBA_NXZ 00000001800695dc f   xerces-c_3_1:DOMTextImpl.cpp.obj
 0001:000685e8       ?replaceWholeText@DOMCDATASectionImpl@xercesc_3_1@@UEAAPEAVDOMText@2@PEB_W@Z 00000001800695e8 f   xerces-c_3_1:DOMCDATASectionImpl.cpp.obj
 0001:000685e8       ?replaceWholeText@DOMTextImpl@xercesc_3_1@@UEAAPEAVDOMText@2@PEB_W@Z 00000001800695e8 f   xerces-c_3_1:DOMTextImpl.cpp.obj
 0001:00068928       ?release@DOMCDATASectionImpl@xercesc_3_1@@UEAAXXZ 0000000180069928 f   xerces-c_3_1:DOMCDATASectionImpl.cpp.obj
 0001:00068a70       ?resetErrors@AnnotationErrorReporter@xercesc_3_1@@UEAAXXZ 0000000180069a70 f   xerces-c_3_1:TraverseSchema.cpp.obj
 0001:00068a70       ?resetEntities@DOMLSParserImpl@xercesc_3_1@@UEAAXXZ 0000000180069a70 f   xerces-c_3_1:DOMLSParserImpl.cpp.obj
 0001:00068a70       ?flush@XMLFormatTarget@xercesc_3_1@@UEAAXXZ 0000000180069a70 f   xerces-c_3_1:MemBufFormatTarget.cpp.obj
 0001:00068a70       ?resetErrors@XercesDOMParser@xercesc_3_1@@UEAAXXZ 0000000180069a70 f   xerces-c_3_1:XercesDOMParser.cpp.obj
 0001:00068a70       ?normalizeContent@AbstractStringValidator@xercesc_3_1@@MEBAXQEA_WQEAVMemoryManager@2@@Z 0000000180069a70 f   xerces-c_3_1:AbstractStringValidator.cpp.obj
 0001:00068a70       ?endEntityReference@XSDDOMParser@xercesc_3_1@@UEAAXAEBVXMLEntityDecl@2@@Z 0000000180069a70 f   xerces-c_3_1:XSDDOMParser.cpp.obj
 0001:00068a70       ?inheritAdditionalFacet@AbstractStringValidator@xercesc_3_1@@MEAAXXZ 0000000180069a70 f   xerces-c_3_1:AbstractStringValidator.cpp.obj
 0001:00068a70       ?resetEntities@XercesDOMParser@xercesc_3_1@@UEAAXXZ 0000000180069a70 f   xerces-c_3_1:XercesDOMParser.cpp.obj
 0001:00068a70       ?orphanChild@CMLeaf@xercesc_3_1@@UEAAXXZ 0000000180069a70 f   xerces-c_3_1:DFAContentModel.cpp.obj
 0001:00068a70       ?resetCachedGrammar@XMLScanner@xercesc_3_1@@UEAAXXZ 0000000180069a70 f   xerces-c_3_1:XMLScanner.cpp.obj
 0001:00068a70       ?setScanner@ValidationContext@xercesc_3_1@@UEAAXPEAVXMLScanner@2@@Z 0000000180069a70 f   xerces-c_3_1:ValidationContextImpl.cpp.obj
 0001:00068a70       ?normalize@DOMCDATASectionImpl@xercesc_3_1@@UEAAXXZ 0000000180069a70 f   xerces-c_3_1:DOMCDATASectionImpl.cpp.obj
 0001:00068a70       ?normalize@DOMProcessingInstructionImpl@xercesc_3_1@@UEAAXXZ 0000000180069a70 f   xerces-c_3_1:DOMProcessingInstructionImpl.cpp.obj
 0001:00068a70       ?startInputSource@XercesDOMParser@xercesc_3_1@@UEAAXAEBVInputSource@2@@Z 0000000180069a70 f   xerces-c_3_1:XercesDOMParser.cpp.obj
 0001:00068a70       ?endInputSource@DOMLSParserImpl@xercesc_3_1@@UEAAXAEBVInputSource@2@@Z 0000000180069a70 f   xerces-c_3_1:DOMLSParserImpl.cpp.obj
 0001:00068a70       ?checkAdditionalFacet@AbstractStringValidator@xercesc_3_1@@MEBAXQEB_WQEAVMemoryManager@2@@Z 0000000180069a70 f   xerces-c_3_1:AbstractStringValidator.cpp.obj
 0001:00068a70       ?startExtSubset@AbstractDOMParser@xercesc_3_1@@UEAAXXZ 0000000180069a70 f   xerces-c_3_1:AbstractDOMParser.cpp.obj
 0001:00068a70       ?reset@DTDValidator@xercesc_3_1@@UEAAXXZ 0000000180069a70 f   xerces-c_3_1:DTDValidator.cpp.obj
 0001:00068a70       ?resetErrors@DOMLSParserImpl@xercesc_3_1@@UEAAXXZ 0000000180069a70 f   xerces-c_3_1:DOMLSParserImpl.cpp.obj
 0001:00068a70       ?normalize@DOMNotationImpl@xercesc_3_1@@UEAAXXZ 0000000180069a70 f   xerces-c_3_1:DOMNotationImpl.cpp.obj
 0001:00068a70       ?checkValueSpace@ListDatatypeValidator@xercesc_3_1@@MEAAXQEB_WQEAVMemoryManager@2@@Z 0000000180069a70 f   xerces-c_3_1:ListDatatypeValidator.cpp.obj
 0001:00068a70       ?setNodeValue@DOMEntityImpl@xercesc_3_1@@UEAAXPEB_W@Z 0000000180069a70 f   xerces-c_3_1:DOMEntityImpl.cpp.obj
 0001:00068a70       ?setNodeValue@DOMEntityReferenceImpl@xercesc_3_1@@UEAAXPEB_W@Z 0000000180069a70 f   xerces-c_3_1:DOMEntityReferenceImpl.cpp.obj
 0001:00068a70       ?setNodeValue@DOMDocumentFragmentImpl@xercesc_3_1@@UEAAXPEB_W@Z 0000000180069a70 f   xerces-c_3_1:DOMDocumentFragmentImpl.cpp.obj
 0001:00068a70       ?checkAdditionalFacetConstraintsBase@AbstractNumericFacetValidator@xercesc_3_1@@MEBAXQEAVMemoryManager@2@@Z 0000000180069a70 f   xerces-c_3_1:AbstractNumericFacetValidator.cpp.obj
 0001:00068a70       ?setNodeValue@DOMDocumentTypeImpl@xercesc_3_1@@UEAAXPEB_W@Z 0000000180069a70 f   xerces-c_3_1:DOMDocumentTypeImpl.cpp.obj
 0001:00068a70       ??3@YAXPEAXPEAVDOMDocumentImpl@xercesc_3_1@@W4NodeObjectType@DOMMemoryManager@1@@Z 0000000180069a70 f   xerces-c_3_1:AbstractDOMParser.cpp.obj
 0001:00068a70       ??3@YAXPEAXPEAVDOMDocumentImpl@xercesc_3_1@@@Z 0000000180069a70 f   xerces-c_3_1:AbstractDOMParser.cpp.obj
 0001:00068a70       ?setElemStack@ValidationContext@xercesc_3_1@@UEAAXPEAVElemStack@2@@Z 0000000180069a70 f   xerces-c_3_1:ValidationContextImpl.cpp.obj
 0001:00068a70       ??3@YAXPEAXPEAVDOMDocument@xercesc_3_1@@@Z 0000000180069a70 f   xerces-c_3_1:AbstractDOMParser.cpp.obj
 0001:00068a70       ?reset@SchemaAttDef@xercesc_3_1@@UEAAXXZ 0000000180069a70 f   xerces-c_3_1:SchemaAttDef.cpp.obj
 0001:00068a70       ?handlePartialElementPSVI@PSVIHandler@xercesc_3_1@@UEAAXQEB_W0PEAVPSVIElement@2@@Z 0000000180069a70 f   xerces-c_3_1:AbstractDOMParser.cpp.obj
 0001:00068a70       ?reset@DTDAttDef@xercesc_3_1@@UEAAXXZ 0000000180069a70 f   xerces-c_3_1:DTDAttDef.cpp.obj
 0001:00068a70       ??3@YAXPEAXPEAVDOMDocument@xercesc_3_1@@W4NodeObjectType@DOMMemoryManager@1@@Z 0000000180069a70 f   xerces-c_3_1:DOMTextImpl.cpp.obj
 0001:00068a70       ?setNodeValue@DOMDocumentImpl@xercesc_3_1@@UEAAXPEB_W@Z 0000000180069a70 f   xerces-c_3_1:DOMDocumentImpl.cpp.obj
 0001:00068a70       ?setNodeValue@DOMNotationImpl@xercesc_3_1@@UEAAXPEB_W@Z 0000000180069a70 f   xerces-c_3_1:DOMNotationImpl.cpp.obj
 0001:00068a70       ?checkValueSpace@StringDatatypeValidator@xercesc_3_1@@MEAAXQEB_WQEAVMemoryManager@2@@Z 0000000180069a70 f   xerces-c_3_1:StringDatatypeValidator.cpp.obj
 0001:00068a70       ?release@DOMTreeWalkerImpl@xercesc_3_1@@UEAAXXZ 0000000180069a70 f   xerces-c_3_1:DOMTreeWalkerImpl.cpp.obj
 0001:00068a70       ?postParseValidation@DTDValidator@xercesc_3_1@@UEAAXXZ 0000000180069a70 f   xerces-c_3_1:DTDValidator.cpp.obj
 0001:00068a70       ?endExtSubset@AbstractDOMParser@xercesc_3_1@@UEAAXXZ 0000000180069a70 f   xerces-c_3_1:AbstractDOMParser.cpp.obj
 0001:00068a70       ?setNamespaceScope@ValidationContext@xercesc_3_1@@UEAAXPEAVNamespaceScope@2@@Z 0000000180069a70 f   xerces-c_3_1:ValidationContextImpl.cpp.obj
 0001:00068a70       ?validateElement@DTDValidator@xercesc_3_1@@UEAAXPEBVXMLElementDecl@2@@Z 0000000180069a70 f   xerces-c_3_1:DTDValidator.cpp.obj
 0001:00068a70       ?setContentSpec@SchemaElementDecl@xercesc_3_1@@UEAAXPEAVContentSpecNode@2@@Z 0000000180069a70 f   xerces-c_3_1:SchemaElementDecl.cpp.obj
 0001:00068a70       ?postParseValidation@SchemaValidator@xercesc_3_1@@UEAAXXZ 0000000180069a70 f   xerces-c_3_1:SchemaValidator.cpp.obj
 0001:00068a70       ?startEntityReference@XSDDOMParser@xercesc_3_1@@UEAAXAEBVXMLEntityDecl@2@@Z 0000000180069a70 f   xerces-c_3_1:XSDDOMParser.cpp.obj
 0001:00068a70       ?checkAdditionalFacetConstraints@AbstractNumericFacetValidator@xercesc_3_1@@MEBAXQEAVMemoryManager@2@@Z 0000000180069a70 f   xerces-c_3_1:AbstractNumericFacetValidator.cpp.obj
 0001:00068a70       ?checkAdditionalFacetConstraints@AbstractStringValidator@xercesc_3_1@@MEBAXQEAVMemoryManager@2@@Z 0000000180069a70 f   xerces-c_3_1:AbstractStringValidator.cpp.obj
 0001:00068a70       ?normalize@DOMTextImpl@xercesc_3_1@@UEAAXXZ 0000000180069a70 f   xerces-c_3_1:DOMTextImpl.cpp.obj
 0001:00068a70       ??1OutOfMemoryException@xercesc_3_1@@QEAA@XZ 0000000180069a70 f   xerces-c_3_1:MemoryManagerImpl.cpp.obj
 0001:00068a70       ?setMin@Token@xercesc_3_1@@UEAAXH@Z 0000000180069a70 f   xerces-c_3_1:RangeToken.cpp.obj
 0001:00068a70       ?validate@AnySimpleTypeDatatypeValidator@xercesc_3_1@@UEAAXQEB_WQEAVValidationContext@2@QEAVMemoryManager@2@@Z 0000000180069a70 f   xerces-c_3_1:AnySimpleTypeDatatypeValidator.cpp.obj
 0001:00068a70       ?setNodeValue@DOMElementImpl@xercesc_3_1@@UEAAXPEB_W@Z 0000000180069a70 f   xerces-c_3_1:DOMElementImpl.cpp.obj
 0001:00068a70       ?matched@XPathMatcher@xercesc_3_1@@MEAAXQEB_WQEAVDatatypeValidator@2@_N@Z 0000000180069a70 f   xerces-c_3_1:XPathMatcher.cpp.obj
 0001:00068a70       ??1EndOfEntityException@xercesc_3_1@@QEAA@XZ 0000000180069a70 f   xerces-c_3_1:ReaderMgr.cpp.obj
 0001:00068a70       ?startInputSource@DOMLSParserImpl@xercesc_3_1@@UEAAXAEBVInputSource@2@@Z 0000000180069a70 f   xerces-c_3_1:DOMLSParserImpl.cpp.obj
 0001:00068a70       ?inheritAdditionalFacet@AbstractNumericFacetValidator@xercesc_3_1@@MEAAXXZ 0000000180069a70 f   xerces-c_3_1:AbstractNumericFacetValidator.cpp.obj
 0001:00068a70       ?endInputSource@XercesDOMParser@xercesc_3_1@@UEAAXAEBVInputSource@2@@Z 0000000180069a70 f   xerces-c_3_1:XercesDOMParser.cpp.obj
 0001:00068a70       ?setMax@Token@xercesc_3_1@@UEAAXH@Z 0000000180069a70 f   xerces-c_3_1:RangeToken.cpp.obj
 0001:00068a70       ?orphanChild@CMAny@xercesc_3_1@@UEAAXXZ 0000000180069a70 f   xerces-c_3_1:CMAny.cpp.obj
 0001:00068a70       ?setContentModel@SchemaElementDecl@xercesc_3_1@@UEAAXQEAVXMLContentModel@2@@Z 0000000180069a70 f   xerces-c_3_1:SchemaElementDecl.cpp.obj
 0001:00068a70       ?normalize@DOMCommentImpl@xercesc_3_1@@UEAAXXZ 0000000180069a70 f   xerces-c_3_1:DOMCommentImpl.cpp.obj
 0001:00068a74       ?isDefaultNamespace@DOMCDATASectionImpl@xercesc_3_1@@UEBA_NPEB_W@Z 0000000180069a74 f   xerces-c_3_1:DOMCDATASectionImpl.cpp.obj
 0001:00068a74       ?isDefaultNamespace@DOMProcessingInstructionImpl@xercesc_3_1@@UEBA_NPEB_W@Z 0000000180069a74 f   xerces-c_3_1:DOMProcessingInstructionImpl.cpp.obj
 0001:00068a74       ?isDefaultNamespace@DOMElementImpl@xercesc_3_1@@UEBA_NPEB_W@Z 0000000180069a74 f   xerces-c_3_1:DOMElementImpl.cpp.obj
 0001:00068a74       ?isDefaultNamespace@DOMEntityReferenceImpl@xercesc_3_1@@UEBA_NPEB_W@Z 0000000180069a74 f   xerces-c_3_1:DOMEntityReferenceImpl.cpp.obj
 0001:00068a74       ?isDefaultNamespace@DOMDocumentTypeImpl@xercesc_3_1@@UEBA_NPEB_W@Z 0000000180069a74 f   xerces-c_3_1:DOMDocumentTypeImpl.cpp.obj
 0001:00068a74       ?isDefaultNamespace@DOMDocumentFragmentImpl@xercesc_3_1@@UEBA_NPEB_W@Z 0000000180069a74 f   xerces-c_3_1:DOMDocumentFragmentImpl.cpp.obj
 0001:00068a74       ?isDefaultNamespace@DOMAttrImpl@xercesc_3_1@@UEBA_NPEB_W@Z 0000000180069a74 f   xerces-c_3_1:DOMAttrImpl.cpp.obj
 0001:00068a74       ?isDefaultNamespace@DOMCommentImpl@xercesc_3_1@@UEBA_NPEB_W@Z 0000000180069a74 f   xerces-c_3_1:DOMCommentImpl.cpp.obj
 0001:00068a74       ?isDefaultNamespace@DOMEntityImpl@xercesc_3_1@@UEBA_NPEB_W@Z 0000000180069a74 f   xerces-c_3_1:DOMEntityImpl.cpp.obj
 0001:00068a74       ?isDefaultNamespace@DOMTextImpl@xercesc_3_1@@UEBA_NPEB_W@Z 0000000180069a74 f   xerces-c_3_1:DOMTextImpl.cpp.obj
 0001:00068a74       ?isDefaultNamespace@DOMDocumentImpl@xercesc_3_1@@UEBA_NPEB_W@Z 0000000180069a74 f   xerces-c_3_1:DOMDocumentImpl.cpp.obj
 0001:00068a74       ?isDefaultNamespace@DOMNotationImpl@xercesc_3_1@@UEBA_NPEB_W@Z 0000000180069a74 f   xerces-c_3_1:DOMNotationImpl.cpp.obj
 0001:00068a80       ?lookupNamespaceURI@DOMDocumentImpl@xercesc_3_1@@UEBAPEB_WPEB_W@Z 0000000180069a80 f   xerces-c_3_1:DOMDocumentImpl.cpp.obj
 0001:00068a80       ?lookupNamespaceURI@DOMDocumentFragmentImpl@xercesc_3_1@@UEBAPEB_WPEB_W@Z 0000000180069a80 f   xerces-c_3_1:DOMDocumentFragmentImpl.cpp.obj
 0001:00068a80       ?lookupNamespaceURI@DOMNotationImpl@xercesc_3_1@@UEBAPEB_WPEB_W@Z 0000000180069a80 f   xerces-c_3_1:DOMNotationImpl.cpp.obj
 0001:00068a80       ?lookupNamespaceURI@DOMAttrImpl@xercesc_3_1@@UEBAPEB_WPEB_W@Z 0000000180069a80 f   xerces-c_3_1:DOMAttrImpl.cpp.obj
 0001:00068a80       ?lookupNamespaceURI@DOMElementImpl@xercesc_3_1@@UEBAPEB_WPEB_W@Z 0000000180069a80 f   xerces-c_3_1:DOMElementImpl.cpp.obj
 0001:00068a80       ?lookupNamespaceURI@DOMEntityImpl@xercesc_3_1@@UEBAPEB_WPEB_W@Z 0000000180069a80 f   xerces-c_3_1:DOMEntityImpl.cpp.obj
 0001:00068a80       ?lookupNamespaceURI@DOMCommentImpl@xercesc_3_1@@UEBAPEB_WPEB_W@Z 0000000180069a80 f   xerces-c_3_1:DOMCommentImpl.cpp.obj
 0001:00068a80       ?lookupNamespaceURI@DOMEntityReferenceImpl@xercesc_3_1@@UEBAPEB_WPEB_W@Z 0000000180069a80 f   xerces-c_3_1:DOMEntityReferenceImpl.cpp.obj
 0001:00068a80       ?lookupNamespaceURI@DOMDocumentTypeImpl@xercesc_3_1@@UEBAPEB_WPEB_W@Z 0000000180069a80 f   xerces-c_3_1:DOMDocumentTypeImpl.cpp.obj
 0001:00068a80       ?lookupNamespaceURI@DOMCDATASectionImpl@xercesc_3_1@@UEBAPEB_WPEB_W@Z 0000000180069a80 f   xerces-c_3_1:DOMCDATASectionImpl.cpp.obj
 0001:00068a80       ?lookupNamespaceURI@DOMProcessingInstructionImpl@xercesc_3_1@@UEBAPEB_WPEB_W@Z 0000000180069a80 f   xerces-c_3_1:DOMProcessingInstructionImpl.cpp.obj
 0001:00068a80       ?lookupNamespaceURI@DOMTextImpl@xercesc_3_1@@UEBAPEB_WPEB_W@Z 0000000180069a80 f   xerces-c_3_1:DOMTextImpl.cpp.obj
 0001:00068a8c       ?getDefaultScanner@XMLScannerResolver@xercesc_3_1@@SAPEAVXMLScanner@2@QEAVXMLValidator@2@QEAVGrammarResolver@2@QEAVMemoryManager@2@@Z 0000000180069a8c f   xerces-c_3_1:XMLScannerResolver.cpp.obj
 0001:00068af4       ?resolveScanner@XMLScannerResolver@xercesc_3_1@@SAPEAVXMLScanner@2@QEB_WQEAVXMLValidator@2@QEAVGrammarResolver@2@QEAVMemoryManager@2@@Z 0000000180069af4 f   xerces-c_3_1:XMLScannerResolver.cpp.obj
 0001:00068d04       ??0DOMElementImpl@xercesc_3_1@@QEAA@PEAVDOMDocument@1@PEB_W@Z 0000000180069d04 f   xerces-c_3_1:DOMElementImpl.cpp.obj
 0001:00068e3c       ??_GDOMDocumentTypeImpl@xercesc_3_1@@UEAAPEAXI@Z 0000000180069e3c f i xerces-c_3_1:DOMDocumentTypeImpl.cpp.obj
 0001:00068e3c       ??_GDOMAttrNSImpl@xercesc_3_1@@UEAAPEAXI@Z 0000000180069e3c f i xerces-c_3_1:DOMAttrNSImpl.cpp.obj
 0001:00068e3c       ??_EXSDElementNSImpl@xercesc_3_1@@UEAAPEAXI@Z 0000000180069e3c f i  CIL library: CIL module
 0001:00068e3c       ??_EDOMEntityReferenceImpl@xercesc_3_1@@UEAAPEAXI@Z 0000000180069e3c f i  CIL library: CIL module
 0001:00068e3c       ??_GDOMEntityReferenceImpl@xercesc_3_1@@UEAAPEAXI@Z 0000000180069e3c f i xerces-c_3_1:DOMEntityReferenceImpl.cpp.obj
 0001:00068e3c       ??_EDOMElementNSImpl@xercesc_3_1@@UEAAPEAXI@Z 0000000180069e3c f i  CIL library: CIL module
 0001:00068e3c       ??_EDOMAttrNSImpl@xercesc_3_1@@UEAAPEAXI@Z 0000000180069e3c f i  CIL library: CIL module
 0001:00068e3c       ??_GDOMAttrImpl@xercesc_3_1@@UEAAPEAXI@Z 0000000180069e3c f i xerces-c_3_1:DOMAttrImpl.cpp.obj
 0001:00068e3c       ??_GDOMEntityImpl@xercesc_3_1@@UEAAPEAXI@Z 0000000180069e3c f i xerces-c_3_1:DOMEntityImpl.cpp.obj
 0001:00068e3c       ??_EDOMDocumentFragmentImpl@xercesc_3_1@@UEAAPEAXI@Z 0000000180069e3c f i  CIL library: CIL module
 0001:00068e3c       ??_GDOMDocumentFragmentImpl@xercesc_3_1@@UEAAPEAXI@Z 0000000180069e3c f i xerces-c_3_1:DOMDocumentFragmentImpl.cpp.obj
 0001:00068e3c       ??_GDOMElementNSImpl@xercesc_3_1@@UEAAPEAXI@Z 0000000180069e3c f i xerces-c_3_1:DOMElementNSImpl.cpp.obj
 0001:00068e3c       ??_GDOMElementImpl@xercesc_3_1@@UEAAPEAXI@Z 0000000180069e3c f i xerces-c_3_1:DOMElementImpl.cpp.obj
 0001:00068e3c       ??_EDOMAttrImpl@xercesc_3_1@@UEAAPEAXI@Z 0000000180069e3c f i  CIL library: CIL module
 0001:00068e3c       ??_EDOMEntityImpl@xercesc_3_1@@UEAAPEAXI@Z 0000000180069e3c f i  CIL library: CIL module
 0001:00068e3c       ??_GXSDElementNSImpl@xercesc_3_1@@UEAAPEAXI@Z 0000000180069e3c f i xerces-c_3_1:XSDElementNSImpl.cpp.obj
 0001:00068e3c       ??_EDOMDocumentTypeImpl@xercesc_3_1@@UEAAPEAXI@Z 0000000180069e3c f i  CIL library: CIL module
 0001:00068e3c       ??_EDOMElementImpl@xercesc_3_1@@UEAAPEAXI@Z 0000000180069e3c f i  CIL library: CIL module
 0001:00068e74       ??0DOMElementImpl@xercesc_3_1@@QEAA@AEBV01@_N@Z 0000000180069e74 f   xerces-c_3_1:DOMElementImpl.cpp.obj
 0001:0006906c       ?cloneNode@DOMElementImpl@xercesc_3_1@@UEBAPEAVDOMNode@2@_N@Z 000000018006a06c f   xerces-c_3_1:DOMElementImpl.cpp.obj
 0001:00069108       ?getType@IC_Key@xercesc_3_1@@UEBAFXZ 000000018006a108 f   xerces-c_3_1:IC_Key.cpp.obj
 0001:00069108       ?size@ParenToken@xercesc_3_1@@UEBA_KXZ 000000018006a108 f   xerces-c_3_1:ParenToken.cpp.obj
 0001:00069108       ?getGrammarType@SchemaGrammar@xercesc_3_1@@UEBA?AW4GrammarType@Grammar@2@XZ 000000018006a108 f   xerces-c_3_1:SchemaGrammar.cpp.obj
 0001:00069108       ?getGrammarType@XMLSchemaDescription@xercesc_3_1@@UEBA?AW4GrammarType@Grammar@2@XZ 000000018006a108 f   xerces-c_3_1:XMLSchemaDescriptionImpl.cpp.obj
 0001:00069108       ?getObjectType@DTDElementDecl@xercesc_3_1@@UEBA?AW4objectType@XMLElementDecl@2@XZ 000000018006a108 f   xerces-c_3_1:DTDElementDecl.cpp.obj
 0001:00069108       ?size@ClosureToken@xercesc_3_1@@UEBA_KXZ 000000018006a108 f   xerces-c_3_1:ClosureToken.cpp.obj
 0001:00069108       ?getNodeType@DOMElementImpl@xercesc_3_1@@UEBA?AW4NodeType@DOMNode@2@XZ 000000018006a108 f   xerces-c_3_1:DOMElementImpl.cpp.obj
 0001:00069110       ?getAttribute@DOMElementImpl@xercesc_3_1@@UEBAPEB_WPEB_W@Z 000000018006a110 f   xerces-c_3_1:DOMElementImpl.cpp.obj
 0001:00069140       ?getAttributeNode@DOMElementImpl@xercesc_3_1@@UEBAPEAVDOMAttr@2@PEB_W@Z 000000018006a140 f   xerces-c_3_1:DOMElementImpl.cpp.obj
 0001:0006914c       ?getElementsByTagName@DOMElementImpl@xercesc_3_1@@UEBAPEAVDOMNodeList@2@PEB_W@Z 000000018006a14c f   xerces-c_3_1:DOMElementImpl.cpp.obj
 0001:00069168       ?removeAttribute@DOMElementImpl@xercesc_3_1@@UEAAXPEB_W@Z 000000018006a168 f   xerces-c_3_1:DOMElementImpl.cpp.obj
 0001:00069220       ?removeAttributeNode@DOMElementImpl@xercesc_3_1@@UEAAPEAVDOMAttr@2@PEAV32@@Z 000000018006a220 f   xerces-c_3_1:DOMElementImpl.cpp.obj
 0001:00069418       ?setAttribute@DOMElementImpl@xercesc_3_1@@UEAAXPEB_W0@Z 000000018006a418 f   xerces-c_3_1:DOMElementImpl.cpp.obj
 0001:000694f8       ?setIdAttribute@DOMElementImpl@xercesc_3_1@@UEAAXPEB_W_N@Z 000000018006a4f8 f   xerces-c_3_1:DOMElementImpl.cpp.obj
 0001:0006960c       ?setIdAttributeNS@DOMElementImpl@xercesc_3_1@@UEAAXPEB_W0_N@Z 000000018006a60c f   xerces-c_3_1:DOMElementImpl.cpp.obj
 0001:00069720       ?setIdAttributeNode@DOMElementImpl@xercesc_3_1@@UEAAXPEBVDOMAttr@2@_N@Z 000000018006a720 f   xerces-c_3_1:DOMElementImpl.cpp.obj
 0001:000698a0       ?setAttributeNode@DOMElementImpl@xercesc_3_1@@UEAAPEAVDOMAttr@2@PEAV32@@Z 000000018006a8a0 f   xerces-c_3_1:DOMElementImpl.cpp.obj
 0001:000699a0       ?setReadOnly@DOMElementImpl@xercesc_3_1@@UEAAX_N0@Z 000000018006a9a0 f   xerces-c_3_1:DOMElementImpl.cpp.obj
 0001:000699d8       ?getAttributeNS@DOMElementImpl@xercesc_3_1@@UEBAPEB_WPEB_W0@Z 000000018006a9d8 f   xerces-c_3_1:DOMElementImpl.cpp.obj
 0001:00069a08       ?setAttributeNS@DOMElementImpl@xercesc_3_1@@UEAAXPEB_W00@Z 000000018006aa08 f   xerces-c_3_1:DOMElementImpl.cpp.obj
 0001:00069bb4       ?removeAttributeNS@DOMElementImpl@xercesc_3_1@@UEAAXPEB_W0@Z 000000018006abb4 f   xerces-c_3_1:DOMElementImpl.cpp.obj
 0001:00069c5c       ?getAttributeNodeNS@DOMElementImpl@xercesc_3_1@@UEBAPEAVDOMAttr@2@PEB_W0@Z 000000018006ac5c f   xerces-c_3_1:DOMElementImpl.cpp.obj
 0001:00069c68       ?setAttributeNodeNS@DOMElementImpl@xercesc_3_1@@UEAAPEAVDOMAttr@2@PEAV32@@Z 000000018006ac68 f   xerces-c_3_1:DOMElementImpl.cpp.obj
 0001:00069d68       ?getElementsByTagNameNS@DOMElementImpl@xercesc_3_1@@UEBAPEAVDOMNodeList@2@PEB_W0@Z 000000018006ad68 f   xerces-c_3_1:DOMElementImpl.cpp.obj
 0001:00069d88       ?hasAttributes@DOMElementImpl@xercesc_3_1@@UEBA_NXZ 000000018006ad88 f   xerces-c_3_1:DOMElementImpl.cpp.obj
 0001:00069db4       ?hasAttribute@DOMElementImpl@xercesc_3_1@@UEBA_NPEB_W@Z 000000018006adb4 f   xerces-c_3_1:DOMElementImpl.cpp.obj
 0001:00069dcc       ?hasAttributeNS@DOMElementImpl@xercesc_3_1@@UEBA_NPEB_W0@Z 000000018006adcc f   xerces-c_3_1:DOMElementImpl.cpp.obj
 0001:00069de4       ?setupDefaultAttributes@DOMElementImpl@xercesc_3_1@@MEAAXXZ 000000018006ade4 f   xerces-c_3_1:DOMElementImpl.cpp.obj
 0001:00069ed8       ?setDefaultAttributeNode@DOMElementImpl@xercesc_3_1@@UEAAPEAVDOMAttr@2@PEAV32@@Z 000000018006aed8 f   xerces-c_3_1:DOMElementImpl.cpp.obj
 0001:00069fec       ?setDefaultAttributeNodeNS@DOMElementImpl@xercesc_3_1@@UEAAPEAVDOMAttr@2@PEAV32@@Z 000000018006afec f   xerces-c_3_1:DOMElementImpl.cpp.obj
 0001:0006a100       ?release@DOMElementImpl@xercesc_3_1@@UEAAXXZ 000000018006b100 f   xerces-c_3_1:DOMElementImpl.cpp.obj
 0001:0006a27c       ?getBaseURI@DOMElementImpl@xercesc_3_1@@UEBAPEB_WXZ 000000018006b27c f   xerces-c_3_1:DOMElementImpl.cpp.obj
 0001:0006a424       ?removeChild@DOMAttrImpl@xercesc_3_1@@UEAAPEAVDOMNode@2@PEAV32@@Z 000000018006b424 f   xerces-c_3_1:DOMAttrImpl.cpp.obj
 0001:0006a424       ?removeChild@DOMDocumentTypeImpl@xercesc_3_1@@UEAAPEAVDOMNode@2@PEAV32@@Z 000000018006b424 f   xerces-c_3_1:DOMDocumentTypeImpl.cpp.obj
 0001:0006a424       ?removeChild@DOMElementImpl@xercesc_3_1@@UEAAPEAVDOMNode@2@PEAV32@@Z 000000018006b424 f   xerces-c_3_1:DOMElementImpl.cpp.obj
 0001:0006a424       ?removeChild@DOMEntityReferenceImpl@xercesc_3_1@@UEAAPEAVDOMNode@2@PEAV32@@Z 000000018006b424 f   xerces-c_3_1:DOMEntityReferenceImpl.cpp.obj
 0001:0006a424       ?removeChild@DOMDocumentFragmentImpl@xercesc_3_1@@UEAAPEAVDOMNode@2@PEAV32@@Z 000000018006b424 f   xerces-c_3_1:DOMDocumentFragmentImpl.cpp.obj
 0001:0006a430       ?getUserData@DOMProcessingInstructionImpl@xercesc_3_1@@UEBAPEAXPEB_W@Z 000000018006b430 f   xerces-c_3_1:DOMProcessingInstructionImpl.cpp.obj
 0001:0006a430       ?getUserData@DOMAttrImpl@xercesc_3_1@@UEBAPEAXPEB_W@Z 000000018006b430 f   xerces-c_3_1:DOMAttrImpl.cpp.obj
 0001:0006a430       ?getUserData@DOMCDATASectionImpl@xercesc_3_1@@UEBAPEAXPEB_W@Z 000000018006b430 f   xerces-c_3_1:DOMCDATASectionImpl.cpp.obj
 0001:0006a430       ?getUserData@DOMDocumentTypeImpl@xercesc_3_1@@UEBAPEAXPEB_W@Z 000000018006b430 f   xerces-c_3_1:DOMDocumentTypeImpl.cpp.obj
 0001:0006a430       ?getUserData@DOMDocumentFragmentImpl@xercesc_3_1@@UEBAPEAXPEB_W@Z 000000018006b430 f   xerces-c_3_1:DOMDocumentFragmentImpl.cpp.obj
 0001:0006a430       ?getUserData@DOMEntityReferenceImpl@xercesc_3_1@@UEBAPEAXPEB_W@Z 000000018006b430 f   xerces-c_3_1:DOMEntityReferenceImpl.cpp.obj
 0001:0006a430       ?getUserData@DOMEntityImpl@xercesc_3_1@@UEBAPEAXPEB_W@Z 000000018006b430 f   xerces-c_3_1:DOMEntityImpl.cpp.obj
 0001:0006a430       ?getUserData@DOMNotationImpl@xercesc_3_1@@UEBAPEAXPEB_W@Z 000000018006b430 f   xerces-c_3_1:DOMNotationImpl.cpp.obj
 0001:0006a430       ?getUserData@DOMCommentImpl@xercesc_3_1@@UEBAPEAXPEB_W@Z 000000018006b430 f   xerces-c_3_1:DOMCommentImpl.cpp.obj
 0001:0006a430       ?getUserData@DOMTextImpl@xercesc_3_1@@UEBAPEAXPEB_W@Z 000000018006b430 f   xerces-c_3_1:DOMTextImpl.cpp.obj
 0001:0006a430       ?getUserData@DOMElementImpl@xercesc_3_1@@UEBAPEAXPEB_W@Z 000000018006b430 f   xerces-c_3_1:DOMElementImpl.cpp.obj
 0001:0006a430       ?getUserData@DOMDocumentImpl@xercesc_3_1@@UEBAPEAXPEB_W@Z 000000018006b430 f   xerces-c_3_1:DOMDocumentImpl.cpp.obj
 0001:0006a43c       ?isEqualNode@DOMElementImpl@xercesc_3_1@@UEBA_NPEBVDOMNode@2@@Z 000000018006b43c f   xerces-c_3_1:DOMElementImpl.cpp.obj
 0001:0006a5b4       ?rename@DOMElementImpl@xercesc_3_1@@UEAAPEAVDOMNode@2@PEB_W0@Z 000000018006b5b4 f   xerces-c_3_1:DOMElementImpl.cpp.obj
 0001:0006a79c       ?getSchemaTypeInfo@DOMElementImpl@xercesc_3_1@@UEBAPEBVDOMTypeInfo@2@XZ 000000018006b79c f   xerces-c_3_1:DOMElementImpl.cpp.obj
 0001:0006a7a4       ?getFirstElementChild@DOMElementImpl@xercesc_3_1@@UEBAPEAVDOMElement@2@XZ 000000018006b7a4 f   xerces-c_3_1:DOMElementImpl.cpp.obj
 0001:0006a7f0       ?getLastElementChild@DOMElementImpl@xercesc_3_1@@UEBAPEAVDOMElement@2@XZ 000000018006b7f0 f   xerces-c_3_1:DOMElementImpl.cpp.obj
 0001:0006a83c       ?getNextElementSibling@DOMElementImpl@xercesc_3_1@@UEBAPEAVDOMElement@2@XZ 000000018006b83c f   xerces-c_3_1:DOMElementImpl.cpp.obj
 0001:0006a880       ?getPreviousElementSibling@DOMElementImpl@xercesc_3_1@@UEBAPEAVDOMElement@2@XZ 000000018006b880 f   xerces-c_3_1:DOMElementImpl.cpp.obj
 0001:0006a8c4       ?getChildElementCount@DOMElementImpl@xercesc_3_1@@UEBA_KXZ 000000018006b8c4 f   xerces-c_3_1:DOMElementImpl.cpp.obj
 0001:0006a8f4       ?getFirstElementChild@DOMElementImpl@xercesc_3_1@@IEBAPEAVDOMElement@2@PEBVDOMNode@2@@Z 000000018006b8f4 f   xerces-c_3_1:DOMElementImpl.cpp.obj
 0001:0006a978       ?getLastElementChild@DOMElementImpl@xercesc_3_1@@IEBAPEAVDOMElement@2@PEBVDOMNode@2@@Z 000000018006b978 f   xerces-c_3_1:DOMElementImpl.cpp.obj
 0001:0006a9fc       ?getNextLogicalSibling@DOMElementImpl@xercesc_3_1@@IEBAPEAVDOMNode@2@PEBV32@@Z 000000018006b9fc f   xerces-c_3_1:DOMElementImpl.cpp.obj
 0001:0006aa60       ?getPreviousLogicalSibling@DOMElementImpl@xercesc_3_1@@IEBAPEAVDOMNode@2@PEBV32@@Z 000000018006ba60 f   xerces-c_3_1:DOMElementImpl.cpp.obj
 0001:0006aac4       ??0DOMDocumentTypeImpl@xercesc_3_1@@QEAA@PEAVDOMDocument@1@PEB_W_N@Z 000000018006bac4 f   xerces-c_3_1:DOMDocumentTypeImpl.cpp.obj
 0001:0006ad5c       ??0DOMDocumentTypeImpl@xercesc_3_1@@QEAA@PEAVDOMDocument@1@PEB_W11_N@Z 000000018006bd5c f   xerces-c_3_1:DOMDocumentTypeImpl.cpp.obj
 0001:0006b294       ??0DOMDocumentTypeImpl@xercesc_3_1@@QEAA@AEBV01@_N1@Z 000000018006c294 f   xerces-c_3_1:DOMDocumentTypeImpl.cpp.obj
 0001:0006b3d8       ?cloneNode@DOMDocumentTypeImpl@xercesc_3_1@@UEBAPEAVDOMNode@2@_N@Z 000000018006c3d8 f   xerces-c_3_1:DOMDocumentTypeImpl.cpp.obj
 0001:0006b4f0       ?setOwnerDocument@DOMDocumentTypeImpl@xercesc_3_1@@UEAAXPEAVDOMDocument@2@@Z 000000018006c4f0 f   xerces-c_3_1:DOMDocumentTypeImpl.cpp.obj
 0001:0006b5fc       ?getNodeType@DOMDocumentTypeImpl@xercesc_3_1@@UEBA?AW4NodeType@DOMNode@2@XZ 000000018006c5fc f   xerces-c_3_1:DOMDocumentTypeImpl.cpp.obj
 0001:0006b604       ?setReadOnly@DOMDocumentTypeImpl@xercesc_3_1@@UEAAX_N0@Z 000000018006c604 f   xerces-c_3_1:DOMDocumentTypeImpl.cpp.obj
 0001:0006b658       ?setPublicId@DOMDocumentTypeImpl@xercesc_3_1@@MEAAXPEB_W@Z 000000018006c658 f   xerces-c_3_1:DOMDocumentTypeImpl.cpp.obj
 0001:0006b6f8       ?setSystemId@DOMDocumentTypeImpl@xercesc_3_1@@MEAAXPEB_W@Z 000000018006c6f8 f   xerces-c_3_1:DOMDocumentTypeImpl.cpp.obj
 0001:0006b790       ?setInternalSubset@DOMDocumentTypeImpl@xercesc_3_1@@MEAAXPEB_W@Z 000000018006c790 f   xerces-c_3_1:DOMDocumentTypeImpl.cpp.obj
 0001:0006b82c       ?release@DOMDocumentTypeImpl@xercesc_3_1@@UEAAXXZ 000000018006c82c f   xerces-c_3_1:DOMDocumentTypeImpl.cpp.obj
 0001:0006b9b8       ?isEqualNode@DOMDocumentTypeImpl@xercesc_3_1@@UEBA_NPEBVDOMNode@2@@Z 000000018006c9b8 f   xerces-c_3_1:DOMDocumentTypeImpl.cpp.obj
 0001:0006bd98       ?isSupported@DOMDocumentTypeImpl@xercesc_3_1@@UEBA_NPEB_W0@Z 000000018006cd98 f   xerces-c_3_1:DOMDocumentTypeImpl.cpp.obj
 0001:0006be44       ?getFeature@DOMDocumentTypeImpl@xercesc_3_1@@UEBAPEAXPEB_W0@Z 000000018006ce44 f   xerces-c_3_1:DOMDocumentTypeImpl.cpp.obj
 0001:0006be8c       ??0DOMNodeIDMap@xercesc_3_1@@QEAA@_KPEAVDOMDocument@1@@Z 000000018006ce8c f   xerces-c_3_1:DOMNodeIDMap.cpp.obj
 0001:0006bf38       ?add@DOMNodeIDMap@xercesc_3_1@@QEAAXPEAVDOMAttr@2@@Z 000000018006cf38 f   xerces-c_3_1:DOMNodeIDMap.cpp.obj
 0001:0006c000       ?remove@DOMNodeIDMap@xercesc_3_1@@QEAAXPEAVDOMAttr@2@@Z 000000018006d000 f   xerces-c_3_1:DOMNodeIDMap.cpp.obj
 0001:0006c0b0       ?find@DOMNodeIDMap@xercesc_3_1@@QEAAPEAVDOMAttr@2@PEB_W@Z 000000018006d0b0 f   xerces-c_3_1:DOMNodeIDMap.cpp.obj
 0001:0006c1e8       ?growTable@DOMNodeIDMap@xercesc_3_1@@AEAAXXZ 000000018006d1e8 f   xerces-c_3_1:DOMNodeIDMap.cpp.obj
 0001:0006c360       ?ensureCapacity@XMLBuffer@xercesc_3_1@@AEAAX_K@Z 000000018006d360 f   xerces-c_3_1:XMLBuffer.cpp.obj
 0001:0006c45c       ??0XMLBufferMgr@xercesc_3_1@@QEAA@QEAVMemoryManager@1@@Z 000000018006d45c f   xerces-c_3_1:XMLBufferMgr.cpp.obj
 0001:0006c4ac       ??1XMLBufferMgr@xercesc_3_1@@QEAA@XZ 000000018006d4ac f   xerces-c_3_1:XMLBufferMgr.cpp.obj
 0001:0006c514       ?bidOnBuffer@XMLBufferMgr@xercesc_3_1@@QEAAAEAVXMLBuffer@2@XZ 000000018006d514 f   xerces-c_3_1:XMLBufferMgr.cpp.obj
 0001:0006c648       ?releaseBuffer@XMLBufferMgr@xercesc_3_1@@QEAAXAEAVXMLBuffer@2@@Z 000000018006d648 f   xerces-c_3_1:XMLBufferMgr.cpp.obj
 0001:0006c6cc       ??0PSVIAttributeList@xercesc_3_1@@QEAA@QEAVMemoryManager@1@@Z 000000018006d6cc f   xerces-c_3_1:PSVIAttributeList.cpp.obj
 0001:0006c780       ?getAttributePSVIByName@PSVIAttributeList@xercesc_3_1@@QEAAPEAVPSVIAttribute@2@PEB_W0@Z 000000018006d780 f   xerces-c_3_1:PSVIAttributeList.cpp.obj
 0001:0006c89c       ??1?$BaseRefVectorOf@VPSVIAttributeStorage@xercesc_3_1@@@xercesc_3_1@@UEAA@XZ 000000018006d89c f i xerces-c_3_1:PSVIAttributeList.cpp.obj
 0001:0006c8a8       ?setElementAt@?$BaseRefVectorOf@VPSVIAttributeStorage@xercesc_3_1@@@xercesc_3_1@@UEAAXQEAVPSVIAttributeStorage@2@_K@Z 000000018006d8a8 f i xerces-c_3_1:PSVIAttributeList.cpp.obj
 0001:0006c970       ?removeAllElements@?$BaseRefVectorOf@VPSVIAttributeStorage@xercesc_3_1@@@xercesc_3_1@@UEAAXXZ 000000018006d970 f i xerces-c_3_1:PSVIAttributeList.cpp.obj
 0001:0006c9e4       ?removeElementAt@?$BaseRefVectorOf@VPSVIAttributeStorage@xercesc_3_1@@@xercesc_3_1@@UEAAX_K@Z 000000018006d9e4 f i xerces-c_3_1:PSVIAttributeList.cpp.obj
 0001:0006cadc       ?removeLastElement@?$BaseRefVectorOf@VPSVIAttributeStorage@xercesc_3_1@@@xercesc_3_1@@UEAAXXZ 000000018006dadc f i xerces-c_3_1:PSVIAttributeList.cpp.obj
 0001:0006cb2c       ?cleanup@?$BaseRefVectorOf@VPSVIAttributeStorage@xercesc_3_1@@@xercesc_3_1@@UEAAXXZ 000000018006db2c f i xerces-c_3_1:PSVIAttributeList.cpp.obj
 0001:0006cba0       ??_E?$BaseRefVectorOf@VPSVIAttributeStorage@xercesc_3_1@@@xercesc_3_1@@UEAAPEAXI@Z 000000018006dba0 f i  CIL library: CIL module
 0001:0006cba0       ??_G?$BaseRefVectorOf@VPSVIAttributeStorage@xercesc_3_1@@@xercesc_3_1@@UEAAPEAXI@Z 000000018006dba0 f i xerces-c_3_1:PSVIAttributeList.cpp.obj
 0001:0006cbd0       ??_G?$RefVectorOf@VPSVIAttributeStorage@xercesc_3_1@@@xercesc_3_1@@UEAAPEAXI@Z 000000018006dbd0 f i xerces-c_3_1:PSVIAttributeList.cpp.obj
 0001:0006cbd0       ??_E?$RefVectorOf@VPSVIAttributeStorage@xercesc_3_1@@@xercesc_3_1@@UEAAPEAXI@Z 000000018006dbd0 f i  CIL library: CIL module
 0001:0006cc88       ?getDOMImplementation@DOMImplementationRegistry@xercesc_3_1@@SAPEAVDOMImplementation@2@PEB_W@Z 000000018006dc88 f   xerces-c_3_1:DOMImplementationRegistry.cpp.obj
 0001:0006cd34       ??1?$BaseRefVectorOf@VDOMImplementationSource@xercesc_3_1@@@xercesc_3_1@@UEAA@XZ 000000018006dd34 f i xerces-c_3_1:DOMImplementationRegistry.cpp.obj
 0001:0006cd40       ?addElement@?$BaseRefVectorOf@VDOMImplementationSource@xercesc_3_1@@@xercesc_3_1@@QEAAXQEAVDOMImplementationSource@2@@Z 000000018006dd40 f i xerces-c_3_1:DOMImplementationRegistry.cpp.obj
 0001:0006ce08       ?elementAt@?$BaseRefVectorOf@VDOMImplementationSource@xercesc_3_1@@@xercesc_3_1@@QEAAPEAVDOMImplementationSource@2@_K@Z 000000018006de08 f i xerces-c_3_1:DOMImplementationRegistry.cpp.obj
 0001:0006ce7c       ??_G?$BaseRefVectorOf@VDOMImplementationSource@xercesc_3_1@@@xercesc_3_1@@UEAAPEAXI@Z 000000018006de7c f i xerces-c_3_1:DOMImplementationRegistry.cpp.obj
 0001:0006ce7c       ??_E?$BaseRefVectorOf@VDOMImplementationSource@xercesc_3_1@@@xercesc_3_1@@UEAAPEAXI@Z 000000018006de7c f i  CIL library: CIL module
 0001:0006ceac       ??_G?$RefVectorOf@VDOMImplementationSource@xercesc_3_1@@@xercesc_3_1@@UEAAPEAXI@Z 000000018006deac f i xerces-c_3_1:DOMImplementationRegistry.cpp.obj
 0001:0006ceac       ??_E?$RefVectorOf@VDOMImplementationSource@xercesc_3_1@@@xercesc_3_1@@UEAAPEAXI@Z 000000018006deac f i  CIL library: CIL module
 0001:0006cf48       ??0XMLUri@xercesc_3_1@@QEAA@QEB_WQEAVMemoryManager@1@@Z 000000018006df48 f   xerces-c_3_1:XMLUri.cpp.obj
 0001:0006cfcc       ??_GXMLUri@xercesc_3_1@@UEAAPEAXI@Z 000000018006dfcc f i xerces-c_3_1:XMLUri.cpp.obj
 0001:0006cfcc       ??_EXMLUri@xercesc_3_1@@UEAAPEAXI@Z 000000018006dfcc f i  CIL library: CIL module
 0001:0006d008       ??0XMLUri@xercesc_3_1@@QEAA@QEBV01@QEB_WQEAVMemoryManager@1@@Z 000000018006e008 f   xerces-c_3_1:XMLUri.cpp.obj
 0001:0006d084       ??1XMLUri@xercesc_3_1@@UEAA@XZ 000000018006e084 f   xerces-c_3_1:XMLUri.cpp.obj
 0001:0006d0bc       ?cleanUp@XMLUri@xercesc_3_1@@AEAAXXZ 000000018006e0bc f   xerces-c_3_1:XMLUri.cpp.obj
 0001:0006d190       ?initialize@XMLUri@xercesc_3_1@@AEAAXAEBV12@@Z 000000018006e190 f   xerces-c_3_1:XMLUri.cpp.obj
 0001:0006d3bc       ?initialize@XMLUri@xercesc_3_1@@AEAAXQEBV12@QEB_W@Z 000000018006e3bc f   xerces-c_3_1:XMLUri.cpp.obj
 0001:0006e104       ?initializeAuthority@XMLUri@xercesc_3_1@@AEAAXQEB_W@Z 000000018006f104 f   xerces-c_3_1:XMLUri.cpp.obj
 0001:0006e4a0       ?initializeScheme@XMLUri@xercesc_3_1@@AEAAXQEB_W@Z 000000018006f4a0 f   xerces-c_3_1:XMLUri.cpp.obj
 0001:0006e5b4       ?initializePath@XMLUri@xercesc_3_1@@AEAAXQEB_W@Z 000000018006f5b4 f   xerces-c_3_1:XMLUri.cpp.obj
 0001:0006ed10       ?setScheme@XMLUri@xercesc_3_1@@QEAAXQEB_W@Z 000000018006fd10 f   xerces-c_3_1:XMLUri.cpp.obj
 0001:0006eeb0       ?setHost@XMLUri@xercesc_3_1@@QEAAXQEB_W@Z 000000018006feb0 f   xerces-c_3_1:XMLUri.cpp.obj
 0001:0006f008       ?setRegBasedAuthority@XMLUri@xercesc_3_1@@QEAAXQEB_W@Z 0000000180070008 f   xerces-c_3_1:XMLUri.cpp.obj
 0001:0006f18c       ?isValidServerBasedAuthority@XMLUri@xercesc_3_1@@CA_NQEB_W_KH01@Z 000000018007018c f   xerces-c_3_1:XMLUri.cpp.obj
 0001:0006f3c0       ?isValidRegistryBasedAuthority@XMLUri@xercesc_3_1@@CA_NQEB_W_K@Z 00000001800703c0 f   xerces-c_3_1:XMLUri.cpp.obj
 0001:0006f474       ?isURIString@XMLUri@xercesc_3_1@@SA_NQEB_W@Z 0000000180070474 f   xerces-c_3_1:XMLUri.cpp.obj
 0001:0006f4e8       ?isWellFormedAddress@XMLUri@xercesc_3_1@@CA_NQEB_WQEAVMemoryManager@2@@Z 00000001800704e8 f   xerces-c_3_1:XMLUri.cpp.obj
 0001:0006f70c       ?isWellFormedIPv4Address@XMLUri@xercesc_3_1@@CA_NQEB_W_K@Z 000000018007070c f   xerces-c_3_1:XMLUri.cpp.obj
 0001:0006f798       ?isWellFormedIPv6Reference@XMLUri@xercesc_3_1@@CA_NQEB_W_K@Z 0000000180070798 f   xerces-c_3_1:XMLUri.cpp.obj
 0001:0006f89c       ?scanHexSequence@XMLUri@xercesc_3_1@@CAHQEB_W_K1AEAH@Z 000000018007089c f   xerces-c_3_1:XMLUri.cpp.obj
 0001:0006f948       ?buildFullText@XMLUri@xercesc_3_1@@AEAAXXZ 0000000180070948 f   xerces-c_3_1:XMLUri.cpp.obj
 0001:0006fdec       ?isValidURI@XMLUri@xercesc_3_1@@SA_N_NQEB_W0@Z 0000000180070dec f   xerces-c_3_1:XMLUri.cpp.obj
 0001:0006ffc4       ?processScheme@XMLUri@xercesc_3_1@@CA_NQEB_WAEA_K@Z 0000000180070fc4 f   xerces-c_3_1:XMLUri.cpp.obj
 0001:00070050       ?processAuthority@XMLUri@xercesc_3_1@@CA_NQEB_W_K@Z 0000000180071050 f   xerces-c_3_1:XMLUri.cpp.obj
 0001:000701e8       ?processPath@XMLUri@xercesc_3_1@@CA_NQEB_W_K_N2@Z 00000001800711e8 f   xerces-c_3_1:XMLUri.cpp.obj
 0001:00070388       ?normalizeURI@XMLUri@xercesc_3_1@@SAXQEB_WAEAVXMLBuffer@2@@Z 0000000180071388 f   xerces-c_3_1:XMLUri.cpp.obj
 0001:00070434       ?createObject@XMLUri@xercesc_3_1@@SAPEAVXSerializable@2@PEAVMemoryManager@2@@Z 0000000180071434 f   xerces-c_3_1:XMLUri.cpp.obj
 0001:00070490       ?getProtoType@XMLUri@xercesc_3_1@@UEBAPEAVXProtoType@2@XZ 0000000180071490 f   xerces-c_3_1:XMLUri.cpp.obj
 0001:00070498       ?serialize@XMLUri@xercesc_3_1@@UEAAXAEAVXSerializeEngine@2@@Z 0000000180071498 f   xerces-c_3_1:XMLUri.cpp.obj
 0001:00070640       ?encodingForName@XMLRecognizer@xercesc_3_1@@SA?AW4Encodings@12@QEB_W@Z 0000000180071640 f   xerces-c_3_1:XMLRecognizer.cpp.obj
 0001:00070818       ?nameForEncoding@XMLRecognizer@xercesc_3_1@@SAPEB_WW4Encodings@12@QEAVMemoryManager@2@@Z 0000000180071818 f   xerces-c_3_1:XMLRecognizer.cpp.obj
 0001:00070888       ?transcodeFrom@XML88591Transcoder@xercesc_3_1@@UEAA_KQEBE_KQEA_W1AEA_KQEAE@Z 0000000180071888 f   xerces-c_3_1:XML88591Transcoder.cpp.obj
 0001:000708d8       ?transcodeTo@XML88591Transcoder@xercesc_3_1@@UEAA_KQEB_W_KQEAE1AEA_KW4UnRepOpts@XMLTranscoder@2@@Z 00000001800718d8 f   xerces-c_3_1:XML88591Transcoder.cpp.obj
 0001:000709d0       ?canTranscodeTo@XML88591Transcoder@xercesc_3_1@@UEAA_NI@Z 00000001800719d0 f   xerces-c_3_1:XML88591Transcoder.cpp.obj
 0001:000709dc       ?isValidEncoding@EncodingValidator@xercesc_3_1@@QEAA_NQEB_W@Z 00000001800719dc f   xerces-c_3_1:EncodingValidator.cpp.obj
 0001:00070aa0       ?initializeRegistry@EncodingValidator@xercesc_3_1@@AEAAXXZ 0000000180071aa0 f   xerces-c_3_1:EncodingValidator.cpp.obj
 0001:00070d54       ?transcodeFrom@XMLUCS4Transcoder@xercesc_3_1@@UEAA_KQEBE_KQEA_W1AEA_KQEAE@Z 0000000180071d54 f   xerces-c_3_1:XMLUCS4Transcoder.cpp.obj
 0001:00070e68       ?transcodeTo@XMLUCS4Transcoder@xercesc_3_1@@UEAA_KQEB_W_KQEAE1AEA_KW4UnRepOpts@XMLTranscoder@2@@Z 0000000180071e68 f   xerces-c_3_1:XMLUCS4Transcoder.cpp.obj
 0001:00070fd8       ?transcodeFrom@XMLChTranscoder@xercesc_3_1@@UEAA_KQEBE_KQEA_W1AEA_KQEAE@Z 0000000180071fd8 f   xerces-c_3_1:XMLChTranscoder.cpp.obj
 0001:00071028       ?transcodeTo@XMLChTranscoder@xercesc_3_1@@UEAA_KQEB_W_KQEAE1AEA_KW4UnRepOpts@XMLTranscoder@2@@Z 0000000180072028 f   xerces-c_3_1:XMLChTranscoder.cpp.obj
 0001:0007106c       ??0UTFDataFormatException@xercesc_3_1@@QEAA@AEBV01@@Z 000000018007206c f i xerces-c_3_1:XMLUTF8Transcoder.cpp.obj
 0001:00071090       ??1UTFDataFormatException@xercesc_3_1@@UEAA@XZ 0000000180072090 f i xerces-c_3_1:XMLUTF8Transcoder.cpp.obj
 0001:000710a0       ?duplicate@UTFDataFormatException@xercesc_3_1@@UEBAPEAVXMLException@2@XZ 00000001800720a0 f i xerces-c_3_1:XMLUTF8Transcoder.cpp.obj
 0001:00071104       ?getType@UTFDataFormatException@xercesc_3_1@@UEBAPEB_WXZ 0000000180072104 f i xerces-c_3_1:XMLUTF8Transcoder.cpp.obj
 0001:0007110c       ??_GUTFDataFormatException@xercesc_3_1@@UEAAPEAXI@Z 000000018007210c f i xerces-c_3_1:XMLUTF8Transcoder.cpp.obj
 0001:0007110c       ??_EUTFDataFormatException@xercesc_3_1@@UEAAPEAXI@Z 000000018007210c f i  CIL library: CIL module
 0001:0007114c       ?checkTrailingBytes@XMLUTF8Transcoder@xercesc_3_1@@AEBAXEII@Z 000000018007214c f i xerces-c_3_1:XMLUTF8Transcoder.cpp.obj
 0001:000711e0       ??1XMLUTF8Transcoder@xercesc_3_1@@UEAA@XZ 00000001800721e0 f   xerces-c_3_1:XMLUTF8Transcoder.cpp.obj
 0001:000711fc       ?transcodeFrom@XMLUTF8Transcoder@xercesc_3_1@@UEAA_KQEBE_KQEA_W1AEA_KQEAE@Z 00000001800721fc f   xerces-c_3_1:XMLUTF8Transcoder.cpp.obj
 0001:000717dc       ?transcodeTo@XMLUTF8Transcoder@xercesc_3_1@@UEAA_KQEB_W_KQEAE1AEA_KW4UnRepOpts@XMLTranscoder@2@@Z 00000001800727dc f   xerces-c_3_1:XMLUTF8Transcoder.cpp.obj
 0001:00071a28       ?canTranscodeTo@XMLUTF8Transcoder@xercesc_3_1@@UEAA_NI@Z 0000000180072a28 f   xerces-c_3_1:XMLUTF8Transcoder.cpp.obj
 0001:00071a34       ??_GXMLIBM1140Transcoder@xercesc_3_1@@UEAAPEAXI@Z 0000000180072a34 f i xerces-c_3_1:XMLIBM1140Transcoder.cpp.obj
 0001:00071a34       ??_EXML88591Transcoder@xercesc_3_1@@UEAAPEAXI@Z 0000000180072a34 f i  CIL library: CIL module
 0001:00071a34       ??_EXMLIBM1140Transcoder@xercesc_3_1@@UEAAPEAXI@Z 0000000180072a34 f i  CIL library: CIL module
 0001:00071a34       ??_GXMLUTF8Transcoder@xercesc_3_1@@UEAAPEAXI@Z 0000000180072a34 f i xerces-c_3_1:XMLUTF8Transcoder.cpp.obj
 0001:00071a34       ??_EXMLUCS4Transcoder@xercesc_3_1@@UEAAPEAXI@Z 0000000180072a34 f i  CIL library: CIL module
 0001:00071a34       ??_GXMLTranscoder@xercesc_3_1@@UEAAPEAXI@Z 0000000180072a34 f i xerces-c_3_1:TransService.cpp.obj
 0001:00071a34       ??_GXMLWin1252Transcoder@xercesc_3_1@@UEAAPEAXI@Z 0000000180072a34 f i xerces-c_3_1:XMLWin1252Transcoder.cpp.obj
 0001:00071a34       ??_EXMLASCIITranscoder@xercesc_3_1@@UEAAPEAXI@Z 0000000180072a34 f i  CIL library: CIL module
 0001:00071a34       ??_EXMLIBM1047Transcoder@xercesc_3_1@@UEAAPEAXI@Z 0000000180072a34 f i  CIL library: CIL module
 0001:00071a34       ??_GXMLUCS4Transcoder@xercesc_3_1@@UEAAPEAXI@Z 0000000180072a34 f i xerces-c_3_1:XMLUCS4Transcoder.cpp.obj
 0001:00071a34       ??_GXMLUTF16Transcoder@xercesc_3_1@@UEAAPEAXI@Z 0000000180072a34 f i xerces-c_3_1:XMLUTF16Transcoder.cpp.obj
 0001:00071a34       ??_EXMLUTF8Transcoder@xercesc_3_1@@UEAAPEAXI@Z 0000000180072a34 f i  CIL library: CIL module
 0001:00071a34       ??_GWin32Transcoder@xercesc_3_1@@UEAAPEAXI@Z 0000000180072a34 f i xerces-c_3_1:Win32TransService.cpp.obj
 0001:00071a34       ??_EWin32Transcoder@xercesc_3_1@@UEAAPEAXI@Z 0000000180072a34 f i  CIL library: CIL module
 0001:00071a34       ??_GXML88591Transcoder@xercesc_3_1@@UEAAPEAXI@Z 0000000180072a34 f i xerces-c_3_1:XML88591Transcoder.cpp.obj
 0001:00071a34       ??_EXMLWin1252Transcoder@xercesc_3_1@@UEAAPEAXI@Z 0000000180072a34 f i  CIL library: CIL module
 0001:00071a34       ??_EXMLTranscoder@xercesc_3_1@@UEAAPEAXI@Z 0000000180072a34 f i  CIL library: CIL module
 0001:00071a34       ??_EXMLUTF16Transcoder@xercesc_3_1@@UEAAPEAXI@Z 0000000180072a34 f i  CIL library: CIL module
 0001:00071a34       ??_GXMLASCIITranscoder@xercesc_3_1@@UEAAPEAXI@Z 0000000180072a34 f i xerces-c_3_1:XMLASCIITranscoder.cpp.obj
 0001:00071a34       ??_GXMLChTranscoder@xercesc_3_1@@UEAAPEAXI@Z 0000000180072a34 f i xerces-c_3_1:XMLChTranscoder.cpp.obj
 0001:00071a34       ??_GXMLEBCDICTranscoder@xercesc_3_1@@UEAAPEAXI@Z 0000000180072a34 f i xerces-c_3_1:XMLEBCDICTranscoder.cpp.obj
 0001:00071a34       ??_EXMLEBCDICTranscoder@xercesc_3_1@@UEAAPEAXI@Z 0000000180072a34 f i  CIL library: CIL module
 0001:00071a34       ??_GXMLIBM1047Transcoder@xercesc_3_1@@UEAAPEAXI@Z 0000000180072a34 f i xerces-c_3_1:XMLIBM1047Transcoder.cpp.obj
 0001:00071a34       ??_EXMLChTranscoder@xercesc_3_1@@UEAAPEAXI@Z 0000000180072a34 f i  CIL library: CIL module
 0001:00071a7c       ?transcodeFrom@XMLASCIITranscoder@xercesc_3_1@@UEAA_KQEBE_KQEA_W1AEA_KQEAE@Z 0000000180072a7c f   xerces-c_3_1:XMLASCIITranscoder.cpp.obj
 0001:00071b88       ?transcodeTo@XMLASCIITranscoder@xercesc_3_1@@UEAA_KQEB_W_KQEAE1AEA_KW4UnRepOpts@XMLTranscoder@2@@Z 0000000180072b88 f   xerces-c_3_1:XMLASCIITranscoder.cpp.obj
 0001:00071c88       ?canTranscodeTo@XMLASCIITranscoder@xercesc_3_1@@UEAA_NI@Z 0000000180072c88 f   xerces-c_3_1:XMLASCIITranscoder.cpp.obj
 0001:00071c94       ?transcodeFrom@XMLUTF16Transcoder@xercesc_3_1@@UEAA_KQEBE_KQEA_W1AEA_KQEAE@Z 0000000180072c94 f   xerces-c_3_1:XMLUTF16Transcoder.cpp.obj
 0001:00071d04       ?transcodeTo@XMLUTF16Transcoder@xercesc_3_1@@UEAA_KQEB_W_KQEAE1AEA_KW4UnRepOpts@XMLTranscoder@2@@Z 0000000180072d04 f   xerces-c_3_1:XMLUTF16Transcoder.cpp.obj
 0001:00071d60       ??0DOMEntityReferenceImpl@xercesc_3_1@@QEAA@PEAVDOMDocument@1@PEB_W@Z 0000000180072d60 f   xerces-c_3_1:DOMEntityReferenceImpl.cpp.obj
 0001:00071eb0       ??0DOMEntityReferenceImpl@xercesc_3_1@@QEAA@PEAVDOMDocument@1@PEB_W_N@Z 0000000180072eb0 f   xerces-c_3_1:DOMEntityReferenceImpl.cpp.obj
 0001:00071fd4       ??0DOMEntityReferenceImpl@xercesc_3_1@@QEAA@AEBV01@_N@Z 0000000180072fd4 f   xerces-c_3_1:DOMEntityReferenceImpl.cpp.obj
 0001:0007208c       ?cloneNode@DOMEntityReferenceImpl@xercesc_3_1@@UEBAPEAVDOMNode@2@_N@Z 000000018007308c f   xerces-c_3_1:DOMEntityReferenceImpl.cpp.obj
 0001:00072128       ?getNamespaceURI@DOMAttrNSImpl@xercesc_3_1@@UEBAPEB_WXZ 0000000180073128 f   xerces-c_3_1:DOMAttrNSImpl.cpp.obj
 0001:00072128       ?getNodeName@DOMEntityReferenceImpl@xercesc_3_1@@UEBAPEB_WXZ 0000000180073128 f   xerces-c_3_1:DOMEntityReferenceImpl.cpp.obj
 0001:00072128       ?getAttributes@DOMElementImpl@xercesc_3_1@@UEBAPEAVDOMNamedNodeMap@2@XZ 0000000180073128 f   xerces-c_3_1:DOMElementImpl.cpp.obj
 0001:00072128       ?getNodeName@DOMDocumentTypeImpl@xercesc_3_1@@UEBAPEB_WXZ 0000000180073128 f   xerces-c_3_1:DOMDocumentTypeImpl.cpp.obj
 0001:00072128       ?getSystemId@DOMEntityImpl@xercesc_3_1@@UEBAPEB_WXZ 0000000180073128 f   xerces-c_3_1:DOMEntityImpl.cpp.obj
 0001:00072128       ?getName@DOMDocumentTypeImpl@xercesc_3_1@@UEBAPEB_WXZ 0000000180073128 f   xerces-c_3_1:DOMDocumentTypeImpl.cpp.obj
 0001:00072130       ?getNodeType@DOMEntityReferenceImpl@xercesc_3_1@@UEBA?AW4NodeType@DOMNode@2@XZ 0000000180073130 f   xerces-c_3_1:DOMEntityReferenceImpl.cpp.obj
 0001:00072138       ?setReadOnly@DOMEntityReferenceImpl@xercesc_3_1@@UEAAX_N0@Z 0000000180073138 f   xerces-c_3_1:DOMEntityReferenceImpl.cpp.obj
 0001:000721d8       ?release@DOMEntityReferenceImpl@xercesc_3_1@@UEAAXXZ 00000001800731d8 f   xerces-c_3_1:DOMEntityReferenceImpl.cpp.obj
 0001:0007231c       ?getDefaultAttributes@DOMElementImpl@xercesc_3_1@@UEBAPEAVDOMAttrMapImpl@2@XZ 000000018007331c f   xerces-c_3_1:DOMElementImpl.cpp.obj
 0001:0007231c       ?getBaseURI@DOMEntityReferenceImpl@xercesc_3_1@@UEBAPEB_WXZ 000000018007331c f   xerces-c_3_1:DOMEntityReferenceImpl.cpp.obj
 0001:0007231c       ?getEntities@DOMDocumentTypeImpl@xercesc_3_1@@UEBAPEAVDOMNamedNodeMap@2@XZ 000000018007331c f   xerces-c_3_1:DOMDocumentTypeImpl.cpp.obj
 0001:0007231c       ?getNotationName@DOMEntityImpl@xercesc_3_1@@UEBAPEB_WXZ 000000018007331c f   xerces-c_3_1:DOMEntityImpl.cpp.obj
 0001:0007231c       ?getLocalName@DOMAttrNSImpl@xercesc_3_1@@UEBAPEB_WXZ 000000018007331c f   xerces-c_3_1:DOMAttrNSImpl.cpp.obj
 0001:0007231c       ?getRawData@XMLDateTime@xercesc_3_1@@UEBAPEA_WXZ 000000018007331c f   xerces-c_3_1:XMLDateTime.cpp.obj
 0001:00072324       ?getContentSpec@DTDElementDecl@xercesc_3_1@@UEBAPEBVContentSpecNode@2@XZ 0000000180073324 f   xerces-c_3_1:DTDElementDecl.cpp.obj
 0001:00072324       ?getMemberTypeDefinition@PSVIElement@xercesc_3_1@@UEAAPEAVXSSimpleTypeDefinition@2@XZ 0000000180073324 f   xerces-c_3_1:PSVIElement.cpp.obj
 0001:00072324       ?getNextSibling@DOMDocumentTypeImpl@xercesc_3_1@@UEBAPEAVDOMNode@2@XZ 0000000180073324 f   xerces-c_3_1:DOMDocumentTypeImpl.cpp.obj
 0001:00072324       ?getNextSibling@DOMEntityReferenceImpl@xercesc_3_1@@UEBAPEAVDOMNode@2@XZ 0000000180073324 f   xerces-c_3_1:DOMEntityReferenceImpl.cpp.obj
 0001:00072324       ?getMemberTypeDefinition@PSVIAttribute@xercesc_3_1@@UEAAPEAVXSSimpleTypeDefinition@2@XZ 0000000180073324 f   xerces-c_3_1:PSVIAttribute.cpp.obj
 0001:00072324       ?getPublicId@DOMEntityImpl@xercesc_3_1@@UEBAPEB_WXZ 0000000180073324 f   xerces-c_3_1:DOMEntityImpl.cpp.obj
 0001:00072324       ?getContentSpec@DTDElementDecl@xercesc_3_1@@UEAAPEAVContentSpecNode@2@XZ 0000000180073324 f   xerces-c_3_1:DTDElementDecl.cpp.obj
 0001:00072324       ?getNextSibling@DOMElementImpl@xercesc_3_1@@UEBAPEAVDOMNode@2@XZ 0000000180073324 f   xerces-c_3_1:DOMElementImpl.cpp.obj
 0001:0007232c       ?getPreviousSibling@DOMDocumentTypeImpl@xercesc_3_1@@UEBAPEAVDOMNode@2@XZ 000000018007332c f   xerces-c_3_1:DOMDocumentTypeImpl.cpp.obj
 0001:0007232c       ?getPreviousSibling@DOMEntityReferenceImpl@xercesc_3_1@@UEBAPEAVDOMNode@2@XZ 000000018007332c f   xerces-c_3_1:DOMEntityReferenceImpl.cpp.obj
 0001:0007232c       ?getPreviousSibling@DOMElementImpl@xercesc_3_1@@UEBAPEAVDOMNode@2@XZ 000000018007332c f   xerces-c_3_1:DOMElementImpl.cpp.obj
 0001:00072340       ?insertBefore@DOMAttrImpl@xercesc_3_1@@UEAAPEAVDOMNode@2@PEAV32@0@Z 0000000180073340 f   xerces-c_3_1:DOMAttrImpl.cpp.obj
 0001:00072340       ?insertBefore@DOMElementImpl@xercesc_3_1@@UEAAPEAVDOMNode@2@PEAV32@0@Z 0000000180073340 f   xerces-c_3_1:DOMElementImpl.cpp.obj
 0001:00072340       ?insertBefore@DOMDocumentTypeImpl@xercesc_3_1@@UEAAPEAVDOMNode@2@PEAV32@0@Z 0000000180073340 f   xerces-c_3_1:DOMDocumentTypeImpl.cpp.obj
 0001:00072340       ?insertBefore@DOMDocumentFragmentImpl@xercesc_3_1@@UEAAPEAVDOMNode@2@PEAV32@0@Z 0000000180073340 f   xerces-c_3_1:DOMDocumentFragmentImpl.cpp.obj
 0001:00072340       ?insertBefore@DOMEntityReferenceImpl@xercesc_3_1@@UEAAPEAVDOMNode@2@PEAV32@0@Z 0000000180073340 f   xerces-c_3_1:DOMEntityReferenceImpl.cpp.obj
 0001:0007234c       ?normalize@DOMAttrImpl@xercesc_3_1@@UEAAXXZ 000000018007334c f   xerces-c_3_1:DOMAttrImpl.cpp.obj
 0001:0007234c       ?normalize@DOMDocumentImpl@xercesc_3_1@@UEAAXXZ 000000018007334c f   xerces-c_3_1:DOMDocumentImpl.cpp.obj
 0001:0007234c       ?normalize@DOMDocumentTypeImpl@xercesc_3_1@@UEAAXXZ 000000018007334c f   xerces-c_3_1:DOMDocumentTypeImpl.cpp.obj
 0001:0007234c       ?normalize@DOMElementImpl@xercesc_3_1@@UEAAXXZ 000000018007334c f   xerces-c_3_1:DOMElementImpl.cpp.obj
 0001:0007234c       ?normalize@DOMDocumentFragmentImpl@xercesc_3_1@@UEAAXXZ 000000018007334c f   xerces-c_3_1:DOMDocumentFragmentImpl.cpp.obj
 0001:0007234c       ?normalize@DOMEntityReferenceImpl@xercesc_3_1@@UEAAXXZ 000000018007334c f   xerces-c_3_1:DOMEntityReferenceImpl.cpp.obj
 0001:00072358       ?cloneChildren@DOMParentNode@xercesc_3_1@@QEAAXPEBVDOMNode@2@@Z 0000000180073358 f   xerces-c_3_1:DOMParentNode.cpp.obj
 0001:000723a8       ?insertBefore@DOMParentNode@xercesc_3_1@@QEAAPEAVDOMNode@2@PEAV32@0@Z 00000001800733a8 f   xerces-c_3_1:DOMParentNode.cpp.obj
 0001:00072934       ?removeChild@DOMParentNode@xercesc_3_1@@QEAAPEAVDOMNode@2@PEAV32@@Z 0000000180073934 f   xerces-c_3_1:DOMParentNode.cpp.obj
 0001:00072bf4       ?appendChildFast@DOMParentNode@xercesc_3_1@@UEAAPEAVDOMNode@2@PEAV32@@Z 0000000180073bf4 f   xerces-c_3_1:DOMParentNode.cpp.obj
 0001:00072ca4       ?normalize@DOMParentNode@xercesc_3_1@@QEAAXXZ 0000000180073ca4 f   xerces-c_3_1:DOMParentNode.cpp.obj
 0001:00072d68       ?isEqualNode@DOMParentNode@xercesc_3_1@@QEBA_NPEBVDOMNode@2@@Z 0000000180073d68 f   xerces-c_3_1:DOMParentNode.cpp.obj
 0001:00072e08       ?release@DOMParentNode@xercesc_3_1@@QEAAXXZ 0000000180073e08 f   xerces-c_3_1:DOMParentNode.cpp.obj
 0001:00072e54       ??1DOMXPathNSResolver@xercesc_3_1@@UEAA@XZ 0000000180073e54 f i xerces-c_3_1:DOMXPathNSResolverImpl.cpp.obj
 0001:00072e60       ??_EDOMXPathNSResolver@xercesc_3_1@@UEAAPEAXI@Z 0000000180073e60 f i  CIL library: CIL module
 0001:00072e60       ??_GDOMXPathNSResolver@xercesc_3_1@@UEAAPEAXI@Z 0000000180073e60 f i xerces-c_3_1:DOMXPathNSResolverImpl.cpp.obj
 0001:00072e8c       ??0DOMXPathNSResolverImpl@xercesc_3_1@@QEAA@PEBVDOMNode@1@QEAVMemoryManager@1@@Z 0000000180073e8c f   xerces-c_3_1:DOMXPathNSResolverImpl.cpp.obj
 0001:00072f40       ??_EDOMXPathNSResolverImpl@xercesc_3_1@@UEAAPEAXI@Z 0000000180073f40 f i  CIL library: CIL module
 0001:00072f40       ??_GDOMXPathNSResolverImpl@xercesc_3_1@@UEAAPEAXI@Z 0000000180073f40 f i xerces-c_3_1:DOMXPathNSResolverImpl.cpp.obj
 0001:00072fa4       ?lookupNamespaceURI@DOMXPathNSResolverImpl@xercesc_3_1@@UEBAPEB_WPEB_W@Z 0000000180073fa4 f   xerces-c_3_1:DOMXPathNSResolverImpl.cpp.obj
 0001:0007307c       ?lookupPrefix@DOMXPathNSResolverImpl@xercesc_3_1@@UEBAPEB_WPEB_W@Z 000000018007407c f   xerces-c_3_1:DOMXPathNSResolverImpl.cpp.obj
 0001:000731f0       ?addNamespaceBinding@DOMXPathNSResolverImpl@xercesc_3_1@@UEAAXPEB_W0@Z 00000001800741f0 f   xerces-c_3_1:DOMXPathNSResolverImpl.cpp.obj
 0001:00073284       ??1?$XMLEnumerator@VKVStringPair@xercesc_3_1@@@xercesc_3_1@@UEAA@XZ 0000000180074284 f i xerces-c_3_1:DOMXPathNSResolverImpl.cpp.obj
 0001:00073290       ??_G?$XMLEnumerator@VKVStringPair@xercesc_3_1@@@xercesc_3_1@@UEAAPEAXI@Z 0000000180074290 f i xerces-c_3_1:DOMXPathNSResolverImpl.cpp.obj
 0001:00073290       ??_E?$XMLEnumerator@VKVStringPair@xercesc_3_1@@@xercesc_3_1@@UEAAPEAXI@Z 0000000180074290 f i  CIL library: CIL module
 0001:000732bc       ??0?$RefHashTableOfEnumerator@VKVStringPair@xercesc_3_1@@UStringHasher@2@@xercesc_3_1@@QEAA@QEAV?$RefHashTableOf@VKVStringPair@xercesc_3_1@@UStringHasher@2@@1@_NQEAVMemoryManager@1@@Z 00000001800742bc f i xerces-c_3_1:DOMXPathNSResolverImpl.cpp.obj
 0001:00073350       ??1?$RefHashTableOfEnumerator@VKVStringPair@xercesc_3_1@@UStringHasher@2@@xercesc_3_1@@UEAA@XZ 0000000180074350 f i xerces-c_3_1:DOMXPathNSResolverImpl.cpp.obj
 0001:00073398       ?Reset@?$RefHashTableOfEnumerator@VFieldValueMap@xercesc_3_1@@UICValueHasher@2@@xercesc_3_1@@UEAAXXZ 0000000180074398 f i xerces-c_3_1:ValueStore.cpp.obj
 0001:00073398       ?Reset@?$RefHashTableOfEnumerator@VXSAnnotation@xercesc_3_1@@UPtrHasher@2@@xercesc_3_1@@UEAAXXZ 0000000180074398 f i xerces-c_3_1:XTemplateSerializer.cpp.obj
 0001:00073398       ?Reset@?$RefHashTableOfEnumerator@VDTDAttDef@xercesc_3_1@@UStringHasher@2@@xercesc_3_1@@UEAAXXZ 0000000180074398 f i xerces-c_3_1:XTemplateSerializer.cpp.obj
 0001:00073398       ?Reset@?$RefHashTableOfEnumerator@_WUStringHasher@xercesc_3_1@@@xercesc_3_1@@UEAAXXZ 0000000180074398 f i xerces-c_3_1:DOMNormalizer.cpp.obj
 0001:00073398       ?Reset@?$RefHashTableOfEnumerator@VXercesGroupInfo@xercesc_3_1@@UStringHasher@2@@xercesc_3_1@@UEAAXXZ 0000000180074398 f i xerces-c_3_1:XSModel.cpp.obj
 0001:00073398       ?Reset@?$RefHashTableOfEnumerator@VValueStore@xercesc_3_1@@UPtrHasher@2@@xercesc_3_1@@UEAAXXZ 0000000180074398 f i xerces-c_3_1:ValueStoreCache.cpp.obj
 0001:00073398       ?Reset@?$RefHashTableOfEnumerator@VXercesAttGroupInfo@xercesc_3_1@@UStringHasher@2@@xercesc_3_1@@UEAAXXZ 0000000180074398 f i xerces-c_3_1:XSModel.cpp.obj
 0001:00073398       ?Reset@?$RefHashTableOfEnumerator@VDatatypeValidator@xercesc_3_1@@UStringHasher@2@@xercesc_3_1@@UEAAXXZ 0000000180074398 f i xerces-c_3_1:XSModel.cpp.obj
 0001:00073398       ?Reset@?$RefHashTableOfEnumerator@VGrammar@xercesc_3_1@@UStringHasher@2@@xercesc_3_1@@UEAAXXZ 0000000180074398 f i xerces-c_3_1:GrammarResolver.cpp.obj
 0001:00073398       ?Reset@?$RefHashTableOfEnumerator@VXMLAttDef@xercesc_3_1@@UStringHasher@2@@xercesc_3_1@@UEAAXXZ 0000000180074398 f i xerces-c_3_1:XSModel.cpp.obj
 0001:00073398       ?Reset@?$RefHashTableOfEnumerator@VComplexTypeInfo@xercesc_3_1@@UStringHasher@2@@xercesc_3_1@@UEAAXXZ 0000000180074398 f i xerces-c_3_1:XSModel.cpp.obj
 0001:00073398       ?Reset@?$RefHashTableOfEnumerator@VKVStringPair@xercesc_3_1@@UStringHasher@2@@xercesc_3_1@@UEAAXXZ 0000000180074398 f i xerces-c_3_1:DOMXPathNSResolverImpl.cpp.obj
 0001:00073398       ?Reset@?$RefHashTableOfEnumerator@VXMLRefInfo@xercesc_3_1@@UStringHasher@2@@xercesc_3_1@@UEAAXXZ 0000000180074398 f i xerces-c_3_1:XMLScanner.cpp.obj
 0001:000733a8       ??_E?$RefHashTableOfEnumerator@VKVStringPair@xercesc_3_1@@UStringHasher@2@@xercesc_3_1@@UEAAPEAXI@Z 00000001800743a8 f i  CIL library: CIL module
 0001:000733a8       ??_G?$RefHashTableOfEnumerator@VKVStringPair@xercesc_3_1@@UStringHasher@2@@xercesc_3_1@@UEAAPEAXI@Z 00000001800743a8 f i xerces-c_3_1:DOMXPathNSResolverImpl.cpp.obj
 0001:000733e4       ??_EDOMTreeWalker@xercesc_3_1@@UEAAPEAXI@Z 00000001800743e4 f i  CIL library: CIL module
 0001:000733e4       ??_GDOMTreeWalker@xercesc_3_1@@UEAAPEAXI@Z 00000001800743e4 f i xerces-c_3_1:DOMTreeWalkerImpl.cpp.obj
 0001:000733e4       ??_EDOMTreeWalkerImpl@xercesc_3_1@@UEAAPEAXI@Z 00000001800743e4 f i  CIL library: CIL module
 0001:000733e4       ??_GDOMTreeWalkerImpl@xercesc_3_1@@UEAAPEAXI@Z 00000001800743e4 f i xerces-c_3_1:DOMTreeWalkerImpl.cpp.obj
 0001:00073410       ?getSystemId@XMLDTDDescriptionImpl@xercesc_3_1@@UEBAPEB_WXZ 0000000180074410 f   xerces-c_3_1:XMLDTDDescriptionImpl.cpp.obj
 0001:00073410       ?getByteStream@DOMLSInputImpl@xercesc_3_1@@UEBAPEAVInputSource@2@XZ 0000000180074410 f   xerces-c_3_1:DOMLSInputImpl.cpp.obj
 0001:00073410       ?getColumnNumber@XSDLocator@xercesc_3_1@@UEBA_KXZ 0000000180074410 f   xerces-c_3_1:XSDDOMParser.cpp.obj
 0001:00073410       ?getMessage@DOMErrorImpl@xercesc_3_1@@UEBAPEB_WXZ 0000000180074410 f   xerces-c_3_1:DOMErrorImpl.cpp.obj
 0001:00073410       ?getFilter@DOMTreeWalkerImpl@xercesc_3_1@@UEAAPEAVDOMNodeFilter@2@XZ 0000000180074410 f   xerces-c_3_1:DOMTreeWalkerImpl.cpp.obj
 0001:00073410       ?getColumnNumber@DOMLocatorImpl@xercesc_3_1@@UEBA_KXZ 0000000180074410 f   xerces-c_3_1:DOMLocatorImpl.cpp.obj
 0001:00073410       ?getEncoding@DOMLSOutputImpl@xercesc_3_1@@UEBAPEB_WXZ 0000000180074410 f   xerces-c_3_1:DOMLSOutputImpl.cpp.obj
 0001:00073410       ?getIdRefList@ValidationContextImpl@xercesc_3_1@@UEBAPEAV?$RefHashTableOf@VXMLRefInfo@xercesc_3_1@@UStringHasher@2@@2@XZ 0000000180074410 f   xerces-c_3_1:ValidationContextImpl.cpp.obj
 0001:00073418       ?getExpandEntityReferences@DOMNodeIteratorImpl@xercesc_3_1@@UEAA_NXZ 0000000180074418 f   xerces-c_3_1:DOMNodeIteratorImpl.cpp.obj
 0001:00073418       ?getExpandEntityReferences@DOMTreeWalkerImpl@xercesc_3_1@@UEAA_NXZ 0000000180074418 f   xerces-c_3_1:DOMTreeWalkerImpl.cpp.obj
 0001:0007341c       ?setCurrentNode@DOMTreeWalkerImpl@xercesc_3_1@@UEAAXPEAVDOMNode@2@@Z 000000018007441c f   xerces-c_3_1:DOMTreeWalkerImpl.cpp.obj
 0001:000734a8       ?parentNode@DOMTreeWalkerImpl@xercesc_3_1@@UEAAPEAVDOMNode@2@XZ 00000001800744a8 f   xerces-c_3_1:DOMTreeWalkerImpl.cpp.obj
 0001:000734d4       ?firstChild@DOMTreeWalkerImpl@xercesc_3_1@@UEAAPEAVDOMNode@2@XZ 00000001800744d4 f   xerces-c_3_1:DOMTreeWalkerImpl.cpp.obj
 0001:00073518       ?lastChild@DOMTreeWalkerImpl@xercesc_3_1@@UEAAPEAVDOMNode@2@XZ 0000000180074518 f   xerces-c_3_1:DOMTreeWalkerImpl.cpp.obj
 0001:0007355c       ?previousSibling@DOMTreeWalkerImpl@xercesc_3_1@@UEAAPEAVDOMNode@2@XZ 000000018007455c f   xerces-c_3_1:DOMTreeWalkerImpl.cpp.obj
 0001:00073588       ?nextSibling@DOMTreeWalkerImpl@xercesc_3_1@@UEAAPEAVDOMNode@2@XZ 0000000180074588 f   xerces-c_3_1:DOMTreeWalkerImpl.cpp.obj
 0001:000735b4       ?previousNode@DOMTreeWalkerImpl@xercesc_3_1@@UEAAPEAVDOMNode@2@XZ 00000001800745b4 f   xerces-c_3_1:DOMTreeWalkerImpl.cpp.obj
 0001:00073614       ?nextNode@DOMTreeWalkerImpl@xercesc_3_1@@UEAAPEAVDOMNode@2@XZ 0000000180074614 f   xerces-c_3_1:DOMTreeWalkerImpl.cpp.obj
 0001:00073684       ?getParentNode@DOMTreeWalkerImpl@xercesc_3_1@@IEAAPEAVDOMNode@2@PEAV32@@Z 0000000180074684 f   xerces-c_3_1:DOMTreeWalkerImpl.cpp.obj
 0001:000736d4       ?getNextSibling@DOMTreeWalkerImpl@xercesc_3_1@@IEAAPEAVDOMNode@2@PEAV32@@Z 00000001800746d4 f   xerces-c_3_1:DOMTreeWalkerImpl.cpp.obj
 0001:0007378c       ?getPreviousSibling@DOMTreeWalkerImpl@xercesc_3_1@@IEAAPEAVDOMNode@2@PEAV32@@Z 000000018007478c f   xerces-c_3_1:DOMTreeWalkerImpl.cpp.obj
 0001:00073844       ?getFirstChild@DOMTreeWalkerImpl@xercesc_3_1@@IEAAPEAVDOMNode@2@PEAV32@@Z 0000000180074844 f   xerces-c_3_1:DOMTreeWalkerImpl.cpp.obj
 0001:000738c4       ?getLastChild@DOMTreeWalkerImpl@xercesc_3_1@@IEAAPEAVDOMNode@2@PEAV32@@Z 00000001800748c4 f   xerces-c_3_1:DOMTreeWalkerImpl.cpp.obj
 0001:00073944       ?acceptNode@DOMTreeWalkerImpl@xercesc_3_1@@IEAAFPEAVDOMNode@2@@Z 0000000180074944 f   xerces-c_3_1:DOMTreeWalkerImpl.cpp.obj
 0001:000739c0       ??1DOMException@xercesc_3_1@@UEAA@XZ 00000001800749c0 f   xerces-c_3_1:DOMException.cpp.obj
 0001:000739ec       ??_GDOMException@xercesc_3_1@@UEAAPEAXI@Z 00000001800749ec f i xerces-c_3_1:DOMException.cpp.obj
 0001:000739ec       ??_EDOMException@xercesc_3_1@@UEAAPEAXI@Z 00000001800749ec f i  CIL library: CIL module
 0001:00073a24       ??0DOMException@xercesc_3_1@@QEAA@FFQEAVMemoryManager@1@@Z 0000000180074a24 f   xerces-c_3_1:DOMException.cpp.obj
 0001:00073b18       ??0DOMException@xercesc_3_1@@QEAA@AEBV01@@Z 0000000180074b18 f   xerces-c_3_1:DOMException.cpp.obj
 0001:00073bbc       ?normalizeNode@DOMNormalizer@xercesc_3_1@@IEBAPEAVDOMNode@2@PEAV32@@Z 0000000180074bbc f   xerces-c_3_1:DOMNormalizer.cpp.obj
 0001:00073fa8       ?namespaceFixUp@DOMNormalizer@xercesc_3_1@@IEBAXPEAVDOMElementImpl@2@@Z 0000000180074fa8 f   xerces-c_3_1:DOMNormalizer.cpp.obj
 0001:00074418       ?integerToXMLCh@DOMNormalizer@xercesc_3_1@@IEBAPEB_WI@Z 0000000180075418 f   xerces-c_3_1:DOMNormalizer.cpp.obj
 0001:0007450c       ?addOrChangeNamespaceDecl@DOMNormalizer@xercesc_3_1@@IEBAXPEB_W0PEAVDOMElementImpl@2@@Z 000000018007550c f   xerces-c_3_1:DOMNormalizer.cpp.obj
 0001:00074680       ?addCustomNamespaceDecl@DOMNormalizer@xercesc_3_1@@IEBAPEB_WPEB_WPEAVDOMElementImpl@2@@Z 0000000180075680 f   xerces-c_3_1:DOMNormalizer.cpp.obj
 0001:00074984       ??0InScopeNamespaces@DOMNormalizer@xercesc_3_1@@QEAA@QEAVMemoryManager@2@@Z 0000000180075984 f   xerces-c_3_1:DOMNormalizer.cpp.obj
 0001:00074a38       ?addOrChangeBinding@InScopeNamespaces@DOMNormalizer@xercesc_3_1@@QEAAXPEB_W0QEAVMemoryManager@3@@Z 0000000180075a38 f   xerces-c_3_1:DOMNormalizer.cpp.obj
 0001:00074ab0       ?addScope@InScopeNamespaces@DOMNormalizer@xercesc_3_1@@QEAAXQEAVMemoryManager@3@@Z 0000000180075ab0 f   xerces-c_3_1:DOMNormalizer.cpp.obj
 0001:00074bb0       ?isValidBinding@InScopeNamespaces@DOMNormalizer@xercesc_3_1@@QEBA_NPEB_W0@Z 0000000180075bb0 f   xerces-c_3_1:DOMNormalizer.cpp.obj
 0001:00074c34       ??_G?$RefHashTableOf@_WUStringHasher@xercesc_3_1@@@xercesc_3_1@@QEAAPEAXI@Z 0000000180075c34 f i xerces-c_3_1:DOMNormalizer.cpp.obj
 0001:00074ce4       ?addOrChangeBinding@Scope@InScopeNamespaces@DOMNormalizer@xercesc_3_1@@QEAAXPEB_W0QEAVMemoryManager@4@@Z 0000000180075ce4 f   xerces-c_3_1:DOMNormalizer.cpp.obj
 0001:00074ec8       ?getUri@Scope@InScopeNamespaces@DOMNormalizer@xercesc_3_1@@QEBAPEB_WPEB_W@Z 0000000180075ec8 f   xerces-c_3_1:DOMNormalizer.cpp.obj
 0001:00074f0c       ?getPrefix@Scope@InScopeNamespaces@DOMNormalizer@xercesc_3_1@@QEBAPEB_WPEB_W@Z 0000000180075f0c f   xerces-c_3_1:DOMNormalizer.cpp.obj
 0001:00074f50       ?error@DOMNormalizer@xercesc_3_1@@IEBAXW4Codes@XMLErrs@2@PEBVDOMNode@2@@Z 0000000180075f50 f   xerces-c_3_1:DOMNormalizer.cpp.obj
 0001:00075060       ??1?$XMLEnumerator@_W@xercesc_3_1@@UEAA@XZ 0000000180076060 f i xerces-c_3_1:DOMNormalizer.cpp.obj
 0001:0007506c       ??_E?$XMLEnumerator@_W@xercesc_3_1@@UEAAPEAXI@Z 000000018007606c f i  CIL library: CIL module
 0001:0007506c       ??_G?$XMLEnumerator@_W@xercesc_3_1@@UEAAPEAXI@Z 000000018007606c f i xerces-c_3_1:DOMNormalizer.cpp.obj
 0001:00075098       ??1?$BaseRefVectorOf@VScope@InScopeNamespaces@DOMNormalizer@xercesc_3_1@@@xercesc_3_1@@UEAA@XZ 0000000180076098 f i xerces-c_3_1:DOMNormalizer.cpp.obj
 0001:000750a4       ?setElementAt@?$BaseRefVectorOf@VScope@InScopeNamespaces@DOMNormalizer@xercesc_3_1@@@xercesc_3_1@@UEAAXQEAVScope@InScopeNamespaces@DOMNormalizer@2@_K@Z 00000001800760a4 f i xerces-c_3_1:DOMNormalizer.cpp.obj
 0001:00075174       ?removeAllElements@?$BaseRefVectorOf@VScope@InScopeNamespaces@DOMNormalizer@xercesc_3_1@@@xercesc_3_1@@UEAAXXZ 0000000180076174 f i xerces-c_3_1:DOMNormalizer.cpp.obj
 0001:000751f4       ?removeElementAt@?$BaseRefVectorOf@VScope@InScopeNamespaces@DOMNormalizer@xercesc_3_1@@@xercesc_3_1@@UEAAX_K@Z 00000001800761f4 f i xerces-c_3_1:DOMNormalizer.cpp.obj
 0001:000752f8       ?removeLastElement@?$BaseRefVectorOf@VScope@InScopeNamespaces@DOMNormalizer@xercesc_3_1@@@xercesc_3_1@@UEAAXXZ 00000001800762f8 f i xerces-c_3_1:DOMNormalizer.cpp.obj
 0001:00075354       ?cleanup@?$BaseRefVectorOf@VScope@InScopeNamespaces@DOMNormalizer@xercesc_3_1@@@xercesc_3_1@@UEAAXXZ 0000000180076354 f i xerces-c_3_1:DOMNormalizer.cpp.obj
 0001:000753d4       ??0?$RefHashTableOf@UPoolElem@XMLStringPool@xercesc_3_1@@UStringHasher@3@@xercesc_3_1@@QEAA@_K_NQEAVMemoryManager@1@@Z 00000001800763d4 f i xerces-c_3_1:StringPool.cpp.obj
 0001:000753d4       ??0?$RefHashTableOf@_WUStringHasher@xercesc_3_1@@@xercesc_3_1@@QEAA@_K_NQEAVMemoryManager@1@@Z 00000001800763d4 f i xerces-c_3_1:DOMNormalizer.cpp.obj
 0001:00075480       ?removeKey@?$RefHashTableOf@_WUStringHasher@xercesc_3_1@@@xercesc_3_1@@QEAAXQEBX@Z 0000000180076480 f i xerces-c_3_1:DOMNormalizer.cpp.obj
 0001:000755f0       ?put@?$RefHashTableOf@_WUStringHasher@xercesc_3_1@@@xercesc_3_1@@QEAAXPEAXQEA_W@Z 00000001800765f0 f i xerces-c_3_1:DOMNormalizer.cpp.obj
 0001:000756b0       ??0?$RefHashTableOfEnumerator@_WUStringHasher@xercesc_3_1@@@xercesc_3_1@@QEAA@QEAV?$RefHashTableOf@_WUStringHasher@xercesc_3_1@@@1@_NQEAVMemoryManager@1@@Z 00000001800766b0 f i xerces-c_3_1:DOMNormalizer.cpp.obj
 0001:00075744       ??1?$RefHashTableOfEnumerator@_WUStringHasher@xercesc_3_1@@@xercesc_3_1@@UEAA@XZ 0000000180076744 f i xerces-c_3_1:DOMNormalizer.cpp.obj
 0001:0007578c       ?nextElementKey@?$RefHashTableOfEnumerator@VGrammar@xercesc_3_1@@UStringHasher@2@@xercesc_3_1@@QEAAPEAXXZ 000000018007678c f i xerces-c_3_1:GrammarResolver.cpp.obj
 0001:0007578c       ?nextElementKey@?$RefHashTableOfEnumerator@_WUStringHasher@xercesc_3_1@@@xercesc_3_1@@QEAAPEAXXZ 000000018007678c f i xerces-c_3_1:DOMNormalizer.cpp.obj
 0001:00075814       ??_G?$BaseRefVectorOf@VScope@InScopeNamespaces@DOMNormalizer@xercesc_3_1@@@xercesc_3_1@@UEAAPEAXI@Z 0000000180076814 f i xerces-c_3_1:DOMNormalizer.cpp.obj
 0001:00075814       ??_E?$BaseRefVectorOf@VScope@InScopeNamespaces@DOMNormalizer@xercesc_3_1@@@xercesc_3_1@@UEAAPEAXI@Z 0000000180076814 f i  CIL library: CIL module
 0001:00075844       ??_E?$RefVectorOf@VScope@InScopeNamespaces@DOMNormalizer@xercesc_3_1@@@xercesc_3_1@@UEAAPEAXI@Z 0000000180076844 f i  CIL library: CIL module
 0001:00075844       ??_G?$RefVectorOf@VScope@InScopeNamespaces@DOMNormalizer@xercesc_3_1@@@xercesc_3_1@@UEAAPEAXI@Z 0000000180076844 f i xerces-c_3_1:DOMNormalizer.cpp.obj
 0001:00075908       ??_G?$RefHashTableOfEnumerator@_WUStringHasher@xercesc_3_1@@@xercesc_3_1@@UEAAPEAXI@Z 0000000180076908 f i xerces-c_3_1:DOMNormalizer.cpp.obj
 0001:00075908       ??_E?$RefHashTableOfEnumerator@_WUStringHasher@xercesc_3_1@@@xercesc_3_1@@UEAAPEAXI@Z 0000000180076908 f i  CIL library: CIL module
 0001:00075944       ?cloneNode@DOMProcessingInstructionImpl@xercesc_3_1@@UEBAPEAVDOMNode@2@_N@Z 0000000180076944 f   xerces-c_3_1:DOMProcessingInstructionImpl.cpp.obj
 0001:00075a18       ?getNodeType@DOMProcessingInstructionImpl@xercesc_3_1@@UEBA?AW4NodeType@DOMNode@2@XZ 0000000180076a18 f   xerces-c_3_1:DOMProcessingInstructionImpl.cpp.obj
 0001:00075a20       ?getAttributes@XMLSchemaDescriptionImpl@xercesc_3_1@@UEBAPEBVXMLAttDef@2@XZ 0000000180076a20 f   xerces-c_3_1:XMLSchemaDescriptionImpl.cpp.obj
 0001:00075a20       ?getNodeName@DOMProcessingInstructionImpl@xercesc_3_1@@UEBAPEB_WXZ 0000000180076a20 f   xerces-c_3_1:DOMProcessingInstructionImpl.cpp.obj
 0001:00075a20       ?getTarget@DOMProcessingInstructionImpl@xercesc_3_1@@UEBAPEB_WXZ 0000000180076a20 f   xerces-c_3_1:DOMProcessingInstructionImpl.cpp.obj
 0001:00075a28       ?release@DOMProcessingInstructionImpl@xercesc_3_1@@UEAAXXZ 0000000180076a28 f   xerces-c_3_1:DOMProcessingInstructionImpl.cpp.obj
 0001:00075b70       ?setBaseURI@DOMProcessingInstructionImpl@xercesc_3_1@@UEAAXPEB_W@Z 0000000180076b70 f   xerces-c_3_1:DOMProcessingInstructionImpl.cpp.obj
 0001:00075bac       ?getBaseURI@DOMProcessingInstructionImpl@xercesc_3_1@@UEBAPEB_WXZ 0000000180076bac f   xerces-c_3_1:DOMProcessingInstructionImpl.cpp.obj
 0001:00075bcc       ?splitText@DOMProcessingInstructionImpl@xercesc_3_1@@QEAAPEAVDOMProcessingInstruction@2@_K@Z 0000000180076bcc f   xerces-c_3_1:DOMProcessingInstructionImpl.cpp.obj
 0001:00075d98       ?getChildNodes@DOMCommentImpl@xercesc_3_1@@UEBAPEAVDOMNodeList@2@XZ 0000000180076d98 f   xerces-c_3_1:DOMCommentImpl.cpp.obj
 0001:00075d98       ?getChildNodes@DOMNotationImpl@xercesc_3_1@@UEBAPEAVDOMNodeList@2@XZ 0000000180076d98 f   xerces-c_3_1:DOMNotationImpl.cpp.obj
 0001:00075d98       ?getChildNodes@DOMTextImpl@xercesc_3_1@@UEBAPEAVDOMNodeList@2@XZ 0000000180076d98 f   xerces-c_3_1:DOMTextImpl.cpp.obj
 0001:00075d98       ?getChildNodes@DOMProcessingInstructionImpl@xercesc_3_1@@UEBAPEAVDOMNodeList@2@XZ 0000000180076d98 f   xerces-c_3_1:DOMProcessingInstructionImpl.cpp.obj
 0001:00075d98       ?getChildNodes@DOMCDATASectionImpl@xercesc_3_1@@UEBAPEAVDOMNodeList@2@XZ 0000000180076d98 f   xerces-c_3_1:DOMCDATASectionImpl.cpp.obj
 0001:00075da0       ?getOwnerDocument@DOMNotationImpl@xercesc_3_1@@UEBAPEAVDOMDocument@2@XZ 0000000180076da0 f   xerces-c_3_1:DOMNotationImpl.cpp.obj
 0001:00075da0       ?getOwnerDocument@DOMProcessingInstructionImpl@xercesc_3_1@@UEBAPEAVDOMDocument@2@XZ 0000000180076da0 f   xerces-c_3_1:DOMProcessingInstructionImpl.cpp.obj
 0001:00075da0       ?getOwnerDocument@DOMCommentImpl@xercesc_3_1@@UEBAPEAVDOMDocument@2@XZ 0000000180076da0 f   xerces-c_3_1:DOMCommentImpl.cpp.obj
 0001:00075da0       ?getOwnerDocument@DOMCDATASectionImpl@xercesc_3_1@@UEBAPEAVDOMDocument@2@XZ 0000000180076da0 f   xerces-c_3_1:DOMCDATASectionImpl.cpp.obj
 0001:00075da0       ?getOwnerDocument@DOMTextImpl@xercesc_3_1@@UEBAPEAVDOMDocument@2@XZ 0000000180076da0 f   xerces-c_3_1:DOMTextImpl.cpp.obj
 0001:00075dac       ?getPreviousSibling@DOMTextImpl@xercesc_3_1@@UEBAPEAVDOMNode@2@XZ 0000000180076dac f   xerces-c_3_1:DOMTextImpl.cpp.obj
 0001:00075dac       ?getPreviousSibling@DOMCDATASectionImpl@xercesc_3_1@@UEBAPEAVDOMNode@2@XZ 0000000180076dac f   xerces-c_3_1:DOMCDATASectionImpl.cpp.obj
 0001:00075dac       ?getPreviousSibling@DOMCommentImpl@xercesc_3_1@@UEBAPEAVDOMNode@2@XZ 0000000180076dac f   xerces-c_3_1:DOMCommentImpl.cpp.obj
 0001:00075dac       ?getPreviousSibling@DOMProcessingInstructionImpl@xercesc_3_1@@UEBAPEAVDOMNode@2@XZ 0000000180076dac f   xerces-c_3_1:DOMProcessingInstructionImpl.cpp.obj
 0001:00075dc0       ?isEqualNode@DOMCommentImpl@xercesc_3_1@@UEBA_NPEBVDOMNode@2@@Z 0000000180076dc0 f   xerces-c_3_1:DOMCommentImpl.cpp.obj
 0001:00075dc0       ?isEqualNode@DOMProcessingInstructionImpl@xercesc_3_1@@UEBA_NPEBVDOMNode@2@@Z 0000000180076dc0 f   xerces-c_3_1:DOMProcessingInstructionImpl.cpp.obj
 0001:00075dc0       ?isEqualNode@DOMTextImpl@xercesc_3_1@@UEBA_NPEBVDOMNode@2@@Z 0000000180076dc0 f   xerces-c_3_1:DOMTextImpl.cpp.obj
 0001:00075dc0       ?isEqualNode@DOMCDATASectionImpl@xercesc_3_1@@UEBA_NPEBVDOMNode@2@@Z 0000000180076dc0 f   xerces-c_3_1:DOMCDATASectionImpl.cpp.obj
 0001:00075dc0       ?isEqualNode@DOMNotationImpl@xercesc_3_1@@UEBA_NPEBVDOMNode@2@@Z 0000000180076dc0 f   xerces-c_3_1:DOMNotationImpl.cpp.obj
 0001:00075dcc       ?setData@DOMProcessingInstructionImpl@xercesc_3_1@@UEAAXPEB_W@Z 0000000180076dcc f   xerces-c_3_1:DOMProcessingInstructionImpl.cpp.obj
 0001:00075dcc       ?setData@DOMCDATASectionImpl@xercesc_3_1@@UEAAXPEB_W@Z 0000000180076dcc f   xerces-c_3_1:DOMCDATASectionImpl.cpp.obj
 0001:00075dcc       ?setNodeValue@DOMCDATASectionImpl@xercesc_3_1@@UEAAXPEB_W@Z 0000000180076dcc f   xerces-c_3_1:DOMCDATASectionImpl.cpp.obj
 0001:00075dcc       ?setData@DOMTextImpl@xercesc_3_1@@UEAAXPEB_W@Z 0000000180076dcc f   xerces-c_3_1:DOMTextImpl.cpp.obj
 0001:00075dcc       ?setNodeValue@DOMTextImpl@xercesc_3_1@@UEAAXPEB_W@Z 0000000180076dcc f   xerces-c_3_1:DOMTextImpl.cpp.obj
 0001:00075dcc       ?setNodeValue@DOMCommentImpl@xercesc_3_1@@UEAAXPEB_W@Z 0000000180076dcc f   xerces-c_3_1:DOMCommentImpl.cpp.obj
 0001:00075dcc       ?setNodeValue@DOMProcessingInstructionImpl@xercesc_3_1@@UEAAXPEB_W@Z 0000000180076dcc f   xerces-c_3_1:DOMProcessingInstructionImpl.cpp.obj
 0001:00075dcc       ?setData@DOMCommentImpl@xercesc_3_1@@UEAAXPEB_W@Z 0000000180076dcc f   xerces-c_3_1:DOMCommentImpl.cpp.obj
 0001:00075de0       ?addOrFind@XMLStringPool@xercesc_3_1@@UEAAIQEB_W@Z 0000000180076de0 f i xerces-c_3_1:StringPool.cpp.obj
 0001:00075e28       ?getId@XMLStringPool@xercesc_3_1@@UEBAIQEB_W@Z 0000000180076e28 f i xerces-c_3_1:StringPool.cpp.obj
 0001:00075e50       ?exists@XMLStringPool@xercesc_3_1@@UEBA_NQEB_W@Z 0000000180076e50 f i xerces-c_3_1:StringPool.cpp.obj
 0001:00075f18       ?exists@XMLStringPool@xercesc_3_1@@UEBA_NI@Z 0000000180076f18 f i xerces-c_3_1:StringPool.cpp.obj
 0001:00075f2c       ?getValueForId@XMLStringPool@xercesc_3_1@@UEBAPEB_WI@Z 0000000180076f2c f i xerces-c_3_1:StringPool.cpp.obj
 0001:00075fa4       ?getStringCount@XMLStringPool@xercesc_3_1@@UEBAIXZ 0000000180076fa4 f i xerces-c_3_1:StringPool.cpp.obj
 0001:00075fac       ??0XMLStringPool@xercesc_3_1@@QEAA@IQEAVMemoryManager@1@@Z 0000000180076fac f   xerces-c_3_1:StringPool.cpp.obj
 0001:00076058       ??_EXMLStringPool@xercesc_3_1@@UEAAPEAXI@Z 0000000180077058 f i  CIL library: CIL module
 0001:00076058       ??_GXMLStringPool@xercesc_3_1@@UEAAPEAXI@Z 0000000180077058 f i xerces-c_3_1:StringPool.cpp.obj
 0001:00076094       ??1XMLStringPool@xercesc_3_1@@UEAA@XZ 0000000180077094 f   xerces-c_3_1:StringPool.cpp.obj
 0001:00076158       ?flushAll@XMLStringPool@xercesc_3_1@@UEAAXXZ 0000000180077158 f   xerces-c_3_1:StringPool.cpp.obj
 0001:000761cc       ?addNewEntry@XMLStringPool@xercesc_3_1@@AEAAIQEB_W@Z 00000001800771cc f   xerces-c_3_1:StringPool.cpp.obj
 0001:00076370       ?createObject@XMLStringPool@xercesc_3_1@@SAPEAVXSerializable@2@PEAVMemoryManager@2@@Z 0000000180077370 f   xerces-c_3_1:StringPool.cpp.obj
 0001:000763b4       ?getProtoType@XMLStringPool@xercesc_3_1@@UEBAPEAVXProtoType@2@XZ 00000001800773b4 f   xerces-c_3_1:StringPool.cpp.obj
 0001:000763bc       ?serialize@XMLStringPool@xercesc_3_1@@UEAAXAEAVXSerializeEngine@2@@Z 00000001800773bc f   xerces-c_3_1:StringPool.cpp.obj
 0001:00076468       ??0XMLStringPool@xercesc_3_1@@QEAA@QEAVMemoryManager@1@@Z 0000000180077468 f   xerces-c_3_1:StringPool.cpp.obj
 0001:00076518       ?removeAll@?$RefHashTableOf@UPoolElem@XMLStringPool@xercesc_3_1@@UStringHasher@3@@xercesc_3_1@@QEAAXXZ 0000000180077518 f i xerces-c_3_1:StringPool.cpp.obj
 0001:00076518       ?removeAll@?$RefHashTableOf@IUPtrHasher@xercesc_3_1@@@xercesc_3_1@@QEAAXXZ 0000000180077518 f i xerces-c_3_1:DGXMLScanner.cpp.obj
 0001:000765a4       ?cloneNode@XSDElementNSImpl@xercesc_3_1@@UEBAPEAVDOMNode@2@_N@Z 00000001800775a4 f   xerces-c_3_1:XSDElementNSImpl.cpp.obj
 0001:00076660       ??1DOMConfiguration@xercesc_3_1@@UEAA@XZ 0000000180077660 f i xerces-c_3_1:DOMConfigurationImpl.cpp.obj
 0001:0007666c       ??_EDOMConfiguration@xercesc_3_1@@UEAAPEAXI@Z 000000018007766c f i  CIL library: CIL module
 0001:0007666c       ??_GDOMConfiguration@xercesc_3_1@@UEAAPEAXI@Z 000000018007766c f i xerces-c_3_1:DOMConfigurationImpl.cpp.obj
 0001:00076698       ??0DOMConfigurationImpl@xercesc_3_1@@QEAA@QEAVMemoryManager@1@@Z 0000000180077698 f   xerces-c_3_1:DOMConfigurationImpl.cpp.obj
 0001:00076878       ??_EDOMConfigurationImpl@xercesc_3_1@@UEAAPEAXI@Z 0000000180077878 f i  CIL library: CIL module
 0001:00076878       ??_GDOMConfigurationImpl@xercesc_3_1@@UEAAPEAXI@Z 0000000180077878 f i xerces-c_3_1:DOMConfigurationImpl.cpp.obj
 0001:000768e0       ?setParameter@DOMConfigurationImpl@xercesc_3_1@@UEAAXPEB_WPEBX@Z 00000001800778e0 f   xerces-c_3_1:DOMConfigurationImpl.cpp.obj
 0001:000769ac       ?setParameter@DOMConfigurationImpl@xercesc_3_1@@UEAAXPEB_W_N@Z 00000001800779ac f   xerces-c_3_1:DOMConfigurationImpl.cpp.obj
 0001:00076a24       ?getParameter@DOMConfigurationImpl@xercesc_3_1@@UEBAPEBXPEB_W@Z 0000000180077a24 f   xerces-c_3_1:DOMConfigurationImpl.cpp.obj
 0001:00076a64       ?canSetParameter@DOMConfigurationImpl@xercesc_3_1@@UEBA_NPEB_WPEBX@Z 0000000180077a64 f   xerces-c_3_1:DOMConfigurationImpl.cpp.obj
 0001:00076a98       ?canSetParameter@DOMConfigurationImpl@xercesc_3_1@@UEBA_NPEB_W_N@Z 0000000180077a98 f   xerces-c_3_1:DOMConfigurationImpl.cpp.obj
 0001:00076b18       ?getFeatureFlag@DOMConfigurationImpl@xercesc_3_1@@IEBA?AW4DOMConfigurationFeature@12@PEB_W@Z 0000000180077b18 f   xerces-c_3_1:DOMConfigurationImpl.cpp.obj
 0001:00076cd4       ??1DOMNodeList@xercesc_3_1@@UEAA@XZ 0000000180077cd4 f i xerces-c_3_1:DOMDeepNodeListImpl.cpp.obj
 0001:00076ce0       ??0DOMDeepNodeListImpl@xercesc_3_1@@QEAA@PEBVDOMNode@1@PEB_W@Z 0000000180077ce0 f   xerces-c_3_1:DOMDeepNodeListImpl.cpp.obj
 0001:00076d98       ??_EDOMDeepNodeListImpl@xercesc_3_1@@UEAAPEAXI@Z 0000000180077d98 f i  CIL library: CIL module
 0001:00076d98       ??_EDOMNodeListImpl@xercesc_3_1@@UEAAPEAXI@Z 0000000180077d98 f i  CIL library: CIL module
 0001:00076d98       ??_GDOMNodeListImpl@xercesc_3_1@@UEAAPEAXI@Z 0000000180077d98 f i xerces-c_3_1:DOMNodeListImpl.cpp.obj
 0001:00076d98       ??_EDOMNodeList@xercesc_3_1@@UEAAPEAXI@Z 0000000180077d98 f i  CIL library: CIL module
 0001:00076d98       ??_GDOMNodeList@xercesc_3_1@@UEAAPEAXI@Z 0000000180077d98 f i xerces-c_3_1:DOMDeepNodeListImpl.cpp.obj
 0001:00076d98       ??_GDOMDeepNodeListImpl@xercesc_3_1@@UEAAPEAXI@Z 0000000180077d98 f i xerces-c_3_1:DOMDeepNodeListImpl.cpp.obj
 0001:00076dc4       ??0DOMDeepNodeListImpl@xercesc_3_1@@QEAA@PEBVDOMNode@1@PEB_W1@Z 0000000180077dc4 f   xerces-c_3_1:DOMDeepNodeListImpl.cpp.obj
 0001:00076eec       ?getLength@DOMDeepNodeListImpl@xercesc_3_1@@UEBA_KXZ 0000000180077eec f   xerces-c_3_1:DOMDeepNodeListImpl.cpp.obj
 0001:00076f18       ?item@DOMDeepNodeListImpl@xercesc_3_1@@UEBAPEAVDOMNode@2@_K@Z 0000000180077f18 f   xerces-c_3_1:DOMDeepNodeListImpl.cpp.obj
 0001:00076fd8       ?nextMatchingElementAfter@DOMDeepNodeListImpl@xercesc_3_1@@IEAAPEAVDOMNode@2@PEAV32@@Z 0000000180077fd8 f   xerces-c_3_1:DOMDeepNodeListImpl.cpp.obj
 0001:000771e4       ?getLength@DOMNodeListImpl@xercesc_3_1@@UEBA_KXZ 00000001800781e4 f   xerces-c_3_1:DOMNodeListImpl.cpp.obj
 0001:0007721c       ?item@DOMNodeListImpl@xercesc_3_1@@UEBAPEAVDOMNode@2@_K@Z 000000018007821c f   xerces-c_3_1:DOMNodeListImpl.cpp.obj
 0001:00077260       ??_EDOMNodeIterator@xercesc_3_1@@UEAAPEAXI@Z 0000000180078260 f i  CIL library: CIL module
 0001:00077260       ??_GDOMNodeIterator@xercesc_3_1@@UEAAPEAXI@Z 0000000180078260 f i xerces-c_3_1:DOMNodeIteratorImpl.cpp.obj
 0001:0007728c       ??_GDOMNodeIteratorImpl@xercesc_3_1@@UEAAPEAXI@Z 000000018007828c f i xerces-c_3_1:DOMNodeIteratorImpl.cpp.obj
 0001:0007728c       ??_EDOMNodeIteratorImpl@xercesc_3_1@@UEAAPEAXI@Z 000000018007828c f i  CIL library: CIL module
 0001:000772bc       ?detach@DOMNodeIteratorImpl@xercesc_3_1@@UEAAXXZ 00000001800782bc f   xerces-c_3_1:DOMNodeIteratorImpl.cpp.obj
 0001:000772dc       ?nextNode@DOMNodeIteratorImpl@xercesc_3_1@@UEAAPEAVDOMNode@2@XZ 00000001800782dc f   xerces-c_3_1:DOMNodeIteratorImpl.cpp.obj
 0001:00077388       ?previousNode@DOMNodeIteratorImpl@xercesc_3_1@@UEAAPEAVDOMNode@2@XZ 0000000180078388 f   xerces-c_3_1:DOMNodeIteratorImpl.cpp.obj
 0001:00077434       ?acceptNode@DOMNodeIteratorImpl@xercesc_3_1@@IEAA_NPEAVDOMNode@2@@Z 0000000180078434 f   xerces-c_3_1:DOMNodeIteratorImpl.cpp.obj
 0001:000774f8       ?nextNode@DOMNodeIteratorImpl@xercesc_3_1@@IEAAPEAVDOMNode@2@PEAV32@_N@Z 00000001800784f8 f   xerces-c_3_1:DOMNodeIteratorImpl.cpp.obj
 0001:000775cc       ?previousNode@DOMNodeIteratorImpl@xercesc_3_1@@IEAAPEAVDOMNode@2@PEAV32@@Z 00000001800785cc f   xerces-c_3_1:DOMNodeIteratorImpl.cpp.obj
 0001:000776a0       ?removeNode@DOMNodeIteratorImpl@xercesc_3_1@@QEAAXPEAVDOMNode@2@@Z 00000001800786a0 f   xerces-c_3_1:DOMNodeIteratorImpl.cpp.obj
 0001:00077768       ?cloneNode@DOMDocumentFragmentImpl@xercesc_3_1@@UEBAPEAVDOMNode@2@_N@Z 0000000180078768 f   xerces-c_3_1:DOMDocumentFragmentImpl.cpp.obj
 0001:00077844       ?getNodeName@DOMDocumentFragmentImpl@xercesc_3_1@@UEBAPEB_WXZ 0000000180078844 f   xerces-c_3_1:DOMDocumentFragmentImpl.cpp.obj
 0001:0007784c       ?getNodeType@DOMDocumentFragmentImpl@xercesc_3_1@@UEBA?AW4NodeType@DOMNode@2@XZ 000000018007884c f   xerces-c_3_1:DOMDocumentFragmentImpl.cpp.obj
 0001:00077854       ?release@DOMDocumentFragmentImpl@xercesc_3_1@@UEAAXXZ 0000000180078854 f   xerces-c_3_1:DOMDocumentFragmentImpl.cpp.obj
 0001:0007799c       ?getLastChild@DOMDocumentTypeImpl@xercesc_3_1@@UEBAPEAVDOMNode@2@XZ 000000018007899c f   xerces-c_3_1:DOMDocumentTypeImpl.cpp.obj
 0001:0007799c       ?getLastChild@DOMEntityReferenceImpl@xercesc_3_1@@UEBAPEAVDOMNode@2@XZ 000000018007899c f   xerces-c_3_1:DOMEntityReferenceImpl.cpp.obj
 0001:0007799c       ?getLastChild@DOMElementImpl@xercesc_3_1@@UEBAPEAVDOMNode@2@XZ 000000018007899c f   xerces-c_3_1:DOMElementImpl.cpp.obj
 0001:0007799c       ?getLastChild@DOMDocumentFragmentImpl@xercesc_3_1@@UEBAPEAVDOMNode@2@XZ 000000018007899c f   xerces-c_3_1:DOMDocumentFragmentImpl.cpp.obj
 0001:0007799c       ?getLastChild@DOMAttrImpl@xercesc_3_1@@UEBAPEAVDOMNode@2@XZ 000000018007899c f   xerces-c_3_1:DOMAttrImpl.cpp.obj
 0001:0007799c       ?getLastChild@DOMDocumentImpl@xercesc_3_1@@UEBAPEAVDOMNode@2@XZ 000000018007899c f   xerces-c_3_1:DOMDocumentImpl.cpp.obj
 0001:000779c4       ?hasChildNodes@DOMDocumentFragmentImpl@xercesc_3_1@@UEBA_NXZ 00000001800789c4 f   xerces-c_3_1:DOMDocumentFragmentImpl.cpp.obj
 0001:000779c4       ?hasChildNodes@DOMAttrImpl@xercesc_3_1@@UEBA_NXZ 00000001800789c4 f   xerces-c_3_1:DOMAttrImpl.cpp.obj
 0001:000779c4       ?hasChildNodes@DOMElementImpl@xercesc_3_1@@UEBA_NXZ 00000001800789c4 f   xerces-c_3_1:DOMElementImpl.cpp.obj
 0001:000779c4       ?hasChildNodes@DOMDocumentImpl@xercesc_3_1@@UEBA_NXZ 00000001800789c4 f   xerces-c_3_1:DOMDocumentImpl.cpp.obj
 0001:000779c4       ?hasChildNodes@DOMDocumentTypeImpl@xercesc_3_1@@UEBA_NXZ 00000001800789c4 f   xerces-c_3_1:DOMDocumentTypeImpl.cpp.obj
 0001:000779c4       ?hasChildNodes@DOMEntityReferenceImpl@xercesc_3_1@@UEBA_NXZ 00000001800789c4 f   xerces-c_3_1:DOMEntityReferenceImpl.cpp.obj
 0001:000779d0       ?replaceChild@DOMDocumentTypeImpl@xercesc_3_1@@UEAAPEAVDOMNode@2@PEAV32@0@Z 00000001800789d0 f   xerces-c_3_1:DOMDocumentTypeImpl.cpp.obj
 0001:000779d0       ?replaceChild@DOMEntityReferenceImpl@xercesc_3_1@@UEAAPEAVDOMNode@2@PEAV32@0@Z 00000001800789d0 f   xerces-c_3_1:DOMEntityReferenceImpl.cpp.obj
 0001:000779d0       ?replaceChild@DOMElementImpl@xercesc_3_1@@UEAAPEAVDOMNode@2@PEAV32@0@Z 00000001800789d0 f   xerces-c_3_1:DOMElementImpl.cpp.obj
 0001:000779d0       ?replaceChild@DOMDocumentFragmentImpl@xercesc_3_1@@UEAAPEAVDOMNode@2@PEAV32@0@Z 00000001800789d0 f   xerces-c_3_1:DOMDocumentFragmentImpl.cpp.obj
 0001:000779d0       ?replaceChild@DOMAttrImpl@xercesc_3_1@@UEAAPEAVDOMNode@2@PEAV32@0@Z 00000001800789d0 f   xerces-c_3_1:DOMAttrImpl.cpp.obj
 0001:00077a00       ?isEqualNode@DOMDocumentFragmentImpl@xercesc_3_1@@UEBA_NPEBVDOMNode@2@@Z 0000000180078a00 f   xerces-c_3_1:DOMDocumentFragmentImpl.cpp.obj
 0001:00077a00       ?isEqualNode@DOMDocumentImpl@xercesc_3_1@@UEBA_NPEBVDOMNode@2@@Z 0000000180078a00 f   xerces-c_3_1:DOMDocumentImpl.cpp.obj
 0001:00077a00       ?isEqualNode@DOMEntityReferenceImpl@xercesc_3_1@@UEBA_NPEBVDOMNode@2@@Z 0000000180078a00 f   xerces-c_3_1:DOMEntityReferenceImpl.cpp.obj
 0001:00077a00       ?isEqualNode@DOMAttrImpl@xercesc_3_1@@UEBA_NPEBVDOMNode@2@@Z 0000000180078a00 f   xerces-c_3_1:DOMAttrImpl.cpp.obj
 0001:00077a0c       ??1DOMEntityReference@xercesc_3_1@@UEAA@XZ 0000000180078a0c f i xerces-c_3_1:DOMEntityReferenceImpl.cpp.obj
 0001:00077a0c       ??1DOMAttr@xercesc_3_1@@UEAA@XZ 0000000180078a0c f i xerces-c_3_1:DOMAttrImpl.cpp.obj
 0001:00077a0c       ??1DOMCDATASection@xercesc_3_1@@UEAA@XZ 0000000180078a0c f i xerces-c_3_1:DOMCDATASectionImpl.cpp.obj
 0001:00077a0c       ??1DOMText@xercesc_3_1@@UEAA@XZ 0000000180078a0c f i xerces-c_3_1:DOMTextImpl.cpp.obj
 0001:00077a0c       ??1DOMDocumentFragment@xercesc_3_1@@UEAA@XZ 0000000180078a0c f i xerces-c_3_1:DOMDocumentFragmentImpl.cpp.obj
 0001:00077a0c       ??1DOMProcessingInstruction@xercesc_3_1@@UEAA@XZ 0000000180078a0c f i xerces-c_3_1:DOMProcessingInstructionImpl.cpp.obj
 0001:00077a0c       ??1DOMComment@xercesc_3_1@@UEAA@XZ 0000000180078a0c f i xerces-c_3_1:DOMCommentImpl.cpp.obj
 0001:00077a0c       ??1DOMElement@xercesc_3_1@@UEAA@XZ 0000000180078a0c f i xerces-c_3_1:DOMElementImpl.cpp.obj
 0001:00077a0c       ??1DOMEntity@xercesc_3_1@@UEAA@XZ 0000000180078a0c f i xerces-c_3_1:DOMEntityImpl.cpp.obj
 0001:00077a0c       ??1DOMDocumentType@xercesc_3_1@@UEAA@XZ 0000000180078a0c f i xerces-c_3_1:DOMDocumentTypeImpl.cpp.obj
 0001:00077a0c       ??1DOMNotation@xercesc_3_1@@UEAA@XZ 0000000180078a0c f i xerces-c_3_1:DOMNotationImpl.cpp.obj
 0001:00077a18       ?cloneNode@DOMCommentImpl@xercesc_3_1@@UEBAPEAVDOMNode@2@_N@Z 0000000180078a18 f   xerces-c_3_1:DOMCommentImpl.cpp.obj
 0001:00077adc       ?getNodeName@DOMCommentImpl@xercesc_3_1@@UEBAPEB_WXZ 0000000180078adc f   xerces-c_3_1:DOMCommentImpl.cpp.obj
 0001:00077ae4       ?getNodeType@DOMCommentImpl@xercesc_3_1@@UEBA?AW4NodeType@DOMNode@2@XZ 0000000180078ae4 f   xerces-c_3_1:DOMCommentImpl.cpp.obj
 0001:00077aec       ?release@DOMCommentImpl@xercesc_3_1@@UEAAXXZ 0000000180078aec f   xerces-c_3_1:DOMCommentImpl.cpp.obj
 0001:00077c30       ?splitText@DOMCommentImpl@xercesc_3_1@@QEAAPEAVDOMComment@2@_K@Z 0000000180078c30 f   xerces-c_3_1:DOMCommentImpl.cpp.obj
 0001:00077dfc       ?getParentNode@DOMDocumentTypeImpl@xercesc_3_1@@UEBAPEAVDOMNode@2@XZ 0000000180078dfc f   xerces-c_3_1:DOMDocumentTypeImpl.cpp.obj
 0001:00077dfc       ?getParentNode@DOMCDATASectionImpl@xercesc_3_1@@UEBAPEAVDOMNode@2@XZ 0000000180078dfc f   xerces-c_3_1:DOMCDATASectionImpl.cpp.obj
 0001:00077dfc       ?getParentNode@DOMEntityReferenceImpl@xercesc_3_1@@UEBAPEAVDOMNode@2@XZ 0000000180078dfc f   xerces-c_3_1:DOMEntityReferenceImpl.cpp.obj
 0001:00077dfc       ?getOwnerElement@DOMAttrImpl@xercesc_3_1@@UEBAPEAVDOMElement@2@XZ 0000000180078dfc f   xerces-c_3_1:DOMAttrImpl.cpp.obj
 0001:00077dfc       ?getParentNode@DOMCommentImpl@xercesc_3_1@@UEBAPEAVDOMNode@2@XZ 0000000180078dfc f   xerces-c_3_1:DOMCommentImpl.cpp.obj
 0001:00077dfc       ?getParentNode@DOMElementImpl@xercesc_3_1@@UEBAPEAVDOMNode@2@XZ 0000000180078dfc f   xerces-c_3_1:DOMElementImpl.cpp.obj
 0001:00077dfc       ?getParentNode@DOMTextImpl@xercesc_3_1@@UEBAPEAVDOMNode@2@XZ 0000000180078dfc f   xerces-c_3_1:DOMTextImpl.cpp.obj
 0001:00077dfc       ?getParentNode@DOMProcessingInstructionImpl@xercesc_3_1@@UEBAPEAVDOMNode@2@XZ 0000000180078dfc f   xerces-c_3_1:DOMProcessingInstructionImpl.cpp.obj
 0001:00077e10       ?removeChild@DOMCommentImpl@xercesc_3_1@@UEAAPEAVDOMNode@2@PEAV32@@Z 0000000180078e10 f   xerces-c_3_1:DOMCommentImpl.cpp.obj
 0001:00077e10       ?removeChild@DOMTextImpl@xercesc_3_1@@UEAAPEAVDOMNode@2@PEAV32@@Z 0000000180078e10 f   xerces-c_3_1:DOMTextImpl.cpp.obj
 0001:00077e10       ?removeChild@DOMCDATASectionImpl@xercesc_3_1@@UEAAPEAVDOMNode@2@PEAV32@@Z 0000000180078e10 f   xerces-c_3_1:DOMCDATASectionImpl.cpp.obj
 0001:00077e10       ?removeChild@DOMNotationImpl@xercesc_3_1@@UEAAPEAVDOMNode@2@PEAV32@@Z 0000000180078e10 f   xerces-c_3_1:DOMNotationImpl.cpp.obj
 0001:00077e10       ?removeChild@DOMProcessingInstructionImpl@xercesc_3_1@@UEAAPEAVDOMNode@2@PEAV32@@Z 0000000180078e10 f   xerces-c_3_1:DOMProcessingInstructionImpl.cpp.obj
 0001:00077e20       ?getData@DOMTextImpl@xercesc_3_1@@UEBAPEB_WXZ 0000000180078e20 f   xerces-c_3_1:DOMTextImpl.cpp.obj
 0001:00077e20       ?getData@DOMProcessingInstructionImpl@xercesc_3_1@@UEBAPEB_WXZ 0000000180078e20 f   xerces-c_3_1:DOMProcessingInstructionImpl.cpp.obj
 0001:00077e20       ?getNodeValue@DOMCDATASectionImpl@xercesc_3_1@@UEBAPEB_WXZ 0000000180078e20 f   xerces-c_3_1:DOMCDATASectionImpl.cpp.obj
 0001:00077e20       ?getData@DOMCDATASectionImpl@xercesc_3_1@@UEBAPEB_WXZ 0000000180078e20 f   xerces-c_3_1:DOMCDATASectionImpl.cpp.obj
 0001:00077e20       ?getNodeValue@DOMCommentImpl@xercesc_3_1@@UEBAPEB_WXZ 0000000180078e20 f   xerces-c_3_1:DOMCommentImpl.cpp.obj
 0001:00077e20       ?getNodeValue@DOMProcessingInstructionImpl@xercesc_3_1@@UEBAPEB_WXZ 0000000180078e20 f   xerces-c_3_1:DOMProcessingInstructionImpl.cpp.obj
 0001:00077e20       ?getData@DOMCommentImpl@xercesc_3_1@@UEBAPEB_WXZ 0000000180078e20 f   xerces-c_3_1:DOMCommentImpl.cpp.obj
 0001:00077e20       ?getNodeValue@DOMTextImpl@xercesc_3_1@@UEBAPEB_WXZ 0000000180078e20 f   xerces-c_3_1:DOMTextImpl.cpp.obj
 0001:00077e38       ?getName@XSIDCDefinition@xercesc_3_1@@UEBAPEB_WXZ 0000000180078e38 f   xerces-c_3_1:XSIDCDefinition.cpp.obj
 0001:00077e38       ?getLength@DOMTextImpl@xercesc_3_1@@UEBA_KXZ 0000000180078e38 f   xerces-c_3_1:DOMTextImpl.cpp.obj
 0001:00077e38       ?getLength@DOMCommentImpl@xercesc_3_1@@UEBA_KXZ 0000000180078e38 f   xerces-c_3_1:DOMCommentImpl.cpp.obj
 0001:00077e38       ?getLength@DOMCDATASectionImpl@xercesc_3_1@@UEBA_KXZ 0000000180078e38 f   xerces-c_3_1:DOMCDATASectionImpl.cpp.obj
 0001:00077e44       ?substringData@DOMTextImpl@xercesc_3_1@@UEBAPEB_W_K0@Z 0000000180078e44 f   xerces-c_3_1:DOMTextImpl.cpp.obj
 0001:00077e44       ?substringData@DOMCommentImpl@xercesc_3_1@@UEBAPEB_W_K0@Z 0000000180078e44 f   xerces-c_3_1:DOMCommentImpl.cpp.obj
 0001:00077e44       ?substringData@DOMCDATASectionImpl@xercesc_3_1@@UEBAPEB_W_K0@Z 0000000180078e44 f   xerces-c_3_1:DOMCDATASectionImpl.cpp.obj
 0001:00077e5c       ?insertData@DOMCDATASectionImpl@xercesc_3_1@@UEAAX_KPEB_W@Z 0000000180078e5c f   xerces-c_3_1:DOMCDATASectionImpl.cpp.obj
 0001:00077e5c       ?insertData@DOMCommentImpl@xercesc_3_1@@UEAAX_KPEB_W@Z 0000000180078e5c f   xerces-c_3_1:DOMCommentImpl.cpp.obj
 0001:00077e5c       ?insertData@DOMTextImpl@xercesc_3_1@@UEAAX_KPEB_W@Z 0000000180078e5c f   xerces-c_3_1:DOMTextImpl.cpp.obj
 0001:00077e74       ?deleteData@DOMCommentImpl@xercesc_3_1@@UEAAX_K0@Z 0000000180078e74 f   xerces-c_3_1:DOMCommentImpl.cpp.obj
 0001:00077e74       ?deleteData@DOMTextImpl@xercesc_3_1@@UEAAX_K0@Z 0000000180078e74 f   xerces-c_3_1:DOMTextImpl.cpp.obj
 0001:00077e74       ?deleteData@DOMCDATASectionImpl@xercesc_3_1@@UEAAX_K0@Z 0000000180078e74 f   xerces-c_3_1:DOMCDATASectionImpl.cpp.obj
 0001:00077e8c       ?replaceData@DOMCDATASectionImpl@xercesc_3_1@@UEAAX_K0PEB_W@Z 0000000180078e8c f   xerces-c_3_1:DOMCDATASectionImpl.cpp.obj
 0001:00077e8c       ?replaceData@DOMTextImpl@xercesc_3_1@@UEAAX_K0PEB_W@Z 0000000180078e8c f   xerces-c_3_1:DOMTextImpl.cpp.obj
 0001:00077e8c       ?replaceData@DOMCommentImpl@xercesc_3_1@@UEAAX_K0PEB_W@Z 0000000180078e8c f   xerces-c_3_1:DOMCommentImpl.cpp.obj
 0001:00077eb0       ?cloneNode@DOMNotationImpl@xercesc_3_1@@UEBAPEAVDOMNode@2@_N@Z 0000000180078eb0 f   xerces-c_3_1:DOMNotationImpl.cpp.obj
 0001:00077f80       ?getNodeType@DOMNotationImpl@xercesc_3_1@@UEBA?AW4NodeType@DOMNode@2@XZ 0000000180078f80 f   xerces-c_3_1:DOMNotationImpl.cpp.obj
 0001:00077f88       ?setPublicId@DOMNotationImpl@xercesc_3_1@@UEAAXPEB_W@Z 0000000180078f88 f   xerces-c_3_1:DOMNotationImpl.cpp.obj
 0001:00078034       ?setSystemId@DOMNotationImpl@xercesc_3_1@@UEAAXPEB_W@Z 0000000180079034 f   xerces-c_3_1:DOMNotationImpl.cpp.obj
 0001:000780e0       ?release@DOMNotationImpl@xercesc_3_1@@UEAAXXZ 00000001800790e0 f   xerces-c_3_1:DOMNotationImpl.cpp.obj
 0001:0007821c       ?setBaseURI@DOMNotationImpl@xercesc_3_1@@UEAAXPEB_W@Z 000000018007921c f   xerces-c_3_1:DOMNotationImpl.cpp.obj
 0001:00078298       ?insertBefore@DOMNotationImpl@xercesc_3_1@@UEAAPEAVDOMNode@2@PEAV32@0@Z 0000000180079298 f   xerces-c_3_1:DOMNotationImpl.cpp.obj
 0001:00078298       ?replaceChild@DOMTextImpl@xercesc_3_1@@UEAAPEAVDOMNode@2@PEAV32@0@Z 0000000180079298 f   xerces-c_3_1:DOMTextImpl.cpp.obj
 0001:00078298       ?insertBefore@DOMTextImpl@xercesc_3_1@@UEAAPEAVDOMNode@2@PEAV32@0@Z 0000000180079298 f   xerces-c_3_1:DOMTextImpl.cpp.obj
 0001:00078298       ?insertBefore@DOMProcessingInstructionImpl@xercesc_3_1@@UEAAPEAVDOMNode@2@PEAV32@0@Z 0000000180079298 f   xerces-c_3_1:DOMProcessingInstructionImpl.cpp.obj
 0001:00078298       ?appendChild@DOMTextImpl@xercesc_3_1@@UEAAPEAVDOMNode@2@PEAV32@@Z 0000000180079298 f   xerces-c_3_1:DOMTextImpl.cpp.obj
 0001:00078298       ?appendChild@DOMCommentImpl@xercesc_3_1@@UEAAPEAVDOMNode@2@PEAV32@@Z 0000000180079298 f   xerces-c_3_1:DOMCommentImpl.cpp.obj
 0001:00078298       ?replaceChild@DOMCDATASectionImpl@xercesc_3_1@@UEAAPEAVDOMNode@2@PEAV32@0@Z 0000000180079298 f   xerces-c_3_1:DOMCDATASectionImpl.cpp.obj
 0001:00078298       ?appendChild@DOMNotationImpl@xercesc_3_1@@UEAAPEAVDOMNode@2@PEAV32@@Z 0000000180079298 f   xerces-c_3_1:DOMNotationImpl.cpp.obj
 0001:00078298       ?replaceChild@DOMCommentImpl@xercesc_3_1@@UEAAPEAVDOMNode@2@PEAV32@0@Z 0000000180079298 f   xerces-c_3_1:DOMCommentImpl.cpp.obj
 0001:00078298       ?replaceChild@DOMNotationImpl@xercesc_3_1@@UEAAPEAVDOMNode@2@PEAV32@0@Z 0000000180079298 f   xerces-c_3_1:DOMNotationImpl.cpp.obj
 0001:00078298       ?replaceChild@DOMProcessingInstructionImpl@xercesc_3_1@@UEAAPEAVDOMNode@2@PEAV32@0@Z 0000000180079298 f   xerces-c_3_1:DOMProcessingInstructionImpl.cpp.obj
 0001:00078298       ?appendChild@DOMCDATASectionImpl@xercesc_3_1@@UEAAPEAVDOMNode@2@PEAV32@@Z 0000000180079298 f   xerces-c_3_1:DOMCDATASectionImpl.cpp.obj
 0001:00078298       ?appendChild@DOMProcessingInstructionImpl@xercesc_3_1@@UEAAPEAVDOMNode@2@PEAV32@@Z 0000000180079298 f   xerces-c_3_1:DOMProcessingInstructionImpl.cpp.obj
 0001:00078298       ?insertBefore@DOMCDATASectionImpl@xercesc_3_1@@UEAAPEAVDOMNode@2@PEAV32@0@Z 0000000180079298 f   xerces-c_3_1:DOMCDATASectionImpl.cpp.obj
 0001:00078298       ?insertBefore@DOMCommentImpl@xercesc_3_1@@UEAAPEAVDOMNode@2@PEAV32@0@Z 0000000180079298 f   xerces-c_3_1:DOMCommentImpl.cpp.obj
 0001:000782a8       ?setPrefix@DOMDocumentTypeImpl@xercesc_3_1@@UEAAXPEB_W@Z 00000001800792a8 f   xerces-c_3_1:DOMDocumentTypeImpl.cpp.obj
 0001:000782a8       ?setPrefix@DOMAttrImpl@xercesc_3_1@@UEAAXPEB_W@Z 00000001800792a8 f   xerces-c_3_1:DOMAttrImpl.cpp.obj
 0001:000782a8       ?setPrefix@DOMProcessingInstructionImpl@xercesc_3_1@@UEAAXPEB_W@Z 00000001800792a8 f   xerces-c_3_1:DOMProcessingInstructionImpl.cpp.obj
 0001:000782a8       ?setPrefix@DOMDocumentFragmentImpl@xercesc_3_1@@UEAAXPEB_W@Z 00000001800792a8 f   xerces-c_3_1:DOMDocumentFragmentImpl.cpp.obj
 0001:000782a8       ?setPrefix@DOMCommentImpl@xercesc_3_1@@UEAAXPEB_W@Z 00000001800792a8 f   xerces-c_3_1:DOMCommentImpl.cpp.obj
 0001:000782a8       ?setPrefix@DOMEntityReferenceImpl@xercesc_3_1@@UEAAXPEB_W@Z 00000001800792a8 f   xerces-c_3_1:DOMEntityReferenceImpl.cpp.obj
 0001:000782a8       ?setPrefix@DOMCDATASectionImpl@xercesc_3_1@@UEAAXPEB_W@Z 00000001800792a8 f   xerces-c_3_1:DOMCDATASectionImpl.cpp.obj
 0001:000782a8       ?setPrefix@DOMEntityImpl@xercesc_3_1@@UEAAXPEB_W@Z 00000001800792a8 f   xerces-c_3_1:DOMEntityImpl.cpp.obj
 0001:000782a8       ?setPrefix@DOMDocumentImpl@xercesc_3_1@@UEAAXPEB_W@Z 00000001800792a8 f   xerces-c_3_1:DOMDocumentImpl.cpp.obj
 0001:000782a8       ?setPrefix@DOMNotationImpl@xercesc_3_1@@UEAAXPEB_W@Z 00000001800792a8 f   xerces-c_3_1:DOMNotationImpl.cpp.obj
 0001:000782a8       ?setPrefix@DOMElementImpl@xercesc_3_1@@UEAAXPEB_W@Z 00000001800792a8 f   xerces-c_3_1:DOMElementImpl.cpp.obj
 0001:000782a8       ?setPrefix@DOMTextImpl@xercesc_3_1@@UEAAXPEB_W@Z 00000001800792a8 f   xerces-c_3_1:DOMTextImpl.cpp.obj
 0001:000782b8       ?compareDocumentPosition@DOMCDATASectionImpl@xercesc_3_1@@UEBAFPEBVDOMNode@2@@Z 00000001800792b8 f   xerces-c_3_1:DOMCDATASectionImpl.cpp.obj
 0001:000782b8       ?compareDocumentPosition@DOMCommentImpl@xercesc_3_1@@UEBAFPEBVDOMNode@2@@Z 00000001800792b8 f   xerces-c_3_1:DOMCommentImpl.cpp.obj
 0001:000782b8       ?compareDocumentPosition@DOMTextImpl@xercesc_3_1@@UEBAFPEBVDOMNode@2@@Z 00000001800792b8 f   xerces-c_3_1:DOMTextImpl.cpp.obj
 0001:000782b8       ?compareDocumentPosition@DOMProcessingInstructionImpl@xercesc_3_1@@UEBAFPEBVDOMNode@2@@Z 00000001800792b8 f   xerces-c_3_1:DOMProcessingInstructionImpl.cpp.obj
 0001:000782b8       ?compareDocumentPosition@DOMDocumentFragmentImpl@xercesc_3_1@@UEBAFPEBVDOMNode@2@@Z 00000001800792b8 f   xerces-c_3_1:DOMDocumentFragmentImpl.cpp.obj
 0001:000782b8       ?compareDocumentPosition@DOMDocumentImpl@xercesc_3_1@@UEBAFPEBVDOMNode@2@@Z 00000001800792b8 f   xerces-c_3_1:DOMDocumentImpl.cpp.obj
 0001:000782b8       ?compareDocumentPosition@DOMElementImpl@xercesc_3_1@@UEBAFPEBVDOMNode@2@@Z 00000001800792b8 f   xerces-c_3_1:DOMElementImpl.cpp.obj
 0001:000782b8       ?compareDocumentPosition@DOMAttrImpl@xercesc_3_1@@UEBAFPEBVDOMNode@2@@Z 00000001800792b8 f   xerces-c_3_1:DOMAttrImpl.cpp.obj
 0001:000782b8       ?compareDocumentPosition@DOMEntityImpl@xercesc_3_1@@UEBAFPEBVDOMNode@2@@Z 00000001800792b8 f   xerces-c_3_1:DOMEntityImpl.cpp.obj
 0001:000782b8       ?compareDocumentPosition@DOMNotationImpl@xercesc_3_1@@UEBAFPEBVDOMNode@2@@Z 00000001800792b8 f   xerces-c_3_1:DOMNotationImpl.cpp.obj
 0001:000782b8       ?compareDocumentPosition@DOMEntityReferenceImpl@xercesc_3_1@@UEBAFPEBVDOMNode@2@@Z 00000001800792b8 f   xerces-c_3_1:DOMEntityReferenceImpl.cpp.obj
 0001:000782b8       ?compareDocumentPosition@DOMDocumentTypeImpl@xercesc_3_1@@UEBAFPEBVDOMNode@2@@Z 00000001800792b8 f   xerces-c_3_1:DOMDocumentTypeImpl.cpp.obj
 0001:000782c4       ??1DOMXPathExpression@xercesc_3_1@@UEAA@XZ 00000001800792c4 f i xerces-c_3_1:DOMXPathExpressionImpl.cpp.obj
 0001:000782d0       ??_GDOMXPathExpression@xercesc_3_1@@UEAAPEAXI@Z 00000001800792d0 f i xerces-c_3_1:DOMXPathExpressionImpl.cpp.obj
 0001:000782d0       ??_EDOMXPathExpression@xercesc_3_1@@UEAAPEAXI@Z 00000001800792d0 f i  CIL library: CIL module
 0001:000782fc       ?getNamespaceForPrefix@WrapperForXPathNSResolver@xercesc_3_1@@UEBAIQEB_W@Z 00000001800792fc f i xerces-c_3_1:DOMXPathExpressionImpl.cpp.obj
 0001:0007837c       ??0DOMXPathExpressionImpl@xercesc_3_1@@QEAA@PEB_WPEBVDOMXPathNSResolver@1@QEAVMemoryManager@1@@Z 000000018007937c f   xerces-c_3_1:DOMXPathExpressionImpl.cpp.obj
 0001:00078594       ??_GDOMXPathExpressionImpl@xercesc_3_1@@UEAAPEAXI@Z 0000000180079594 f i xerces-c_3_1:DOMXPathExpressionImpl.cpp.obj
 0001:00078594       ??_EDOMXPathExpressionImpl@xercesc_3_1@@UEAAPEAXI@Z 0000000180079594 f i  CIL library: CIL module
 0001:000785d0       ??1DOMXPathExpressionImpl@xercesc_3_1@@UEAA@XZ 00000001800795d0 f   xerces-c_3_1:DOMXPathExpressionImpl.cpp.obj
 0001:00078608       ?cleanUp@DOMXPathExpressionImpl@xercesc_3_1@@IEAAXXZ 0000000180079608 f   xerces-c_3_1:DOMXPathExpressionImpl.cpp.obj
 0001:00078650       ?evaluate@DOMXPathExpressionImpl@xercesc_3_1@@UEBAPEAVDOMXPathResult@2@PEBVDOMNode@2@W4ResultType@32@PEAV32@@Z 0000000180079650 f   xerces-c_3_1:DOMXPathExpressionImpl.cpp.obj
 0001:00078960       ?testNode@DOMXPathExpressionImpl@xercesc_3_1@@IEBA_NPEAVXPathMatcher@2@PEAVDOMXPathResultImpl@2@PEAVDOMElement@2@@Z 0000000180079960 f   xerces-c_3_1:DOMXPathExpressionImpl.cpp.obj
 0001:00078cd0       ??_9DOMXPathResultImpl@xercesc_3_1@@$BGI@AA 0000000180079cd0 f i xerces-c_3_1:DOMXPathExpressionImpl.cpp.obj
 0001:00078cd8       ??_EDOMRange@xercesc_3_1@@UEAAPEAXI@Z 0000000180079cd8 f i  CIL library: CIL module
 0001:00078cd8       ??_GDOMRangeImpl@xercesc_3_1@@UEAAPEAXI@Z 0000000180079cd8 f i xerces-c_3_1:DOMRangeImpl.cpp.obj
 0001:00078cd8       ??_EDOMRangeImpl@xercesc_3_1@@UEAAPEAXI@Z 0000000180079cd8 f i  CIL library: CIL module
 0001:00078cd8       ??_GDOMRange@xercesc_3_1@@UEAAPEAXI@Z 0000000180079cd8 f i xerces-c_3_1:DOMRangeImpl.cpp.obj
 0001:00078d04       ?getStartContainer@DOMRangeImpl@xercesc_3_1@@UEBAPEAVDOMNode@2@XZ 0000000180079d04 f   xerces-c_3_1:DOMRangeImpl.cpp.obj
 0001:00078d40       ?getStartOffset@DOMRangeImpl@xercesc_3_1@@UEBA_KXZ 0000000180079d40 f   xerces-c_3_1:DOMRangeImpl.cpp.obj
 0001:00078d7c       ?getEndContainer@DOMRangeImpl@xercesc_3_1@@UEBAPEAVDOMNode@2@XZ 0000000180079d7c f   xerces-c_3_1:DOMRangeImpl.cpp.obj
 0001:00078db8       ?getEndOffset@DOMRangeImpl@xercesc_3_1@@UEBA_KXZ 0000000180079db8 f   xerces-c_3_1:DOMRangeImpl.cpp.obj
 0001:00078df4       ?getCollapsed@DOMRangeImpl@xercesc_3_1@@UEBA_NXZ 0000000180079df4 f   xerces-c_3_1:DOMRangeImpl.cpp.obj
 0001:00078e48       ?setStart@DOMRangeImpl@xercesc_3_1@@UEAAXPEBVDOMNode@2@_K@Z 0000000180079e48 f   xerces-c_3_1:DOMRangeImpl.cpp.obj
 0001:00078f3c       ?setEnd@DOMRangeImpl@xercesc_3_1@@UEAAXPEBVDOMNode@2@_K@Z 0000000180079f3c f   xerces-c_3_1:DOMRangeImpl.cpp.obj
 0001:00079030       ?setStartBefore@DOMRangeImpl@xercesc_3_1@@UEAAXPEBVDOMNode@2@@Z 000000018007a030 f   xerces-c_3_1:DOMRangeImpl.cpp.obj
 0001:000791c0       ?setStartAfter@DOMRangeImpl@xercesc_3_1@@UEAAXPEBVDOMNode@2@@Z 000000018007a1c0 f   xerces-c_3_1:DOMRangeImpl.cpp.obj
 0001:00079340       ?setEndBefore@DOMRangeImpl@xercesc_3_1@@UEAAXPEBVDOMNode@2@@Z 000000018007a340 f   xerces-c_3_1:DOMRangeImpl.cpp.obj
 0001:000794cc       ?setEndAfter@DOMRangeImpl@xercesc_3_1@@UEAAXPEBVDOMNode@2@@Z 000000018007a4cc f   xerces-c_3_1:DOMRangeImpl.cpp.obj
 0001:0007964c       ?detach@DOMRangeImpl@xercesc_3_1@@UEAAXXZ 000000018007a64c f   xerces-c_3_1:DOMRangeImpl.cpp.obj
 0001:000796c4       ?collapse@DOMRangeImpl@xercesc_3_1@@UEAAX_N@Z 000000018007a6c4 f   xerces-c_3_1:DOMRangeImpl.cpp.obj
 0001:00079724       ?selectNode@DOMRangeImpl@xercesc_3_1@@UEAAXPEBVDOMNode@2@@Z 000000018007a724 f   xerces-c_3_1:DOMRangeImpl.cpp.obj
 0001:00079854       ?selectNodeContents@DOMRangeImpl@xercesc_3_1@@UEAAXPEBVDOMNode@2@@Z 000000018007a854 f   xerces-c_3_1:DOMRangeImpl.cpp.obj
 0001:0007991c       ?surroundContents@DOMRangeImpl@xercesc_3_1@@UEAAXPEAVDOMNode@2@@Z 000000018007a91c f   xerces-c_3_1:DOMRangeImpl.cpp.obj
 0001:00079ae4       ?compareBoundaryPoints@DOMRangeImpl@xercesc_3_1@@UEBAFW4CompareHow@DOMRange@2@PEBV42@@Z 000000018007aae4 f   xerces-c_3_1:DOMRangeImpl.cpp.obj
 0001:00079d8c       ?deleteContents@DOMRangeImpl@xercesc_3_1@@UEAAXXZ 000000018007ad8c f   xerces-c_3_1:DOMRangeImpl.cpp.obj
 0001:00079d98       ?extractContents@DOMRangeImpl@xercesc_3_1@@UEAAPEAVDOMDocumentFragment@2@XZ 000000018007ad98 f   xerces-c_3_1:DOMRangeImpl.cpp.obj
 0001:00079f38       ?cloneContents@DOMRangeImpl@xercesc_3_1@@UEBAPEAVDOMDocumentFragment@2@XZ 000000018007af38 f   xerces-c_3_1:DOMRangeImpl.cpp.obj
 0001:00079f44       ?insertNode@DOMRangeImpl@xercesc_3_1@@UEAAXPEAVDOMNode@2@@Z 000000018007af44 f   xerces-c_3_1:DOMRangeImpl.cpp.obj
 0001:0007a190       ?cloneRange@DOMRangeImpl@xercesc_3_1@@UEBAPEAVDOMRange@2@XZ 000000018007b190 f   xerces-c_3_1:DOMRangeImpl.cpp.obj
 0001:0007a20c       ?toString@DOMRangeImpl@xercesc_3_1@@UEBAPEB_WXZ 000000018007b20c f   xerces-c_3_1:DOMRangeImpl.cpp.obj
 0001:0007a78c       ?getCommonAncestorContainer@DOMRangeImpl@xercesc_3_1@@UEBAPEBVDOMNode@2@XZ 000000018007b78c f   xerces-c_3_1:DOMRangeImpl.cpp.obj
 0001:0007a79c       ?release@DOMRangeImpl@xercesc_3_1@@UEAAXXZ 000000018007b79c f   xerces-c_3_1:DOMRangeImpl.cpp.obj
 0001:0007a7a8       ?hasLegalRootContainer@DOMRangeImpl@xercesc_3_1@@IEBA_NPEBVDOMNode@2@@Z 000000018007b7a8 f   xerces-c_3_1:DOMRangeImpl.cpp.obj
 0001:0007a7f4       ?isLegalContainedNode@DOMRangeImpl@xercesc_3_1@@IEBA_NPEBVDOMNode@2@@Z 000000018007b7f4 f   xerces-c_3_1:DOMRangeImpl.cpp.obj
 0001:0007a828       ?indexOf@DOMRangeImpl@xercesc_3_1@@IEBA_KPEBVDOMNode@2@0@Z 000000018007b828 f   xerces-c_3_1:DOMRangeImpl.cpp.obj
 0001:0007a880       ?validateNode@DOMRangeImpl@xercesc_3_1@@IEBAXPEBVDOMNode@2@@Z 000000018007b880 f   xerces-c_3_1:DOMRangeImpl.cpp.obj
 0001:0007a930       ?commonAncestorOf@DOMRangeImpl@xercesc_3_1@@IEBAPEBVDOMNode@2@PEBV32@0@Z 000000018007b930 f   xerces-c_3_1:DOMRangeImpl.cpp.obj
 0001:0007ab08       ?checkIndex@DOMRangeImpl@xercesc_3_1@@IEBAXPEBVDOMNode@2@_K@Z 000000018007bb08 f   xerces-c_3_1:DOMRangeImpl.cpp.obj
 0001:0007ac08       ?nextNode@DOMRangeImpl@xercesc_3_1@@IEBAPEAVDOMNode@2@PEBV32@_N@Z 000000018007bc08 f   xerces-c_3_1:DOMRangeImpl.cpp.obj
 0001:0007ac70       ?traverseContents@DOMRangeImpl@xercesc_3_1@@IEAAPEAVDOMDocumentFragment@2@W4TraversalType@12@@Z 000000018007bc70 f   xerces-c_3_1:DOMRangeImpl.cpp.obj
 0001:0007aed8       ?traverseSameContainer@DOMRangeImpl@xercesc_3_1@@IEAAPEAVDOMDocumentFragment@2@H@Z 000000018007bed8 f   xerces-c_3_1:DOMRangeImpl.cpp.obj
 0001:0007b100       ?traverseCommonStartContainer@DOMRangeImpl@xercesc_3_1@@IEAAPEAVDOMDocumentFragment@2@PEAVDOMNode@2@H@Z 000000018007c100 f   xerces-c_3_1:DOMRangeImpl.cpp.obj
 0001:0007b200       ?traverseCommonEndContainer@DOMRangeImpl@xercesc_3_1@@IEAAPEAVDOMDocumentFragment@2@PEAVDOMNode@2@H@Z 000000018007c200 f   xerces-c_3_1:DOMRangeImpl.cpp.obj
 0001:0007b2f8       ?traverseRightBoundary@DOMRangeImpl@xercesc_3_1@@IEAAPEAVDOMNode@2@PEAV32@H@Z 000000018007c2f8 f   xerces-c_3_1:DOMRangeImpl.cpp.obj
 0001:0007b450       ?traverseLeftBoundary@DOMRangeImpl@xercesc_3_1@@IEAAPEAVDOMNode@2@PEAV32@H@Z 000000018007c450 f   xerces-c_3_1:DOMRangeImpl.cpp.obj
 0001:0007b5b8       ?traverseNode@DOMRangeImpl@xercesc_3_1@@IEAAPEAVDOMNode@2@PEAV32@_N1H@Z 000000018007c5b8 f   xerces-c_3_1:DOMRangeImpl.cpp.obj
 0001:0007b658       ?traverseFullySelected@DOMRangeImpl@xercesc_3_1@@IEAAPEAVDOMNode@2@PEAV32@H@Z 000000018007c658 f   xerces-c_3_1:DOMRangeImpl.cpp.obj
 0001:0007b69c       ?traverseTextNode@DOMRangeImpl@xercesc_3_1@@IEAAPEAVDOMNode@2@PEAV32@_NH@Z 000000018007c69c f   xerces-c_3_1:DOMRangeImpl.cpp.obj
 0001:0007bb1c       ?getSelectedNode@DOMRangeImpl@xercesc_3_1@@IEAAPEAVDOMNode@2@PEAV32@H@Z 000000018007cb1c f   xerces-c_3_1:DOMRangeImpl.cpp.obj
 0001:0007bb84       ?recurseTreeAndCheck@DOMRangeImpl@xercesc_3_1@@IEAAXPEAVDOMNode@2@0@Z 000000018007cb84 f   xerces-c_3_1:DOMRangeImpl.cpp.obj
 0001:0007bc54       ?updateRangeForDeletedText@DOMRangeImpl@xercesc_3_1@@QEAAXPEAVDOMNode@2@_K1@Z 000000018007cc54 f   xerces-c_3_1:DOMRangeImpl.cpp.obj
 0001:0007bd2c       ?updateRangeForDeletedNode@DOMRangeImpl@xercesc_3_1@@QEAAXPEAVDOMNode@2@@Z 000000018007cd2c f   xerces-c_3_1:DOMRangeImpl.cpp.obj
 0001:0007beb0       ?updateSplitInfo@DOMRangeImpl@xercesc_3_1@@QEAAXPEAVDOMNode@2@0_K@Z 000000018007ceb0 f   xerces-c_3_1:DOMRangeImpl.cpp.obj
 0001:0007bf68       ??6xercesc_3_1@@YAAEAVXSerializeEngine@0@AEAV10@QEAVXSerializable@0@@Z 000000018007cf68 f i xerces-c_3_1:ComplexTypeInfo.cpp.obj
 0001:0007c054       ??1XMLContentModel@xercesc_3_1@@UEAA@XZ 000000018007d054 f i xerces-c_3_1:ComplexTypeInfo.cpp.obj
 0001:0007c060       ??_EXMLContentModel@xercesc_3_1@@UEAAPEAXI@Z 000000018007d060 f i  CIL library: CIL module
 0001:0007c060       ??_GXMLContentModel@xercesc_3_1@@UEAAPEAXI@Z 000000018007d060 f i xerces-c_3_1:ComplexTypeInfo.cpp.obj
 0001:0007c090       ?setTypeName@ComplexTypeInfo@xercesc_3_1@@QEAAXQEB_W@Z 000000018007d090 f i xerces-c_3_1:ComplexTypeInfo.cpp.obj
 0001:0007c1f8       ??_GContentSpecNode@xercesc_3_1@@UEAAPEAXI@Z 000000018007d1f8 f i xerces-c_3_1:ComplexTypeInfo.cpp.obj
 0001:0007c1f8       ??_EContentSpecNode@xercesc_3_1@@UEAAPEAXI@Z 000000018007d1f8 f i  CIL library: CIL module
 0001:0007c234       ??0SimpleContentModel@xercesc_3_1@@QEAA@_NQEAVQName@1@1W4NodeTypes@ContentSpecNode@1@QEAVMemoryManager@1@@Z 000000018007d234 f i xerces-c_3_1:ComplexTypeInfo.cpp.obj
 0001:0007c36c       ??_ESimpleContentModel@xercesc_3_1@@UEAAPEAXI@Z 000000018007d36c f i  CIL library: CIL module
 0001:0007c36c       ??_GSimpleContentModel@xercesc_3_1@@UEAAPEAXI@Z 000000018007d36c f i xerces-c_3_1:ComplexTypeInfo.cpp.obj
 0001:0007c3e8       ?initializeComplexTypeInfo@XMLInitializer@xercesc_3_1@@CAXXZ 000000018007d3e8 f   xerces-c_3_1:ComplexTypeInfo.cpp.obj
 0001:0007c654       ??0ComplexTypeInfo@xercesc_3_1@@QEAA@QEAVMemoryManager@1@@Z 000000018007d654 f   xerces-c_3_1:ComplexTypeInfo.cpp.obj
 0001:0007c7f8       ??_GComplexTypeInfo@xercesc_3_1@@UEAAPEAXI@Z 000000018007d7f8 f i xerces-c_3_1:ComplexTypeInfo.cpp.obj
 0001:0007c7f8       ??_EComplexTypeInfo@xercesc_3_1@@UEAAPEAXI@Z 000000018007d7f8 f i  CIL library: CIL module
 0001:0007c934       ??_G?$RefHash2KeysTableOf@VSchemaAttDef@xercesc_3_1@@UStringHasher@2@@xercesc_3_1@@QEAAPEAXI@Z 000000018007d934 f i xerces-c_3_1:ComplexTypeInfo.cpp.obj
 0001:0007c9e8       ?addAttDef@ComplexTypeInfo@xercesc_3_1@@QEAAXQEAVSchemaAttDef@2@@Z 000000018007d9e8 f   xerces-c_3_1:ComplexTypeInfo.cpp.obj
 0001:0007ca8c       ?setContentSpec@ComplexTypeInfo@xercesc_3_1@@QEAAXQEAVContentSpecNode@2@@Z 000000018007da8c f   xerces-c_3_1:ComplexTypeInfo.cpp.obj
 0001:0007cac4       ?formatContentModel@ComplexTypeInfo@xercesc_3_1@@AEBAPEA_WXZ 000000018007dac4 f   xerces-c_3_1:ComplexTypeInfo.cpp.obj
 0001:0007cc30       ?useRepeatingLeafNodes@ComplexTypeInfo@xercesc_3_1@@AEAA_NPEAVContentSpecNode@2@@Z 000000018007dc30 f   xerces-c_3_1:ComplexTypeInfo.cpp.obj
 0001:0007cce4       ?makeContentModel@ComplexTypeInfo@xercesc_3_1@@AEAAPEAVXMLContentModel@2@_N@Z 000000018007dce4 f   xerces-c_3_1:ComplexTypeInfo.cpp.obj
 0001:0007d2b0       ?convertContentSpecTree@ComplexTypeInfo@xercesc_3_1@@AEAAPEAVContentSpecNode@2@QEAV32@_N1@Z 000000018007e2b0 f   xerces-c_3_1:ComplexTypeInfo.cpp.obj
 0001:0007d418       ?expandContentModel@ComplexTypeInfo@xercesc_3_1@@AEAAPEAVContentSpecNode@2@QEAV32@HH_N@Z 000000018007e418 f   xerces-c_3_1:ComplexTypeInfo.cpp.obj
 0001:0007dad4       ?resizeContentSpecOrgURI@ComplexTypeInfo@xercesc_3_1@@AEAAXXZ 000000018007ead4 f   xerces-c_3_1:ComplexTypeInfo.cpp.obj
 0001:0007db78       ?createObject@ComplexTypeInfo@xercesc_3_1@@SAPEAVXSerializable@2@PEAVMemoryManager@2@@Z 000000018007eb78 f   xerces-c_3_1:ComplexTypeInfo.cpp.obj
 0001:0007dbbc       ?getProtoType@ComplexTypeInfo@xercesc_3_1@@UEBAPEAVXProtoType@2@XZ 000000018007ebbc f   xerces-c_3_1:ComplexTypeInfo.cpp.obj
 0001:0007dbc4       ?serialize@ComplexTypeInfo@xercesc_3_1@@UEAAXAEAVXSerializeEngine@2@@Z 000000018007ebc4 f   xerces-c_3_1:ComplexTypeInfo.cpp.obj
 0001:0007debc       ??0?$RefHash2KeysTableOf@VSchemaAttDef@xercesc_3_1@@UStringHasher@2@@xercesc_3_1@@QEAA@_K_NQEAVMemoryManager@1@@Z 000000018007eebc f i xerces-c_3_1:ComplexTypeInfo.cpp.obj
 0001:0007df5c       ??1?$Janitor@VContentSpecNode@xercesc_3_1@@@xercesc_3_1@@QEAA@XZ 000000018007ef5c f i xerces-c_3_1:ComplexTypeInfo.cpp.obj
 0001:0007df70       ?getDataType@XSValue@xercesc_3_1@@SA?AW4DataType@12@QEB_W@Z 000000018007ef70 f   xerces-c_3_1:XSValue.cpp.obj
 0001:0007e0b0       ?initializeRegistry@XSValue@xercesc_3_1@@CAXXZ 000000018007f0b0 f   xerces-c_3_1:XSValue.cpp.obj
 0001:0007e53c       ?getActValNumerics@XSValue@xercesc_3_1@@CAPEAV12@QEB_WW4DataType@12@AEAW4Status@12@_NQEAVMemoryManager@2@@Z 000000018007f53c f   xerces-c_3_1:XSValue.cpp.obj
 0001:0007e834       ?getActValDateTimes@XSValue@xercesc_3_1@@CAPEAV12@QEB_WW4DataType@12@AEAW4Status@12@QEAVMemoryManager@2@@Z 000000018007f834 f   xerces-c_3_1:XSValue.cpp.obj
 0001:0007ea64       ?getActValStrings@XSValue@xercesc_3_1@@CAPEAV12@QEB_WW4DataType@12@AEAW4Status@12@W4XMLVersion@12@_NQEAVMemoryManager@2@@Z 000000018007fa64 f   xerces-c_3_1:XSValue.cpp.obj
 0001:0007edbc       ?getActualNumericValue@XSValue@xercesc_3_1@@CA_NQEB_WAEAW4Status@12@AEATt_value@12@QEAVMemoryManager@2@W4DataType@12@@Z 000000018007fdbc f   xerces-c_3_1:XSValue.cpp.obj
 0001:0007efec       ?put@?$ValueHashTableOf@W4DataType@XSValue@xercesc_3_1@@UStringHasher@3@@xercesc_3_1@@QEAAXPEAXAEBW4DataType@XSValue@2@@Z 000000018007ffec f i xerces-c_3_1:XSValue.cpp.obj
 0001:0007f094       ?findBucketElem@?$ValueHashTableOf@IUStringHasher@xercesc_3_1@@@xercesc_3_1@@AEAAPEAU?$ValueHashTableBucketElem@I@2@QEBXAEA_K@Z 0000000180080094 f i xerces-c_3_1:DOMLSParserImpl.cpp.obj
 0001:0007f094       ?findBucketElem@?$ValueHashTableOf@_WUStringHasher@xercesc_3_1@@@xercesc_3_1@@AEAAPEAU?$ValueHashTableBucketElem@_W@2@QEBXAEA_K@Z 0000000180080094 f i xerces-c_3_1:WFXMLScanner.cpp.obj
 0001:0007f094       ?findBucketElem@?$ValueHashTableOf@GUStringHasher@xercesc_3_1@@@xercesc_3_1@@AEAAPEAU?$ValueHashTableBucketElem@G@2@QEBXAEA_K@Z 0000000180080094 f i xerces-c_3_1:GeneralAttributeCheck.cpp.obj
 0001:0007f094       ?findBucketElem@?$ValueHashTableOf@W4DataType@XSValue@xercesc_3_1@@UStringHasher@3@@xercesc_3_1@@AEAAPEAU?$ValueHashTableBucketElem@W4DataType@XSValue@xercesc_3_1@@@2@QEBXAEA_K@Z 0000000180080094 f i xerces-c_3_1:XSValue.cpp.obj
 0001:0007f164       ?initialize@GeneralAttributeCheck@xercesc_3_1@@CAXXZ 0000000180080164 f   xerces-c_3_1:GeneralAttributeCheck.cpp.obj
 0001:0007f834       ??1GeneralAttributeCheck@xercesc_3_1@@QEAA@XZ 0000000180080834 f   xerces-c_3_1:GeneralAttributeCheck.cpp.obj
 0001:0007f848       ?checkAttributes@GeneralAttributeCheck@xercesc_3_1@@QEAAXQEBVDOMElement@2@GQEAVTraverseSchema@2@_NQEAV?$ValueVectorOf@PEAVDOMNode@xercesc_3_1@@@2@@Z 0000000180080848 f   xerces-c_3_1:GeneralAttributeCheck.cpp.obj
 0001:0007fcf8       ?validate@GeneralAttributeCheck@xercesc_3_1@@AEAAXQEBVDOMElement@2@QEB_W1FQEAVTraverseSchema@2@@Z 0000000180080cf8 f   xerces-c_3_1:GeneralAttributeCheck.cpp.obj
 0001:00080280       ??0?$ValueHashTableOf@GUStringHasher@xercesc_3_1@@@xercesc_3_1@@QEAA@_KQEAVMemoryManager@1@@Z 0000000180081280 f i xerces-c_3_1:GeneralAttributeCheck.cpp.obj
 0001:00080330       ?get@?$ValueHashTableOf@GUStringHasher@xercesc_3_1@@@xercesc_3_1@@QEAAAEAGQEBXQEAVMemoryManager@2@@Z 0000000180081330 f i xerces-c_3_1:GeneralAttributeCheck.cpp.obj
 0001:000803a4       ?addElement@?$ValueVectorOf@PEAVDatatypeValidator@xercesc_3_1@@@xercesc_3_1@@QEAAXAEBQEAVDatatypeValidator@2@@Z 00000001800813a4 f i xerces-c_3_1:ValueStore.cpp.obj
 0001:000803a4       ?addElement@?$ValueVectorOf@PEAVXMLAttr@xercesc_3_1@@@xercesc_3_1@@QEAAXAEBQEAVXMLAttr@2@@Z 00000001800813a4 f i xerces-c_3_1:DGXMLScanner.cpp.obj
 0001:000803a4       ?addElement@?$ValueVectorOf@PEA_W@xercesc_3_1@@QEAAXAEBQEA_W@Z 00000001800813a4 f i xerces-c_3_1:GrammarResolver.cpp.obj
 0001:000803a4       ?addElement@?$ValueVectorOf@PEBVDOMElement@xercesc_3_1@@@xercesc_3_1@@QEAAXAEBQEBVDOMElement@2@@Z 00000001800813a4 f i xerces-c_3_1:TraverseSchema.cpp.obj
 0001:000803a4       ?push@?$ValueStackOf@PEAVComplexTypeInfo@xercesc_3_1@@@xercesc_3_1@@QEAAXAEBQEAVComplexTypeInfo@2@@Z 00000001800813a4 f i xerces-c_3_1:SchemaValidator.cpp.obj
 0001:000803a4       ?addElement@?$ValueVectorOf@PEAVQName@xercesc_3_1@@@xercesc_3_1@@QEAAXAEBQEAVQName@2@@Z 00000001800813a4 f i xerces-c_3_1:MixedContentModel.cpp.obj
 0001:000803a4       ?addElement@?$ValueVectorOf@_K@xercesc_3_1@@QEAAXAEB_K@Z 00000001800813a4 f i xerces-c_3_1:WFXMLScanner.cpp.obj
 0001:000803a4       ?addElement@?$ValueVectorOf@PEAUPrefMapElem@xercesc_3_1@@@xercesc_3_1@@QEAAXAEBQEAUPrefMapElem@2@@Z 00000001800813a4 f i xerces-c_3_1:ElemStack.cpp.obj
 0001:000803a4       ?addElement@?$ValueVectorOf@PEAVDOMNode@xercesc_3_1@@@xercesc_3_1@@QEAAXAEBQEAVDOMNode@2@@Z 00000001800813a4 f i xerces-c_3_1:GeneralAttributeCheck.cpp.obj
 0001:000803a4       ?addElement@?$ValueVectorOf@PEAX@xercesc_3_1@@QEAAXAEBQEAX@Z 00000001800813a4 f i xerces-c_3_1:XSerializeEngine.cpp.obj
 0001:000803a4       ?addElement@?$ValueVectorOf@PEAVSchemaGrammar@xercesc_3_1@@@xercesc_3_1@@QEAAXAEBQEAVSchemaGrammar@2@@Z 00000001800813a4 f i xerces-c_3_1:GrammarResolver.cpp.obj
 0001:000803a4       ?addElement@?$ValueVectorOf@PEAVSchemaElementDecl@xercesc_3_1@@@xercesc_3_1@@QEAAXAEBQEAVSchemaElementDecl@2@@Z 00000001800813a4 f i xerces-c_3_1:XTemplateSerializer.cpp.obj
 0001:000803a4       ?addElement@?$ValueVectorOf@PEAVIC_Field@xercesc_3_1@@@xercesc_3_1@@QEAAXAEBQEAVIC_Field@2@@Z 00000001800813a4 f i xerces-c_3_1:ValueStore.cpp.obj
 0001:000803a4       ?addElement@?$ValueVectorOf@PEAVXercesAttGroupInfo@xercesc_3_1@@@xercesc_3_1@@QEAAXAEBQEAVXercesAttGroupInfo@2@@Z 00000001800813a4 f i xerces-c_3_1:TraverseSchema.cpp.obj
 0001:000803a4       ?addElement@?$ValueVectorOf@PEAVContentSpecNode@xercesc_3_1@@@xercesc_3_1@@QEAAXAEBQEAVContentSpecNode@2@@Z 00000001800813a4 f i xerces-c_3_1:ContentSpecNode.cpp.obj
 0001:00080498       ?isSubstitutableBy@DatatypeValidator@xercesc_3_1@@UEAA_NQEBV12@@Z 0000000180081498 f i xerces-c_3_1:DatatypeValidatorFactory.cpp.obj
 0001:000804b0       ??_GBooleanDatatypeValidator@xercesc_3_1@@UEAAPEAXI@Z 00000001800814b0 f i xerces-c_3_1:DatatypeValidatorFactory.cpp.obj
 0001:000804b0       ??_EBooleanDatatypeValidator@xercesc_3_1@@UEAAPEAXI@Z 00000001800814b0 f i  CIL library: CIL module
 0001:000804f0       ?newInstance@BooleanDatatypeValidator@xercesc_3_1@@UEAAPEAVDatatypeValidator@2@QEAV?$RefHashTableOf@VKVStringPair@xercesc_3_1@@UStringHasher@2@@2@QEAV?$RefArrayVectorOf@_W@2@HQEAVMemoryManager@2@@Z 00000001800814f0 f i xerces-c_3_1:DatatypeValidatorFactory.cpp.obj
 0001:00080578       ??_EDatatypeValidatorFactory@xercesc_3_1@@UEAAPEAXI@Z 0000000180081578 f i  CIL library: CIL module
 0001:00080578       ??_GDatatypeValidatorFactory@xercesc_3_1@@UEAAPEAXI@Z 0000000180081578 f i xerces-c_3_1:DatatypeValidatorFactory.cpp.obj
 0001:000805b4       ??1DatatypeValidatorFactory@xercesc_3_1@@UEAA@XZ 00000001800815b4 f   xerces-c_3_1:DatatypeValidatorFactory.cpp.obj
 0001:00080624       ?expandRegistryToFullSchemaSet@DatatypeValidatorFactory@xercesc_3_1@@AEAAXXZ 0000000180081624 f   xerces-c_3_1:DatatypeValidatorFactory.cpp.obj
 0001:00082114       ?initCanRepRegistory@DatatypeValidatorFactory@xercesc_3_1@@QEAAXXZ 0000000180083114 f   xerces-c_3_1:DatatypeValidatorFactory.cpp.obj
 0001:00082470       ?createDatatypeValidator@DatatypeValidatorFactory@xercesc_3_1@@QEAAPEAVDatatypeValidator@2@QEB_WQEAV32@QEAV?$RefHashTableOf@VKVStringPair@xercesc_3_1@@UStringHasher@2@@2@QEAV?$RefArrayVectorOf@_W@2@_NH4QEAVMemoryManager@2@@Z 0000000180083470 f   xerces-c_3_1:DatatypeValidatorFactory.cpp.obj
 0001:000828cc       ?createDatatypeValidator@DatatypeValidatorFactory@xercesc_3_1@@QEAAPEAVDatatypeValidator@2@QEB_WQEAV?$RefVectorOf@VDatatypeValidator@xercesc_3_1@@@2@H_NQEAVMemoryManager@2@@Z 00000001800838cc f   xerces-c_3_1:DatatypeValidatorFactory.cpp.obj
 0001:00082b9c       ?createObject@DatatypeValidatorFactory@xercesc_3_1@@SAPEAVXSerializable@2@PEAVMemoryManager@2@@Z 0000000180083b9c f   xerces-c_3_1:DatatypeValidatorFactory.cpp.obj
 0001:00082bd8       ?getProtoType@DatatypeValidatorFactory@xercesc_3_1@@UEBAPEAVXProtoType@2@XZ 0000000180083bd8 f   xerces-c_3_1:DatatypeValidatorFactory.cpp.obj
 0001:00082be0       ?serialize@DatatypeValidatorFactory@xercesc_3_1@@UEAAXAEAVXSerializeEngine@2@@Z 0000000180083be0 f   xerces-c_3_1:DatatypeValidatorFactory.cpp.obj
 0001:00082bf8       ?put@?$RefHashTableOf@VXMLCanRepGroup@xercesc_3_1@@UPtrHasher@2@@xercesc_3_1@@QEAAXPEAXQEAVXMLCanRepGroup@2@@Z 0000000180083bf8 f i xerces-c_3_1:DatatypeValidatorFactory.cpp.obj
 0001:00082cdc       ??0?$RefHashTableOf@VKVStringPair@xercesc_3_1@@UStringHasher@2@@xercesc_3_1@@QEAA@_KQEAVMemoryManager@1@@Z 0000000180083cdc f i xerces-c_3_1:DatatypeValidatorFactory.cpp.obj
 0001:00082d14       ?removeKey@?$RefHashTableOf@VKVStringPair@xercesc_3_1@@UStringHasher@2@@xercesc_3_1@@QEAAXQEBX@Z 0000000180083d14 f i xerces-c_3_1:DatatypeValidatorFactory.cpp.obj
 0001:00082e70       ??1?$Janitor@V?$RefHashTableOf@VKVStringPair@xercesc_3_1@@UStringHasher@2@@xercesc_3_1@@@xercesc_3_1@@QEAA@XZ 0000000180083e70 f i xerces-c_3_1:DatatypeValidatorFactory.cpp.obj
 0001:00082e90       ??1XSDErrorReporter@xercesc_3_1@@UEAA@XZ 0000000180083e90 f i xerces-c_3_1:XSDErrorReporter.cpp.obj
 0001:00082e9c       ??_GXSDErrorReporter@xercesc_3_1@@UEAAPEAXI@Z 0000000180083e9c f i xerces-c_3_1:XSDErrorReporter.cpp.obj
 0001:00082e9c       ??_EXSDErrorReporter@xercesc_3_1@@UEAAPEAXI@Z 0000000180083e9c f i  CIL library: CIL module
 0001:00082ecc       ?emitError@XSDErrorReporter@xercesc_3_1@@QEAAXIQEB_WQEBVLocator@2@@Z 0000000180083ecc f   xerces-c_3_1:XSDErrorReporter.cpp.obj
 0001:00083070       ?emitError@XSDErrorReporter@xercesc_3_1@@QEAAXIQEB_WQEBVLocator@2@0000QEAVMemoryManager@2@@Z 0000000180084070 f   xerces-c_3_1:XSDErrorReporter.cpp.obj
 0001:00083254       ?emitError@XSDErrorReporter@xercesc_3_1@@QEAAXAEBVXMLException@2@QEBVLocator@2@@Z 0000000180084254 f   xerces-c_3_1:XSDErrorReporter.cpp.obj
 0001:0008330c       ??_EDTDEntityDecl@xercesc_3_1@@UEAAPEAXI@Z 000000018008430c f i  CIL library: CIL module
 0001:0008330c       ??_GDTDEntityDecl@xercesc_3_1@@UEAAPEAXI@Z 000000018008430c f i xerces-c_3_1:DTDGrammar.cpp.obj
 0001:0008334c       ?getDeclaredInIntSubset@DTDEntityDecl@xercesc_3_1@@UEBA_NXZ 000000018008434c f i xerces-c_3_1:DTDGrammar.cpp.obj
 0001:00083350       ?getIsParameter@DTDEntityDecl@xercesc_3_1@@UEBA_NXZ 0000000180084350 f i xerces-c_3_1:DTDGrammar.cpp.obj
 0001:00083354       ?getIsSpecialChar@DTDEntityDecl@xercesc_3_1@@UEBA_NXZ 0000000180084354 f i xerces-c_3_1:DTDGrammar.cpp.obj
 0001:00083358       ?getTargetNamespace@DTDGrammar@xercesc_3_1@@UEBAPEB_WXZ 0000000180084358 f i xerces-c_3_1:DTDGrammar.cpp.obj
 0001:00083360       ?getElemId@DTDGrammar@xercesc_3_1@@UEBA_KIQEB_W0I@Z 0000000180084360 f i xerces-c_3_1:DTDGrammar.cpp.obj
 0001:000833a0       ?getElemDecl@DTDGrammar@xercesc_3_1@@UEAAPEAVXMLElementDecl@2@IQEB_W0I@Z 00000001800843a0 f i xerces-c_3_1:DTDGrammar.cpp.obj
 0001:000833a0       ?getElemDecl@DTDGrammar@xercesc_3_1@@UEBAPEBVXMLElementDecl@2@IQEB_W0I@Z 00000001800843a0 f i xerces-c_3_1:DTDGrammar.cpp.obj
 0001:00083418       ?getElemDecl@DTDGrammar@xercesc_3_1@@UEBAPEBVXMLElementDecl@2@I@Z 0000000180084418 f i xerces-c_3_1:DTDGrammar.cpp.obj
 0001:00083418       ?getElemDecl@DTDGrammar@xercesc_3_1@@UEAAPEAVXMLElementDecl@2@I@Z 0000000180084418 f i xerces-c_3_1:DTDGrammar.cpp.obj
 0001:00083490       ?putElemDecl@DTDGrammar@xercesc_3_1@@UEAA_KQEAVXMLElementDecl@2@_N@Z 0000000180084490 f i xerces-c_3_1:DTDGrammar.cpp.obj
 0001:00083510       ?getValidated@DTDGrammar@xercesc_3_1@@UEBA_NXZ 0000000180084510 f i xerces-c_3_1:DTDGrammar.cpp.obj
 0001:00083510       ?getIssueFatalErrorIfNotFound@DOMLSInputImpl@xercesc_3_1@@UEBA_NXZ 0000000180084510 f i xerces-c_3_1:DOMLSInputImpl.cpp.obj
 0001:00083514       ?setValidated@DTDGrammar@xercesc_3_1@@UEAAX_N@Z 0000000180084514 f i xerces-c_3_1:DTDGrammar.cpp.obj
 0001:00083514       ?setIssueFatalErrorIfNotFound@DOMLSInputImpl@xercesc_3_1@@UEAAX_N@Z 0000000180084514 f i xerces-c_3_1:DOMLSInputImpl.cpp.obj
 0001:00083518       ?initializeDTDGrammar@XMLInitializer@xercesc_3_1@@CAXXZ 0000000180084518 f   xerces-c_3_1:DTDGrammar.cpp.obj
 0001:000836fc       ??0DTDGrammar@xercesc_3_1@@QEAA@QEAVMemoryManager@1@@Z 00000001800846fc f   xerces-c_3_1:DTDGrammar.cpp.obj
 0001:00083844       ??_EDTDGrammar@xercesc_3_1@@UEAAPEAXI@Z 0000000180084844 f i  CIL library: CIL module
 0001:00083844       ??_GDTDGrammar@xercesc_3_1@@UEAAPEAXI@Z 0000000180084844 f i xerces-c_3_1:DTDGrammar.cpp.obj
 0001:00083880       ??1DTDGrammar@xercesc_3_1@@UEAA@XZ 0000000180084880 f   xerces-c_3_1:DTDGrammar.cpp.obj
 0001:000839ec       ?findOrAddElemDecl@DTDGrammar@xercesc_3_1@@UEAAPEAVXMLElementDecl@2@IQEB_W00IAEA_N@Z 00000001800849ec f   xerces-c_3_1:DTDGrammar.cpp.obj
 0001:00083af4       ?putElemDecl@DTDGrammar@xercesc_3_1@@UEAAPEAVXMLElementDecl@2@IQEB_W00I_N@Z 0000000180084af4 f   xerces-c_3_1:DTDGrammar.cpp.obj
 0001:00083bcc       ?reset@DTDGrammar@xercesc_3_1@@UEAAXXZ 0000000180084bcc f   xerces-c_3_1:DTDGrammar.cpp.obj
 0001:00083c54       ?setGrammarDescription@DTDGrammar@xercesc_3_1@@UEAAXPEAVXMLGrammarDescription@2@@Z 0000000180084c54 f   xerces-c_3_1:DTDGrammar.cpp.obj
 0001:00083c98       ?createObject@DTDGrammar@xercesc_3_1@@SAPEAVXSerializable@2@PEAVMemoryManager@2@@Z 0000000180084c98 f   xerces-c_3_1:DTDGrammar.cpp.obj
 0001:00083cdc       ?getProtoType@DTDGrammar@xercesc_3_1@@UEBAPEAVXProtoType@2@XZ 0000000180084cdc f   xerces-c_3_1:DTDGrammar.cpp.obj
 0001:00083ce4       ?serialize@DTDGrammar@xercesc_3_1@@UEAAXAEAVXSerializeEngine@2@@Z 0000000180084ce4 f   xerces-c_3_1:DTDGrammar.cpp.obj
 0001:00083e74       ??0?$NameIdPool@VDTDEntityDecl@xercesc_3_1@@@xercesc_3_1@@QEAA@_K0QEAVMemoryManager@1@@Z 0000000180084e74 f i xerces-c_3_1:DTDGrammar.cpp.obj
 0001:00083f60       ?put@?$NameIdPool@VDTDEntityDecl@xercesc_3_1@@@xercesc_3_1@@QEAA_KQEAVDTDEntityDecl@2@@Z 0000000180084f60 f i xerces-c_3_1:DTDGrammar.cpp.obj
 0001:000840d4       ??0?$NameIdPool@VDTDElementDecl@xercesc_3_1@@@xercesc_3_1@@QEAA@_K0QEAVMemoryManager@1@@Z 00000001800850d4 f i xerces-c_3_1:DTDGrammar.cpp.obj
 0001:000840d4       ??0?$NameIdPool@VXMLNotationDecl@xercesc_3_1@@@xercesc_3_1@@QEAA@_K0QEAVMemoryManager@1@@Z 00000001800850d4 f i xerces-c_3_1:DTDGrammar.cpp.obj
 0001:000841c8       ?put@?$NameIdPool@VDTDElementDecl@xercesc_3_1@@@xercesc_3_1@@QEAA_KQEAVDTDElementDecl@2@@Z 00000001800851c8 f i xerces-c_3_1:DTDGrammar.cpp.obj
 0001:000843f8       ?put@?$NameIdPool@VXMLNotationDecl@xercesc_3_1@@@xercesc_3_1@@QEAA_KQEAVXMLNotationDecl@2@@Z 00000001800853f8 f i xerces-c_3_1:DTDGrammar.cpp.obj
 0001:0008460c       ??1?$RefHashTableOf@VXMLNotationDecl@xercesc_3_1@@UStringHasher@2@@xercesc_3_1@@QEAA@XZ 000000018008560c f i xerces-c_3_1:DTDGrammar.cpp.obj
 0001:0008460c       ??1?$RefHashTableOf@VDTDEntityDecl@xercesc_3_1@@UStringHasher@2@@xercesc_3_1@@QEAA@XZ 000000018008560c f i xerces-c_3_1:DTDGrammar.cpp.obj
 0001:0008460c       ??1?$RefHashTableOf@VDTDElementDecl@xercesc_3_1@@UStringHasher@2@@xercesc_3_1@@QEAA@XZ 000000018008560c f i xerces-c_3_1:DTDGrammar.cpp.obj
 0001:00084634       ?removeAll@?$RefHashTableOf@VXMLNotationDecl@xercesc_3_1@@UStringHasher@2@@xercesc_3_1@@QEAAXXZ 0000000180085634 f i xerces-c_3_1:DTDGrammar.cpp.obj
 0001:00084634       ?removeAll@?$RefHashTableOf@VDTDElementDecl@xercesc_3_1@@UStringHasher@2@@xercesc_3_1@@QEAAXXZ 0000000180085634 f i xerces-c_3_1:DTDGrammar.cpp.obj
 0001:00084634       ?removeAll@?$RefHashTableOf@VXMLRefInfo@xercesc_3_1@@UStringHasher@2@@xercesc_3_1@@QEAAXXZ 0000000180085634 f i xerces-c_3_1:XMLScanner.cpp.obj
 0001:00084634       ?removeAll@?$RefHashTableOf@VXMLElementDecl@xercesc_3_1@@UStringHasher@2@@xercesc_3_1@@QEAAXXZ 0000000180085634 f i xerces-c_3_1:WFXMLScanner.cpp.obj
 0001:00084634       ?removeAll@?$RefHashTableOf@VDatatypeValidator@xercesc_3_1@@UStringHasher@2@@xercesc_3_1@@QEAAXXZ 0000000180085634 f i xerces-c_3_1:DatatypeValidatorFactory.cpp.obj
 0001:00084634       ?removeAll@?$RefHashTableOf@VDTDEntityDecl@xercesc_3_1@@UStringHasher@2@@xercesc_3_1@@QEAAXXZ 0000000180085634 f i xerces-c_3_1:DTDGrammar.cpp.obj
 0001:00084634       ?removeAll@?$RefHashTableOf@VGrammar@xercesc_3_1@@UStringHasher@2@@xercesc_3_1@@QEAAXXZ 0000000180085634 f i xerces-c_3_1:GrammarResolver.cpp.obj
 0001:00084634       ?removeAll@?$RefHashTableOf@VXSAnnotation@xercesc_3_1@@UPtrHasher@2@@xercesc_3_1@@QEAAXXZ 0000000180085634 f i xerces-c_3_1:XTemplateSerializer.cpp.obj
 0001:000846c4       ?cleanUp@RegularExpression@xercesc_3_1@@IEAAXXZ 00000001800856c4 f i xerces-c_3_1:RegularExpression.cpp.obj
 0001:00084744       ?compileUnion@RegularExpression@xercesc_3_1@@IEAAPEAVOp@2@QEBVToken@2@QEAV32@_N@Z 0000000180085744 f i xerces-c_3_1:RegularExpression.cpp.obj
 0001:00084878       ?compileParenthesis@RegularExpression@xercesc_3_1@@IEAAPEAVOp@2@QEBVToken@2@QEAV32@_N@Z 0000000180085878 f i xerces-c_3_1:RegularExpression.cpp.obj
 0001:00084974       ?compileClosure@RegularExpression@xercesc_3_1@@IEAAPEAVOp@2@QEBVToken@2@QEAV32@_NW4tokType@42@@Z 0000000180085974 f i xerces-c_3_1:RegularExpression.cpp.obj
 0001:00084b9c       ?getStartPos@Match@xercesc_3_1@@QEBAHH@Z 0000000180085b9c f i xerces-c_3_1:RegularExpression.cpp.obj
 0001:00084c60       ?getEndPos@Match@xercesc_3_1@@QEBAHH@Z 0000000180085c60 f i xerces-c_3_1:RegularExpression.cpp.obj
 0001:00084d24       ?setStartPos@Match@xercesc_3_1@@QEAAXHH@Z 0000000180085d24 f i xerces-c_3_1:RegularExpression.cpp.obj
 0001:00084de8       ?setEndPos@Match@xercesc_3_1@@QEAAXHH@Z 0000000180085de8 f i xerces-c_3_1:RegularExpression.cpp.obj
 0001:00084eac       ??0ParseException@xercesc_3_1@@QEAA@AEBV01@@Z 0000000180085eac f i xerces-c_3_1:RegularExpression.cpp.obj
 0001:00084ed0       ??1ParseException@xercesc_3_1@@UEAA@XZ 0000000180085ed0 f i xerces-c_3_1:RegularExpression.cpp.obj
 0001:00084ee0       ?duplicate@ParseException@xercesc_3_1@@UEBAPEAVXMLException@2@XZ 0000000180085ee0 f i xerces-c_3_1:RegularExpression.cpp.obj
 0001:00084f44       ?getType@ParseException@xercesc_3_1@@UEBAPEB_WXZ 0000000180085f44 f i xerces-c_3_1:RegularExpression.cpp.obj
 0001:00084f4c       ??_GParseException@xercesc_3_1@@UEAAPEAXI@Z 0000000180085f4c f i xerces-c_3_1:RegularExpression.cpp.obj
 0001:00084f4c       ??_EParseException@xercesc_3_1@@UEAAPEAXI@Z 0000000180085f4c f i  CIL library: CIL module
 0001:00084f8c       ?matchIgnoreCase@RegularExpression@xercesc_3_1@@IEBA_NHH@Z 0000000180085f8c f   xerces-c_3_1:RegularExpression.cpp.obj
 0001:00085058       ??4Context@RegularExpression@xercesc_3_1@@QEAAAEAV012@AEBV012@@Z 0000000180086058 f   xerces-c_3_1:RegularExpression.cpp.obj
 0001:00085290       ??1Context@RegularExpression@xercesc_3_1@@QEAA@XZ 0000000180086290 f   xerces-c_3_1:RegularExpression.cpp.obj
 0001:000852cc       ?reset@Context@RegularExpression@xercesc_3_1@@QEAAXQEB_W_K11HI@Z 00000001800862cc f   xerces-c_3_1:RegularExpression.cpp.obj
 0001:00085374       ?nextCh@Context@RegularExpression@xercesc_3_1@@QEAA_NAEAHAEA_K@Z 0000000180086374 f   xerces-c_3_1:RegularExpression.cpp.obj
 0001:000853f4       ??_GRegularExpression@xercesc_3_1@@UEAAPEAXI@Z 00000001800863f4 f i xerces-c_3_1:RegularExpression.cpp.obj
 0001:000853f4       ??_ERegularExpression@xercesc_3_1@@UEAAPEAXI@Z 00000001800863f4 f i  CIL library: CIL module
 0001:00085430       ??0RegularExpression@xercesc_3_1@@QEAA@QEB_W0QEAVMemoryManager@1@@Z 0000000180086430 f   xerces-c_3_1:RegularExpression.cpp.obj
 0001:000854ec       ??1RegularExpression@xercesc_3_1@@UEAA@XZ 00000001800864ec f   xerces-c_3_1:RegularExpression.cpp.obj
 0001:00085530       ?getRegexParser@RegularExpression@xercesc_3_1@@MEAAPEAVRegxParser@2@HQEAVMemoryManager@2@@Z 0000000180086530 f   xerces-c_3_1:RegularExpression.cpp.obj
 0001:000855f0       ?setPattern@RegularExpression@xercesc_3_1@@IEAAXQEB_W0@Z 00000001800865f0 f   xerces-c_3_1:RegularExpression.cpp.obj
 0001:000857f0       ?matches@RegularExpression@xercesc_3_1@@QEBA_NQEB_WQEAVMemoryManager@2@@Z 00000001800867f0 f   xerces-c_3_1:RegularExpression.cpp.obj
 0001:00085824       ?matches@RegularExpression@xercesc_3_1@@QEBA_NQEB_W_K1QEAVMatch@2@QEAVMemoryManager@2@@Z 0000000180086824 f   xerces-c_3_1:RegularExpression.cpp.obj
 0001:00085fa8       ?match@RegularExpression@xercesc_3_1@@IEBAHQEAVContext@12@QEBVOp@2@_K@Z 0000000180086fa8 f   xerces-c_3_1:RegularExpression.cpp.obj
 0001:00086784       ?matchAnchor@RegularExpression@xercesc_3_1@@IEBA_NQEAVContext@12@H_K@Z 0000000180087784 f   xerces-c_3_1:RegularExpression.cpp.obj
 0001:00086854       ?matchBackReference@RegularExpression@xercesc_3_1@@IEBA_NQEAVContext@12@HAEA_K_N@Z 0000000180087854 f   xerces-c_3_1:RegularExpression.cpp.obj
 0001:00086968       ?matchCapture@RegularExpression@xercesc_3_1@@IEBAHQEAVContext@12@QEBVOp@2@_K@Z 0000000180087968 f   xerces-c_3_1:RegularExpression.cpp.obj
 0001:00086a38       ?matchUnion@RegularExpression@xercesc_3_1@@IEBAHQEAVContext@12@QEBVOp@2@_K@Z 0000000180087a38 f   xerces-c_3_1:RegularExpression.cpp.obj
 0001:00086c5c       ?compile@RegularExpression@xercesc_3_1@@IEAAPEAVOp@2@QEBVToken@2@QEAV32@_N@Z 0000000180087c5c f   xerces-c_3_1:RegularExpression.cpp.obj
 0001:00086fbc       ?prepare@RegularExpression@xercesc_3_1@@IEAAXXZ 0000000180087fbc f   xerces-c_3_1:RegularExpression.cpp.obj
 0001:000872e4       ?doTokenOverlap@RegularExpression@xercesc_3_1@@IEAA_NPEBVOp@2@PEAVToken@2@@Z 00000001800882e4 f   xerces-c_3_1:RegularExpression.cpp.obj
 0001:00087458       ??1?$Janitor@V?$ValueStackOf@URE_RuntimeContext@xercesc_3_1@@@xercesc_3_1@@@xercesc_3_1@@QEAA@XZ 0000000180088458 f i xerces-c_3_1:RegularExpression.cpp.obj
 0001:00087498       ?push@?$ValueStackOf@VformatNodeHolder@xercesc_3_1@@@xercesc_3_1@@QEAAXAEBVformatNodeHolder@2@@Z 0000000180088498 f i xerces-c_3_1:ContentSpecNode.cpp.obj
 0001:00087498       ?push@?$ValueStackOf@URE_RuntimeContext@xercesc_3_1@@@xercesc_3_1@@QEAAXAEBURE_RuntimeContext@2@@Z 0000000180088498 f i xerces-c_3_1:RegularExpression.cpp.obj
 0001:00087598       ??0RangeTokenMap@xercesc_3_1@@IEAA@PEAVMemoryManager@1@@Z 0000000180088598 f   xerces-c_3_1:RangeTokenMap.cpp.obj
 0001:00087894       ?addKeywordMap@RangeTokenMap@xercesc_3_1@@QEAAXQEB_W0@Z 0000000180088894 f   xerces-c_3_1:RangeTokenMap.cpp.obj
 0001:000879a0       ?setRangeToken@RangeTokenMap@xercesc_3_1@@QEAAXQEB_WQEAVRangeToken@2@_N@Z 00000001800889a0 f   xerces-c_3_1:RangeTokenMap.cpp.obj
 0001:00087a6c       ?buildTokenRanges@RangeTokenMap@xercesc_3_1@@AEAAXXZ 0000000180088a6c f   xerces-c_3_1:RangeTokenMap.cpp.obj
 0001:00087b34       ?cleanUp@RangeTokenMap@xercesc_3_1@@AEAAXXZ 0000000180088b34 f   xerces-c_3_1:RangeTokenMap.cpp.obj
 0001:00087cd4       ?containsKey@?$RefHashTableOf@VXMLAttDef@xercesc_3_1@@UStringHasher@2@@xercesc_3_1@@QEBA_NQEBX@Z 0000000180088cd4 f i xerces-c_3_1:TraverseSchema.cpp.obj
 0001:00087cd4       ?containsKey@?$RefHashTableOf@VGrammar@xercesc_3_1@@UStringHasher@2@@xercesc_3_1@@QEBA_NQEBX@Z 0000000180088cd4 f i xerces-c_3_1:GrammarResolver.cpp.obj
 0001:00087cd4       ?containsKey@?$RefHashTableOf@VKVStringPair@xercesc_3_1@@UStringHasher@2@@xercesc_3_1@@QEBA_NQEBX@Z 0000000180088cd4 f i xerces-c_3_1:TraverseSchema.cpp.obj
 0001:00087cd4       ?containsKey@?$RefHashTableOf@VDatatypeValidator@xercesc_3_1@@UStringHasher@2@@xercesc_3_1@@QEBA_NQEBX@Z 0000000180088cd4 f i xerces-c_3_1:GrammarResolver.cpp.obj
 0001:00087cd4       ?containsKey@?$RefHashTableOf@VRangeTokenElemMap@xercesc_3_1@@UStringHasher@2@@xercesc_3_1@@QEBA_NQEBX@Z 0000000180088cd4 f i xerces-c_3_1:RangeTokenMap.cpp.obj
 0001:00087cd4       ?containsKey@?$RefHashTableOf@VXercesGroupInfo@xercesc_3_1@@UStringHasher@2@@xercesc_3_1@@QEBA_NQEBX@Z 0000000180088cd4 f i xerces-c_3_1:TraverseSchema.cpp.obj
 0001:00087cd4       ?containsKey@?$RefHashTableOf@VXercesAttGroupInfo@xercesc_3_1@@UStringHasher@2@@xercesc_3_1@@QEBA_NQEBX@Z 0000000180088cd4 f i xerces-c_3_1:TraverseSchema.cpp.obj
 0001:00087d9c       ?put@?$RefHashTableOf@VRangeTokenElemMap@xercesc_3_1@@UStringHasher@2@@xercesc_3_1@@QEAAXPEAXQEAVRangeTokenElemMap@2@@Z 0000000180088d9c f i xerces-c_3_1:RangeTokenMap.cpp.obj
 0001:00087e64       ?put@?$RefHashTableOf@VRangeFactory@xercesc_3_1@@UStringHasher@2@@xercesc_3_1@@QEAAXPEAXQEAVRangeFactory@2@@Z 0000000180088e64 f i xerces-c_3_1:RangeTokenMap.cpp.obj
 0001:00087e64       ?put@?$RefHashTableOf@VComplexTypeInfo@xercesc_3_1@@UStringHasher@2@@xercesc_3_1@@QEAAXPEAXQEAVComplexTypeInfo@2@@Z 0000000180088e64 f i xerces-c_3_1:XTemplateSerializer.cpp.obj
 0001:00087e64       ?put@?$RefHashTableOf@VXMLRefInfo@xercesc_3_1@@UStringHasher@2@@xercesc_3_1@@QEAAXPEAXQEAVXMLRefInfo@2@@Z 0000000180088e64 f i xerces-c_3_1:ValidationContextImpl.cpp.obj
 0001:00087e64       ?put@?$RefHashTableOf@VKVStringPair@xercesc_3_1@@UStringHasher@2@@xercesc_3_1@@QEAAXPEAXQEAVKVStringPair@2@@Z 0000000180088e64 f i xerces-c_3_1:DOMXPathNSResolverImpl.cpp.obj
 0001:00087e64       ?put@?$RefHashTableOf@VDTDEntityDecl@xercesc_3_1@@UStringHasher@2@@xercesc_3_1@@QEAAXPEAXQEAVDTDEntityDecl@2@@Z 0000000180088e64 f i xerces-c_3_1:DTDGrammar.cpp.obj
 0001:00087e64       ?put@?$RefHashTableOf@VDTDAttDef@xercesc_3_1@@UStringHasher@2@@xercesc_3_1@@QEAAXPEAXQEAVDTDAttDef@2@@Z 0000000180088e64 f i xerces-c_3_1:XTemplateSerializer.cpp.obj
 0001:00087e64       ?put@?$RefHashTableOf@VDOMElement@xercesc_3_1@@UStringHasher@2@@xercesc_3_1@@QEAAXPEAXQEAVDOMElement@2@@Z 0000000180088e64 f i xerces-c_3_1:SchemaInfo.cpp.obj
 0001:00087e64       ?put@?$RefHashTableOf@VDTDElementDecl@xercesc_3_1@@UStringHasher@2@@xercesc_3_1@@QEAAXPEAXQEAVDTDElementDecl@2@@Z 0000000180088e64 f i xerces-c_3_1:DTDGrammar.cpp.obj
 0001:00087e64       ?put@?$RefHashTableOf@VXercesGroupInfo@xercesc_3_1@@UStringHasher@2@@xercesc_3_1@@QEAAXPEAXQEAVXercesGroupInfo@2@@Z 0000000180088e64 f i xerces-c_3_1:XTemplateSerializer.cpp.obj
 0001:00087e64       ?put@?$RefHashTableOf@VXMLNotationDecl@xercesc_3_1@@UStringHasher@2@@xercesc_3_1@@QEAAXPEAXQEAVXMLNotationDecl@2@@Z 0000000180088e64 f i xerces-c_3_1:DTDGrammar.cpp.obj
 0001:00087e64       ?put@?$RefHashTableOf@VGrammar@xercesc_3_1@@UStringHasher@2@@xercesc_3_1@@QEAAXPEAXQEAVGrammar@2@@Z 0000000180088e64 f i xerces-c_3_1:GrammarResolver.cpp.obj
 0001:00087e64       ?put@?$RefHashTableOf@VXMLElementDecl@xercesc_3_1@@UStringHasher@2@@xercesc_3_1@@QEAAXPEAXQEAVXMLElementDecl@2@@Z 0000000180088e64 f i xerces-c_3_1:WFXMLScanner.cpp.obj
 0001:00087e64       ?put@?$RefHashTableOf@VXMLAttDef@xercesc_3_1@@UStringHasher@2@@xercesc_3_1@@QEAAXPEAXQEAVXMLAttDef@2@@Z 0000000180088e64 f i xerces-c_3_1:XTemplateSerializer.cpp.obj
 0001:00087e64       ?put@?$RefHashTableOf@VDatatypeValidator@xercesc_3_1@@UStringHasher@2@@xercesc_3_1@@QEAAXPEAXQEAVDatatypeValidator@2@@Z 0000000180088e64 f i xerces-c_3_1:DatatypeValidatorFactory.cpp.obj
 0001:00087e64       ?put@?$RefHashTableOf@VXercesAttGroupInfo@xercesc_3_1@@UStringHasher@2@@xercesc_3_1@@QEAAXPEAXQEAVXercesAttGroupInfo@2@@Z 0000000180088e64 f i xerces-c_3_1:XTemplateSerializer.cpp.obj
 0001:00087f28       ??1XMLValidator@xercesc_3_1@@UEAA@XZ 0000000180088f28 f i xerces-c_3_1:XMLValidator.cpp.obj
 0001:00087f34       ?emitError@XMLValidator@xercesc_3_1@@QEAAXW4Codes@XMLValid@2@@Z 0000000180088f34 f   xerces-c_3_1:XMLValidator.cpp.obj
 0001:0008805c       ?emitError@XMLValidator@xercesc_3_1@@QEAAXW4Codes@XMLValid@2@QEB_W111@Z 000000018008905c f   xerces-c_3_1:XMLValidator.cpp.obj
 0001:000881bc       ?emitError@XMLValidator@xercesc_3_1@@QEAAXW4Codes@XMLValid@2@W43XMLExcepts@2@QEB_W222@Z 00000001800891bc f   xerces-c_3_1:XMLValidator.cpp.obj
 0001:000882cc       ??0ElemStack@xercesc_3_1@@QEAA@QEAVMemoryManager@1@@Z 00000001800892cc f   xerces-c_3_1:ElemStack.cpp.obj
 0001:000883c8       ??1ElemStack@xercesc_3_1@@QEAA@XZ 00000001800893c8 f   xerces-c_3_1:ElemStack.cpp.obj
 0001:000884cc       ?addLevel@ElemStack@xercesc_3_1@@QEAA_KXZ 00000001800894cc f   xerces-c_3_1:ElemStack.cpp.obj
 0001:00088648       ?addLevel@ElemStack@xercesc_3_1@@QEAA_KQEAVXMLElementDecl@2@_K@Z 0000000180089648 f   xerces-c_3_1:ElemStack.cpp.obj
 0001:000887e0       ?popTop@ElemStack@xercesc_3_1@@QEAAPEBUStackElem@12@XZ 00000001800897e0 f   xerces-c_3_1:ElemStack.cpp.obj
 0001:00088858       ?setElement@ElemStack@xercesc_3_1@@QEAAXQEAVXMLElementDecl@2@_K@Z 0000000180089858 f   xerces-c_3_1:ElemStack.cpp.obj
 0001:000888e0       ?addChild@ElemStack@xercesc_3_1@@QEAA_KQEAVQName@2@_N@Z 00000001800898e0 f   xerces-c_3_1:ElemStack.cpp.obj
 0001:00088a8c       ?topElement@ElemStack@xercesc_3_1@@QEBAPEBUStackElem@12@XZ 0000000180089a8c f   xerces-c_3_1:ElemStack.cpp.obj
 0001:00088afc       ?addPrefix@ElemStack@xercesc_3_1@@QEAAXQEB_WI@Z 0000000180089afc f   xerces-c_3_1:ElemStack.cpp.obj
 0001:00088be4       ?mapPrefixToURI@ElemStack@xercesc_3_1@@QEBAIQEB_WAEA_N@Z 0000000180089be4 f   xerces-c_3_1:ElemStack.cpp.obj
 0001:00088ce8       ?reset@ElemStack@xercesc_3_1@@QEAAXIIII@Z 0000000180089ce8 f   xerces-c_3_1:ElemStack.cpp.obj
 0001:00088db4       ?expandMap@ElemStack@xercesc_3_1@@AEAAXQEAUStackElem@12@@Z 0000000180089db4 f   xerces-c_3_1:ElemStack.cpp.obj
 0001:00088e8c       ?expandStack@ElemStack@xercesc_3_1@@AEAAXXZ 0000000180089e8c f   xerces-c_3_1:ElemStack.cpp.obj
 0001:00088f58       ??1ValidationContext@xercesc_3_1@@UEAA@XZ 0000000180089f58 f i xerces-c_3_1:ValidationContextImpl.cpp.obj
 0001:00088f64       ??_GValidationContext@xercesc_3_1@@UEAAPEAXI@Z 0000000180089f64 f i xerces-c_3_1:ValidationContextImpl.cpp.obj
 0001:00088f64       ??_EValidationContext@xercesc_3_1@@UEAAPEAXI@Z 0000000180089f64 f i  CIL library: CIL module
 0001:00088f94       ?getSystemId@DOMLSInputImpl@xercesc_3_1@@UEBAPEB_WXZ 0000000180089f94 f i xerces-c_3_1:DOMLSInputImpl.cpp.obj
 0001:00088f94       ?getFirstChild@DOMAttrImpl@xercesc_3_1@@UEBAPEAVDOMNode@2@XZ 0000000180089f94 f i xerces-c_3_1:DOMAttrImpl.cpp.obj
 0001:00088f94       ?getRelatedData@DOMErrorImpl@xercesc_3_1@@UEBAPEAXXZ 0000000180089f94 f i xerces-c_3_1:DOMErrorImpl.cpp.obj
 0001:00088f94       ?getParameterNames@DOMConfigurationImpl@xercesc_3_1@@UEBAPEBVDOMStringList@2@XZ 0000000180089f94 f i xerces-c_3_1:DOMConfigurationImpl.cpp.obj
 0001:00088f94       ?getGrammar@DTDValidator@xercesc_3_1@@UEBAPEAVGrammar@2@XZ 0000000180089f94 f i xerces-c_3_1:DTDValidator.cpp.obj
 0001:00088f94       ?getRelatedNode@DOMLocatorImpl@xercesc_3_1@@UEBAPEAVDOMNode@2@XZ 0000000180089f94 f i xerces-c_3_1:DOMLocatorImpl.cpp.obj
 0001:00088f94       ?getFilter@DOMLSParserImpl@xercesc_3_1@@UEBAPEBVDOMLSParserFilter@2@XZ 0000000180089f94 f i xerces-c_3_1:DOMLSParserImpl.cpp.obj
 0001:00088f94       ?getFirstChild@DOMEntityReferenceImpl@xercesc_3_1@@UEBAPEAVDOMNode@2@XZ 0000000180089f94 f i xerces-c_3_1:DOMEntityReferenceImpl.cpp.obj
 0001:00088f94       ?getFirstChild@DOMDocumentTypeImpl@xercesc_3_1@@UEBAPEAVDOMNode@2@XZ 0000000180089f94 f i xerces-c_3_1:DOMDocumentTypeImpl.cpp.obj
 0001:00088f94       ?getFirstChild@DOMDocumentFragmentImpl@xercesc_3_1@@UEBAPEAVDOMNode@2@XZ 0000000180089f94 f i xerces-c_3_1:DOMDocumentFragmentImpl.cpp.obj
 0001:00088f94       ?getFilter@DOMLSSerializerImpl@xercesc_3_1@@UEBAPEAVDOMLSSerializerFilter@2@XZ 0000000180089f94 f i xerces-c_3_1:DOMLSSerializerImpl.cpp.obj
 0001:00088f94       ?getTriggeringComponent@XMLSchemaDescriptionImpl@xercesc_3_1@@UEBAPEBVQName@2@XZ 0000000180089f94 f i xerces-c_3_1:XMLSchemaDescriptionImpl.cpp.obj
 0001:00088f94       ?getSystemId@DOMNotationImpl@xercesc_3_1@@UEBAPEB_WXZ 0000000180089f94 f i xerces-c_3_1:DOMNotationImpl.cpp.obj
 0001:00088f94       ?getFirstChild@DOMElementImpl@xercesc_3_1@@UEBAPEAVDOMNode@2@XZ 0000000180089f94 f i xerces-c_3_1:DOMElementImpl.cpp.obj
 0001:00088f94       ?getFirstChild@DOMDocumentImpl@xercesc_3_1@@UEBAPEAVDOMNode@2@XZ 0000000180089f94 f i xerces-c_3_1:DOMDocumentImpl.cpp.obj
 0001:00088f94       ?getValidatingMemberType@ValidationContextImpl@xercesc_3_1@@UEBAPEAVDatatypeValidator@2@XZ 0000000180089f94 f i xerces-c_3_1:ValidationContextImpl.cpp.obj
 0001:00088f9c       ?setGrammar@SchemaValidator@xercesc_3_1@@UEAAXPEAVGrammar@2@@Z 0000000180089f9c f i xerces-c_3_1:SchemaValidator.cpp.obj
 0001:00088f9c       ?setElemStack@ValidationContextImpl@xercesc_3_1@@UEAAXPEAVElemStack@2@@Z 0000000180089f9c f i xerces-c_3_1:ValidationContextImpl.cpp.obj
 0001:00088fa4       ?setAttributes@XMLSchemaDescriptionImpl@xercesc_3_1@@UEAAXQEAVXMLAttDef@2@@Z 0000000180089fa4 f i xerces-c_3_1:XMLSchemaDescriptionImpl.cpp.obj
 0001:00088fa4       ?setScanner@ValidationContextImpl@xercesc_3_1@@UEAAXPEAVXMLScanner@2@@Z 0000000180089fa4 f i xerces-c_3_1:ValidationContextImpl.cpp.obj
 0001:00088fac       ?setNamespaceScope@ValidationContextImpl@xercesc_3_1@@UEAAXPEAVNamespaceScope@2@@Z 0000000180089fac f i xerces-c_3_1:ValidationContextImpl.cpp.obj
 0001:00088fb4       ??0XMLRefInfo@xercesc_3_1@@QEAA@QEB_W_N1QEAVMemoryManager@1@@Z 0000000180089fb4 f i xerces-c_3_1:ValidationContextImpl.cpp.obj
 0001:0008904c       ??_GXMLRefInfo@xercesc_3_1@@UEAAPEAXI@Z 000000018008a04c f i xerces-c_3_1:ValidationContextImpl.cpp.obj
 0001:0008904c       ??_EXMLRefInfo@xercesc_3_1@@UEAAPEAXI@Z 000000018008a04c f i  CIL library: CIL module
 0001:000890ac       ??0InvalidDatatypeValueException@xercesc_3_1@@QEAA@AEBV01@@Z 000000018008a0ac f i xerces-c_3_1:ValidationContextImpl.cpp.obj
 0001:000890d0       ??1InvalidDatatypeValueException@xercesc_3_1@@UEAA@XZ 000000018008a0d0 f i xerces-c_3_1:ValidationContextImpl.cpp.obj
 0001:000890e0       ?duplicate@InvalidDatatypeValueException@xercesc_3_1@@UEBAPEAVXMLException@2@XZ 000000018008a0e0 f i xerces-c_3_1:ValidationContextImpl.cpp.obj
 0001:00089144       ?getType@InvalidDatatypeValueException@xercesc_3_1@@UEBAPEB_WXZ 000000018008a144 f i xerces-c_3_1:ValidationContextImpl.cpp.obj
 0001:0008914c       ??_GInvalidDatatypeValueException@xercesc_3_1@@UEAAPEAXI@Z 000000018008a14c f i xerces-c_3_1:ValidationContextImpl.cpp.obj
 0001:0008914c       ??_EInvalidDatatypeValueException@xercesc_3_1@@UEAAPEAXI@Z 000000018008a14c f i  CIL library: CIL module
 0001:0008918c       ??1ValidationContextImpl@xercesc_3_1@@UEAA@XZ 000000018008a18c f   xerces-c_3_1:ValidationContextImpl.cpp.obj
 0001:000891f8       ??_GValidationContextImpl@xercesc_3_1@@UEAAPEAXI@Z 000000018008a1f8 f i xerces-c_3_1:ValidationContextImpl.cpp.obj
 0001:000891f8       ??_EValidationContextImpl@xercesc_3_1@@UEAAPEAXI@Z 000000018008a1f8 f i  CIL library: CIL module
 0001:00089234       ??0ValidationContextImpl@xercesc_3_1@@QEAA@QEAVMemoryManager@1@@Z 000000018008a234 f   xerces-c_3_1:ValidationContextImpl.cpp.obj
 0001:00089300       ?setIdRefList@ValidationContextImpl@xercesc_3_1@@UEAAXQEAV?$RefHashTableOf@VXMLRefInfo@xercesc_3_1@@UStringHasher@2@@2@@Z 000000018008a300 f   xerces-c_3_1:ValidationContextImpl.cpp.obj
 0001:0008935c       ?clearIdRefList@ValidationContextImpl@xercesc_3_1@@UEAAXXZ 000000018008a35c f   xerces-c_3_1:ValidationContextImpl.cpp.obj
 0001:00089374       ?addId@ValidationContextImpl@xercesc_3_1@@UEAAXQEB_W@Z 000000018008a374 f   xerces-c_3_1:ValidationContextImpl.cpp.obj
 0001:00089488       ?addIdRef@ValidationContextImpl@xercesc_3_1@@UEAAXQEB_W@Z 000000018008a488 f   xerces-c_3_1:ValidationContextImpl.cpp.obj
 0001:00089530       ?toCheckIdRefList@ValidationContextImpl@xercesc_3_1@@UEAAX_N@Z 000000018008a530 f   xerces-c_3_1:ValidationContextImpl.cpp.obj
 0001:00089534       ?setEntityDeclPool@ValidationContextImpl@xercesc_3_1@@UEAAPEBV?$NameIdPool@VDTDEntityDecl@xercesc_3_1@@@2@QEBV32@@Z 000000018008a534 f   xerces-c_3_1:ValidationContextImpl.cpp.obj
 0001:00089540       ?checkEntity@ValidationContextImpl@xercesc_3_1@@UEBAXQEB_W@Z 000000018008a540 f   xerces-c_3_1:ValidationContextImpl.cpp.obj
 0001:00089650       ?isPrefixUnknown@ValidationContextImpl@xercesc_3_1@@UEAA_NPEA_W@Z 000000018008a650 f   xerces-c_3_1:ValidationContextImpl.cpp.obj
 0001:0008972c       ?getURIForPrefix@ValidationContextImpl@xercesc_3_1@@UEAAPEB_WPEA_W@Z 000000018008a72c f   xerces-c_3_1:ValidationContextImpl.cpp.obj
 0001:0008979c       ?lookupByName@XMLURL@xercesc_3_1@@SA?AW4Protocols@12@QEB_W@Z 000000018008a79c f   xerces-c_3_1:XMLURL.cpp.obj
 0001:000897e8       ??_EXMLURL@xercesc_3_1@@UEAAPEAXI@Z 000000018008a7e8 f i  CIL library: CIL module
 0001:000897e8       ??_GXMLURL@xercesc_3_1@@UEAAPEAXI@Z 000000018008a7e8 f i xerces-c_3_1:XMLURL.cpp.obj
 0001:00089828       ??0XMLURL@xercesc_3_1@@QEAA@QEB_WQEAVMemoryManager@1@@Z 000000018008a828 f   xerces-c_3_1:XMLURL.cpp.obj
 0001:000898dc       ??0XMLURL@xercesc_3_1@@QEAA@AEBV01@@Z 000000018008a8dc f   xerces-c_3_1:XMLURL.cpp.obj
 0001:00089b88       ??1XMLURL@xercesc_3_1@@UEAA@XZ 000000018008ab88 f   xerces-c_3_1:XMLURL.cpp.obj
 0001:00089b98       ?setURL@XMLURL@xercesc_3_1@@QEAA_NQEB_W0AEAV12@@Z 000000018008ab98 f   xerces-c_3_1:XMLURL.cpp.obj
 0001:00089cac       ?makeNewStream@XMLURL@xercesc_3_1@@QEBAPEAVBinInputStream@2@XZ 000000018008acac f   xerces-c_3_1:XMLURL.cpp.obj
 0001:0008a004       ?buildFullText@XMLURL@xercesc_3_1@@AEAAXXZ 000000018008b004 f   xerces-c_3_1:XMLURL.cpp.obj
 0001:0008a470       ?cleanUp@XMLURL@xercesc_3_1@@AEAAXXZ 000000018008b470 f   xerces-c_3_1:XMLURL.cpp.obj
 0001:0008a510       ?conglomerateWithBase@XMLURL@xercesc_3_1@@AEAA_NAEBV12@_N@Z 000000018008b510 f   xerces-c_3_1:XMLURL.cpp.obj
 0001:0008a918       ?parse@XMLURL@xercesc_3_1@@AEAAXQEB_W@Z 000000018008b918 f   xerces-c_3_1:XMLURL.cpp.obj
 0001:0008b0d8       ?parse@XMLURL@xercesc_3_1@@SA_NQEB_WAEAV12@@Z 000000018008c0d8 f   xerces-c_3_1:XMLURL.cpp.obj
 0001:0008b63c       ??0URLInputSource@xercesc_3_1@@QEAA@AEBVXMLURL@1@QEAVMemoryManager@1@@Z 000000018008c63c f   xerces-c_3_1:URLInputSource.cpp.obj
 0001:0008b6b0       ??_EURLInputSource@xercesc_3_1@@UEAAPEAXI@Z 000000018008c6b0 f i  CIL library: CIL module
 0001:0008b6b0       ??_GURLInputSource@xercesc_3_1@@UEAAPEAXI@Z 000000018008c6b0 f i xerces-c_3_1:URLInputSource.cpp.obj
 0001:0008b714       ??1URLInputSource@xercesc_3_1@@UEAA@XZ 000000018008c714 f   xerces-c_3_1:URLInputSource.cpp.obj
 0001:0008b758       ?makeStream@URLInputSource@xercesc_3_1@@UEBAPEAVBinInputStream@2@XZ 000000018008c758 f   xerces-c_3_1:URLInputSource.cpp.obj
 0001:0008b764       ??0XSerializationException@xercesc_3_1@@QEAA@AEBV01@@Z 000000018008c764 f i xerces-c_3_1:XMLGrammarPoolImpl.cpp.obj
 0001:0008b788       ??1XSerializationException@xercesc_3_1@@UEAA@XZ 000000018008c788 f i xerces-c_3_1:XMLGrammarPoolImpl.cpp.obj
 0001:0008b798       ?duplicate@XSerializationException@xercesc_3_1@@UEBAPEAVXMLException@2@XZ 000000018008c798 f i xerces-c_3_1:XMLGrammarPoolImpl.cpp.obj
 0001:0008b7fc       ?getType@XSerializationException@xercesc_3_1@@UEBAPEB_WXZ 000000018008c7fc f i xerces-c_3_1:XMLGrammarPoolImpl.cpp.obj
 0001:0008b804       ??_EXSerializationException@xercesc_3_1@@UEAAPEAXI@Z 000000018008c804 f i  CIL library: CIL module
 0001:0008b804       ??_GXSerializationException@xercesc_3_1@@UEAAPEAXI@Z 000000018008c804 f i xerces-c_3_1:XMLGrammarPoolImpl.cpp.obj
 0001:0008b844       ??1XMLGrammarPool@xercesc_3_1@@UEAA@XZ 000000018008c844 f i xerces-c_3_1:XMLGrammarPoolImpl.cpp.obj
 0001:0008b850       ??_EXMLGrammarPool@xercesc_3_1@@UEAAPEAXI@Z 000000018008c850 f i  CIL library: CIL module
 0001:0008b850       ??_GXMLGrammarPool@xercesc_3_1@@UEAAPEAXI@Z 000000018008c850 f i xerces-c_3_1:XMLGrammarPoolImpl.cpp.obj
 0001:0008b880       ?createXSModel@XMLGrammarPoolImpl@xercesc_3_1@@EEAAXXZ 000000018008c880 f   xerces-c_3_1:XMLGrammarPoolImpl.cpp.obj
 0001:0008b910       ??_EXMLGrammarPoolImpl@xercesc_3_1@@UEAAPEAXI@Z 000000018008c910 f i  CIL library: CIL module
 0001:0008b910       ??_GXMLGrammarPoolImpl@xercesc_3_1@@UEAAPEAXI@Z 000000018008c910 f i xerces-c_3_1:XMLGrammarPoolImpl.cpp.obj
 0001:0008b9e4       ??0XMLGrammarPoolImpl@xercesc_3_1@@QEAA@QEAVMemoryManager@1@@Z 000000018008c9e4 f   xerces-c_3_1:XMLGrammarPoolImpl.cpp.obj
 0001:0008baa0       ?cacheGrammar@XMLGrammarPoolImpl@xercesc_3_1@@UEAA_NQEAVGrammar@2@@Z 000000018008caa0 f   xerces-c_3_1:XMLGrammarPoolImpl.cpp.obj
 0001:0008bb28       ?retrieveGrammar@XMLGrammarPoolImpl@xercesc_3_1@@UEAAPEAVGrammar@2@QEAVXMLGrammarDescription@2@@Z 000000018008cb28 f   xerces-c_3_1:XMLGrammarPoolImpl.cpp.obj
 0001:0008bb70       ?orphanGrammar@XMLGrammarPoolImpl@xercesc_3_1@@UEAAPEAVGrammar@2@QEB_W@Z 000000018008cb70 f   xerces-c_3_1:XMLGrammarPoolImpl.cpp.obj
 0001:0008bbc0       ?getGrammarEnumerator@XMLGrammarPoolImpl@xercesc_3_1@@UEBA?AV?$RefHashTableOfEnumerator@VGrammar@xercesc_3_1@@UStringHasher@2@@2@XZ 000000018008cbc0 f   xerces-c_3_1:XMLGrammarPoolImpl.cpp.obj
 0001:0008bbe8       ?clear@XMLGrammarPoolImpl@xercesc_3_1@@UEAA_NXZ 000000018008cbe8 f   xerces-c_3_1:XMLGrammarPoolImpl.cpp.obj
 0001:0008bc3c       ?lockPool@XMLGrammarPoolImpl@xercesc_3_1@@UEAAXXZ 000000018008cc3c f   xerces-c_3_1:XMLGrammarPoolImpl.cpp.obj
 0001:0008bce4       ?unlockPool@XMLGrammarPoolImpl@xercesc_3_1@@UEAAXXZ 000000018008cce4 f   xerces-c_3_1:XMLGrammarPoolImpl.cpp.obj
 0001:0008bd54       ?createDTDGrammar@XMLGrammarPoolImpl@xercesc_3_1@@UEAAPEAVDTDGrammar@2@XZ 000000018008cd54 f   xerces-c_3_1:XMLGrammarPoolImpl.cpp.obj
 0001:0008bdac       ?createSchemaGrammar@XMLGrammarPoolImpl@xercesc_3_1@@UEAAPEAVSchemaGrammar@2@XZ 000000018008cdac f   xerces-c_3_1:XMLGrammarPoolImpl.cpp.obj
 0001:0008be04       ?createDTDDescription@XMLGrammarPoolImpl@xercesc_3_1@@UEAAPEAVXMLDTDDescription@2@QEB_W@Z 000000018008ce04 f   xerces-c_3_1:XMLGrammarPoolImpl.cpp.obj
 0001:0008be6c       ?createSchemaDescription@XMLGrammarPoolImpl@xercesc_3_1@@UEAAPEAVXMLSchemaDescription@2@QEB_W@Z 000000018008ce6c f   xerces-c_3_1:XMLGrammarPoolImpl.cpp.obj
 0001:0008bed4       ?getXSModel@XMLGrammarPoolImpl@xercesc_3_1@@UEAAPEAVXSModel@2@AEA_N@Z 000000018008ced4 f   xerces-c_3_1:XMLGrammarPoolImpl.cpp.obj
 0001:0008bf14       ?getURIStringPool@XMLGrammarPoolImpl@xercesc_3_1@@UEAAPEAVXMLStringPool@2@XZ 000000018008cf14 f   xerces-c_3_1:XMLGrammarPoolImpl.cpp.obj
 0001:0008bf24       ?serializeGrammars@XMLGrammarPoolImpl@xercesc_3_1@@UEAAXQEAVBinOutputStream@2@@Z 000000018008cf24 f   xerces-c_3_1:XMLGrammarPoolImpl.cpp.obj
 0001:0008c028       ?deserializeGrammars@XMLGrammarPoolImpl@xercesc_3_1@@UEAAXQEAVBinInputStream@2@@Z 000000018008d028 f   xerces-c_3_1:XMLGrammarPoolImpl.cpp.obj
 0001:0008c2d4       ?cleanUp@XMLGrammarPoolImpl@xercesc_3_1@@AEAAXXZ 000000018008d2d4 f   xerces-c_3_1:XMLGrammarPoolImpl.cpp.obj
 0001:0008c2e0       ?getElemEnumerator@SchemaGrammar@xercesc_3_1@@QEBA?AV?$RefHash3KeysIdPoolEnumerator@VSchemaElementDecl@xercesc_3_1@@UStringHasher@2@@2@XZ 000000018008d2e0 f i xerces-c_3_1:XSModel.cpp.obj
 0001:0008c308       ?getNotationEnumerator@SchemaGrammar@xercesc_3_1@@QEBA?AV?$NameIdPoolEnumerator@VXMLNotationDecl@xercesc_3_1@@@2@XZ 000000018008d308 f i xerces-c_3_1:XSModel.cpp.obj
 0001:0008c334       ??0XSModel@xercesc_3_1@@QEAA@PEAVXMLGrammarPool@1@QEAVMemoryManager@1@@Z 000000018008d334 f   xerces-c_3_1:XSModel.cpp.obj
 0001:0008c7d0       ??0XSModel@xercesc_3_1@@QEAA@PEAV01@PEAVGrammarResolver@1@QEAVMemoryManager@1@@Z 000000018008d7d0 f   xerces-c_3_1:XSModel.cpp.obj
 0001:0008cfc8       ??1XSModel@xercesc_3_1@@QEAA@XZ 000000018008dfc8 f   xerces-c_3_1:XSModel.cpp.obj
 0001:0008d20c       ?addComponentToNamespace@XSModel@xercesc_3_1@@AEAAXQEAVXSNamespaceItem@2@QEAVXSObject@2@_K_N@Z 000000018008e20c f   xerces-c_3_1:XSModel.cpp.obj
 0001:0008d338       ?addS4SToXSModel@XSModel@xercesc_3_1@@AEAAXQEAVXSNamespaceItem@2@QEAV?$RefHashTableOf@VDatatypeValidator@xercesc_3_1@@UStringHasher@2@@2@@Z 000000018008e338 f   xerces-c_3_1:XSModel.cpp.obj
 0001:0008d470       ?addGrammarToXSModel@XSModel@xercesc_3_1@@AEAAXPEAVXSNamespaceItem@2@@Z 000000018008e470 f   xerces-c_3_1:XSModel.cpp.obj
 0001:0008d974       ?getTypeDefinition@XSModel@xercesc_3_1@@QEAAPEAVXSTypeDefinition@2@PEB_W0@Z 000000018008e974 f   xerces-c_3_1:XSModel.cpp.obj
 0001:0008d9c4       ?getNamespaceItem@XSModel@xercesc_3_1@@QEAAPEAVXSNamespaceItem@2@QEB_W@Z 000000018008e9c4 f   xerces-c_3_1:XSModel.cpp.obj
 0001:0008da0c       ?getXSObject@XSModel@xercesc_3_1@@QEAAPEAVXSObject@2@PEAX@Z 000000018008ea0c f   xerces-c_3_1:XSModel.cpp.obj
 0001:0008da6c       ??1?$XMLEnumerator@VSchemaElementDecl@xercesc_3_1@@@xercesc_3_1@@UEAA@XZ 000000018008ea6c f i xerces-c_3_1:XSModel.cpp.obj
 0001:0008da78       ??1?$XMLEnumerator@VDatatypeValidator@xercesc_3_1@@@xercesc_3_1@@UEAA@XZ 000000018008ea78 f i xerces-c_3_1:XSModel.cpp.obj
 0001:0008da84       ??1?$XMLEnumerator@VXMLAttDef@xercesc_3_1@@@xercesc_3_1@@UEAA@XZ 000000018008ea84 f i xerces-c_3_1:XSModel.cpp.obj
 0001:0008da90       ??1?$XMLEnumerator@VComplexTypeInfo@xercesc_3_1@@@xercesc_3_1@@UEAA@XZ 000000018008ea90 f i xerces-c_3_1:XSModel.cpp.obj
 0001:0008da9c       ??1?$XMLEnumerator@VXercesAttGroupInfo@xercesc_3_1@@@xercesc_3_1@@UEAA@XZ 000000018008ea9c f i xerces-c_3_1:XSModel.cpp.obj
 0001:0008daa8       ??1?$XMLEnumerator@VXercesGroupInfo@xercesc_3_1@@@xercesc_3_1@@UEAA@XZ 000000018008eaa8 f i xerces-c_3_1:XSModel.cpp.obj
 0001:0008dab4       ??_E?$XMLEnumerator@VSchemaElementDecl@xercesc_3_1@@@xercesc_3_1@@UEAAPEAXI@Z 000000018008eab4 f i  CIL library: CIL module
 0001:0008dab4       ??_G?$XMLEnumerator@VSchemaElementDecl@xercesc_3_1@@@xercesc_3_1@@UEAAPEAXI@Z 000000018008eab4 f i xerces-c_3_1:XSModel.cpp.obj
 0001:0008dae0       ??_E?$XMLEnumerator@VXMLNotationDecl@xercesc_3_1@@@xercesc_3_1@@UEAAPEAXI@Z 000000018008eae0 f i  CIL library: CIL module
 0001:0008dae0       ??_G?$XMLEnumerator@VXMLNotationDecl@xercesc_3_1@@@xercesc_3_1@@UEAAPEAXI@Z 000000018008eae0 f i xerces-c_3_1:XSModel.cpp.obj
 0001:0008db0c       ??_E?$XMLEnumerator@VDatatypeValidator@xercesc_3_1@@@xercesc_3_1@@UEAAPEAXI@Z 000000018008eb0c f i  CIL library: CIL module
 0001:0008db0c       ??_G?$XMLEnumerator@VDatatypeValidator@xercesc_3_1@@@xercesc_3_1@@UEAAPEAXI@Z 000000018008eb0c f i xerces-c_3_1:XSModel.cpp.obj
 0001:0008db38       ??_E?$XMLEnumerator@VXMLAttDef@xercesc_3_1@@@xercesc_3_1@@UEAAPEAXI@Z 000000018008eb38 f i  CIL library: CIL module
 0001:0008db38       ??_G?$XMLEnumerator@VXMLAttDef@xercesc_3_1@@@xercesc_3_1@@UEAAPEAXI@Z 000000018008eb38 f i xerces-c_3_1:XSModel.cpp.obj
 0001:0008db64       ??_E?$XMLEnumerator@VComplexTypeInfo@xercesc_3_1@@@xercesc_3_1@@UEAAPEAXI@Z 000000018008eb64 f i  CIL library: CIL module
 0001:0008db64       ??_G?$XMLEnumerator@VComplexTypeInfo@xercesc_3_1@@@xercesc_3_1@@UEAAPEAXI@Z 000000018008eb64 f i xerces-c_3_1:XSModel.cpp.obj
 0001:0008db90       ??_E?$XMLEnumerator@VXercesAttGroupInfo@xercesc_3_1@@@xercesc_3_1@@UEAAPEAXI@Z 000000018008eb90 f i  CIL library: CIL module
 0001:0008db90       ??_G?$XMLEnumerator@VXercesAttGroupInfo@xercesc_3_1@@@xercesc_3_1@@UEAAPEAXI@Z 000000018008eb90 f i xerces-c_3_1:XSModel.cpp.obj
 0001:0008dbbc       ??_E?$XMLEnumerator@VXercesGroupInfo@xercesc_3_1@@@xercesc_3_1@@UEAAPEAXI@Z 000000018008ebbc f i  CIL library: CIL module
 0001:0008dbbc       ??_G?$XMLEnumerator@VXercesGroupInfo@xercesc_3_1@@@xercesc_3_1@@UEAAPEAXI@Z 000000018008ebbc f i xerces-c_3_1:XSModel.cpp.obj
 0001:0008dbe8       ??0?$RefHash3KeysIdPoolEnumerator@VSchemaElementDecl@xercesc_3_1@@UStringHasher@2@@xercesc_3_1@@QEAA@QEAV?$RefHash3KeysIdPool@VSchemaElementDecl@xercesc_3_1@@UStringHasher@2@@1@_NQEAVMemoryManager@1@@Z 000000018008ebe8 f i xerces-c_3_1:XSModel.cpp.obj
 0001:0008dc90       ??1?$RefHash3KeysIdPoolEnumerator@VSchemaElementDecl@xercesc_3_1@@UStringHasher@2@@xercesc_3_1@@UEAA@XZ 000000018008ec90 f i xerces-c_3_1:XSModel.cpp.obj
 0001:0008dd14       ?hasMoreElements@?$RefHash3KeysIdPoolEnumerator@VSchemaElementDecl@xercesc_3_1@@UStringHasher@2@@xercesc_3_1@@UEBA_NXZ 000000018008ed14 f i xerces-c_3_1:XSModel.cpp.obj
 0001:0008dd30       ?nextElement@?$RefHash3KeysIdPoolEnumerator@VSchemaElementDecl@xercesc_3_1@@UStringHasher@2@@xercesc_3_1@@UEAAAEAVSchemaElementDecl@2@XZ 000000018008ed30 f i xerces-c_3_1:XSModel.cpp.obj
 0001:0008ddb0       ?Reset@?$RefHash3KeysIdPoolEnumerator@VSchemaElementDecl@xercesc_3_1@@UStringHasher@2@@xercesc_3_1@@UEAAXXZ 000000018008edb0 f i xerces-c_3_1:XSModel.cpp.obj
 0001:0008ddc4       ??1?$NameIdPoolEnumerator@VXMLNotationDecl@xercesc_3_1@@@xercesc_3_1@@UEAA@XZ 000000018008edc4 f i xerces-c_3_1:XSModel.cpp.obj
 0001:0008ddd0       ?Reset@?$NameIdPoolEnumerator@VDTDEntityDecl@xercesc_3_1@@@xercesc_3_1@@UEAAXXZ 000000018008edd0 f i xerces-c_3_1:XTemplateSerializer.cpp.obj
 0001:0008ddd0       ?Reset@?$NameIdPoolEnumerator@VDTDElementDecl@xercesc_3_1@@@xercesc_3_1@@UEAAXXZ 000000018008edd0 f i xerces-c_3_1:XTemplateSerializer.cpp.obj
 0001:0008ddd0       ?Reset@?$NameIdPoolEnumerator@VXMLNotationDecl@xercesc_3_1@@@xercesc_3_1@@UEAAXXZ 000000018008edd0 f i xerces-c_3_1:XSModel.cpp.obj
 0001:0008dde4       ??0?$XSNamedMap@VXSObject@xercesc_3_1@@@xercesc_3_1@@QEAA@_K0PEAVXMLStringPool@1@_NQEAVMemoryManager@1@@Z 000000018008ede4 f i xerces-c_3_1:XSModel.cpp.obj
 0001:0008deb8       ?addElement@?$XSNamedMap@VXSObject@xercesc_3_1@@@xercesc_3_1@@QEAAXQEAVXSObject@2@PEB_W1@Z 000000018008eeb8 f i xerces-c_3_1:XSModel.cpp.obj
 0001:0008e058       ??1?$BaseRefVectorOf@VXSObject@xercesc_3_1@@@xercesc_3_1@@UEAA@XZ 000000018008f058 f i xerces-c_3_1:XSModel.cpp.obj
 0001:0008e064       ??0?$RefVectorOf@VXSObject@xercesc_3_1@@@xercesc_3_1@@QEAA@_K_NQEAVMemoryManager@1@@Z 000000018008f064 f i xerces-c_3_1:XSModel.cpp.obj
 0001:0008e0d8       ??1?$BaseRefVectorOf@VXSNamespaceItem@xercesc_3_1@@@xercesc_3_1@@UEAA@XZ 000000018008f0d8 f i xerces-c_3_1:XSModel.cpp.obj
 0001:0008e0e4       ?setElementAt@?$BaseRefVectorOf@VXSNamespaceItem@xercesc_3_1@@@xercesc_3_1@@UEAAXQEAVXSNamespaceItem@2@_K@Z 000000018008f0e4 f i xerces-c_3_1:XSModel.cpp.obj
 0001:0008e188       ?removeAllElements@?$BaseRefVectorOf@VXSNamespaceItem@xercesc_3_1@@@xercesc_3_1@@UEAAXXZ 000000018008f188 f i xerces-c_3_1:XSModel.cpp.obj
 0001:0008e1d8       ?removeElementAt@?$BaseRefVectorOf@VXSNamespaceItem@xercesc_3_1@@@xercesc_3_1@@UEAAX_K@Z 000000018008f1d8 f i xerces-c_3_1:XSModel.cpp.obj
 0001:0008e2ac       ?removeLastElement@?$BaseRefVectorOf@VXSNamespaceItem@xercesc_3_1@@@xercesc_3_1@@UEAAXXZ 000000018008f2ac f i xerces-c_3_1:XSModel.cpp.obj
 0001:0008e2e0       ?cleanup@?$BaseRefVectorOf@VXSNamespaceItem@xercesc_3_1@@@xercesc_3_1@@UEAAXXZ 000000018008f2e0 f i xerces-c_3_1:XSModel.cpp.obj
 0001:0008e330       ??0?$RefVectorOf@VXSNamespaceItem@xercesc_3_1@@@xercesc_3_1@@QEAA@_K_NQEAVMemoryManager@1@@Z 000000018008f330 f i xerces-c_3_1:XSModel.cpp.obj
 0001:0008e398       ??1?$BaseRefVectorOf@VXSAnnotation@xercesc_3_1@@@xercesc_3_1@@UEAA@XZ 000000018008f398 f i xerces-c_3_1:XSModel.cpp.obj
 0001:0008e3a4       ??0?$RefVectorOf@VXSAnnotation@xercesc_3_1@@@xercesc_3_1@@QEAA@_K_NQEAVMemoryManager@1@@Z 000000018008f3a4 f i xerces-c_3_1:XSModel.cpp.obj
 0001:0008e418       ??0?$RefHashTableOf@VXSNamespaceItem@xercesc_3_1@@UStringHasher@2@@xercesc_3_1@@QEAA@_K_NQEAVMemoryManager@1@@Z 000000018008f418 f i xerces-c_3_1:XSModel.cpp.obj
 0001:0008e478       ?put@?$RefHashTableOf@VXSNamespaceItem@xercesc_3_1@@UStringHasher@2@@xercesc_3_1@@QEAAXPEAXQEAVXSNamespaceItem@2@@Z 000000018008f478 f i xerces-c_3_1:XSModel.cpp.obj
 0001:0008e534       ??0?$RefHashTableOfEnumerator@VDatatypeValidator@xercesc_3_1@@UStringHasher@2@@xercesc_3_1@@QEAA@QEAV?$RefHashTableOf@VDatatypeValidator@xercesc_3_1@@UStringHasher@2@@1@_NQEAVMemoryManager@1@@Z 000000018008f534 f i xerces-c_3_1:XSModel.cpp.obj
 0001:0008e5c8       ??1?$RefHashTableOfEnumerator@VDatatypeValidator@xercesc_3_1@@UStringHasher@2@@xercesc_3_1@@UEAA@XZ 000000018008f5c8 f i xerces-c_3_1:XSModel.cpp.obj
 0001:0008e63c       ??0?$RefHashTableOfEnumerator@VXMLAttDef@xercesc_3_1@@UStringHasher@2@@xercesc_3_1@@QEAA@QEAV?$RefHashTableOf@VXMLAttDef@xercesc_3_1@@UStringHasher@2@@1@_NQEAVMemoryManager@1@@Z 000000018008f63c f i xerces-c_3_1:XSModel.cpp.obj
 0001:0008e6d0       ??1?$RefHashTableOfEnumerator@VXMLAttDef@xercesc_3_1@@UStringHasher@2@@xercesc_3_1@@UEAA@XZ 000000018008f6d0 f i xerces-c_3_1:XSModel.cpp.obj
 0001:0008e718       ??0?$RefHashTableOfEnumerator@VComplexTypeInfo@xercesc_3_1@@UStringHasher@2@@xercesc_3_1@@QEAA@QEAV?$RefHashTableOf@VComplexTypeInfo@xercesc_3_1@@UStringHasher@2@@1@_NQEAVMemoryManager@1@@Z 000000018008f718 f i xerces-c_3_1:XSModel.cpp.obj
 0001:0008e7ac       ??1?$RefHashTableOfEnumerator@VComplexTypeInfo@xercesc_3_1@@UStringHasher@2@@xercesc_3_1@@UEAA@XZ 000000018008f7ac f i xerces-c_3_1:XSModel.cpp.obj
 0001:0008e7f4       ??0?$RefHashTableOfEnumerator@VXercesAttGroupInfo@xercesc_3_1@@UStringHasher@2@@xercesc_3_1@@QEAA@QEAV?$RefHashTableOf@VXercesAttGroupInfo@xercesc_3_1@@UStringHasher@2@@1@_NQEAVMemoryManager@1@@Z 000000018008f7f4 f i xerces-c_3_1:XSModel.cpp.obj
 0001:0008e888       ??1?$RefHashTableOfEnumerator@VXercesAttGroupInfo@xercesc_3_1@@UStringHasher@2@@xercesc_3_1@@UEAA@XZ 000000018008f888 f i xerces-c_3_1:XSModel.cpp.obj
 0001:0008e8d0       ??0?$RefHashTableOfEnumerator@VXercesGroupInfo@xercesc_3_1@@UStringHasher@2@@xercesc_3_1@@QEAA@QEAV?$RefHashTableOf@VXercesGroupInfo@xercesc_3_1@@UStringHasher@2@@1@_NQEAVMemoryManager@1@@Z 000000018008f8d0 f i xerces-c_3_1:XSModel.cpp.obj
 0001:0008e964       ??1?$RefHashTableOfEnumerator@VXercesGroupInfo@xercesc_3_1@@UStringHasher@2@@xercesc_3_1@@UEAA@XZ 000000018008f964 f i xerces-c_3_1:XSModel.cpp.obj
 0001:0008e9ac       ??_G?$RefHash3KeysIdPoolEnumerator@VSchemaElementDecl@xercesc_3_1@@UStringHasher@2@@xercesc_3_1@@UEAAPEAXI@Z 000000018008f9ac f i xerces-c_3_1:XSModel.cpp.obj
 0001:0008e9ac       ??_E?$RefHash3KeysIdPoolEnumerator@VSchemaElementDecl@xercesc_3_1@@UStringHasher@2@@xercesc_3_1@@UEAAPEAXI@Z 000000018008f9ac f i  CIL library: CIL module
 0001:0008e9e8       ??_G?$NameIdPoolEnumerator@VXMLNotationDecl@xercesc_3_1@@@xercesc_3_1@@UEAAPEAXI@Z 000000018008f9e8 f i xerces-c_3_1:XSModel.cpp.obj
 0001:0008e9e8       ??_E?$NameIdPoolEnumerator@VXMLNotationDecl@xercesc_3_1@@@xercesc_3_1@@UEAAPEAXI@Z 000000018008f9e8 f i  CIL library: CIL module
 0001:0008ea18       ??_G?$BaseRefVectorOf@VXSObject@xercesc_3_1@@@xercesc_3_1@@UEAAPEAXI@Z 000000018008fa18 f i xerces-c_3_1:XSModel.cpp.obj
 0001:0008ea18       ??_E?$BaseRefVectorOf@VXSObject@xercesc_3_1@@@xercesc_3_1@@UEAAPEAXI@Z 000000018008fa18 f i  CIL library: CIL module
 0001:0008ea48       ??_G?$RefVectorOf@VXSObject@xercesc_3_1@@@xercesc_3_1@@UEAAPEAXI@Z 000000018008fa48 f i xerces-c_3_1:XSModel.cpp.obj
 0001:0008ea48       ??_E?$RefVectorOf@VXSObject@xercesc_3_1@@@xercesc_3_1@@UEAAPEAXI@Z 000000018008fa48 f i  CIL library: CIL module
 0001:0008eae4       ??_G?$BaseRefVectorOf@VXSNamespaceItem@xercesc_3_1@@@xercesc_3_1@@UEAAPEAXI@Z 000000018008fae4 f i xerces-c_3_1:XSModel.cpp.obj
 0001:0008eae4       ??_E?$BaseRefVectorOf@VXSNamespaceItem@xercesc_3_1@@@xercesc_3_1@@UEAAPEAXI@Z 000000018008fae4 f i  CIL library: CIL module
 0001:0008eb14       ??_GXSNamespaceItem@xercesc_3_1@@QEAAPEAXI@Z 000000018008fb14 f i xerces-c_3_1:XSModel.cpp.obj
 0001:0008ec5c       ??_E?$RefVectorOf@VXSNamespaceItem@xercesc_3_1@@@xercesc_3_1@@UEAAPEAXI@Z 000000018008fc5c f i  CIL library: CIL module
 0001:0008ec5c       ??_G?$RefVectorOf@VXSNamespaceItem@xercesc_3_1@@@xercesc_3_1@@UEAAPEAXI@Z 000000018008fc5c f i xerces-c_3_1:XSModel.cpp.obj
 0001:0008ecf0       ??_E?$BaseRefVectorOf@VXSAnnotation@xercesc_3_1@@@xercesc_3_1@@UEAAPEAXI@Z 000000018008fcf0 f i  CIL library: CIL module
 0001:0008ecf0       ??_G?$BaseRefVectorOf@VXSAnnotation@xercesc_3_1@@@xercesc_3_1@@UEAAPEAXI@Z 000000018008fcf0 f i xerces-c_3_1:XSModel.cpp.obj
 0001:0008ed20       ??_E?$RefVectorOf@VXSAnnotation@xercesc_3_1@@@xercesc_3_1@@UEAAPEAXI@Z 000000018008fd20 f i  CIL library: CIL module
 0001:0008ed20       ??_G?$RefVectorOf@VXSAnnotation@xercesc_3_1@@@xercesc_3_1@@UEAAPEAXI@Z 000000018008fd20 f i xerces-c_3_1:XSModel.cpp.obj
 0001:0008edbc       ??_G?$RefHashTableOfEnumerator@VDatatypeValidator@xercesc_3_1@@UStringHasher@2@@xercesc_3_1@@UEAAPEAXI@Z 000000018008fdbc f i xerces-c_3_1:XSModel.cpp.obj
 0001:0008edbc       ??_E?$RefHashTableOfEnumerator@VDatatypeValidator@xercesc_3_1@@UStringHasher@2@@xercesc_3_1@@UEAAPEAXI@Z 000000018008fdbc f i  CIL library: CIL module
 0001:0008edf8       ??_G?$RefHashTableOfEnumerator@VXMLAttDef@xercesc_3_1@@UStringHasher@2@@xercesc_3_1@@UEAAPEAXI@Z 000000018008fdf8 f i xerces-c_3_1:XSModel.cpp.obj
 0001:0008edf8       ??_E?$RefHashTableOfEnumerator@VXMLAttDef@xercesc_3_1@@UStringHasher@2@@xercesc_3_1@@UEAAPEAXI@Z 000000018008fdf8 f i  CIL library: CIL module
 0001:0008ee34       ??_G?$RefHashTableOf@VXMLAttDef@xercesc_3_1@@UStringHasher@2@@xercesc_3_1@@QEAAPEAXI@Z 000000018008fe34 f i xerces-c_3_1:XSModel.cpp.obj
 0001:0008ee34       ??_G?$RefHashTableOf@VKVStringPair@xercesc_3_1@@UStringHasher@2@@xercesc_3_1@@QEAAPEAXI@Z 000000018008fe34 f i xerces-c_3_1:DOMXPathNSResolverImpl.cpp.obj
 0001:0008ee34       ??_G?$RefHashTableOf@VXercesGroupInfo@xercesc_3_1@@UStringHasher@2@@xercesc_3_1@@QEAAPEAXI@Z 000000018008fe34 f i xerces-c_3_1:XSModel.cpp.obj
 0001:0008ee34       ??_G?$RefHashTableOf@VComplexTypeInfo@xercesc_3_1@@UStringHasher@2@@xercesc_3_1@@QEAAPEAXI@Z 000000018008fe34 f i xerces-c_3_1:XSModel.cpp.obj
 0001:0008ee34       ??_G?$RefHashTableOf@VDTDAttDef@xercesc_3_1@@UStringHasher@2@@xercesc_3_1@@QEAAPEAXI@Z 000000018008fe34 f i xerces-c_3_1:XTemplateSerializer.cpp.obj
 0001:0008ee34       ??_G?$RefHashTableOf@VXercesAttGroupInfo@xercesc_3_1@@UStringHasher@2@@xercesc_3_1@@QEAAPEAXI@Z 000000018008fe34 f i xerces-c_3_1:XSModel.cpp.obj
 0001:0008eee8       ??_G?$RefHashTableOfEnumerator@VComplexTypeInfo@xercesc_3_1@@UStringHasher@2@@xercesc_3_1@@UEAAPEAXI@Z 000000018008fee8 f i xerces-c_3_1:XSModel.cpp.obj
 0001:0008eee8       ??_E?$RefHashTableOfEnumerator@VComplexTypeInfo@xercesc_3_1@@UStringHasher@2@@xercesc_3_1@@UEAAPEAXI@Z 000000018008fee8 f i  CIL library: CIL module
 0001:0008ef24       ??_E?$RefHashTableOfEnumerator@VXercesAttGroupInfo@xercesc_3_1@@UStringHasher@2@@xercesc_3_1@@UEAAPEAXI@Z 000000018008ff24 f i  CIL library: CIL module
 0001:0008ef24       ??_G?$RefHashTableOfEnumerator@VXercesAttGroupInfo@xercesc_3_1@@UStringHasher@2@@xercesc_3_1@@UEAAPEAXI@Z 000000018008ff24 f i xerces-c_3_1:XSModel.cpp.obj
 0001:0008ef60       ??_E?$RefHashTableOfEnumerator@VXercesGroupInfo@xercesc_3_1@@UStringHasher@2@@xercesc_3_1@@UEAAPEAXI@Z 000000018008ff60 f i  CIL library: CIL module
 0001:0008ef60       ??_G?$RefHashTableOfEnumerator@VXercesGroupInfo@xercesc_3_1@@UStringHasher@2@@xercesc_3_1@@UEAAPEAXI@Z 000000018008ff60 f i xerces-c_3_1:XSModel.cpp.obj
 0001:0008ef9c       ?findNext@?$RefHash3KeysIdPoolEnumerator@VSchemaElementDecl@xercesc_3_1@@UStringHasher@2@@xercesc_3_1@@AEAAXXZ 000000018008ff9c f i xerces-c_3_1:XSModel.cpp.obj
 0001:0008efe8       ?removeAll@?$RefHash3KeysIdPool@VSchemaElementDecl@xercesc_3_1@@UStringHasher@2@@xercesc_3_1@@QEAAXXZ 000000018008ffe8 f i xerces-c_3_1:XSModel.cpp.obj
 0001:0008f078       ?set@DOMBuffer@xercesc_3_1@@QEAAXQEB_W@Z 0000000180090078 f i xerces-c_3_1:DOMCharacterDataImpl.cpp.obj
 0001:0008f108       ??0DOMCharacterDataImpl@xercesc_3_1@@QEAA@PEAVDOMDocument@1@PEB_W@Z 0000000180090108 f   xerces-c_3_1:DOMCharacterDataImpl.cpp.obj
 0001:0008f1f0       ??0DOMCharacterDataImpl@xercesc_3_1@@QEAA@PEAVDOMDocument@1@PEB_W_K@Z 00000001800901f0 f   xerces-c_3_1:DOMCharacterDataImpl.cpp.obj
 0001:0008f2b8       ??0DOMCharacterDataImpl@xercesc_3_1@@QEAA@AEBV01@@Z 00000001800902b8 f   xerces-c_3_1:DOMCharacterDataImpl.cpp.obj
 0001:0008f38c       ?setNodeValue@DOMCharacterDataImpl@xercesc_3_1@@QEAAXPEBVDOMNode@2@PEB_W@Z 000000018009038c f   xerces-c_3_1:DOMCharacterDataImpl.cpp.obj
 0001:0008f4c4       ?appendData@DOMCharacterDataImpl@xercesc_3_1@@QEAAXPEBVDOMNode@2@PEB_W@Z 00000001800904c4 f   xerces-c_3_1:DOMCharacterDataImpl.cpp.obj
 0001:0008f598       ?deleteData@DOMCharacterDataImpl@xercesc_3_1@@QEAAXPEBVDOMNode@2@_K1@Z 0000000180090598 f   xerces-c_3_1:DOMCharacterDataImpl.cpp.obj
 0001:0008f790       ?insertData@DOMCharacterDataImpl@xercesc_3_1@@QEAAXPEBVDOMNode@2@_KPEB_W@Z 0000000180090790 f   xerces-c_3_1:DOMCharacterDataImpl.cpp.obj
 0001:0008fa10       ?replaceData@DOMCharacterDataImpl@xercesc_3_1@@QEAAXPEBVDOMNode@2@_K1PEB_W@Z 0000000180090a10 f   xerces-c_3_1:DOMCharacterDataImpl.cpp.obj
 0001:0008fa94       ?substringData@DOMCharacterDataImpl@xercesc_3_1@@QEBAPEB_WPEBVDOMNode@2@_K1@Z 0000000180090a94 f   xerces-c_3_1:DOMCharacterDataImpl.cpp.obj
 0001:0008fbbc       ?releaseBuffer@DOMCharacterDataImpl@xercesc_3_1@@QEAAXXZ 0000000180090bbc f   xerces-c_3_1:DOMCharacterDataImpl.cpp.obj
 0001:0008fd20       ??0XIncludeLocation@xercesc_3_1@@QEAA@PEB_W@Z 0000000180090d20 f   xerces-c_3_1:XIncludeLocation.cpp.obj
 0001:0008fdbc       ??1XIncludeLocation@xercesc_3_1@@QEAA@XZ 0000000180090dbc f   xerces-c_3_1:XIncludeLocation.cpp.obj
 0001:0008fddc       ?prependPath@XIncludeLocation@xercesc_3_1@@QEAAPEB_WPEB_W@Z 0000000180090ddc f   xerces-c_3_1:XIncludeLocation.cpp.obj
 0001:0008ff68       ?findEndOfProtocol@XIncludeLocation@xercesc_3_1@@SAPEB_WPEB_W@Z 0000000180090f68 f   xerces-c_3_1:XIncludeLocation.cpp.obj
 0001:00090010       ?ensureStoring@XSerializeEngine@xercesc_3_1@@AEBAXXZ 0000000180091010 f i xerces-c_3_1:XSerializeEngine.cpp.obj
 0001:0009008c       ?ensureLoading@XSerializeEngine@xercesc_3_1@@AEBAXXZ 000000018009108c f i xerces-c_3_1:XSerializeEngine.cpp.obj
 0001:00090108       ??1XSerializeEngine@xercesc_3_1@@QEAA@XZ 0000000180091108 f   xerces-c_3_1:XSerializeEngine.cpp.obj
 0001:00090218       ??0XSerializeEngine@xercesc_3_1@@QEAA@PEAVBinInputStream@1@QEAVXMLGrammarPool@1@_K@Z 0000000180091218 f   xerces-c_3_1:XSerializeEngine.cpp.obj
 0001:00090308       ??0XSerializeEngine@xercesc_3_1@@QEAA@PEAVBinOutputStream@1@QEAVXMLGrammarPool@1@_K@Z 0000000180091308 f   xerces-c_3_1:XSerializeEngine.cpp.obj
 0001:00090434       ?write@XSerializeEngine@xercesc_3_1@@QEAAXQEBE_K@Z 0000000180091434 f   xerces-c_3_1:XSerializeEngine.cpp.obj
 0001:000904e4       ?writeString@XSerializeEngine@xercesc_3_1@@QEAAXQEB_W_K_N@Z 00000001800914e4 f   xerces-c_3_1:XSerializeEngine.cpp.obj
 0001:00090564       ?read@XSerializeEngine@xercesc_3_1@@QEAAPEAVXSerializable@2@QEAVXProtoType@2@@Z 0000000180091564 f   xerces-c_3_1:XSerializeEngine.cpp.obj
 0001:000907cc       ?read@XSerializeEngine@xercesc_3_1@@QEAAXQEAE_K@Z 00000001800917cc f   xerces-c_3_1:XSerializeEngine.cpp.obj
 0001:00090884       ?readString@XSerializeEngine@xercesc_3_1@@QEAAXAEAPEA_WAEA_K1_N@Z 0000000180091884 f   xerces-c_3_1:XSerializeEngine.cpp.obj
 0001:00090948       ??6XSerializeEngine@xercesc_3_1@@QEAAAEAV01@_N@Z 0000000180091948 f   xerces-c_3_1:XSerializeEngine.cpp.obj
 0001:00090984       ??5XSerializeEngine@xercesc_3_1@@QEAAAEAV01@AEA_N@Z 0000000180091984 f   xerces-c_3_1:XSerializeEngine.cpp.obj
 0001:000909c0       ?writeSize@XSerializeEngine@xercesc_3_1@@QEAAX_K@Z 00000001800919c0 f   xerces-c_3_1:XSerializeEngine.cpp.obj
 0001:00090a00       ?readSize@XSerializeEngine@xercesc_3_1@@QEAAXAEA_K@Z 0000000180091a00 f   xerces-c_3_1:XSerializeEngine.cpp.obj
 0001:00090a48       ??6XSerializeEngine@xercesc_3_1@@QEAAAEAV01@F@Z 0000000180091a48 f   xerces-c_3_1:XSerializeEngine.cpp.obj
 0001:00090ab4       ??5XSerializeEngine@xercesc_3_1@@QEAAAEAV01@AEAF@Z 0000000180091ab4 f   xerces-c_3_1:XSerializeEngine.cpp.obj
 0001:00090b20       ??5XSerializeEngine@xercesc_3_1@@QEAAAEAV01@AEAK@Z 0000000180091b20 f   xerces-c_3_1:XSerializeEngine.cpp.obj
 0001:00090b20       ??5XSerializeEngine@xercesc_3_1@@QEAAAEAV01@AEAI@Z 0000000180091b20 f   xerces-c_3_1:XSerializeEngine.cpp.obj
 0001:00090b20       ??5XSerializeEngine@xercesc_3_1@@QEAAAEAV01@AEAH@Z 0000000180091b20 f   xerces-c_3_1:XSerializeEngine.cpp.obj
 0001:00090b8c       ??6XSerializeEngine@xercesc_3_1@@QEAAAEAV01@K@Z 0000000180091b8c f   xerces-c_3_1:XSerializeEngine.cpp.obj
 0001:00090b8c       ??6XSerializeEngine@xercesc_3_1@@QEAAAEAV01@I@Z 0000000180091b8c f   xerces-c_3_1:XSerializeEngine.cpp.obj
 0001:00090b8c       ??6XSerializeEngine@xercesc_3_1@@QEAAAEAV01@H@Z 0000000180091b8c f   xerces-c_3_1:XSerializeEngine.cpp.obj
 0001:00090bf4       ?lookupStorePool@XSerializeEngine@xercesc_3_1@@AEBAIQEAX@Z 0000000180091bf4 f   xerces-c_3_1:XSerializeEngine.cpp.obj
 0001:00090c38       ?addStorePool@XSerializeEngine@xercesc_3_1@@AEAAXQEAX@Z 0000000180091c38 f   xerces-c_3_1:XSerializeEngine.cpp.obj
 0001:00090c98       ?lookupLoadPool@XSerializeEngine@xercesc_3_1@@AEBAPEAVXSerializable@2@I@Z 0000000180091c98 f   xerces-c_3_1:XSerializeEngine.cpp.obj
 0001:00090dc8       ?addLoadPool@XSerializeEngine@xercesc_3_1@@AEAAXQEAX@Z 0000000180091dc8 f   xerces-c_3_1:XSerializeEngine.cpp.obj
 0001:00090ef0       ?pumpCount@XSerializeEngine@xercesc_3_1@@AEAAXXZ 0000000180091ef0 f   xerces-c_3_1:XSerializeEngine.cpp.obj
 0001:00090ffc       ?fillBuffer@XSerializeEngine@xercesc_3_1@@AEAAXXZ 0000000180091ffc f   xerces-c_3_1:XSerializeEngine.cpp.obj
 0001:00091234       ?flushBuffer@XSerializeEngine@xercesc_3_1@@AEAAXXZ 0000000180092234 f   xerces-c_3_1:XSerializeEngine.cpp.obj
 0001:00091280       ?checkAndFlushBuffer@XSerializeEngine@xercesc_3_1@@AEAAX_K@Z 0000000180092280 f i xerces-c_3_1:XSerializeEngine.cpp.obj
 0001:0009135c       ?checkAndFillBuffer@XSerializeEngine@xercesc_3_1@@AEAAX_K@Z 000000018009235c f i xerces-c_3_1:XSerializeEngine.cpp.obj
 0001:00091438       ?ensureStoreBuffer@XSerializeEngine@xercesc_3_1@@AEBAXXZ 0000000180092438 f i xerces-c_3_1:XSerializeEngine.cpp.obj
 0001:00091560       ?ensureLoadBuffer@XSerializeEngine@xercesc_3_1@@AEBAXXZ 0000000180092560 f i xerces-c_3_1:XSerializeEngine.cpp.obj
 0001:00091688       ?ensurePointer@XSerializeEngine@xercesc_3_1@@AEBAXQEAX@Z 0000000180092688 f i xerces-c_3_1:XSerializeEngine.cpp.obj
 0001:00091718       ?needToStoreObject@XSerializeEngine@xercesc_3_1@@QEAA_NQEAX@Z 0000000180092718 f   xerces-c_3_1:XSerializeEngine.cpp.obj
 0001:00091778       ?needToLoadObject@XSerializeEngine@xercesc_3_1@@QEAA_NPEAPEAX@Z 0000000180092778 f   xerces-c_3_1:XSerializeEngine.cpp.obj
 0001:000917c0       ?registerObject@XSerializeEngine@xercesc_3_1@@QEAAXQEAX@Z 00000001800927c0 f   xerces-c_3_1:XSerializeEngine.cpp.obj
 0001:000917ec       ?put@?$RefHashTableOf@VXSerializedObjectId@xercesc_3_1@@UPtrHasher@2@@xercesc_3_1@@QEAAXPEAXQEAVXSerializedObjectId@2@@Z 00000001800927ec f i xerces-c_3_1:XSerializeEngine.cpp.obj
 0001:000918c8       ?init@DOMNodeVector@xercesc_3_1@@AEAAXPEAVDOMDocument@2@_K@Z 00000001800928c8 f   xerces-c_3_1:DOMNodeVector.cpp.obj
 0001:00091920       ?checkSpace@DOMNodeVector@xercesc_3_1@@AEAAXXZ 0000000180092920 f   xerces-c_3_1:DOMNodeVector.cpp.obj
 0001:000919ac       ?insertElementAt@DOMNodeVector@xercesc_3_1@@QEAAXPEAVDOMNode@2@_K@Z 00000001800929ac f   xerces-c_3_1:DOMNodeVector.cpp.obj
 0001:00091a00       ??0XSObject@xercesc_3_1@@QEAA@W4COMPONENT_TYPE@XSConstants@1@QEAVXSModel@1@QEAVMemoryManager@1@@Z 0000000180092a00 f   xerces-c_3_1:XSObject.cpp.obj
 0001:00091a54       ??_EDOMLSParserFilter@xercesc_3_1@@UEAAPEAXI@Z 0000000180092a54 f i  CIL library: CIL module
 0001:00091a54       ??_E__AbortFilter@xercesc_3_1@@UEAAPEAXI@Z 0000000180092a54 f i  CIL library: CIL module
 0001:00091a54       ??_GDOMLSParserFilter@xercesc_3_1@@UEAAPEAXI@Z 0000000180092a54 f i xerces-c_3_1:DOMLSParserImpl.cpp.obj
 0001:00091a54       ??_G__AbortFilter@xercesc_3_1@@UEAAPEAXI@Z 0000000180092a54 f i xerces-c_3_1:DOMLSParserImpl.cpp.obj
 0001:00091a80       ??1DOMLSParser@xercesc_3_1@@UEAA@XZ 0000000180092a80 f i xerces-c_3_1:DOMLSParserImpl.cpp.obj
 0001:00091a8c       ??_GDOMLSParser@xercesc_3_1@@UEAAPEAXI@Z 0000000180092a8c f i xerces-c_3_1:DOMLSParserImpl.cpp.obj
 0001:00091a8c       ??_EDOMLSParser@xercesc_3_1@@UEAAPEAXI@Z 0000000180092a8c f i  CIL library: CIL module
 0001:00091ab8       ?getDomConfig@DOMLSParserImpl@xercesc_3_1@@UEAAPEAVDOMConfiguration@2@XZ 0000000180092ab8 f i xerces-c_3_1:DOMLSParserImpl.cpp.obj
 0001:00091ad0       ?getNodeType@DOMCDATASectionImpl@xercesc_3_1@@UEBA?AW4NodeType@DOMNode@2@XZ 0000000180092ad0 f i xerces-c_3_1:DOMCDATASectionImpl.cpp.obj
 0001:00091ad0       ?acceptNode@__AbortFilter@xercesc_3_1@@UEAA?AW4FilterAction@DOMLSParserFilter@2@PEAVDOMNode@2@@Z 0000000180092ad0 f i xerces-c_3_1:DOMLSParserImpl.cpp.obj
 0001:00091ad0       ?startElement@__AbortFilter@xercesc_3_1@@UEAA?AW4FilterAction@DOMLSParserFilter@2@PEAVDOMElement@2@@Z 0000000180092ad0 f i xerces-c_3_1:DOMLSParserImpl.cpp.obj
 0001:00091ad8       ?getWhatToShow@__AbortFilter@xercesc_3_1@@UEBAKXZ 0000000180092ad8 f i xerces-c_3_1:DOMLSParserImpl.cpp.obj
 0001:00091ae0       ??0DOMLSParserImpl@xercesc_3_1@@QEAA@QEAVXMLValidator@1@QEAVMemoryManager@1@QEAVXMLGrammarPool@1@@Z 0000000180092ae0 f   xerces-c_3_1:DOMLSParserImpl.cpp.obj
 0001:00092074       ??_GDOMLSParserImpl@xercesc_3_1@@UEAAPEAXI@Z 0000000180093074 f i xerces-c_3_1:DOMLSParserImpl.cpp.obj
 0001:00092074       ??_EDOMLSParserImpl@xercesc_3_1@@UEAAPEAXI@Z 0000000180093074 f i  CIL library: CIL module
 0001:000920b0       ??1DOMLSParserImpl@xercesc_3_1@@UEAA@XZ 00000001800930b0 f   xerces-c_3_1:DOMLSParserImpl.cpp.obj
 0001:000921c0       ?getBusy@DOMLSParserImpl@xercesc_3_1@@UEBA_NXZ 00000001800931c0 f   xerces-c_3_1:DOMLSParserImpl.cpp.obj
 0001:000921c8       ?setValidatingMemberType@ValidationContextImpl@xercesc_3_1@@UEAAXPEAVDatatypeValidator@2@@Z 00000001800931c8 f   xerces-c_3_1:ValidationContextImpl.cpp.obj
 0001:000921c8       ?setFilter@DOMLSParserImpl@xercesc_3_1@@UEAAXQEAVDOMLSParserFilter@2@@Z 00000001800931c8 f   xerces-c_3_1:DOMLSParserImpl.cpp.obj
 0001:000921c8       ?setGrammar@DTDValidator@xercesc_3_1@@UEAAXPEAVGrammar@2@@Z 00000001800931c8 f   xerces-c_3_1:DTDValidator.cpp.obj
 0001:000921c8       ?setFilter@DOMLSSerializerImpl@xercesc_3_1@@UEAAXPEAVDOMLSSerializerFilter@2@@Z 00000001800931c8 f   xerces-c_3_1:DOMLSSerializerImpl.cpp.obj
 0001:000921d0       ?setParameter@DOMLSParserImpl@xercesc_3_1@@UEAAXPEB_WPEBX@Z 00000001800931d0 f   xerces-c_3_1:DOMLSParserImpl.cpp.obj
 0001:00092544       ?setParameter@DOMLSParserImpl@xercesc_3_1@@UEAAXPEB_W_N@Z 0000000180093544 f   xerces-c_3_1:DOMLSParserImpl.cpp.obj
 0001:00092ba4       ?getParameter@DOMLSParserImpl@xercesc_3_1@@UEBAPEBXPEB_W@Z 0000000180093ba4 f   xerces-c_3_1:DOMLSParserImpl.cpp.obj
 0001:000931f4       ?canSetParameter@DOMLSParserImpl@xercesc_3_1@@UEBA_NPEB_WPEBX@Z 00000001800941f4 f   xerces-c_3_1:DOMLSParserImpl.cpp.obj
 0001:000932e4       ?canSetParameter@DOMLSParserImpl@xercesc_3_1@@UEBA_NPEB_W_N@Z 00000001800942e4 f   xerces-c_3_1:DOMLSParserImpl.cpp.obj
 0001:0009368c       ?release@DOMLSParserImpl@xercesc_3_1@@UEAAXXZ 000000018009468c f   xerces-c_3_1:DOMLSParserImpl.cpp.obj
 0001:000936a8       ?resetDocumentPool@DOMLSParserImpl@xercesc_3_1@@UEAAXXZ 00000001800946a8 f   xerces-c_3_1:DOMLSParserImpl.cpp.obj
 0001:000936b4       ?parse@DOMLSParserImpl@xercesc_3_1@@UEAAPEAVDOMDocument@2@PEBVDOMLSInput@2@@Z 00000001800946b4 f   xerces-c_3_1:DOMLSParserImpl.cpp.obj
 0001:000937b0       ?parseURI@DOMLSParserImpl@xercesc_3_1@@UEAAPEAVDOMDocument@2@QEB_W@Z 00000001800947b0 f   xerces-c_3_1:DOMLSParserImpl.cpp.obj
 0001:0009386c       ?parseURI@DOMLSParserImpl@xercesc_3_1@@UEAAPEAVDOMDocument@2@QEBD@Z 000000018009486c f   xerces-c_3_1:DOMLSParserImpl.cpp.obj
 0001:00093928       ?startDocument@DOMLSParserImpl@xercesc_3_1@@UEAAXXZ 0000000180094928 f   xerces-c_3_1:DOMLSParserImpl.cpp.obj
 0001:00093ed4       ?XMLDecl@DOMLSParserImpl@xercesc_3_1@@UEAAXQEB_W000@Z 0000000180094ed4 f   xerces-c_3_1:DOMLSParserImpl.cpp.obj
 0001:00093f4c       ?parseWithContext@DOMLSParserImpl@xercesc_3_1@@UEAAPEAVDOMNode@2@PEBVDOMLSInput@2@PEAV32@W4ActionType@DOMLSParser@2@@Z 0000000180094f4c f   xerces-c_3_1:DOMLSParserImpl.cpp.obj
 0001:000942b8       ?abort@DOMLSParserImpl@xercesc_3_1@@UEAAXXZ 00000001800952b8 f   xerces-c_3_1:DOMLSParserImpl.cpp.obj
 0001:000942c4       ?error@DOMLSParserImpl@xercesc_3_1@@UEAAXIQEB_WW4ErrTypes@XMLErrorReporter@2@000_K2@Z 00000001800952c4 f   xerces-c_3_1:DOMLSParserImpl.cpp.obj
 0001:00094440       ?resolveEntity@DOMLSParserImpl@xercesc_3_1@@UEAAPEAVInputSource@2@PEAVXMLResourceIdentifier@2@@Z 0000000180095440 f   xerces-c_3_1:DOMLSParserImpl.cpp.obj
 0001:00094524       ?loadGrammar@DOMLSParserImpl@xercesc_3_1@@UEAAPEAVGrammar@2@QEBDW4GrammarType@32@_N@Z 0000000180095524 f   xerces-c_3_1:DOMLSParserImpl.cpp.obj
 0001:000945e8       ?loadGrammar@DOMLSParserImpl@xercesc_3_1@@UEAAPEAVGrammar@2@QEB_WW4GrammarType@32@_N@Z 00000001800955e8 f   xerces-c_3_1:DOMLSParserImpl.cpp.obj
 0001:000946ac       ?loadGrammar@DOMLSParserImpl@xercesc_3_1@@UEAAPEAVGrammar@2@PEBVDOMLSInput@2@W4GrammarType@32@_N@Z 00000001800956ac f   xerces-c_3_1:DOMLSParserImpl.cpp.obj
 0001:000947d0       ?resetCachedGrammarPool@DOMLSParserImpl@xercesc_3_1@@UEAAXXZ 00000001800957d0 f   xerces-c_3_1:DOMLSParserImpl.cpp.obj
 0001:0009480c       ?resetParse@DOMLSParserImpl@xercesc_3_1@@AEAAXXZ 000000018009580c f   xerces-c_3_1:DOMLSParserImpl.cpp.obj
 0001:0009482c       ?getGrammar@DOMLSParserImpl@xercesc_3_1@@UEBAPEAVGrammar@2@QEB_W@Z 000000018009582c f   xerces-c_3_1:DOMLSParserImpl.cpp.obj
 0001:00094838       ?getRootGrammar@DOMLSParserImpl@xercesc_3_1@@UEBAPEAVGrammar@2@XZ 0000000180095838 f   xerces-c_3_1:DOMLSParserImpl.cpp.obj
 0001:00094848       ?getURIText@DOMLSParserImpl@xercesc_3_1@@UEBAPEB_WI@Z 0000000180095848 f   xerces-c_3_1:DOMLSParserImpl.cpp.obj
 0001:00094854       ?getSrcOffset@DOMLSParserImpl@xercesc_3_1@@UEBA_KXZ 0000000180095854 f   xerces-c_3_1:DOMLSParserImpl.cpp.obj
 0001:00094878       ?applyFilter@DOMLSParserImpl@xercesc_3_1@@AEAAXPEAVDOMNode@2@@Z 0000000180095878 f   xerces-c_3_1:DOMLSParserImpl.cpp.obj
 0001:00094974       ?docCharacters@DOMLSParserImpl@xercesc_3_1@@UEAAXQEB_W_K_N@Z 0000000180095974 f   xerces-c_3_1:DOMLSParserImpl.cpp.obj
 0001:00094aac       ?docComment@DOMLSParserImpl@xercesc_3_1@@UEAAXQEB_W@Z 0000000180095aac f   xerces-c_3_1:DOMLSParserImpl.cpp.obj
 0001:00094b40       ?docPI@DOMLSParserImpl@xercesc_3_1@@UEAAXQEB_W0@Z 0000000180095b40 f   xerces-c_3_1:DOMLSParserImpl.cpp.obj
 0001:00094be4       ?startEntityReference@DOMLSParserImpl@xercesc_3_1@@UEAAXAEBVXMLEntityDecl@2@@Z 0000000180095be4 f   xerces-c_3_1:DOMLSParserImpl.cpp.obj
 0001:00094ccc       ?endElement@DOMLSParserImpl@xercesc_3_1@@UEAAXAEBVXMLElementDecl@2@I_NQEB_W@Z 0000000180095ccc f   xerces-c_3_1:DOMLSParserImpl.cpp.obj
 0001:00094ea8       ?startElement@DOMLSParserImpl@xercesc_3_1@@UEAAXAEBVXMLElementDecl@2@IQEB_WAEBV?$RefVectorOf@VXMLAttr@xercesc_3_1@@@2@_K_N4@Z 0000000180095ea8 f   xerces-c_3_1:DOMLSParserImpl.cpp.obj
 0001:00095100       ??1?$XMLEnumerator@I@xercesc_3_1@@UEAA@XZ 0000000180096100 f i xerces-c_3_1:DOMLSParserImpl.cpp.obj
 0001:0009510c       ??_E?$XMLEnumerator@I@xercesc_3_1@@UEAAPEAXI@Z 000000018009610c f i  CIL library: CIL module
 0001:0009510c       ??_G?$XMLEnumerator@I@xercesc_3_1@@UEAAPEAXI@Z 000000018009610c f i xerces-c_3_1:DOMLSParserImpl.cpp.obj
 0001:00095138       ?removeKey@?$ValueHashTableOf@_NUPtrHasher@xercesc_3_1@@@xercesc_3_1@@QEAAXQEBX@Z 0000000180096138 f i xerces-c_3_1:DOMLSParserImpl.cpp.obj
 0001:00095138       ?removeKey@?$ValueHashTableOf@W4FilterAction@DOMLSParserFilter@xercesc_3_1@@UPtrHasher@3@@xercesc_3_1@@QEAAXQEBX@Z 0000000180096138 f i xerces-c_3_1:DOMLSParserImpl.cpp.obj
 0001:000951ec       ?removeAll@?$ValueHashTableOf@W4FilterAction@DOMLSParserFilter@xercesc_3_1@@UPtrHasher@3@@xercesc_3_1@@QEAAXXZ 00000001800961ec f i xerces-c_3_1:DOMLSParserImpl.cpp.obj
 0001:000951ec       ?removeAll@?$ValueHashTableOf@_NUPtrHasher@xercesc_3_1@@@xercesc_3_1@@QEAAXXZ 00000001800961ec f i xerces-c_3_1:DOMLSParserImpl.cpp.obj
 0001:00095258       ?get@?$ValueHashTableOf@_NUPtrHasher@xercesc_3_1@@@xercesc_3_1@@QEAAAEA_NQEBXQEAVMemoryManager@2@@Z 0000000180096258 f i xerces-c_3_1:FieldActivator.cpp.obj
 0001:00095258       ?get@?$ValueHashTableOf@W4FilterAction@DOMLSParserFilter@xercesc_3_1@@UPtrHasher@3@@xercesc_3_1@@QEAAAEAW4FilterAction@DOMLSParserFilter@2@QEBXQEAVMemoryManager@2@@Z 0000000180096258 f i xerces-c_3_1:DOMLSParserImpl.cpp.obj
 0001:000952e4       ?put@?$ValueHashTableOf@W4FilterAction@DOMLSParserFilter@xercesc_3_1@@UPtrHasher@3@@xercesc_3_1@@QEAAXPEAXAEBW4FilterAction@DOMLSParserFilter@2@@Z 00000001800962e4 f i xerces-c_3_1:DOMLSParserImpl.cpp.obj
 0001:0009539c       ?containsKey@?$ValueHashTableOf@_NUPtrHasher@xercesc_3_1@@@xercesc_3_1@@QEBA_NQEBX@Z 000000018009639c f i xerces-c_3_1:DOMLSParserImpl.cpp.obj
 0001:000953d0       ?put@?$ValueHashTableOf@_NUPtrHasher@xercesc_3_1@@@xercesc_3_1@@QEAAXPEAXAEB_N@Z 00000001800963d0 f i xerces-c_3_1:DOMLSParserImpl.cpp.obj
 0001:00095488       ??0?$ValueHashTableOf@_NUPtrHasher@xercesc_3_1@@@xercesc_3_1@@QEAA@_KQEAVMemoryManager@1@@Z 0000000180096488 f i xerces-c_3_1:DOMLSParserImpl.cpp.obj
 0001:00095488       ??0?$ValueHashTableOf@IUStringHasher@xercesc_3_1@@@xercesc_3_1@@QEAA@_KQEAVMemoryManager@1@@Z 0000000180096488 f i xerces-c_3_1:DOMLSParserImpl.cpp.obj
 0001:00095530       ??1?$ValueHashTableOf@IUStringHasher@xercesc_3_1@@@xercesc_3_1@@QEAA@XZ 0000000180096530 f i xerces-c_3_1:DOMLSParserImpl.cpp.obj
 0001:000955a8       ?put@?$ValueHashTableOf@IUStringHasher@xercesc_3_1@@@xercesc_3_1@@QEAAXPEAXAEBI@Z 00000001800965a8 f i xerces-c_3_1:DOMLSParserImpl.cpp.obj
 0001:00095648       ??1?$ValueHashTableOfEnumerator@IUStringHasher@xercesc_3_1@@@xercesc_3_1@@UEAA@XZ 0000000180096648 f i xerces-c_3_1:DOMLSParserImpl.cpp.obj
 0001:000956a8       ?hasMoreElements@?$ValueHashTableOfEnumerator@IUStringHasher@xercesc_3_1@@@xercesc_3_1@@UEBA_NXZ 00000001800966a8 f i xerces-c_3_1:DOMLSParserImpl.cpp.obj
 0001:000956c4       ?nextElement@?$ValueHashTableOfEnumerator@IUStringHasher@xercesc_3_1@@@xercesc_3_1@@UEAAAEAIXZ 00000001800966c4 f i xerces-c_3_1:DOMLSParserImpl.cpp.obj
 0001:0009574c       ?Reset@?$ValueHashTableOfEnumerator@IUStringHasher@xercesc_3_1@@@xercesc_3_1@@UEAAXXZ 000000018009674c f i xerces-c_3_1:DOMLSParserImpl.cpp.obj
 0001:0009575c       ??_E?$ValueHashTableOfEnumerator@IUStringHasher@xercesc_3_1@@@xercesc_3_1@@UEAAPEAXI@Z 000000018009675c f i  CIL library: CIL module
 0001:0009575c       ??_G?$ValueHashTableOfEnumerator@IUStringHasher@xercesc_3_1@@@xercesc_3_1@@UEAAPEAXI@Z 000000018009675c f i xerces-c_3_1:DOMLSParserImpl.cpp.obj
 0001:00095798       ?rehash@?$ValueHashTableOf@_NUPtrHasher@xercesc_3_1@@@xercesc_3_1@@AEAAXXZ 0000000180096798 f i xerces-c_3_1:DOMLSParserImpl.cpp.obj
 0001:00095798       ?rehash@?$ValueHashTableOf@W4FilterAction@DOMLSParserFilter@xercesc_3_1@@UPtrHasher@3@@xercesc_3_1@@AEAAXXZ 0000000180096798 f i xerces-c_3_1:DOMLSParserImpl.cpp.obj
 0001:00095860       ?findNext@?$ValueHashTableOfEnumerator@IUStringHasher@xercesc_3_1@@@xercesc_3_1@@AEAAXXZ 0000000180096860 f i xerces-c_3_1:DOMLSParserImpl.cpp.obj
 0001:000958c0       ??_EDOMLSParserImpl@xercesc_3_1@@WMA@EAAPEAXI@Z 00000001800968c0 f i xerces-c_3_1:DOMLSParserImpl.cpp.obj
 0001:000958cc       ??_EDOMLSParserImpl@xercesc_3_1@@W7EAAPEAXI@Z 00000001800968cc f i xerces-c_3_1:DOMLSParserImpl.cpp.obj
 0001:000958d8       ??_EDOMLSParserImpl@xercesc_3_1@@WMI@EAAPEAXI@Z 00000001800968d8 f i xerces-c_3_1:DOMLSParserImpl.cpp.obj
 0001:000958e4       ??_EDOMLSParserImpl@xercesc_3_1@@WBA@EAAPEAXI@Z 00000001800968e4 f i xerces-c_3_1:DOMLSParserImpl.cpp.obj
 0001:000958f0       ??_EDOMLSParserImpl@xercesc_3_1@@WBI@EAAPEAXI@Z 00000001800968f0 f i xerces-c_3_1:DOMLSParserImpl.cpp.obj
 0001:000958fc       ??_EDOMLSParserImpl@xercesc_3_1@@WCA@EAAPEAXI@Z 00000001800968fc f i xerces-c_3_1:DOMLSParserImpl.cpp.obj
 0001:00095908       ??1DOMLSSerializer@xercesc_3_1@@UEAA@XZ 0000000180096908 f i xerces-c_3_1:DOMLSSerializerImpl.cpp.obj
 0001:00095914       ??_GDOMLSSerializer@xercesc_3_1@@UEAAPEAXI@Z 0000000180096914 f i xerces-c_3_1:DOMLSSerializerImpl.cpp.obj
 0001:00095914       ??_EDOMLSSerializer@xercesc_3_1@@UEAAPEAXI@Z 0000000180096914 f i  CIL library: CIL module
 0001:00095940       ?getDomConfig@DOMLSSerializerImpl@xercesc_3_1@@UEAAPEAVDOMConfiguration@2@XZ 0000000180096940 f i xerces-c_3_1:DOMLSSerializerImpl.cpp.obj
 0001:0009594c       ??_EDOMLSSerializerImpl@xercesc_3_1@@UEAAPEAXI@Z 000000018009694c f i  CIL library: CIL module
 0001:0009594c       ??_GDOMLSSerializerImpl@xercesc_3_1@@UEAAPEAXI@Z 000000018009694c f i xerces-c_3_1:DOMLSSerializerImpl.cpp.obj
 0001:000959ec       ??0DOMLSSerializerImpl@xercesc_3_1@@QEAA@QEAVMemoryManager@1@@Z 00000001800969ec f   xerces-c_3_1:DOMLSSerializerImpl.cpp.obj
 0001:00095c14       ?canSetParameter@DOMLSSerializerImpl@xercesc_3_1@@UEBA_NPEB_WPEBX@Z 0000000180096c14 f   xerces-c_3_1:DOMLSSerializerImpl.cpp.obj
 0001:00095c34       ?canSetParameter@DOMLSSerializerImpl@xercesc_3_1@@UEBA_NPEB_W_N@Z 0000000180096c34 f   xerces-c_3_1:DOMLSSerializerImpl.cpp.obj
 0001:00095c7c       ?setParameter@DOMLSSerializerImpl@xercesc_3_1@@UEAAXPEB_WPEBX@Z 0000000180096c7c f   xerces-c_3_1:DOMLSSerializerImpl.cpp.obj
 0001:00095ccc       ?setParameter@DOMLSSerializerImpl@xercesc_3_1@@UEAAXPEB_W_N@Z 0000000180096ccc f   xerces-c_3_1:DOMLSSerializerImpl.cpp.obj
 0001:00095d90       ?getParameter@DOMLSSerializerImpl@xercesc_3_1@@UEBAPEBXPEB_W@Z 0000000180096d90 f   xerces-c_3_1:DOMLSSerializerImpl.cpp.obj
 0001:00095df4       ?getBaseURI@DOMLSInputImpl@xercesc_3_1@@UEBAPEB_WXZ 0000000180096df4 f   xerces-c_3_1:DOMLSInputImpl.cpp.obj
 0001:00095df4       ?getURI@DOMLocatorImpl@xercesc_3_1@@UEBAPEB_WXZ 0000000180096df4 f   xerces-c_3_1:DOMLocatorImpl.cpp.obj
 0001:00095df4       ?getBaseURI@DOMNotationImpl@xercesc_3_1@@UEBAPEB_WXZ 0000000180096df4 f   xerces-c_3_1:DOMNotationImpl.cpp.obj
 0001:00095df4       ?getBaseType@XSComplexTypeDefinition@xercesc_3_1@@UEAAPEAVXSTypeDefinition@2@XZ 0000000180096df4 f   xerces-c_3_1:XSComplexTypeDefinition.cpp.obj
 0001:00095df4       ?getAttDefCount@SchemaAttDefList@xercesc_3_1@@UEBA_KXZ 0000000180096df4 f   xerces-c_3_1:SchemaAttDefList.cpp.obj
 0001:00095df4       ?getParameterNames@DOMLSParserImpl@xercesc_3_1@@UEBAPEBVDOMStringList@2@XZ 0000000180096df4 f   xerces-c_3_1:DOMLSParserImpl.cpp.obj
 0001:00095df4       ?getBaseType@XSSimpleTypeDefinition@xercesc_3_1@@UEAAPEAVXSTypeDefinition@2@XZ 0000000180096df4 f   xerces-c_3_1:XSSimpleTypeDefinition.cpp.obj
 0001:00095df4       ?getGrammar@SchemaValidator@xercesc_3_1@@UEBAPEAVGrammar@2@XZ 0000000180096df4 f   xerces-c_3_1:SchemaValidator.cpp.obj
 0001:00095df4       ?getGrammarDescription@DTDGrammar@xercesc_3_1@@UEBAPEAVXMLGrammarDescription@2@XZ 0000000180096df4 f   xerces-c_3_1:DTDGrammar.cpp.obj
 0001:00095df4       ?getAttDefCount@DTDAttDefList@xercesc_3_1@@UEBA_KXZ 0000000180096df4 f   xerces-c_3_1:DTDAttDefList.cpp.obj
 0001:00095df4       ?getEnclosingElementName@XMLSchemaDescriptionImpl@xercesc_3_1@@UEBAPEBVQName@2@XZ 0000000180096df4 f   xerces-c_3_1:XMLSchemaDescriptionImpl.cpp.obj
 0001:00095df4       ?getParameterNames@DOMLSSerializerImpl@xercesc_3_1@@UEBAPEBVDOMStringList@2@XZ 0000000180096df4 f   xerces-c_3_1:DOMLSSerializerImpl.cpp.obj
 0001:00095dfc       ?setNewLine@DOMLSSerializerImpl@xercesc_3_1@@UEAAXQEB_W@Z 0000000180096dfc f   xerces-c_3_1:DOMLSSerializerImpl.cpp.obj
 0001:00095e7c       ?write@DOMLSSerializerImpl@xercesc_3_1@@UEAA_NPEBVDOMNode@2@QEAVDOMLSOutput@2@@Z 0000000180096e7c f   xerces-c_3_1:DOMLSSerializerImpl.cpp.obj
 0001:000960fc       ?writeToURI@DOMLSSerializerImpl@xercesc_3_1@@UEAA_NPEBVDOMNode@2@PEB_W@Z 00000001800970fc f   xerces-c_3_1:DOMLSSerializerImpl.cpp.obj
 0001:00096170       ?writeToString@DOMLSSerializerImpl@xercesc_3_1@@UEAAPEA_WPEBVDOMNode@2@PEAVMemoryManager@2@@Z 0000000180097170 f   xerces-c_3_1:DOMLSSerializerImpl.cpp.obj
 0001:0009633c       ?processNode@DOMLSSerializerImpl@xercesc_3_1@@IEAAXQEBVDOMNode@2@H@Z 000000018009733c f   xerces-c_3_1:DOMLSSerializerImpl.cpp.obj
 0001:00097934       ?checkFilter@DOMLSSerializerImpl@xercesc_3_1@@IEBA?AW4FilterAction@DOMNodeFilter@2@QEBVDOMNode@2@@Z 0000000180098934 f   xerces-c_3_1:DOMLSSerializerImpl.cpp.obj
 0001:00097994       ?checkFeature@DOMLSSerializerImpl@xercesc_3_1@@IEBA_NQEB_W_NAEAH@Z 0000000180098994 f   xerces-c_3_1:DOMLSSerializerImpl.cpp.obj
 0001:00097d0c       ?reportError@DOMLSSerializerImpl@xercesc_3_1@@IEAA_NQEBVDOMNode@2@W4ErrorSeverity@DOMError@2@QEB_W@Z 0000000180098d0c f   xerces-c_3_1:DOMLSSerializerImpl.cpp.obj
 0001:00097ddc       ?reportError@DOMLSSerializerImpl@xercesc_3_1@@IEAA_NQEBVDOMNode@2@W4ErrorSeverity@DOMError@2@W4Codes@XMLDOMMsg@2@@Z 0000000180098ddc f   xerces-c_3_1:DOMLSSerializerImpl.cpp.obj
 0001:00097f6c       ?procCdataSection@DOMLSSerializerImpl@xercesc_3_1@@IEAAXQEB_WQEBVDOMNode@2@@Z 0000000180098f6c f   xerces-c_3_1:DOMLSSerializerImpl.cpp.obj
 0001:0009815c       ?procUnrepCharInCdataSection@DOMLSSerializerImpl@xercesc_3_1@@IEAAXQEB_WQEBVDOMNode@2@@Z 000000018009915c f   xerces-c_3_1:DOMLSSerializerImpl.cpp.obj
 0001:0009831c       ?printNewLine@DOMLSSerializerImpl@xercesc_3_1@@IEAAXXZ 000000018009931c f   xerces-c_3_1:DOMLSSerializerImpl.cpp.obj
 0001:00098340       ?printIndent@DOMLSSerializerImpl@xercesc_3_1@@IEAAXI@Z 0000000180099340 f   xerces-c_3_1:DOMLSSerializerImpl.cpp.obj
 0001:000983ac       ?release@DOMXPathResultImpl@xercesc_3_1@@UEAAXXZ 00000001800993ac f   xerces-c_3_1:DOMXPathResultImpl.cpp.obj
 0001:000983ac       ?release@DOMLSSerializerImpl@xercesc_3_1@@UEAAXXZ 00000001800993ac f   xerces-c_3_1:DOMLSSerializerImpl.cpp.obj
 0001:000983ac       ?release@DOMImplementationListImpl@xercesc_3_1@@UEAAXXZ 00000001800993ac f   xerces-c_3_1:DOMImplementationListImpl.cpp.obj
 0001:000983ac       ?release@DOMLSOutputImpl@xercesc_3_1@@UEAAXXZ 00000001800993ac f   xerces-c_3_1:DOMLSOutputImpl.cpp.obj
 0001:000983ac       ?release@DOMXPathExpressionImpl@xercesc_3_1@@UEAAXXZ 00000001800993ac f   xerces-c_3_1:DOMXPathExpressionImpl.cpp.obj
 0001:000983ac       ?release@DOMXPathNSResolverImpl@xercesc_3_1@@UEAAXXZ 00000001800993ac f   xerces-c_3_1:DOMXPathNSResolverImpl.cpp.obj
 0001:000983ac       ?release@DOMStringListImpl@xercesc_3_1@@UEAAXXZ 00000001800993ac f   xerces-c_3_1:DOMStringListImpl.cpp.obj
 0001:000983ac       ?release@DOMLSInputImpl@xercesc_3_1@@UEAAXXZ 00000001800993ac f   xerces-c_3_1:DOMLSInputImpl.cpp.obj
 0001:000983c4       ?processBOM@DOMLSSerializerImpl@xercesc_3_1@@IEAAXXZ 00000001800993c4 f   xerces-c_3_1:DOMLSSerializerImpl.cpp.obj
 0001:00098684       ?isNamespaceBindingActive@DOMLSSerializerImpl@xercesc_3_1@@IEBA_NPEB_W0@Z 0000000180099684 f   xerces-c_3_1:DOMLSSerializerImpl.cpp.obj
 0001:00098734       ?ensureValidString@DOMLSSerializerImpl@xercesc_3_1@@IEAAXPEBVDOMNode@2@PEB_W@Z 0000000180099734 f   xerces-c_3_1:DOMLSSerializerImpl.cpp.obj
 0001:000987b8       ??1?$BaseRefVectorOf@V?$RefHashTableOf@_WUStringHasher@xercesc_3_1@@@xercesc_3_1@@@xercesc_3_1@@UEAA@XZ 00000001800997b8 f i xerces-c_3_1:DOMLSSerializerImpl.cpp.obj
 0001:000987c4       ?setElementAt@?$BaseRefVectorOf@V?$RefHashTableOf@_WUStringHasher@xercesc_3_1@@@xercesc_3_1@@@xercesc_3_1@@UEAAXQEAV?$RefHashTableOf@_WUStringHasher@xercesc_3_1@@@2@_K@Z 00000001800997c4 f i xerces-c_3_1:DOMLSSerializerImpl.cpp.obj
 0001:00098868       ?removeAllElements@?$BaseRefVectorOf@V?$RefHashTableOf@_WUStringHasher@xercesc_3_1@@@xercesc_3_1@@@xercesc_3_1@@UEAAXXZ 0000000180099868 f i xerces-c_3_1:DOMLSSerializerImpl.cpp.obj
 0001:000988b8       ?removeElementAt@?$BaseRefVectorOf@V?$RefHashTableOf@_WUStringHasher@xercesc_3_1@@@xercesc_3_1@@@xercesc_3_1@@UEAAX_K@Z 00000001800998b8 f i xerces-c_3_1:DOMLSSerializerImpl.cpp.obj
 0001:0009898c       ?removeLastElement@?$BaseRefVectorOf@V?$RefHashTableOf@_WUStringHasher@xercesc_3_1@@@xercesc_3_1@@@xercesc_3_1@@UEAAXXZ 000000018009998c f i xerces-c_3_1:DOMLSSerializerImpl.cpp.obj
 0001:000989c0       ?cleanup@?$BaseRefVectorOf@V?$RefHashTableOf@_WUStringHasher@xercesc_3_1@@@xercesc_3_1@@@xercesc_3_1@@UEAAXXZ 00000001800999c0 f i xerces-c_3_1:DOMLSSerializerImpl.cpp.obj
 0001:00098a10       ??1?$Janitor@VXMLFormatter@xercesc_3_1@@@xercesc_3_1@@QEAA@XZ 0000000180099a10 f i xerces-c_3_1:DOMLSSerializerImpl.cpp.obj
 0001:00098ad0       ??_G?$BaseRefVectorOf@V?$RefHashTableOf@_WUStringHasher@xercesc_3_1@@@xercesc_3_1@@@xercesc_3_1@@UEAAPEAXI@Z 0000000180099ad0 f i xerces-c_3_1:DOMLSSerializerImpl.cpp.obj
 0001:00098ad0       ??_E?$BaseRefVectorOf@V?$RefHashTableOf@_WUStringHasher@xercesc_3_1@@@xercesc_3_1@@@xercesc_3_1@@UEAAPEAXI@Z 0000000180099ad0 f i  CIL library: CIL module
 0001:00098b00       ??_G?$RefVectorOf@V?$RefHashTableOf@_WUStringHasher@xercesc_3_1@@@xercesc_3_1@@@xercesc_3_1@@UEAAPEAXI@Z 0000000180099b00 f i xerces-c_3_1:DOMLSSerializerImpl.cpp.obj
 0001:00098b00       ??_E?$RefVectorOf@V?$RefHashTableOf@_WUStringHasher@xercesc_3_1@@@xercesc_3_1@@@xercesc_3_1@@UEAAPEAXI@Z 0000000180099b00 f i  CIL library: CIL module
 0001:00098b94       ??_EDOMLSSerializerImpl@xercesc_3_1@@W7EAAPEAXI@Z 0000000180099b94 f i xerces-c_3_1:DOMLSSerializerImpl.cpp.obj
 0001:00098ba0       ??0XMLStringTokenizer@xercesc_3_1@@QEAA@QEB_WQEAVMemoryManager@1@@Z 0000000180099ba0 f   xerces-c_3_1:XMLStringTokenizer.cpp.obj
 0001:00098cc0       ??0XMLStringTokenizer@xercesc_3_1@@QEAA@QEB_W0QEAVMemoryManager@1@@Z 0000000180099cc0 f   xerces-c_3_1:XMLStringTokenizer.cpp.obj
 0001:00098e24       ??1XMLStringTokenizer@xercesc_3_1@@QEAA@XZ 0000000180099e24 f   xerces-c_3_1:XMLStringTokenizer.cpp.obj
 0001:00098e2c       ?cleanUp@XMLStringTokenizer@xercesc_3_1@@AEAAXXZ 0000000180099e2c f   xerces-c_3_1:XMLStringTokenizer.cpp.obj
 0001:00098e78       ?nextToken@XMLStringTokenizer@xercesc_3_1@@QEAAPEA_WXZ 0000000180099e78 f   xerces-c_3_1:XMLStringTokenizer.cpp.obj
 0001:00098f38       ?hasMoreTokens@XMLStringTokenizer@xercesc_3_1@@QEAA_NXZ 0000000180099f38 f   xerces-c_3_1:XMLStringTokenizer.cpp.obj
 0001:00098fb4       ??1DOMLSOutput@xercesc_3_1@@UEAA@XZ 0000000180099fb4 f i xerces-c_3_1:DOMLSOutputImpl.cpp.obj
 0001:00098fc0       ??_EDOMLSOutput@xercesc_3_1@@UEAAPEAXI@Z 0000000180099fc0 f i  CIL library: CIL module
 0001:00098fc0       ??_GDOMLSOutput@xercesc_3_1@@UEAAPEAXI@Z 0000000180099fc0 f i xerces-c_3_1:DOMLSOutputImpl.cpp.obj
 0001:00098fec       ?getRootName@XMLDTDDescriptionImpl@xercesc_3_1@@UEBAPEB_WXZ 0000000180099fec f i xerces-c_3_1:XMLDTDDescriptionImpl.cpp.obj
 0001:00098fec       ?getTargetNamespace@XMLSchemaDescriptionImpl@xercesc_3_1@@UEBAPEB_WXZ 0000000180099fec f i xerces-c_3_1:XMLSchemaDescriptionImpl.cpp.obj
 0001:00098fec       ?getEncoding@DOMLSInputImpl@xercesc_3_1@@UEBAPEB_WXZ 0000000180099fec f i xerces-c_3_1:DOMLSInputImpl.cpp.obj
 0001:00098fec       ?getNewLine@DOMLSSerializerImpl@xercesc_3_1@@UEBAPEB_WXZ 0000000180099fec f i xerces-c_3_1:DOMLSSerializerImpl.cpp.obj
 0001:00098fec       ?getNodeName@DOMNotationImpl@xercesc_3_1@@UEBAPEB_WXZ 0000000180099fec f i xerces-c_3_1:DOMNotationImpl.cpp.obj
 0001:00098fec       ?getCurrentNode@DOMTreeWalkerImpl@xercesc_3_1@@UEAAPEAVDOMNode@2@XZ 0000000180099fec f i xerces-c_3_1:DOMTreeWalkerImpl.cpp.obj
 0001:00098fec       ?getSystemId@DOMLSOutputImpl@xercesc_3_1@@UEBAPEB_WXZ 0000000180099fec f i xerces-c_3_1:DOMLSOutputImpl.cpp.obj
 0001:00098fec       ?getEntityDeclPool@ValidationContextImpl@xercesc_3_1@@UEBAPEBV?$NameIdPool@VDTDEntityDecl@xercesc_3_1@@@2@XZ 0000000180099fec f i xerces-c_3_1:ValidationContextImpl.cpp.obj
 0001:00098fec       ?getLocation@DOMErrorImpl@xercesc_3_1@@UEBAPEAVDOMLocator@2@XZ 0000000180099fec f i xerces-c_3_1:DOMErrorImpl.cpp.obj
 0001:00098fec       ?getByteOffset@DOMLocatorImpl@xercesc_3_1@@UEBA_KXZ 0000000180099fec f i xerces-c_3_1:DOMLocatorImpl.cpp.obj
 0001:00098fec       ?getSystemId@XSDLocator@xercesc_3_1@@UEBAPEB_WXZ 0000000180099fec f i xerces-c_3_1:XSDDOMParser.cpp.obj
 0001:00098ff4       ??_EDOMLSOutputImpl@xercesc_3_1@@UEAAPEAXI@Z 0000000180099ff4 f i  CIL library: CIL module
 0001:00098ff4       ??_GDOMLSOutputImpl@xercesc_3_1@@UEAAPEAXI@Z 0000000180099ff4 f i xerces-c_3_1:DOMLSOutputImpl.cpp.obj
 0001:00099030       ??1DOMLSOutputImpl@xercesc_3_1@@UEAA@XZ 000000018009a030 f   xerces-c_3_1:DOMLSOutputImpl.cpp.obj
 0001:00099080       ?setByteStream@DOMLSOutputImpl@xercesc_3_1@@UEAAXPEAVXMLFormatTarget@2@@Z 000000018009a080 f   xerces-c_3_1:DOMLSOutputImpl.cpp.obj
 0001:00099088       ?setEncoding@DOMLSOutputImpl@xercesc_3_1@@UEAAXQEB_W@Z 000000018009a088 f   xerces-c_3_1:DOMLSOutputImpl.cpp.obj
 0001:00099108       ?setSystemId@DOMLSOutputImpl@xercesc_3_1@@UEAAXQEB_W@Z 000000018009a108 f   xerces-c_3_1:DOMLSOutputImpl.cpp.obj
 0001:00099188       ??1DOMLSInput@xercesc_3_1@@UEAA@XZ 000000018009a188 f i xerces-c_3_1:DOMLSInputImpl.cpp.obj
 0001:00099194       ??_GDOMLSInput@xercesc_3_1@@UEAAPEAXI@Z 000000018009a194 f i xerces-c_3_1:DOMLSInputImpl.cpp.obj
 0001:00099194       ??_EDOMLSInput@xercesc_3_1@@UEAAPEAXI@Z 000000018009a194 f i  CIL library: CIL module
 0001:000991c0       ??_GDOMLSInputImpl@xercesc_3_1@@UEAAPEAXI@Z 000000018009a1c0 f i xerces-c_3_1:DOMLSInputImpl.cpp.obj
 0001:000991c0       ??_EDOMLSInputImpl@xercesc_3_1@@UEAAPEAXI@Z 000000018009a1c0 f i  CIL library: CIL module
 0001:0009924c       ?setStringData@DOMLSInputImpl@xercesc_3_1@@UEAAXPEB_W@Z 000000018009a24c f   xerces-c_3_1:DOMLSInputImpl.cpp.obj
 0001:00099260       ?setByteStream@DOMLSInputImpl@xercesc_3_1@@UEAAXPEAVInputSource@2@@Z 000000018009a260 f   xerces-c_3_1:DOMLSInputImpl.cpp.obj
 0001:00099268       ?setEncoding@DOMLSInputImpl@xercesc_3_1@@UEAAXQEB_W@Z 000000018009a268 f   xerces-c_3_1:DOMLSInputImpl.cpp.obj
 0001:000992e8       ?setPublicId@DOMLSInputImpl@xercesc_3_1@@UEAAXQEB_W@Z 000000018009a2e8 f   xerces-c_3_1:DOMLSInputImpl.cpp.obj
 0001:00099368       ?setSystemId@DOMLSInputImpl@xercesc_3_1@@UEAAXQEB_W@Z 000000018009a368 f   xerces-c_3_1:DOMLSInputImpl.cpp.obj
 0001:000993e8       ?setBaseURI@DOMLSInputImpl@xercesc_3_1@@UEAAXQEB_W@Z 000000018009a3e8 f   xerces-c_3_1:DOMLSInputImpl.cpp.obj
 0001:00099468       ??1DOMImplementationList@xercesc_3_1@@UEAA@XZ 000000018009a468 f i xerces-c_3_1:DOMImplementationListImpl.cpp.obj
 0001:00099474       ??_GDOMImplementationList@xercesc_3_1@@UEAAPEAXI@Z 000000018009a474 f i xerces-c_3_1:DOMImplementationListImpl.cpp.obj
 0001:00099474       ??_EDOMImplementationList@xercesc_3_1@@UEAAPEAXI@Z 000000018009a474 f i  CIL library: CIL module
 0001:000994a0       ??0DOMImplementationListImpl@xercesc_3_1@@QEAA@XZ 000000018009a4a0 f   xerces-c_3_1:DOMImplementationListImpl.cpp.obj
 0001:0009954c       ??_EDOMImplementationListImpl@xercesc_3_1@@UEAAPEAXI@Z 000000018009a54c f i  CIL library: CIL module
 0001:0009954c       ??_GDOMImplementationListImpl@xercesc_3_1@@UEAAPEAXI@Z 000000018009a54c f i xerces-c_3_1:DOMImplementationListImpl.cpp.obj
 0001:00099584       ??1DOMImplementationListImpl@xercesc_3_1@@UEAA@XZ 000000018009a584 f   xerces-c_3_1:DOMImplementationListImpl.cpp.obj
 0001:000995c8       ?add@DOMImplementationListImpl@xercesc_3_1@@QEAAXPEAVDOMImplementation@2@@Z 000000018009a5c8 f   xerces-c_3_1:DOMImplementationListImpl.cpp.obj
 0001:0009968c       ?item@DOMImplementationListImpl@xercesc_3_1@@UEBAPEAVDOMImplementation@2@_K@Z 000000018009a68c f   xerces-c_3_1:DOMImplementationListImpl.cpp.obj
 0001:000996b4       ??1?$BaseRefVectorOf@VDOMImplementation@xercesc_3_1@@@xercesc_3_1@@UEAA@XZ 000000018009a6b4 f i xerces-c_3_1:DOMImplementationListImpl.cpp.obj
 0001:000996c0       ??_E?$BaseRefVectorOf@VDOMImplementation@xercesc_3_1@@@xercesc_3_1@@UEAAPEAXI@Z 000000018009a6c0 f i  CIL library: CIL module
 0001:000996c0       ??_G?$BaseRefVectorOf@VDOMImplementation@xercesc_3_1@@@xercesc_3_1@@UEAAPEAXI@Z 000000018009a6c0 f i xerces-c_3_1:DOMImplementationListImpl.cpp.obj
 0001:000996f0       ??_G?$RefVectorOf@VDOMImplementation@xercesc_3_1@@@xercesc_3_1@@UEAAPEAXI@Z 000000018009a6f0 f i xerces-c_3_1:DOMImplementationListImpl.cpp.obj
 0001:000996f0       ??_E?$RefVectorOf@VDOMImplementation@xercesc_3_1@@@xercesc_3_1@@UEAAPEAXI@Z 000000018009a6f0 f i  CIL library: CIL module
 0001:0009978c       ??0BinMemInputStream@xercesc_3_1@@QEAA@QEBE_KW4BufOpts@01@QEAVMemoryManager@1@@Z 000000018009a78c f   xerces-c_3_1:BinMemInputStream.cpp.obj
 0001:00099820       ??_GBinMemInputStream@xercesc_3_1@@UEAAPEAXI@Z 000000018009a820 f i xerces-c_3_1:BinMemInputStream.cpp.obj
 0001:00099820       ??_EBinMemInputStream@xercesc_3_1@@UEAAPEAXI@Z 000000018009a820 f i  CIL library: CIL module
 0001:0009985c       ??1BinMemInputStream@xercesc_3_1@@UEAA@XZ 000000018009a85c f   xerces-c_3_1:BinMemInputStream.cpp.obj
 0001:000998a8       ?readBytes@BinMemInputStream@xercesc_3_1@@UEAA_KQEAE_K@Z 000000018009a8a8 f   xerces-c_3_1:BinMemInputStream.cpp.obj
 0001:000998f4       ?getQName@ReaderMgr@xercesc_3_1@@QEAA_NAEAVXMLBuffer@2@PEAH@Z 000000018009a8f4 f i xerces-c_3_1:DGXMLScanner.cpp.obj
 0001:000999b4       ?getNextCharIfNot@ReaderMgr@xercesc_3_1@@QEAA_N_WAEA_W@Z 000000018009a9b4 f i xerces-c_3_1:DGXMLScanner.cpp.obj
 0001:00099a38       ?movePlainContentChars@ReaderMgr@xercesc_3_1@@QEAAXAEAVXMLBuffer@2@@Z 000000018009aa38 f i xerces-c_3_1:DGXMLScanner.cpp.obj
 0001:00099ae4       ?skippedStringLong@ReaderMgr@xercesc_3_1@@QEAA_NQEB_W@Z 000000018009aae4 f i xerces-c_3_1:DGXMLScanner.cpp.obj
 0001:00099bd0       ?setSystemId@XMLEntityDecl@xercesc_3_1@@QEAAXQEB_W@Z 000000018009abd0 f i xerces-c_3_1:DGXMLScanner.cpp.obj
 0001:00099c54       ??0DTDEntityDecl@xercesc_3_1@@QEAA@QEB_W_NQEAVMemoryManager@1@@Z 000000018009ac54 f i xerces-c_3_1:DGXMLScanner.cpp.obj
 0001:00099d1c       ?setAttrDupChkRegistry@XMLScanner@xercesc_3_1@@IEAAXAEB_KAEA_N@Z 000000018009ad1c f i xerces-c_3_1:DGXMLScanner.cpp.obj
 0001:00099e30       ?getName@DGXMLScanner@xercesc_3_1@@UEBAPEB_WXZ 000000018009ae30 f i xerces-c_3_1:DGXMLScanner.cpp.obj
 0001:00099e38       ?getEntityDecl@DTDGrammar@xercesc_3_1@@QEAAPEAVDTDEntityDecl@2@QEB_W@Z 000000018009ae38 f i xerces-c_3_1:DGXMLScanner.cpp.obj
 0001:00099eb4       ??0DGXMLScanner@xercesc_3_1@@QEAA@QEAVXMLValidator@1@QEAVGrammarResolver@1@QEAVMemoryManager@1@@Z 000000018009aeb4 f   xerces-c_3_1:DGXMLScanner.cpp.obj
 0001:00099f40       ??_GDGXMLScanner@xercesc_3_1@@UEAAPEAXI@Z 000000018009af40 f i xerces-c_3_1:DGXMLScanner.cpp.obj
 0001:00099f40       ??_EDGXMLScanner@xercesc_3_1@@UEAAPEAXI@Z 000000018009af40 f i  CIL library: CIL module
 0001:00099f7c       ??1DGXMLScanner@xercesc_3_1@@UEAA@XZ 000000018009af7c f   xerces-c_3_1:DGXMLScanner.cpp.obj
 0001:00099fb0       ?getEntityDeclPool@DGXMLScanner@xercesc_3_1@@UEAAPEAV?$NameIdPool@VDTDEntityDecl@xercesc_3_1@@@2@XZ 000000018009afb0 f   xerces-c_3_1:DGXMLScanner.cpp.obj
 0001:00099fb0       ?getEntityDeclPool@DGXMLScanner@xercesc_3_1@@UEBAPEBV?$NameIdPool@VDTDEntityDecl@xercesc_3_1@@@2@XZ 000000018009afb0 f   xerces-c_3_1:DGXMLScanner.cpp.obj
 0001:00099fc4       ?scanDocument@DGXMLScanner@xercesc_3_1@@UEAAXAEBVInputSource@2@@Z 000000018009afc4 f   xerces-c_3_1:DGXMLScanner.cpp.obj
 0001:0009a0b4       ?scanNext@DGXMLScanner@xercesc_3_1@@UEAA_NAEAVXMLPScanToken@2@@Z 000000018009b0b4 f   xerces-c_3_1:DGXMLScanner.cpp.obj
 0001:0009a318       ?scanContent@DGXMLScanner@xercesc_3_1@@AEAA_NXZ 000000018009b318 f   xerces-c_3_1:DGXMLScanner.cpp.obj
 0001:0009a494       ?scanEndTag@DGXMLScanner@xercesc_3_1@@AEAAXAEA_N@Z 000000018009b494 f   xerces-c_3_1:DGXMLScanner.cpp.obj
 0001:0009a7a8       ?scanDocTypeDecl@DGXMLScanner@xercesc_3_1@@EEAAXXZ 000000018009b7a8 f   xerces-c_3_1:DGXMLScanner.cpp.obj
 0001:0009b290       ?scanStartTag@DGXMLScanner@xercesc_3_1@@AEAA_NAEA_N@Z 000000018009c290 f   xerces-c_3_1:DGXMLScanner.cpp.obj
 0001:0009bbd4       ?scanStartTagNS@DGXMLScanner@xercesc_3_1@@AEAA_NAEA_N@Z 000000018009cbd4 f   xerces-c_3_1:DGXMLScanner.cpp.obj
 0001:0009c5cc       ?loadGrammar@DGXMLScanner@xercesc_3_1@@UEAAPEAVGrammar@2@AEBVInputSource@2@F_N@Z 000000018009d5cc f   xerces-c_3_1:DGXMLScanner.cpp.obj
 0001:0009c6a0       ?loadDTDGrammar@DGXMLScanner@xercesc_3_1@@AEAAPEAVGrammar@2@AEBVInputSource@2@_N@Z 000000018009d6a0 f   xerces-c_3_1:DGXMLScanner.cpp.obj
 0001:0009cb3c       ?commonInit@DGXMLScanner@xercesc_3_1@@AEAAXXZ 000000018009db3c f   xerces-c_3_1:DGXMLScanner.cpp.obj
 0001:0009cd40       ?cleanUp@DGXMLScanner@xercesc_3_1@@AEAAXXZ 000000018009dd40 f   xerces-c_3_1:DGXMLScanner.cpp.obj
 0001:0009ce38       ??_G?$Hash2KeysSetOf@UStringHasher@xercesc_3_1@@@xercesc_3_1@@QEAAPEAXI@Z 000000018009de38 f i xerces-c_3_1:DGXMLScanner.cpp.obj
 0001:0009cee0       ?buildAttList@DGXMLScanner@xercesc_3_1@@AEAA_K_KPEAVXMLElementDecl@2@AEAV?$RefVectorOf@VXMLAttr@xercesc_3_1@@@2@@Z 000000018009dee0 f   xerces-c_3_1:DGXMLScanner.cpp.obj
 0001:0009d254       ?scanReset@DGXMLScanner@xercesc_3_1@@EEAAXAEBVInputSource@2@@Z 000000018009e254 f   xerces-c_3_1:DGXMLScanner.cpp.obj
 0001:0009d564       ?sendCharData@DGXMLScanner@xercesc_3_1@@EEAAXAEAVXMLBuffer@2@@Z 000000018009e564 f   xerces-c_3_1:DGXMLScanner.cpp.obj
 0001:0009d69c       ?updateNSMap@DGXMLScanner@xercesc_3_1@@AEAAXQEB_W00@Z 000000018009e69c f   xerces-c_3_1:DGXMLScanner.cpp.obj
 0001:0009d8d8       ?scanAttrListforNameSpaces@DGXMLScanner@xercesc_3_1@@AEAAXPEAV?$RefVectorOf@VXMLAttr@xercesc_3_1@@@2@_KPEAVXMLElementDecl@2@@Z 000000018009e8d8 f   xerces-c_3_1:DGXMLScanner.cpp.obj
 0001:0009dac4       ?resolveSystemId@DGXMLScanner@xercesc_3_1@@EEAAPEAVInputSource@2@QEB_W0@Z 000000018009eac4 f   xerces-c_3_1:DGXMLScanner.cpp.obj
 0001:0009de9c       ?scanAttValue@DGXMLScanner@xercesc_3_1@@AEAA_NQEBVXMLAttDef@2@QEB_WAEAVXMLBuffer@2@@Z 000000018009ee9c f   xerces-c_3_1:DGXMLScanner.cpp.obj
 0001:0009e35c       ?scanCDSection@DGXMLScanner@xercesc_3_1@@EEAAXXZ 000000018009f35c f   xerces-c_3_1:DGXMLScanner.cpp.obj
 0001:0009e690       ?scanCharData@DGXMLScanner@xercesc_3_1@@EEAAXAEAVXMLBuffer@2@@Z 000000018009f690 f   xerces-c_3_1:DGXMLScanner.cpp.obj
 0001:0009ea48       ?scanEntityRef@DGXMLScanner@xercesc_3_1@@EEAA?AW4EntityExpRes@XMLScanner@2@_NAEA_W1AEA_N@Z 000000018009fa48 f   xerces-c_3_1:DGXMLScanner.cpp.obj
 0001:0009efc0       ?put@?$RefHash2KeysTableOf@VXMLAttr@xercesc_3_1@@UStringHasher@2@@xercesc_3_1@@QEAAXPEAXHQEAVXMLAttr@2@@Z 000000018009ffc0 f i xerces-c_3_1:DGXMLScanner.cpp.obj
 0001:0009f14c       ??1?$JanitorMemFunCall@VXercesXPath@xercesc_3_1@@@xercesc_3_1@@QEAA@XZ 00000001800a014c f i xerces-c_3_1:XercesXPath.cpp.obj
 0001:0009f14c       ??1?$JanitorMemFunCall@VXMLUri@xercesc_3_1@@@xercesc_3_1@@QEAA@XZ 00000001800a014c f i xerces-c_3_1:XMLUri.cpp.obj
 0001:0009f14c       ??1?$JanitorMemFunCall@VUnionDatatypeValidator@xercesc_3_1@@@xercesc_3_1@@QEAA@XZ 00000001800a014c f i xerces-c_3_1:UnionDatatypeValidator.cpp.obj
 0001:0009f14c       ??1?$JanitorMemFunCall@VIdentityConstraintHandler@xercesc_3_1@@@xercesc_3_1@@QEAA@XZ 00000001800a014c f i xerces-c_3_1:IdentityConstraintHandler.cpp.obj
 0001:0009f14c       ??1?$JanitorMemFunCall@VXMLScanner@xercesc_3_1@@@xercesc_3_1@@QEAA@XZ 00000001800a014c f i xerces-c_3_1:XMLScanner.cpp.obj
 0001:0009f14c       ??1?$JanitorMemFunCall@VDOMXPathResultImpl@xercesc_3_1@@@xercesc_3_1@@QEAA@XZ 00000001800a014c f i xerces-c_3_1:DOMXPathExpressionImpl.cpp.obj
 0001:0009f14c       ??1?$JanitorMemFunCall@VDOMLSParserImpl@xercesc_3_1@@@xercesc_3_1@@QEAA@XZ 00000001800a014c f i xerces-c_3_1:DOMLSParserImpl.cpp.obj
 0001:0009f14c       ??1?$JanitorMemFunCall@VIGXMLScanner@xercesc_3_1@@@xercesc_3_1@@QEAA@XZ 00000001800a014c f i xerces-c_3_1:IGXMLScanner.cpp.obj
 0001:0009f14c       ??1?$JanitorMemFunCall@VXMLURL@xercesc_3_1@@@xercesc_3_1@@QEAA@XZ 00000001800a014c f i xerces-c_3_1:XMLURL.cpp.obj
 0001:0009f14c       ??1?$JanitorMemFunCall@VRegularExpression@xercesc_3_1@@@xercesc_3_1@@QEAA@XZ 00000001800a014c f i xerces-c_3_1:RegularExpression.cpp.obj
 0001:0009f14c       ??1?$JanitorMemFunCall@VXMLGrammarPoolImpl@xercesc_3_1@@@xercesc_3_1@@QEAA@XZ 00000001800a014c f i xerces-c_3_1:XMLGrammarPoolImpl.cpp.obj
 0001:0009f14c       ??1?$JanitorMemFunCall@VXMLAttDef@xercesc_3_1@@@xercesc_3_1@@QEAA@XZ 00000001800a014c f i xerces-c_3_1:XMLAttDef.cpp.obj
 0001:0009f14c       ??1?$JanitorMemFunCall@VXMLEntityDecl@xercesc_3_1@@@xercesc_3_1@@QEAA@XZ 00000001800a014c f i xerces-c_3_1:XMLEntityDecl.cpp.obj
 0001:0009f14c       ??1?$JanitorMemFunCall@VXMLBigDecimal@xercesc_3_1@@@xercesc_3_1@@QEAA@XZ 00000001800a014c f i xerces-c_3_1:XMLBigDecimal.cpp.obj
 0001:0009f14c       ??1?$JanitorMemFunCall@VDGXMLScanner@xercesc_3_1@@@xercesc_3_1@@QEAA@XZ 00000001800a014c f i xerces-c_3_1:DGXMLScanner.cpp.obj
 0001:0009f14c       ??1?$JanitorMemFunCall@VDOMXPathExpressionImpl@xercesc_3_1@@@xercesc_3_1@@QEAA@XZ 00000001800a014c f i xerces-c_3_1:DOMXPathExpressionImpl.cpp.obj
 0001:0009f14c       ??1?$JanitorMemFunCall@VQName@xercesc_3_1@@@xercesc_3_1@@QEAA@XZ 00000001800a014c f i xerces-c_3_1:QName.cpp.obj
 0001:0009f14c       ??1?$JanitorMemFunCall@VXMLNotationDecl@xercesc_3_1@@@xercesc_3_1@@QEAA@XZ 00000001800a014c f i xerces-c_3_1:XMLNotationDecl.cpp.obj
 0001:0009f14c       ??1?$JanitorMemFunCall@VSGXMLScanner@xercesc_3_1@@@xercesc_3_1@@QEAA@XZ 00000001800a014c f i xerces-c_3_1:SGXMLScanner.cpp.obj
 0001:0009f14c       ??1?$JanitorMemFunCall@VSchemaGrammar@xercesc_3_1@@@xercesc_3_1@@QEAA@XZ 00000001800a014c f i xerces-c_3_1:SchemaGrammar.cpp.obj
 0001:0009f14c       ??1?$JanitorMemFunCall@VReaderMgr@xercesc_3_1@@@xercesc_3_1@@QEAA@XZ 00000001800a014c f i xerces-c_3_1:XMLScanner.cpp.obj
 0001:0009f14c       ??1?$JanitorMemFunCall@VIdentityConstraint@xercesc_3_1@@@xercesc_3_1@@QEAA@XZ 00000001800a014c f i xerces-c_3_1:IdentityConstraint.cpp.obj
 0001:0009f14c       ??1?$JanitorMemFunCall@VXPathMatcher@xercesc_3_1@@@xercesc_3_1@@QEAA@XZ 00000001800a014c f i xerces-c_3_1:XPathMatcher.cpp.obj
 0001:0009f14c       ??1?$JanitorMemFunCall@VWFXMLScanner@xercesc_3_1@@@xercesc_3_1@@QEAA@XZ 00000001800a014c f i xerces-c_3_1:WFXMLScanner.cpp.obj
 0001:0009f14c       ??1?$JanitorMemFunCall@VAbstractDOMParser@xercesc_3_1@@@xercesc_3_1@@QEAA@XZ 00000001800a014c f i xerces-c_3_1:AbstractDOMParser.cpp.obj
 0001:0009f178       ??0?$RefHashTableOf@IUPtrHasher@xercesc_3_1@@@xercesc_3_1@@QEAA@_K_NQEAVMemoryManager@1@@Z 00000001800a0178 f i xerces-c_3_1:DGXMLScanner.cpp.obj
 0001:0009f1d8       ?put@?$RefHashTableOf@IUPtrHasher@xercesc_3_1@@@xercesc_3_1@@QEAAXPEAXQEAI@Z 00000001800a01d8 f i xerces-c_3_1:DGXMLScanner.cpp.obj
 0001:0009f2b0       ??0?$Hash2KeysSetOf@UStringHasher@xercesc_3_1@@@xercesc_3_1@@QEAA@_KQEAVMemoryManager@1@@Z 00000001800a02b0 f i xerces-c_3_1:DGXMLScanner.cpp.obj
 0001:0009f304       ?removeAll@?$Hash2KeysSetOf@UStringHasher@xercesc_3_1@@@xercesc_3_1@@QEAAXXZ 00000001800a0304 f i xerces-c_3_1:DGXMLScanner.cpp.obj
 0001:0009f358       ?putIfNotPresent@?$Hash2KeysSetOf@UStringHasher@xercesc_3_1@@@xercesc_3_1@@QEAA_NPEBXH@Z 00000001800a0358 f i xerces-c_3_1:DGXMLScanner.cpp.obj
 0001:0009f4ac       ?rehash@?$RefHashTableOf@VSchemaInfo@xercesc_3_1@@UPtrHasher@2@@xercesc_3_1@@AEAAXXZ 00000001800a04ac f i xerces-c_3_1:TraverseSchema.cpp.obj
 0001:0009f4ac       ?rehash@?$RefHashTableOf@VXSerializedObjectId@xercesc_3_1@@UPtrHasher@2@@xercesc_3_1@@AEAAXXZ 00000001800a04ac f i xerces-c_3_1:XSerializeEngine.cpp.obj
 0001:0009f4ac       ?rehash@?$RefHashTableOf@VXSAnnotation@xercesc_3_1@@UPtrHasher@2@@xercesc_3_1@@AEAAXXZ 00000001800a04ac f i xerces-c_3_1:XTemplateSerializer.cpp.obj
 0001:0009f4ac       ?rehash@?$RefHashTableOf@VXMLCanRepGroup@xercesc_3_1@@UPtrHasher@2@@xercesc_3_1@@AEAAXXZ 00000001800a04ac f i xerces-c_3_1:DatatypeValidatorFactory.cpp.obj
 0001:0009f4ac       ?rehash@?$RefHashTableOf@IUPtrHasher@xercesc_3_1@@@xercesc_3_1@@AEAAXXZ 00000001800a04ac f i xerces-c_3_1:DGXMLScanner.cpp.obj
 0001:0009f4ac       ?rehash@?$RefHashTableOf@VXSObject@xercesc_3_1@@UPtrHasher@2@@xercesc_3_1@@AEAAXXZ 00000001800a04ac f i xerces-c_3_1:XSObjectFactory.cpp.obj
 0001:0009f4ac       ?rehash@?$RefHashTableOf@VValueStore@xercesc_3_1@@UPtrHasher@2@@xercesc_3_1@@AEAAXXZ 00000001800a04ac f i xerces-c_3_1:ValueStoreCache.cpp.obj
 0001:0009f4ac       ?rehash@?$RefHashTableOf@V?$ValueVectorOf@PEAVDOMElement@xercesc_3_1@@@xercesc_3_1@@UPtrHasher@2@@xercesc_3_1@@AEAAXXZ 00000001800a04ac f i xerces-c_3_1:TraverseSchema.cpp.obj
 0001:0009f574       ?rehash@?$Hash2KeysSetOf@UStringHasher@xercesc_3_1@@@xercesc_3_1@@AEAAXXZ 00000001800a0574 f i xerces-c_3_1:DGXMLScanner.cpp.obj
 0001:0009f684       ?setCurrentSchemaElemName@ElemStack@xercesc_3_1@@QEAAXQEB_W@Z 00000001800a0684 f i xerces-c_3_1:IGXMLScanner.cpp.obj
 0001:0009f76c       ?set@KVStringPair@xercesc_3_1@@QEAAXQEB_W_K01@Z 00000001800a076c f i xerces-c_3_1:IGXMLScanner.cpp.obj
 0001:0009f82c       ?getName@IGXMLScanner@xercesc_3_1@@UEBAPEB_WXZ 00000001800a082c f i xerces-c_3_1:IGXMLScanner.cpp.obj
 0001:0009f834       ??0IGXMLScanner@xercesc_3_1@@QEAA@QEAVXMLValidator@1@QEAVGrammarResolver@1@QEAVMemoryManager@1@@Z 00000001800a0834 f   xerces-c_3_1:IGXMLScanner.cpp.obj
 0001:0009f9a4       ??_EIGXMLScanner@xercesc_3_1@@UEAAPEAXI@Z 00000001800a09a4 f i  CIL library: CIL module
 0001:0009f9a4       ??_GIGXMLScanner@xercesc_3_1@@UEAAPEAXI@Z 00000001800a09a4 f i xerces-c_3_1:IGXMLScanner.cpp.obj
 0001:0009f9e0       ??1IGXMLScanner@xercesc_3_1@@UEAA@XZ 00000001800a09e0 f   xerces-c_3_1:IGXMLScanner.cpp.obj
 0001:0009fa28       ?getEntityDeclPool@IGXMLScanner@xercesc_3_1@@UEAAPEAV?$NameIdPool@VDTDEntityDecl@xercesc_3_1@@@2@XZ 00000001800a0a28 f   xerces-c_3_1:IGXMLScanner.cpp.obj
 0001:0009fa28       ?getEntityDeclPool@IGXMLScanner@xercesc_3_1@@UEBAPEBV?$NameIdPool@VDTDEntityDecl@xercesc_3_1@@@2@XZ 00000001800a0a28 f   xerces-c_3_1:IGXMLScanner.cpp.obj
 0001:0009fa3c       ?scanDocument@IGXMLScanner@xercesc_3_1@@UEAAXAEBVInputSource@2@@Z 00000001800a0a3c f   xerces-c_3_1:IGXMLScanner.cpp.obj
 0001:0009fb2c       ?scanNext@IGXMLScanner@xercesc_3_1@@UEAA_NAEAVXMLPScanToken@2@@Z 00000001800a0b2c f   xerces-c_3_1:IGXMLScanner.cpp.obj
 0001:0009fd90       ?commonInit@IGXMLScanner@xercesc_3_1@@AEAAXXZ 00000001800a0d90 f   xerces-c_3_1:IGXMLScanner.cpp.obj
 0001:000a0160       ?cleanUp@IGXMLScanner@xercesc_3_1@@AEAAXXZ 00000001800a1160 f   xerces-c_3_1:IGXMLScanner.cpp.obj
 0001:000a03ec       ?rawAttrScan@IGXMLScanner@xercesc_3_1@@AEAA_KQEB_WAEAV?$RefVectorOf@VKVStringPair@xercesc_3_1@@@2@AEA_N@Z 00000001800a13ec f   xerces-c_3_1:IGXMLScanner.cpp.obj
 0001:000a08a8       ?scanContent@IGXMLScanner@xercesc_3_1@@AEAA_NXZ 00000001800a18a8 f   xerces-c_3_1:IGXMLScanner.cpp.obj
 0001:000a0a24       ?scanEndTag@IGXMLScanner@xercesc_3_1@@AEAAXAEA_N@Z 00000001800a1a24 f   xerces-c_3_1:IGXMLScanner.cpp.obj
 0001:000a1164       ?scanDocTypeDecl@IGXMLScanner@xercesc_3_1@@EEAAXXZ 00000001800a2164 f   xerces-c_3_1:IGXMLScanner.cpp.obj
 0001:000a1c58       ?scanStartTag@IGXMLScanner@xercesc_3_1@@AEAA_NAEA_N@Z 00000001800a2c58 f   xerces-c_3_1:IGXMLScanner.cpp.obj
 0001:000a281c       ?scanStartTagNS@IGXMLScanner@xercesc_3_1@@AEAA_NAEA_N@Z 00000001800a381c f   xerces-c_3_1:IGXMLScanner.cpp.obj
 0001:000a3b9c       ?loadGrammar@IGXMLScanner@xercesc_3_1@@UEAAPEAVGrammar@2@AEBVInputSource@2@F_N@Z 00000001800a4b9c f   xerces-c_3_1:IGXMLScanner.cpp.obj
 0001:000a3c8c       ?resetCachedGrammar@IGXMLScanner@xercesc_3_1@@UEAAXXZ 00000001800a4c8c f   xerces-c_3_1:IGXMLScanner.cpp.obj
 0001:000a3c98       ?loadDTDGrammar@IGXMLScanner@xercesc_3_1@@AEAAPEAVGrammar@2@AEBVInputSource@2@_N@Z 00000001800a4c98 f   xerces-c_3_1:IGXMLScanner.cpp.obj
 0001:000a4208       ?endElementPSVI@IGXMLScanner@xercesc_3_1@@AEAAXQEAVSchemaElementDecl@2@QEAVDatatypeValidator@2@@Z 00000001800a5208 f   xerces-c_3_1:IGXMLScanner.cpp.obj
 0001:000a4408       ??0?$RefHash3KeysIdPool@VSchemaElementDecl@xercesc_3_1@@UStringHasher@2@@xercesc_3_1@@QEAA@_K_N0QEAVMemoryManager@1@@Z 00000001800a5408 f i xerces-c_3_1:IGXMLScanner.cpp.obj
 0001:000a44dc       ?put@?$RefHash3KeysIdPool@VSchemaElementDecl@xercesc_3_1@@UStringHasher@2@@xercesc_3_1@@QEAA_KPEAXHHQEAVSchemaElementDecl@2@@Z 00000001800a54dc f i xerces-c_3_1:IGXMLScanner.cpp.obj
 0001:000a4664       ?peek@?$ValueStackOf@PEAVComplexTypeInfo@xercesc_3_1@@@xercesc_3_1@@QEBAAEBQEAVComplexTypeInfo@2@XZ 00000001800a5664 f i xerces-c_3_1:IGXMLScanner.cpp.obj
 0001:000a4724       ??1?$BaseRefVectorOf@VKVStringPair@xercesc_3_1@@@xercesc_3_1@@UEAA@XZ 00000001800a5724 f i xerces-c_3_1:IGXMLScanner.cpp.obj
 0001:000a4730       ??0?$RefVectorOf@VKVStringPair@xercesc_3_1@@@xercesc_3_1@@QEAA@_K_NQEAVMemoryManager@1@@Z 00000001800a5730 f i xerces-c_3_1:IGXMLScanner.cpp.obj
 0001:000a47a0       ??0?$RefHash2KeysTableOf@VSchemaInfo@xercesc_3_1@@UStringHasher@2@@xercesc_3_1@@QEAA@_KQEAVMemoryManager@1@@Z 00000001800a57a0 f i xerces-c_3_1:IGXMLScanner.cpp.obj
 0001:000a47f4       ?removeAll@?$RefHash2KeysTableOf@VSchemaInfo@xercesc_3_1@@UStringHasher@2@@xercesc_3_1@@QEAAXXZ 00000001800a57f4 f i xerces-c_3_1:IGXMLScanner.cpp.obj
 0001:000a489c       ?pop@?$ValueStackOf@_N@xercesc_3_1@@QEAA_NXZ 00000001800a589c f i xerces-c_3_1:IGXMLScanner.cpp.obj
 0001:000a49a8       ??_E?$BaseRefVectorOf@VKVStringPair@xercesc_3_1@@@xercesc_3_1@@UEAAPEAXI@Z 00000001800a59a8 f i  CIL library: CIL module
 0001:000a49a8       ??_G?$BaseRefVectorOf@VKVStringPair@xercesc_3_1@@@xercesc_3_1@@UEAAPEAXI@Z 00000001800a59a8 f i xerces-c_3_1:IGXMLScanner.cpp.obj
 0001:000a49d8       ??_G?$RefVectorOf@VKVStringPair@xercesc_3_1@@@xercesc_3_1@@UEAAPEAXI@Z 00000001800a59d8 f i xerces-c_3_1:IGXMLScanner.cpp.obj
 0001:000a49d8       ??_E?$RefVectorOf@VKVStringPair@xercesc_3_1@@@xercesc_3_1@@UEAAPEAXI@Z 00000001800a59d8 f i  CIL library: CIL module
 0001:000a4a74       ?findBucketElem@?$RefHash3KeysIdPool@VSchemaElementDecl@xercesc_3_1@@UStringHasher@2@@xercesc_3_1@@AEAAPEAU?$RefHash3KeysTableBucketElem@VSchemaElementDecl@xercesc_3_1@@@2@QEBXHHAEA_K@Z 00000001800a5a74 f i xerces-c_3_1:IGXMLScanner.cpp.obj
 0001:000a4b64       ?addElement@?$ValueVectorOf@_N@xercesc_3_1@@QEAAXAEB_N@Z 00000001800a5b64 f i xerces-c_3_1:IGXMLScanner.cpp.obj
 0001:000a4c50       ?getName@WFXMLScanner@xercesc_3_1@@UEBAPEB_WXZ 00000001800a5c50 f i xerces-c_3_1:WFXMLScanner.cpp.obj
 0001:000a4c58       ??0WFXMLScanner@xercesc_3_1@@QEAA@QEAVXMLValidator@1@QEAVGrammarResolver@1@QEAVMemoryManager@1@@Z 00000001800a5c58 f   xerces-c_3_1:WFXMLScanner.cpp.obj
 0001:000a4cdc       ??_EWFXMLScanner@xercesc_3_1@@UEAAPEAXI@Z 00000001800a5cdc f i  CIL library: CIL module
 0001:000a4cdc       ??_GWFXMLScanner@xercesc_3_1@@UEAAPEAXI@Z 00000001800a5cdc f i xerces-c_3_1:WFXMLScanner.cpp.obj
 0001:000a4d18       ??1WFXMLScanner@xercesc_3_1@@UEAA@XZ 00000001800a5d18 f   xerces-c_3_1:WFXMLScanner.cpp.obj
 0001:000a4d4c       ?scanDocument@WFXMLScanner@xercesc_3_1@@UEAAXAEBVInputSource@2@@Z 00000001800a5d4c f   xerces-c_3_1:WFXMLScanner.cpp.obj
 0001:000a4e2c       ?scanNext@WFXMLScanner@xercesc_3_1@@UEAA_NAEAVXMLPScanToken@2@@Z 00000001800a5e2c f   xerces-c_3_1:WFXMLScanner.cpp.obj
 0001:000a5084       ?commonInit@WFXMLScanner@xercesc_3_1@@AEAAXXZ 00000001800a6084 f   xerces-c_3_1:WFXMLScanner.cpp.obj
 0001:000a5320       ?cleanUp@WFXMLScanner@xercesc_3_1@@AEAAXXZ 00000001800a6320 f   xerces-c_3_1:WFXMLScanner.cpp.obj
 0001:000a53e0       ??_G?$ValueHashTableOf@_WUStringHasher@xercesc_3_1@@@xercesc_3_1@@QEAAPEAXI@Z 00000001800a63e0 f i xerces-c_3_1:WFXMLScanner.cpp.obj
 0001:000a53e0       ??_G?$ValueHashTableOf@GUStringHasher@xercesc_3_1@@@xercesc_3_1@@QEAAPEAXI@Z 00000001800a63e0 f i xerces-c_3_1:GeneralAttributeCheck.cpp.obj
 0001:000a5468       ?scanReset@WFXMLScanner@xercesc_3_1@@EEAAXAEBVInputSource@2@@Z 00000001800a6468 f   xerces-c_3_1:WFXMLScanner.cpp.obj
 0001:000a563c       ?sendCharData@WFXMLScanner@xercesc_3_1@@EEAAXAEAVXMLBuffer@2@@Z 00000001800a663c f   xerces-c_3_1:WFXMLScanner.cpp.obj
 0001:000a5688       ?scanContent@WFXMLScanner@xercesc_3_1@@AEAA_NXZ 00000001800a6688 f   xerces-c_3_1:WFXMLScanner.cpp.obj
 0001:000a5804       ?scanEndTag@WFXMLScanner@xercesc_3_1@@AEAAXAEA_N@Z 00000001800a6804 f   xerces-c_3_1:WFXMLScanner.cpp.obj
 0001:000a5a08       ?scanDocTypeDecl@WFXMLScanner@xercesc_3_1@@EEAAXXZ 00000001800a6a08 f   xerces-c_3_1:WFXMLScanner.cpp.obj
 0001:000a5a08       ?scanDocTypeDecl@SGXMLScanner@xercesc_3_1@@EEAAXXZ 00000001800a6a08 f   xerces-c_3_1:SGXMLScanner.cpp.obj
