 luafar3

 Timestamp is 56ba57a1 (Wed Feb 10 00:18:25 2016)

 Preferred load address is 0000000180000000

 Start         Length     Name                   Class
 0001:00000000 00000010H .00cfg                  CODE
 0001:00000010 00000008H .CRT$XCA                CODE
 0001:00000018 00000008H .CRT$XCZ                CODE
 0001:00000020 00000008H .CRT$XIA                CODE
 0001:00000028 00000018H .CRT$XIC                CODE
 0001:00000040 00000008H .CRT$XIZ                CODE
 0001:00000048 00000008H .CRT$XPA                CODE
 0001:00000050 00000018H .CRT$XPX                CODE
 0001:00000068 00000008H .CRT$XPXA               CODE
 0001:00000070 00000008H .CRT$XPZ                CODE
 0001:00000078 00000008H .CRT$XTA                CODE
 0001:00000080 00000008H .CRT$XTZ                CODE
 0001:00000090 00018cb4H .rdata                  CODE
 0001:00018d48 00000000H .rdata$r                CODE
 0001:00018d48 00000010H .rdata$zETW0            CODE
 0001:00018d58 00000077H .rdata$zETW1            CODE
 0001:00018dcf 0000002cH .rdata$zETW2            CODE
 0001:00018dfb 00000001H .rdata$zETW9            CODE
 0001:00018dfc 00000314H .rdata$zzzdbg           CODE
 0001:00019110 00000008H .rtc$IAA                CODE
 0001:00019118 00000008H .rtc$IZZ                CODE
 0001:00019120 00000008H .rtc$TAA                CODE
 0001:00019128 00000008H .rtc$TZZ                CODE
 0001:00019130 000001dbH .text                   CODE
 0001:00019310 00040311H .text$mn                CODE
 0001:00059630 00000012H .text$mn$00             CODE
 0001:00059650 000004a0H .text$x                 CODE
 0001:00059af0 00003638H .xdata                  CODE
 0001:0005d130 00000482H .edata                  CODE
 0002:00000000 000095a0H .data                   DATA
 0002:000095a0 00000000H .data$r                 DATA
 0002:000095a0 00001128H .bss                    DATA
 0003:00000000 00003d38H .pdata                  DATA
 0004:00000000 000006b8H .idata$5                DATA
 0004:000006b8 00000064H .idata$2                DATA
 0004:0000071c 00000014H .idata$3                DATA
 0004:00000730 000006b8H .idata$4                DATA
 0004:00000de8 00000ec0H .idata$6                DATA
 0005:00000000 00000080H .gfids$x                DATA
 0005:00000080 0000001cH .gfids$y                DATA
 0006:00000000 00000058H .rsrc$01                DATA
 0006:00000060 00000358H .rsrc$02                DATA

  Address         Publics by Value              Rva+Base               Lib:Object

 0000:00000000       __guard_iat_table          0000000000000000     <absolute>
 0000:00000000       __guard_fids_count         0000000000000000     <absolute>
 0000:00000000       __guard_iat_count          0000000000000000     <absolute>
 0000:00000000       ___safe_se_handler_table   0000000000000000     <absolute>
 0000:00000000       __guard_longjmp_count      0000000000000000     <absolute>
 0000:00000000       ___safe_se_handler_count   0000000000000000     <absolute>
 0000:00000000       __guard_fids_table         0000000000000000     <absolute>
 0000:00000000       __guard_longjmp_table      0000000000000000     <absolute>
 0000:00000100       __guard_flags              0000000000000100     <absolute>
 0000:00000000       __ImageBase                0000000180000000     <linker-defined>
 0001:00000000       __guard_check_icall_fptr   0000000180001000     LIBCMT:guard_support.obj
 0001:00000008       __guard_dispatch_icall_fptr 0000000180001008     LIBCMT:guard_support.obj
 0001:00000010       __xc_a                     0000000180001010     LIBCMT:initializers.obj
 0001:00000018       __xc_z                     0000000180001018     LIBCMT:initializers.obj
 0001:00000020       __xi_a                     0000000180001020     LIBCMT:initializers.obj
 0001:00000028       __acrt_stdio_initializer   0000000180001028     libucrt:stdio_initializer.obj
 0001:00000030       __acrt_multibyte_initializer 0000000180001030     libucrt:multibyte_initializer.obj
 0001:00000038       __acrt_tran_fma3_initializer 0000000180001038     libucrt:fma3_initializer.obj
 0001:00000040       __xi_z                     0000000180001040     LIBCMT:initializers.obj
 0001:00000048       __xp_a                     0000000180001048     LIBCMT:initializers.obj
 0001:00000050       __acrt_locale_terminator   0000000180001050     libucrt:locale_initializer.obj
 0001:00000058       __acrt_tmpfile_terminator  0000000180001058     libucrt:tmpfile_initializer.obj
 0001:00000060       __dcrt_console_output_terminator 0000000180001060     libucrt:console_output_initializer.obj
 0001:00000068       __acrt_stdio_terminator    0000000180001068     libucrt:stdio_initializer.obj
 0001:00000070       __xp_z                     0000000180001070     LIBCMT:initializers.obj
 0001:00000078       __xt_a                     0000000180001078     LIBCMT:initializers.obj
 0001:00000080       __xt_z                     0000000180001080     LIBCMT:initializers.obj
 0001:00000260       metatable_name             0000000180001260     bit64.obj
 0001:00000270       ??_C@_04JAOJMBA@bnot?$AA@  0000000180001270     bit64.obj
 0001:00000278       ??_C@_04BKGNPECA@band?$AA@ 0000000180001278     bit64.obj
 0001:00000280       ??_C@_03BBBGIIAC@bor?$AA@  0000000180001280     bit64.obj
 0001:00000284       ??_C@_04CKCGDDNF@bxor?$AA@ 0000000180001284     bit64.obj
 0001:0000028c       ??_C@_06ELFGPGBK@lshift?$AA@ 000000018000128c     bit64.obj
 0001:00000294       ??_C@_06HMLHBBIJ@rshift?$AA@ 0000000180001294     bit64.obj
 0001:000002a0       ??_C@_07JILILBLL@arshift?$AA@ 00000001800012a0     bit64.obj
 0001:000002a8       ??_C@_03CLCAEGCJ@new?$AA@  00000001800012a8     bit64.obj
 0001:000002ac       ??_C@_03BDGOHNNK@add?$AA@  00000001800012ac     bit64.obj
 0001:000002b0       ??_C@_03KCMAIMAP@sub?$AA@  00000001800012b0     bit64.obj
 0001:000002b4       ??_C@_03IMIFIBCN@mul?$AA@  00000001800012b4     bit64.obj
 0001:000002b8       ??_C@_03FEJMGOGI@div?$AA@  00000001800012b8     bit64.obj
 0001:000002bc       ??_C@_03FFONCNID@mod?$AA@  00000001800012bc     bit64.obj
 0001:000002c0       ??_C@_02HIIGGHJB@eq?$AA@   00000001800012c0     bit64.obj
 0001:000002c4       ??_C@_02KCAKIFL@lt?$AA@    00000001800012c4     bit64.obj
 0001:000002c8       ??_C@_02FJPJILEL@le?$AA@   00000001800012c8     bit64.obj
 0001:000002cc       ??_C@_04GPMDFGEJ@type?$AA@ 00000001800012cc     bit64.obj
 0001:000002d4       ??_C@_05MEHDOBFN@__add?$AA@ 00000001800012d4     bit64.obj
 0001:000002dc       ??_C@_05HFNNBAII@__sub?$AA@ 00000001800012dc     bit64.obj
 0001:000002e4       ??_C@_05FLJIBNKK@__mul?$AA@ 00000001800012e4     bit64.obj
 0001:000002ec       ??_C@_05IDIBPCOP@__div?$AA@ 00000001800012ec     bit64.obj
 0001:000002f4       ??_C@_05ICPALBAE@__mod?$AA@ 00000001800012f4     bit64.obj
 0001:000002fc       ??_C@_05MHFNBPAK@__unm?$AA@ 00000001800012fc     bit64.obj
 0001:00000304       ??_C@_04GIMIAOHA@__eq?$AA@ 0000000180001304     bit64.obj
 0001:0000030c       ??_C@_04BKGOMBLK@__lt?$AA@ 000000018000130c     bit64.obj
 0001:00000314       ??_C@_04EJLHOCKK@__le?$AA@ 0000000180001314     bit64.obj
 0001:00000320       ??_C@_0L@HDFPAPPH@__tostring?$AA@ 0000000180001320     bit64.obj
 0001:00000330       ??_C@_09GPALILFO@bad?5int64?$AA@ 0000000180001330     bit64.obj
 0001:0000033c       ??_C@_05LLAMLEHD@?$CFI64d?$AA@ 000000018000133c     bit64.obj
 0001:00000344       ??_C@_05OALCLICP@bit64?$AA@ 0000000180001344     bit64.obj
 0001:00000350       __real@433fffffffffffff    0000000180001350     bit64.obj
 0001:00000360       __xmm@80000000000000008000000000000000 0000000180001360     bit64.obj
 0001:00000748       COLLECTOR_FD               0000000180001748     exported.obj
 0001:00000768       COLLECTOR_OPI              0000000180001768     exported.obj
 0001:00000788       COLLECTOR_PI               0000000180001788     exported.obj
 0001:000007b8       KEY_OBJECT                 00000001800017b8     exported.obj
 0001:00000bf0       ??_C@_05GFCDIDHO@debug?$AA@ 0000000180001bf0     exported.obj
 0001:00000bf8       ??_C@_09GPFEECNC@traceback?$AA@ 0000000180001bf8     exported.obj
 0001:00000c04       ??_C@_06NKNNMLDJ@export?$AA@ 0000000180001c04     exported.obj
 0001:00000c10       ??_C@_07PCNKBAGB@OnError?$AA@ 0000000180001c10     exported.obj
 0001:00000c18       ??_C@_0N@NJMIGDDL@CreationTime?$AA@ 0000000180001c18     exported.obj
 0001:00000c28       ??_C@_0P@MFHPCDDH@LastAccessTime?$AA@ 0000000180001c28     exported.obj
 0001:00000c38       ??_C@_0O@FCFNCAHK@LastWriteTime?$AA@ 0000000180001c38     exported.obj
 0001:00000c48       ??_C@_0L@FCILKIIG@ChangeTime?$AA@ 0000000180001c48     exported.obj
 0001:00000c58       ??_C@_08BHIEONMC@FileSize?$AA@ 0000000180001c58     exported.obj
 0001:00000c68       ??_C@_0P@JBACEJLL@AllocationSize?$AA@ 0000000180001c68     exported.obj
 0001:00000c78       ??_C@_05BOOEKJH@Flags?$AA@ 0000000180001c78     exported.obj
 0001:00000c80       ??_C@_0O@DLGJHFNH@NumberOfLinks?$AA@ 0000000180001c80     exported.obj
 0001:00000c90       ??_C@_05MHNOECFO@CRC32?$AA@ 0000000180001c90     exported.obj
 0001:00000c98       ??_C@_08FDCJCDOL@FileName?$AA@ 0000000180001c98     exported.obj
 0001:00000ca8       ??_C@_0BC@COCBGKAE@AlternateFileName?$AA@ 0000000180001ca8     exported.obj
 0001:00000cc0       ??_C@_0M@OHKMKKDH@Description?$AA@ 0000000180001cc0     exported.obj
 0001:00000ccc       ??_C@_05HDCNEILF@Owner?$AA@ 0000000180001ccc     exported.obj
 0001:00000cd8       ??_C@_0BB@OKGMKOG@CustomColumnData?$AA@ 0000000180001cd8     exported.obj
 0001:00000cec       ??_C@_11LOCGONAA@?$AA?$AA@ 0000000180001cec     exported.obj
 0001:00000cf0       ??_C@_08JNHPECBG@UserData?$AA@ 0000000180001cf0     exported.obj
 0001:00000d00       ??_C@_0M@DFMHDHBL@GetFindData?$AA@ 0000000180001d00     exported.obj
 0001:00000d10       ??_C@_08CJLOJPNI@selected?$AA@ 0000000180001d10     exported.obj
 0001:00000d20       ??_C@_08FFPEEIHA@GetFiles?$AA@ 0000000180001d20     exported.obj
 0001:00000d30       ??_C@_0BC@IECOKJFL@GetFiles?4DestPath?$AA@ 0000000180001d30     exported.obj
 0001:00000d44       ??_C@_05LFOKGKBN@?$DMboot?$AA@ 0000000180001d44     exported.obj
 0001:00000d4c       ??_C@_15CBMDENPJ@?$AA?4?$AA?9?$AA?$AA@ 0000000180001d4c     exported.obj
 0001:00000d58       ??_C@_07KNEGBPNO@package?$AA@ 0000000180001d58     exported.obj
 0001:00000d60       ??_C@_07GCEAJMEA@preload?$AA@ 0000000180001d60     exported.obj
 0001:00000d68       ??_C@_19BCNABNAK@?$AA?4?$AAl?$AAu?$AAa?$AA?$AA@ 0000000180001d68     exported.obj
 0001:00000d74       ??_C@_13BPINEIPE@?$AAr?$AA?$AA@ 0000000180001d74     exported.obj
 0001:00000d78       ??_C@_1DC@PABHCCON@?$AAD?$AAe?$AAf?$AAa?$AAu?$AAl?$AAt?$AA?5?$AAs?$AAc?$AAr?$AAi?$AAp?$AAt?$AA?5?$AAn?$AAo?$AAt?$AA?5?$AAf?$AAo?$AAu?$AAn?$AAd?$AA?$AA@ 0000000180001d78     exported.obj
 0001:00000dac       ??_C@_03JEOKDCFP@far?$AA@  0000000180001dac     exported.obj
 0001:00000db0       ??_C@_0BE@HCPAIELH@ReloadDefaultScript?$AA@ 0000000180001db0     exported.obj
 0001:00000dc8       ??_C@_0L@OCPPMCCK@StructSize?$AA@ 0000000180001dc8     exported.obj
 0001:00000dd4       ??_C@_06LBMCOACO@Buffer?$AA@ 0000000180001dd4     exported.obj
 0001:00000ddc       ??_C@_06EPIAKPGD@OpMode?$AA@ 0000000180001ddc     exported.obj
 0001:00000de8       ??_C@_07GDADDFBD@Analyse?$AA@ 0000000180001de8     exported.obj
 0001:00000df0       ??_C@_0BB@CKIGBGLB@GetOpenPanelInfo?$AA@ 0000000180001df0     exported.obj
 0001:00000e04       ??_C@_05ELNJBDOO@reuse?$AA@ 0000000180001e04     exported.obj
 0001:00000e10       ??_C@_1EO@OOOCECGK@?$AAG?$AAe?$AAt?$AAO?$AAp?$AAe?$AAn?$AAP?$AAa?$AAn?$AAe?$AAl?$AAI?$AAn?$AAf?$AAo?$AA?5?$AAs?$AAh?$AAo?$AAu?$AAl?$AAd?$AA?5?$AAr?$AAe?$AAt?$AAu?$AAr?$AAn?$AA?5?$AAa@ 0000000180001e10     exported.obj
 0001:00000e60       ??_C@_08KDMNIFGM@FreeSize?$AA@ 0000000180001e60     exported.obj
 0001:00000e70       ??_C@_08PAJOMFPO@HostFile?$AA@ 0000000180001e70     exported.obj
 0001:00000e7c       ??_C@_06IBPEEEAJ@CurDir?$AA@ 0000000180001e7c     exported.obj
 0001:00000e84       ??_C@_06PEPCFMNJ@Format?$AA@ 0000000180001e84     exported.obj
 0001:00000e90       ??_C@_0L@CMHIOLLB@PanelTitle?$AA@ 0000000180001e90     exported.obj
 0001:00000ea0       ??_C@_09PMEOAIAA@InfoLines?$AA@ 0000000180001ea0     exported.obj
 0001:00000eb0       ??_C@_0BA@BLCGOCOG@InfoLinesNumber?$AA@ 0000000180001eb0     exported.obj
 0001:00000ec0       ??_C@_04OJAHODMC@Text?$AA@ 0000000180001ec0     exported.obj
 0001:00000ec8       ??_C@_04DICKPMGH@Data?$AA@ 0000000180001ec8     exported.obj
 0001:00000ed0       ??_C@_0L@FPEHOFAI@DescrFiles?$AA@ 0000000180001ed0     exported.obj
 0001:00000ee0       ??_C@_0BA@BBOGKOKF@PanelModesArray?$AA@ 0000000180001ee0     exported.obj
 0001:00000ef0       ??_C@_0BB@LFNABPEF@PanelModesNumber?$AA@ 0000000180001ef0     exported.obj
 0001:00000f08       ??_C@_0M@KDJPJFOF@ColumnTypes?$AA@ 0000000180001f08     exported.obj
 0001:00000f18       ??_C@_0N@ILFJPGHI@ColumnWidths?$AA@ 0000000180001f18     exported.obj
 0001:00000f28       ??_C@_0BC@KELOOKNK@StatusColumnTypes?$AA@ 0000000180001f28     exported.obj
 0001:00000f40       ??_C@_0BD@DNDIPKDK@StatusColumnWidths?$AA@ 0000000180001f40     exported.obj
 0001:00000f58       ??_C@_0N@EHCEJHEE@ColumnTitles?$AA@ 0000000180001f58     exported.obj
 0001:00000f68       ??_C@_0P@BEEDPJDK@StartPanelMode?$AA@ 0000000180001f68     exported.obj
 0001:00000f78       ??_C@_0O@NIFKFGBJ@StartSortMode?$AA@ 0000000180001f78     exported.obj
 0001:00000f88       ??_C@_0P@KMACBLNK@StartSortOrder?$AA@ 0000000180001f88     exported.obj
 0001:00000f98       ??_C@_06ONGFDHIA@KeyBar?$AA@ 0000000180001f98     exported.obj
 0001:00000fa0       ??_C@_0P@PKDBPEJI@VirtualKeyCode?$AA@ 0000000180001fa0     exported.obj
 0001:00000fb0       ??_C@_0BA@MFFHAKP@ControlKeyState?$AA@ 0000000180001fb0     exported.obj
 0001:00000fc0       ??_C@_08DGDJEKCP@LongText?$AA@ 0000000180001fc0     exported.obj
 0001:00000fd0       ??_C@_0N@IHDKLODA@ShortcutData?$AA@ 0000000180001fd0     exported.obj
 0001:00000fe0       ??_C@_05HIFJDKLD@array?$AA@ 0000000180001fe0     exported.obj
 0001:00000fe8       ??_C@_01EFFIKLCJ@n?$AA@    0000000180001fe8     exported.obj
 0001:00000fea       ??_C@_00CNPNBAHC@?$AA@     0000000180001fea     exported.obj
 0001:00000fec       ??_C@_04DNCDCIAE@Open?$AA@ 0000000180001fec     exported.obj
 0001:00000ff4       ??_C@_04OPJIDECA@hDlg?$AA@ 0000000180001ff4     exported.obj
 0001:00000ffc       ??_C@_06BNNOMDLO@Handle?$AA@ 0000000180001ffc     exported.obj
 0001:00001004       ??_C@_05LNOAKADA@panel?$AA@ 0000000180002004     exported.obj
 0001:00001010       ??_C@_0L@JMPDJFBN@ClosePanel?$AA@ 0000000180002010     exported.obj
 0001:00001020       ??_C@_07MBOMJGGF@Compare?$AA@ 0000000180002020     exported.obj
 0001:00001028       ??_C@_09NANCCILE@Configure?$AA@ 0000000180002028     exported.obj
 0001:00001038       ??_C@_0M@MMKKMEFA@DeleteFiles?$AA@ 0000000180002038     exported.obj
 0001:00001048       ??_C@_0O@GLLEDHJA@MakeDirectory?$AA@ 0000000180002048     exported.obj
 0001:00001058       ??_C@_0BD@PJNONGDB@MakeDirectory?4Name?$AA@ 0000000180002058     exported.obj
 0001:00001070       ??_C@_0BC@COPMJGBI@ProcessPanelEvent?$AA@ 0000000180002070     exported.obj
 0001:00001088       ??_C@_0BA@DPJAKFGC@ProcessHostFile?$AA@ 0000000180002088     exported.obj
 0001:00001098       ??_C@_0BC@HOBKGBBM@ProcessPanelInput?$AA@ 0000000180002098     exported.obj
 0001:000010b0       ??_C@_08OBOOFGOD@PutFiles?$AA@ 00000001800020b0     exported.obj
 0001:000010c0       ??_C@_0N@KCFEBPAO@SetDirectory?$AA@ 00000001800020c0     exported.obj
 0001:000010d0       ??_C@_0M@PNOHHCCH@SetFindList?$AA@ 00000001800020d0     exported.obj
 0001:000010e0       ??_C@_07EACELFAO@ExitFAR?$AA@ 00000001800020e0     exported.obj
 0001:000010e8       ??_C@_0O@OBCKADMD@GetPluginInfo?$AA@ 00000001800020e8     exported.obj
 0001:000010f8       ??_C@_0O@GDMHGAFH@CommandPrefix?$AA@ 00000001800020f8     exported.obj
 0001:00001108       ??_C@_0O@PHBKMNMJ@DiskMenuGuids?$AA@ 0000000180002108     exported.obj
 0001:00001118       ??_C@_0BA@NLBDFPEO@DiskMenuStrings?$AA@ 0000000180002118     exported.obj
 0001:00001128       ??_C@_0BA@FOMPNLJF@PluginMenuGuids?$AA@ 0000000180002128     exported.obj
 0001:00001138       ??_C@_0BC@DJMJFBJC@PluginMenuStrings?$AA@ 0000000180002138     exported.obj
 0001:00001150       ??_C@_0BC@ILBHAHCH@PluginConfigGuids?$AA@ 0000000180002150     exported.obj
 0001:00001168       ??_C@_0BE@GAFPNGIP@PluginConfigStrings?$AA@ 0000000180002168     exported.obj
 0001:00001180       ??_C@_0BD@DECJPBBK@ProcessEditorInput?$AA@ 0000000180002180     exported.obj
 0001:00001198       ??_C@_0BD@GEMPAGBO@ProcessEditorEvent?$AA@ 0000000180002198     exported.obj
 0001:000011ac       ??_C@_04KOACHJEN@Type?$AA@ 00000001800021ac     exported.obj
 0001:000011b8       ??_C@_0N@EKPHGDMI@StringNumber?$AA@ 00000001800021b8     exported.obj
 0001:000011c8       ??_C@_07MOCFLHCN@FileEOL?$AA@ 00000001800021c8     exported.obj
 0001:000011d0       ??_C@_08DOHJINHB@CodePage?$AA@ 00000001800021d0     exported.obj
 0001:000011e0       ??_C@_0BD@GGKMLEJG@ProcessViewerEvent?$AA@ 00000001800021e0     exported.obj
 0001:000011f8       ??_C@_0BD@FNHBEIC@ProcessDialogEvent?$AA@ 00000001800021f8     exported.obj
 0001:0000120c       ??_C@_06CPBJDKAC@Param2?$AA@ 000000018000220c     exported.obj
 0001:00001214       ??_C@_06EDEGJMB@Param1?$AA@ 0000000180002214     exported.obj
 0001:0000121c       ??_C@_03MLMOILGK@Msg?$AA@  000000018000221c     exported.obj
 0001:00001220       ??_C@_0BE@LHJGGGHN@ProcessSynchroEvent?$AA@ 0000000180002220     exported.obj
 0001:00001238       ??_C@_0BB@PHIEFGHD@GetContentFields?$AA@ 0000000180002238     exported.obj
 0001:00001250       ??_C@_0P@DPJDPMPI@GetContentData?$AA@ 0000000180002250     exported.obj
 0001:00001260       ??_C@_0N@DDJEHLKE@?$DM_globalinfo?$AA@ 0000000180002260     exported.obj
 0001:00001270       ??_C@_1CA@IBKDMBNJ@?$AA_?$AAg?$AAl?$AAo?$AAb?$AAa?$AAl?$AAi?$AAn?$AAf?$AAo?$AA?4?$AAl?$AAu?$AAa?$AA?$AA@ 0000000180002270     exported.obj
 0001:00001290       ??_C@_0O@GJMOPLGM@GetGlobalInfo?$AA@ 0000000180002290     exported.obj
 0001:000012a0       ??_C@_0O@CALOEOI@MinFarVersion?$AA@ 00000001800022a0     exported.obj
 0001:000012b0       ??_C@_07NGFJPNPN@Version?$AA@ 00000001800022b0     exported.obj
 0001:000012b8       ??_C@_04MJHIICBJ@Guid?$AA@ 00000001800022b8     exported.obj
 0001:000012c0       ??_C@_05PABKJLOM@Title?$AA@ 00000001800022c0     exported.obj
 0001:000012c8       ??_C@_06HHECMMLE@Author?$AA@ 00000001800022c8     exported.obj
 0001:000012d0       ??_C@_0BE@DONMOPMJ@ProcessConsoleInput?$AA@ 00000001800022d0     exported.obj
 0001:000012e8       __real@43e0000000000000    00000001800022e8     exported.obj
 0001:000012f0       __real@bff0000000000000    00000001800022f0     exported.obj
 0001:000012f8       ??_C@_0M@LEBKLGKD@OPEN_DIALOG?$AA@ 00000001800022f8     flags.obj
 0001:00001308       ??_C@_0N@CBHPGAKB@OPEN_ANALYSE?$AA@ 0000000180002308     flags.obj
 0001:00001318       ??_C@_0BD@NFNGGFHI@OPEN_RIGHTDISKMENU?$AA@ 0000000180002318     flags.obj
 0001:00001330       ??_C@_0P@FOKOAMLC@OPEN_FROMMACRO?$AA@ 0000000180002330     flags.obj
 0001:00001340       ??_C@_0O@NEDDJIHC@OPEN_LUAMACRO?$AA@ 0000000180002340     flags.obj
 0001:00001350       ??_C@_0P@GBMLNMMI@MCT_MACROPARSE?$AA@ 0000000180002350     flags.obj
 0001:00001360       ??_C@_0P@GNPFPCF@MCT_LOADMACROS?$AA@ 0000000180002360     flags.obj
 0001:00001370       ??_C@_0P@HMDDACMI@MCT_ENUMMACROS?$AA@ 0000000180002370     flags.obj
 0001:00001380       ??_C@_0BA@MOCJHMJK@MCT_WRITEMACROS?$AA@ 0000000180002380     flags.obj
 0001:00001390       ??_C@_0N@IGJGAHKE@MCT_GETMACRO?$AA@ 0000000180002390     flags.obj
 0001:000013a0       ??_C@_0BC@NFGGBILF@MCT_RECORDEDMACRO?$AA@ 00000001800023a0     flags.obj
 0001:000013b8       ??_C@_0N@OLCKOJMI@MCT_DELMACRO?$AA@ 00000001800023b8     flags.obj
 0001:000013c8       ??_C@_0BC@NALHIHJ@MCT_RUNSTARTMACRO?$AA@ 00000001800023c8     flags.obj
 0001:000013e0       ??_C@_0P@HOMHAEFB@MCT_EXECSTRING?$AA@ 00000001800023e0     flags.obj
 0001:000013f0       ??_C@_0O@CDBDPKIC@MCT_PANELSORT?$AA@ 00000001800023f0     flags.obj
 0001:00001400       ??_C@_0BH@PKKJIOHM@MCT_GETCUSTOMSORTMODES?$AA@ 0000000180002400     flags.obj
 0001:00001418       ??_C@_0N@FOPIOCHO@MCT_ADDMACRO?$AA@ 0000000180002418     flags.obj
 0001:00001428       ??_C@_0N@BHFJFHA@MCT_KEYMACRO?$AA@ 0000000180002428     flags.obj
 0001:00001438       ??_C@_0BC@IOECJI@MPRT_NORMALFINISH?$AA@ 0000000180002438     flags.obj
 0001:00001450       ??_C@_0BB@PMCBIGCA@MPRT_ERRORFINISH?$AA@ 0000000180002450     flags.obj
 0001:00001468       ??_C@_0BA@BCBAEEOI@MPRT_ERRORPARSE?$AA@ 0000000180002468     flags.obj
 0001:00001478       ??_C@_09EJDAADCN@MPRT_KEYS?$AA@ 0000000180002478     flags.obj
 0001:00001488       ??_C@_0L@GEHHCKFA@MPRT_PRINT?$AA@ 0000000180002488     flags.obj
 0001:00001498       ??_C@_0BA@OBIDLEIM@MPRT_PLUGINCALL?$AA@ 0000000180002498     flags.obj
 0001:000014a8       ??_C@_0BA@EJFFOAMM@MPRT_PLUGINMENU?$AA@ 00000001800024a8     flags.obj
 0001:000014b8       ??_C@_0BC@LEDOPMKI@MPRT_PLUGINCONFIG?$AA@ 00000001800024b8     flags.obj
 0001:000014d0       ??_C@_0BD@HHINMPPI@MPRT_PLUGINCOMMAND?$AA@ 00000001800024d0     flags.obj
 0001:00001820       Vals                       0000000180002820     flags.obj
 0001:000032a8       ??_C@_0O@IEMNLPAB@MPRT_USERMENU?$AA@ 00000001800042a8     flags.obj
 0001:000032b8       ??_C@_0BA@GEAFHJNF@MPRT_HASNOMACRO?$AA@ 00000001800042b8     flags.obj
 0001:000032c8       ??_C@_0BC@PNCKAHJO@FE_CHANGEVIEWMODE?$AA@ 00000001800042c8     flags.obj
 0001:000032e0       ??_C@_09DENIDBMJ@FE_REDRAW?$AA@ 00000001800042e0     flags.obj
 0001:000032f0       ??_C@_07CLNPDBLG@FE_IDLE?$AA@ 00000001800042f0     flags.obj
 0001:000032f8       ??_C@_08DENCGKED@FE_CLOSE?$AA@ 00000001800042f8     flags.obj
 0001:00003308       ??_C@_08MOMCCKPB@FE_BREAK?$AA@ 0000000180004308     flags.obj
 0001:00003318       ??_C@_0L@LELAIPLL@FE_COMMAND?$AA@ 0000000180004318     flags.obj
 0001:00003328       ??_C@_0M@FIECADDF@FE_GOTFOCUS?$AA@ 0000000180004328     flags.obj
 0001:00003338       ??_C@_0N@DGHFKMFL@FE_KILLFOCUS?$AA@ 0000000180004338     flags.obj
 0001:00003348       ??_C@_0BE@PONEECEM@FE_CHANGESORTPARAMS?$AA@ 0000000180004348     flags.obj
 0001:00003360       ??_C@_0M@HNDHDHHO@FCF_FG_4BIT?$AA@ 0000000180004360     flags.obj
 0001:00003370       ??_C@_0M@PJHNDJIE@FCF_BG_4BIT?$AA@ 0000000180004370     flags.obj
 0001:00003380       ??_C@_0N@HMKJBHOA@FCF_4BITMASK?$AA@ 0000000180004380     flags.obj
 0001:00003390       ??_C@_0BB@PJFLJJLD@FCF_RAWATTR_MASK?$AA@ 0000000180004390     flags.obj
 0001:000033a8       ??_C@_0BC@NKBLNNIA@FCF_EXTENDEDFLAGS?$AA@ 00000001800043a8     flags.obj
 0001:000033c0       ??_C@_0M@LFMGCKHG@FCF_FG_BOLD?$AA@ 00000001800043c0     flags.obj
 0001:000033d0       ??_C@_0O@FAPDECBF@FCF_FG_ITALIC?$AA@ 00000001800043d0     flags.obj
 0001:000033e0       ??_C@_0BB@NPEFGEGA@FCF_FG_UNDERLINE?$AA@ 00000001800043e0     flags.obj
 0001:000033f8       ??_C@_0O@LGBGBIGB@FCF_STYLEMASK?$AA@ 00000001800043f8     flags.obj
 0001:00003408       ??_C@_08BKNBBLHK@FCF_NONE?$AA@ 0000000180004408     flags.obj
 0001:00003418       ??_C@_08FKIDFHCM@CDF_NONE?$AA@ 0000000180004418     flags.obj
 0001:00003428       ??_C@_0N@ELMEMNDH@FMSG_WARNING?$AA@ 0000000180004428     flags.obj
 0001:00003438       ??_C@_0P@HHIGLJAP@FMSG_ERRORTYPE?$AA@ 0000000180004438     flags.obj
 0001:00003448       ??_C@_0BE@FHOOILPH@FMSG_KEEPBACKGROUND?$AA@ 0000000180004448     flags.obj
 0001:00003460       ??_C@_0P@KBEMNNEP@FMSG_LEFTALIGN?$AA@ 0000000180004460     flags.obj
 0001:00003470       ??_C@_0O@FOIOKDHJ@FMSG_ALLINONE?$AA@ 0000000180004470     flags.obj
 0001:00003480       ??_C@_0L@BGALGPOK@FMSG_MB_OK?$AA@ 0000000180004480     flags.obj
 0001:00003490       ??_C@_0BB@JGAPGIEP@FMSG_MB_OKCANCEL?$AA@ 0000000180004490     flags.obj
 0001:000034a8       ??_C@_0BJ@BKJADAHA@FMSG_MB_ABORTRETRYIGNORE?$AA@ 00000001800044a8     flags.obj
 0001:000034c8       ??_C@_0O@GPCAPHCL@FMSG_MB_YESNO?$AA@ 00000001800044c8     flags.obj
 0001:000034d8       ??_C@_0BE@IBNOLCGP@FMSG_MB_YESNOCANCEL?$AA@ 00000001800044d8     flags.obj
 0001:000034f0       ??_C@_0BE@OCLAIENB@FMSG_MB_RETRYCANCEL?$AA@ 00000001800044f0     flags.obj
 0001:00003508       ??_C@_09NEGPLEAH@FMSG_NONE?$AA@ 0000000180004508     flags.obj
 0001:00003518       ??_C@_0N@DHJCDIKM@DIF_BOXCOLOR?$AA@ 0000000180004518     flags.obj
 0001:00003528       ??_C@_09IAEPIICA@DIF_GROUP?$AA@ 0000000180004528     flags.obj
 0001:00003538       ??_C@_0N@GCKJNBCM@DIF_LEFTTEXT?$AA@ 0000000180004538     flags.obj
 0001:00003548       ??_C@_0P@BGPBEDHH@DIF_MOVESELECT?$AA@ 0000000180004548     flags.obj
 0001:00003558       ??_C@_0BC@PDKFKKEI@DIF_SHOWAMPERSAND?$AA@ 0000000180004558     flags.obj
 0001:00003570       ??_C@_0BA@BLCOKAAO@DIF_CENTERGROUP?$AA@ 0000000180004570     flags.obj
 0001:00003580       ??_C@_0P@MKFBJPOB@DIF_NOBRACKETS?$AA@ 0000000180004580     flags.obj
 0001:00003590       ??_C@_0BF@JBCDBJCL@DIF_MANUALADDHISTORY?$AA@ 0000000180004590     flags.obj
 0001:000035a8       ??_C@_0O@JKNMBNLA@DIF_SEPARATOR?$AA@ 00000001800045a8     flags.obj
 0001:000035b8       ??_C@_0P@CGILDLOA@DIF_SEPARATOR2?$AA@ 00000001800045b8     flags.obj
 0001:000035c8       ??_C@_0L@NBPFNGLB@DIF_EDITOR?$AA@ 00000001800045c8     flags.obj
 0001:000035d8       ??_C@_0BE@PFICAGJF@DIF_LISTNOAMPERSAND?$AA@ 00000001800045d8     flags.obj
 0001:000035f0       ??_C@_0O@FFJNBMAD@DIF_LISTNOBOX?$AA@ 00000001800045f0     flags.obj
 0001:00003600       ??_C@_0M@IPFBMFDN@DIF_HISTORY?$AA@ 0000000180004600     flags.obj
 0001:00003610       ??_C@_0P@EGFAEEDC@DIF_BTNNOCLOSE?$AA@ 0000000180004610     flags.obj
 0001:00003620       ??_C@_0P@KOJCCCGB@DIF_CENTERTEXT?$AA@ 0000000180004620     flags.obj
 0001:00003630       ??_C@_0BC@ODEMBOPK@DIF_SEPARATORUSER?$AA@ 0000000180004630     flags.obj
 0001:00003648       ??_C@_0O@IKJBMPOF@DIF_SETSHIELD?$AA@ 0000000180004648     flags.obj
 0001:00003658       ??_C@_0P@EEJEDBLH@DIF_EDITEXPAND?$AA@ 0000000180004658     flags.obj
 0001:00003668       ??_C@_0BB@EIMEKEFP@DIF_DROPDOWNLIST?$AA@ 0000000180004668     flags.obj
 0001:00003680       ??_C@_0BD@MNGIOLFF@DIF_USELASTHISTORY?$AA@ 0000000180004680     flags.obj
 0001:00003698       ??_C@_0N@MOCGNIKC@DIF_MASKEDIT?$AA@ 0000000180004698     flags.obj
 0001:000036a8       ??_C@_0BD@LPDHCLJI@DIF_LISTTRACKMOUSE?$AA@ 00000001800046a8     flags.obj
 0001:000036c0       ??_C@_0BK@LEFIBDOA@DIF_LISTTRACKMOUSEINFOCUS?$AA@ 00000001800046c0     flags.obj
 0001:000036e0       ??_C@_0BC@JNLDMGBD@DIF_SELECTONENTRY?$AA@ 00000001800046e0     flags.obj
 0001:000036f8       ??_C@_0L@KKNJDNBK@DIF_3STATE?$AA@ 00000001800046f8     flags.obj
 0001:00003708       ??_C@_0N@GBGHICKO@DIF_EDITPATH?$AA@ 0000000180004708     flags.obj
 0001:00003718       ??_C@_0BB@NPNALIGO@DIF_LISTWRAPMODE?$AA@ 0000000180004718     flags.obj
 0001:00003730       ??_C@_0BD@MFOKKGGF@DIF_NOAUTOCOMPLETE?$AA@ 0000000180004730     flags.obj
 0001:00003748       ??_C@_0BG@MONEJILE@DIF_LISTAUTOHIGHLIGHT?$AA@ 0000000180004748     flags.obj
 0001:00003760       ??_C@_0BA@JNOKLHOL@DIF_LISTNOCLOSE?$AA@ 0000000180004760     flags.obj
 0001:00003770       ??_C@_0BB@GMKDKOOP@DIF_EDITPATHEXEC?$AA@ 0000000180004770     flags.obj
 0001:00003788       ??_C@_0L@EPNFOPAK@DIF_HIDDEN?$AA@ 0000000180004788     flags.obj
 0001:00003798       ??_C@_0N@KOGKCAKJ@DIF_READONLY?$AA@ 0000000180004798     flags.obj
 0001:000037a8       ??_C@_0M@NLLDINIM@DIF_NOFOCUS?$AA@ 00000001800047a8     flags.obj
 0001:000037b8       ??_C@_0M@HCFLMDHK@DIF_DISABLE?$AA@ 00000001800047b8     flags.obj
 0001:000037c8       ??_C@_0BC@CHAAKEJO@DIF_DEFAULTBUTTON?$AA@ 00000001800047c8     flags.obj
 0001:000037e0       ??_C@_09LCJIOEMN@DIF_FOCUS?$AA@ 00000001800047e0     flags.obj
 0001:000037f0       ??_C@_0O@KJADCBBN@DIF_RIGHTTEXT?$AA@ 00000001800047f0     flags.obj
 0001:00003800       ??_C@_0N@LAEOODAD@DIF_WORDWRAP?$AA@ 0000000180004800     flags.obj
 0001:00003810       ??_C@_08KFOHCPDE@DIF_NONE?$AA@ 0000000180004810     flags.obj
 0001:00003820       ??_C@_0N@EDHAFIIL@LIF_SELECTED?$AA@ 0000000180004820     flags.obj
 0001:00003830       ??_C@_0M@BMGIEAIL@LIF_CHECKED?$AA@ 0000000180004830     flags.obj
 0001:00003840       ??_C@_0O@KJIFADIG@LIF_SEPARATOR?$AA@ 0000000180004840     flags.obj
 0001:00003850       ??_C@_0M@HEFHLFIE@LIF_DISABLE?$AA@ 0000000180004850     flags.obj
 0001:00003860       ??_C@_0L@PKDDGEEG@LIF_GRAYED?$AA@ 0000000180004860     flags.obj
 0001:00003870       ??_C@_0L@PFBGAOEP@LIF_HIDDEN?$AA@ 0000000180004870     flags.obj
 0001:00003880       ??_C@_0BD@HEPCOIEH@LIF_DELETEUSERDATA?$AA@ 0000000180004880     flags.obj
 0001:00003898       ??_C@_08BODPINCM@LIF_NONE?$AA@ 0000000180004898     flags.obj
 0001:000038a8       ??_C@_0BC@BGAENNBJ@LIFIND_EXACTMATCH?$AA@ 00000001800048a8     flags.obj
 0001:000038c0       ??_C@_0M@FPOGKIGO@LIFIND_NONE?$AA@ 00000001800048c0     flags.obj
 0001:000038d0       ??_C@_0BA@OOIEKCFB@LINFO_SHOWNOBOX?$AA@ 00000001800048d0     flags.obj
 0001:000038e0       ??_C@_0BE@DECCEGNO@LINFO_AUTOHIGHLIGHT?$AA@ 00000001800048e0     flags.obj
 0001:000038f8       ??_C@_0BH@BADLEILJ@LINFO_REVERSEHIGHLIGHT?$AA@ 00000001800048f8     flags.obj
 0001:00003910       ??_C@_0P@KLBMHNCG@LINFO_WRAPMODE?$AA@ 0000000180004910     flags.obj
 0001:00003920       ??_C@_0BE@OHJCOKAE@LINFO_SHOWAMPERSAND?$AA@ 0000000180004920     flags.obj
 0001:00003938       ??_C@_0L@EPACPANF@LINFO_NONE?$AA@ 0000000180004938     flags.obj
 0001:00003948       ??_C@_0N@OLGDMHKL@FDLG_WARNING?$AA@ 0000000180004948     flags.obj
 0001:00003958       ??_C@_0BB@DKMEBDJJ@FDLG_SMALLDIALOG?$AA@ 0000000180004958     flags.obj
 0001:00003970       ??_C@_0BC@ONGLDAJN@FDLG_NODRAWSHADOW?$AA@ 0000000180004970     flags.obj
 0001:00003988       ??_C@_0BB@NPLEEAKK@FDLG_NODRAWPANEL?$AA@ 0000000180004988     flags.obj
 0001:000039a0       ??_C@_0BG@GHNOOENB@FDLG_KEEPCONSOLETITLE?$AA@ 00000001800049a0     flags.obj
 0001:000039b8       ??_C@_09NNFHCBNL@FDLG_NONE?$AA@ 00000001800049b8     flags.obj
 0001:000039c8       ??_C@_0N@JOOGIBAO@MIF_SELECTED?$AA@ 00000001800049c8     flags.obj
 0001:000039d8       ??_C@_0M@IHMNAMOE@MIF_CHECKED?$AA@ 00000001800049d8     flags.obj
 0001:000039e8       ??_C@_0O@DEIKOCPA@MIF_SEPARATOR?$AA@ 00000001800049e8     flags.obj
 0001:000039f8       ??_C@_0M@OPPCPJOL@MIF_DISABLE?$AA@ 00000001800049f8     flags.obj
 0001:00003a08       ??_C@_0L@DLLNLLIG@MIF_GRAYED?$AA@ 0000000180004a08     flags.obj
 0001:00003a18       ??_C@_0L@DEJINBIP@MIF_HIDDEN?$AA@ 0000000180004a18     flags.obj
 0001:00003a28       ??_C@_08JEEJJGP@MIF_NONE?$AA@ 0000000180004a28     flags.obj
 0001:00003a38       ??_C@_0BE@FALMPPJK@FMENU_SHOWAMPERSAND?$AA@ 0000000180004a38     flags.obj
 0001:00003a50       ??_C@_0P@HICDNKDJ@FMENU_WRAPMODE?$AA@ 0000000180004a50     flags.obj
 0001:00003a60       ??_C@_0BE@IDAMFDEA@FMENU_AUTOHIGHLIGHT?$AA@ 0000000180004a60     flags.obj
 0001:00003a78       ??_C@_0BL@OKAIKPMN@FMENU_REVERSEAUTOHIGHLIGHT?$AA@ 0000000180004a78     flags.obj
 0001:00003a98       ??_C@_0BJ@FCEONOJC@FMENU_CHANGECONSOLETITLE?$AA@ 0000000180004a98     flags.obj
 0001:00003ab8       ??_C@_0L@DGFIEOMD@FMENU_NONE?$AA@ 0000000180004ab8     flags.obj
 0001:00003ac8       ??_C@_0O@JEAJLDHC@PPIF_SELECTED?$AA@ 0000000180004ac8     flags.obj
 0001:00003ad8       ??_C@_0BC@LPBDBIOM@PPIF_PROCESSDESCR?$AA@ 0000000180004ad8     flags.obj
 0001:00003af0       ??_C@_09OIFMMGNJ@PPIF_NONE?$AA@ 0000000180004af0     flags.obj
 0001:00003b00       ??_C@_0BC@BONLDOOD@PFLAGS_SHOWHIDDEN?$AA@ 0000000180004b00     flags.obj
 0001:00003b18       ??_C@_0BB@BCAJEJEH@PFLAGS_HIGHLIGHT?$AA@ 0000000180004b18     flags.obj
 0001:00003b30       ??_C@_0BI@BFAFODJ@PFLAGS_REVERSESORTORDER?$AA@ 0000000180004b30     flags.obj
 0001:00003b48       ??_C@_0BF@KJNCJPKN@PFLAGS_USESORTGROUPS?$AA@ 0000000180004b48     flags.obj
 0001:00003b60       ??_C@_0BF@LBBAIOCD@PFLAGS_SELECTEDFIRST?$AA@ 0000000180004b60     flags.obj
 0001:00003b78       ??_C@_0BB@KDANIJNM@PFLAGS_REALNAMES?$AA@ 0000000180004b78     flags.obj
 0001:00003b90       ??_C@_0BD@MOODMDAB@PFLAGS_NUMERICSORT?$AA@ 0000000180004b90     flags.obj
 0001:00003ba8       ??_C@_0BB@ILEHDKFJ@PFLAGS_PANELLEFT?$AA@ 0000000180004ba8     flags.obj
 0001:00003bc0       ??_C@_0BI@EHHAJLOH@PFLAGS_DIRECTORIESFIRST?$AA@ 0000000180004bc0     flags.obj
 0001:00003bd8       ??_C@_0BA@KJEPHDOM@PFLAGS_USECRC32?$AA@ 0000000180004bd8     flags.obj
 0001:00003be8       ??_C@_0BJ@HJFOABKG@PFLAGS_CASESENSITIVESORT?$AA@ 0000000180004be8     flags.obj
 0001:00003c08       ??_C@_0O@DBPJGING@PFLAGS_PLUGIN?$AA@ 0000000180004c08     flags.obj
 0001:00003c18       ??_C@_0P@MLDEBNPK@PFLAGS_VISIBLE?$AA@ 0000000180004c18     flags.obj
 0001:00003c28       ??_C@_0N@EOFAELOJ@PFLAGS_FOCUS?$AA@ 0000000180004c28     flags.obj
 0001:00003c38       ??_C@_0BI@EOCCAHFA@PFLAGS_ALTERNATIVENAMES?$AA@ 0000000180004c38     flags.obj
 0001:00003c50       ??_C@_0BA@GHMDCHHI@PFLAGS_SHORTCUT?$AA@ 0000000180004c50     flags.obj
 0001:00003c60       ??_C@_0M@NEMAHHGP@PFLAGS_NONE?$AA@ 0000000180004c60     flags.obj
 0001:00003c70       ??_C@_0M@IDNADAFL@VF_NONMODAL?$AA@ 0000000180004c70     flags.obj
 0001:00003c80       ??_C@_0BB@OCDDPIKL@VF_DELETEONCLOSE?$AA@ 0000000180004c80     flags.obj
 0001:00003c98       ??_C@_0N@LDHALKKM@VF_ENABLE_F6?$AA@ 0000000180004c98     flags.obj
 0001:00003ca8       ??_C@_0BC@DLGKMECC@VF_DISABLEHISTORY?$AA@ 0000000180004ca8     flags.obj
 0001:00003cc0       ??_C@_0BD@DHJCMLFI@VF_IMMEDIATERETURN?$AA@ 0000000180004cc0     flags.obj
 0001:00003cd8       ??_C@_0BJ@OGNFHEJG@VF_DELETEONLYFILEONCLOSE?$AA@ 0000000180004cd8     flags.obj
 0001:00003cf8       ??_C@_07CJJFHP@VF_NONE?$AA@ 0000000180004cf8     flags.obj
 0001:00003d00       ??_C@_0M@PIFGAPFH@EF_NONMODAL?$AA@ 0000000180004d00     flags.obj
 0001:00003d10       ??_C@_0N@DBHFPBEO@EF_CREATENEW?$AA@ 0000000180004d10     flags.obj
 0001:00003d20       ??_C@_0N@LKLNHALI@EF_ENABLE_F6?$AA@ 0000000180004d20     flags.obj
 0001:00003d30       ??_C@_0BC@PPEPEFFI@EF_DISABLEHISTORY?$AA@ 0000000180004d30     flags.obj
 0001:00003d48       ??_C@_0BB@KGPIDKFC@EF_DELETEONCLOSE?$AA@ 0000000180004d48     flags.obj
 0001:00003d60       ??_C@_0BD@IHIGHGPL@EF_IMMEDIATERETURN?$AA@ 0000000180004d60     flags.obj
 0001:00003d78       ??_C@_0BJ@ILCPOFKL@EF_DELETEONLYFILEONCLOSE?$AA@ 0000000180004d78     flags.obj
 0001:00003d98       ??_C@_09IJMPFPLB@EF_LOCKED?$AA@ 0000000180004d98     flags.obj
 0001:00003da8       ??_C@_0BC@GFHJGKD@EF_DISABLESAVEPOS?$AA@ 0000000180004da8     flags.obj
 0001:00003dc0       ??_C@_0BB@NILAHAFO@EF_OPENMODE_MASK?$AA@ 0000000180004dc0     flags.obj
 0001:00003dd8       ??_C@_0BC@GAIDEJIA@EF_OPENMODE_QUERY?$AA@ 0000000180004dd8     flags.obj
 0001:00003df0       ??_C@_0BG@BFKJJBAG@EF_OPENMODE_NEWIFOPEN?$AA@ 0000000180004df0     flags.obj
 0001:00003e08       ??_C@_0BI@KGOKGPEI@EF_OPENMODE_USEEXISTING?$AA@ 0000000180004e08     flags.obj
 0001:00003e20       ??_C@_0BI@EJBKKDJ@EF_OPENMODE_BREAKIFOPEN?$AA@ 0000000180004e20     flags.obj
 0001:00003e38       ??_C@_0BJ@MOLGCBMH@EF_OPENMODE_RELOADIFOPEN?$AA@ 0000000180004e38     flags.obj
 0001:00003e58       ??_C@_07MBPCONNA@EN_NONE?$AA@ 0000000180004e58     flags.obj
 0001:00003e60       ??_C@_0BC@HHNGCBAM@FHELP_NOSHOWERROR?$AA@ 0000000180004e60     flags.obj
 0001:00003e78       ??_C@_0P@GANNLHEJ@FHELP_SELFHELP?$AA@ 0000000180004e78     flags.obj
 0001:00003e88       ??_C@_0O@FLGGLFLC@FHELP_FARHELP?$AA@ 0000000180004e88     flags.obj
 0001:00003e98       ??_C@_0BB@KNKDPNI@FHELP_CUSTOMFILE?$AA@ 0000000180004e98     flags.obj
 0001:00003eb0       ??_C@_0BB@IHFFPJJA@FHELP_CUSTOMPATH?$AA@ 0000000180004eb0     flags.obj
 0001:00003ec8       ??_C@_0L@OOIMFPBD@FHELP_GUID?$AA@ 0000000180004ec8     flags.obj
 0001:00003ed8       ??_C@_0BC@PNPOIHMG@FHELP_USECONTENTS?$AA@ 0000000180004ed8     flags.obj
 0001:00003ef0       ??_C@_0L@MAGMKNFN@FHELP_NONE?$AA@ 0000000180004ef0     flags.obj
 0001:00003f00       ??_C@_0BE@GEGKIINM@KMFLAGS_SILENTCHECK?$AA@ 0000000180004f00     flags.obj
 0001:00003f18       ??_C@_0BM@BBOPLPKC@KMFLAGS_NOSENDKEYSTOPLUGINS?$AA@ 0000000180004f18     flags.obj
 0001:00003f38       ??_C@_0BF@PHHPAAOK@KMFLAGS_ENABLEOUTPUT?$AA@ 0000000180004f38     flags.obj
 0001:00003f50       ??_C@_0BB@NCECNBPK@KMFLAGS_LANGMASK?$AA@ 0000000180004f50     flags.obj
 0001:00003f68       ??_C@_0M@HFBACHCP@KMFLAGS_LUA?$AA@ 0000000180004f68     flags.obj
 0001:00003f78       ??_C@_0BD@JHNPMIGP@KMFLAGS_MOONSCRIPT?$AA@ 0000000180004f78     flags.obj
 0001:00003f90       ??_C@_0N@GIJCDFJI@KMFLAGS_NONE?$AA@ 0000000180004f90     flags.obj
 0001:00003fa0       ??_C@_0O@GKOLBMFK@AKMFLAGS_NONE?$AA@ 0000000180004fa0     flags.obj
 0001:00003fb0       ??_C@_0P@LMBMJIMF@FSETCLR_REDRAW?$AA@ 0000000180004fb0     flags.obj
 0001:00003fc0       ??_C@_0N@LCOHPDHN@FSETCLR_NONE?$AA@ 0000000180004fc0     flags.obj
 0001:00003fd0       ??_C@_0N@MLMCEKPH@WIF_MODIFIED?$AA@ 0000000180004fd0     flags.obj
 0001:00003fe0       ??_C@_0M@ICPAPCOF@WIF_CURRENT?$AA@ 0000000180004fe0     flags.obj
 0001:00003ff0       ??_C@_09FPGEBDGO@WIF_MODAL?$AA@ 0000000180004ff0     flags.obj
 0001:00004000       ??_C@_0BG@JMJAOELH@VOPT_SAVEFILEPOSITION?$AA@ 0000000180005000     flags.obj
 0001:00004018       ??_C@_0BI@NCAHLEBN@VOPT_AUTODETECTCODEPAGE?$AA@ 0000000180005018     flags.obj
 0001:00004030       ??_C@_09FIOJMNJ@VOPT_NONE?$AA@ 0000000180005030     flags.obj
 0001:00004040       ??_C@_0N@ILNDJNNO@VSMFL_REDRAW?$AA@ 0000000180005040     flags.obj
 0001:00004050       ??_C@_0N@GHEHKHJN@VSP_NOREDRAW?$AA@ 0000000180005050     flags.obj
 0001:00004060       ??_C@_0M@LHNGMHFO@VSP_PERCENT?$AA@ 0000000180005060     flags.obj
 0001:00004070       ??_C@_0N@JGGGCNIP@VSP_RELATIVE?$AA@ 0000000180005070     flags.obj
 0001:00004080       ??_C@_0BA@JKDMJLJG@VSP_NORETNEWPOS?$AA@ 0000000180005080     flags.obj
 0001:00004090       ??_C@_08FAPBJAKB@VMF_WRAP?$AA@ 0000000180005090     flags.obj
 0001:000040a0       ??_C@_0N@GHBDMLON@VMF_WORDWRAP?$AA@ 00000001800050a0     flags.obj
 0001:000040b0       ??_C@_0BB@EDGIEBDF@ECF_TABMARKFIRST?$AA@ 00000001800050b0     flags.obj
 0001:000040c8       ??_C@_0BD@DKGCCJNG@ECF_TABMARKCURRENT?$AA@ 00000001800050c8     flags.obj
 0001:000040e0       ??_C@_0P@BAFEMBAJ@ECF_AUTODELETE?$AA@ 00000001800050e0     flags.obj
 0001:000040f0       ??_C@_0BA@KNNLMGCA@FIB_ENABLEEMPTY?$AA@ 00000001800050f0     flags.obj
 0001:00004100       ??_C@_0N@DLDJCGJI@FIB_PASSWORD?$AA@ 0000000180005100     flags.obj
 0001:00004110       ??_C@_0O@DOHEGELC@FIB_EXPANDENV?$AA@ 0000000180005110     flags.obj
 0001:00004120       ??_C@_0BF@CEMIHIOK@FIB_NOUSELASTHISTORY?$AA@ 0000000180005120     flags.obj
 0001:00004138       ??_C@_0M@KJOJJDIM@FIB_BUTTONS?$AA@ 0000000180005138     flags.obj
 0001:00004148       ??_C@_0BA@COBBDHNL@FIB_NOAMPERSAND?$AA@ 0000000180005148     flags.obj
 0001:00004158       ??_C@_0N@LBOCEEGH@FIB_EDITPATH?$AA@ 0000000180005158     flags.obj
 0001:00004168       ??_C@_0BB@DCODFLEL@FIB_EDITPATHEXEC?$AA@ 0000000180005168     flags.obj
 0001:00004180       ??_C@_08HPFOCDKB@FIB_NONE?$AA@ 0000000180005180     flags.obj
 0001:00004190       ??_C@_0L@NMBLFMBN@FPF_LOADED?$AA@ 0000000180005190     flags.obj
 0001:000041a0       ??_C@_08GKECKCCJ@FPF_ANSI?$AA@ 00000001800051a0     flags.obj
 0001:000041b0       ??_C@_08OIOFCNLC@FPF_NONE?$AA@ 00000001800051b0     flags.obj
 0001:000041c0       ??_C@_0L@HODJIPGA@PN_CMPNAME?$AA@ 00000001800051c0     flags.obj
 0001:000041d0       ??_C@_0P@KDEENAHJ@PN_CMPNAMELIST?$AA@ 00000001800051d0     flags.obj
 0001:000041e0       ??_C@_0BA@BJCCEIOI@PN_GENERATENAME?$AA@ 00000001800051e0     flags.obj
 0001:000041f0       ??_C@_0N@FEGPCCPJ@PN_CHECKMASK?$AA@ 00000001800051f0     flags.obj
 0001:00004200       ??_C@_0M@NOOLKEBH@PN_SKIPPATH?$AA@ 0000000180005200     flags.obj
 0001:00004210       ??_C@_0BE@OPDBOAAE@PN_SHOWERRORMESSAGE?$AA@ 0000000180005210     flags.obj
 0001:00004228       ??_C@_0BG@GOMJDMCK@XLAT_SWITCHKEYBLAYOUT?$AA@ 0000000180005228     flags.obj
 0001:00004240       ??_C@_0BE@KOIJDNLA@XLAT_SWITCHKEYBBEEP?$AA@ 0000000180005240     flags.obj
 0001:00004258       ??_C@_0BH@KBFAFPNA@XLAT_USEKEYBLAYOUTNAME?$AA@ 0000000180005258     flags.obj
 0001:00004270       ??_C@_0BH@IANKLOAC@XLAT_CONVERTALLCMDLINE?$AA@ 0000000180005270     flags.obj
 0001:00004288       ??_C@_09JCNLKBBK@XLAT_NONE?$AA@ 0000000180005288     flags.obj
 0001:00004298       ??_C@_0N@PJEDCNNJ@FRS_RETUPDIR?$AA@ 0000000180005298     flags.obj
 0001:000042a8       ??_C@_09GHEPLOHO@FRS_RECUR?$AA@ 00000001800052a8     flags.obj
 0001:000042b8       ??_C@_0BA@JCPHOEAE@FRS_SCANSYMLINK?$AA@ 00000001800052b8     flags.obj
 0001:000042c8       ??_C@_0P@LJPBHEIE@MLF_SHOWERRMSG?$AA@ 00000001800052c8     flags.obj
 0001:000042d8       ??_C@_0BF@LMAGFLHF@MLF_DONOTUPDATEPANEL?$AA@ 00000001800052d8     flags.obj
 0001:000042f0       ??_C@_0P@EPFBLPAE@MLF_HOLDTARGET?$AA@ 00000001800052f0     flags.obj
 0001:00004300       ??_C@_08EBKEJHAL@MLF_NONE?$AA@ 0000000180005300     flags.obj
 0001:00004310       ??_C@_0M@JDMKDBDH@FFFS_COMMAS?$AA@ 0000000180005310     flags.obj
 0001:00004320       ??_C@_0P@JPMLNBKL@FFFS_FLOATSIZE?$AA@ 0000000180005320     flags.obj
 0001:00004330       ??_C@_0BE@NPKCCEJ@FFFS_SHOWBYTESINDEX?$AA@ 0000000180005330     flags.obj
 0001:00004348       ??_C@_0O@FPIOAIMC@FFFS_ECONOMIC?$AA@ 0000000180005348     flags.obj
 0001:00004358       ??_C@_0O@HFIGPFIH@FFFS_THOUSAND?$AA@ 0000000180005358     flags.obj
 0001:00004368       ??_C@_0BC@LLLANJJO@FFFS_MINSIZEINDEX?$AA@ 0000000180005368     flags.obj
 0001:00004380       ??_C@_0BH@PEGBPJKE@FFFS_MINSIZEINDEX_MASK?$AA@ 0000000180005380     flags.obj
 0001:00004398       ??_C@_0L@NHEJGKCF@PF_PRELOAD?$AA@ 0000000180005398     flags.obj
 0001:000043a8       ??_C@_0BB@GCINAIGN@PF_DISABLEPANELS?$AA@ 00000001800053a8     flags.obj
 0001:000043c0       ??_C@_09OENCMPGE@PF_EDITOR?$AA@ 00000001800053c0     flags.obj
 0001:000043d0       ??_C@_09NEKIJNNA@PF_VIEWER?$AA@ 00000001800053d0     flags.obj
 0001:000043e0       ??_C@_0P@MBLBBCNK@PF_FULLCMDLINE?$AA@ 00000001800053e0     flags.obj
 0001:000043f0       ??_C@_09GMFDAFKL@PF_DIALOG?$AA@ 00000001800053f0     flags.obj
 0001:00004400       ??_C@_07MGEGJMPI@PF_NONE?$AA@ 0000000180005400     flags.obj
 0001:00004408       ??_C@_0BD@EGELEIIG@IPLFLAGS_SEPARATOR?$AA@ 0000000180005408     flags.obj
 0001:00004420       ??_C@_0BD@KGHJOBGM@PMFLAGS_FULLSCREEN?$AA@ 0000000180005420     flags.obj
 0001:00004438       ??_C@_0BH@GDAAKEMH@PMFLAGS_DETAILEDSTATUS?$AA@ 0000000180005438     flags.obj
 0001:00004450       ??_C@_0BI@BMHIBDMH@PMFLAGS_ALIGNEXTENSIONS?$AA@ 0000000180005450     flags.obj
 0001:00004468       ??_C@_0BH@KOFCBJBO@PMFLAGS_CASECONVERSION?$AA@ 0000000180005468     flags.obj
 0001:00004480       ??_C@_0BD@PBMGDJEM@OPIF_DISABLEFILTER?$AA@ 0000000180005480     flags.obj
 0001:00004498       ??_C@_0BH@FHBKALPD@OPIF_DISABLESORTGROUPS?$AA@ 0000000180005498     flags.obj
 0001:000044b0       ??_C@_0BJ@NGLIANCL@OPIF_DISABLEHIGHLIGHTING?$AA@ 00000001800054b0     flags.obj
 0001:000044d0       ??_C@_0N@JANKJMLP@OPIF_ADDDOTS?$AA@ 00000001800054d0     flags.obj
 0001:000044e0       ??_C@_0BC@HOFHNJIG@OPIF_RAWSELECTION?$AA@ 00000001800054e0     flags.obj
 0001:000044f8       ??_C@_0P@OFEDJCO@OPIF_REALNAMES?$AA@ 00000001800054f8     flags.obj
 0001:00004508       ??_C@_0BD@FPGMNAPD@OPIF_SHOWNAMESONLY?$AA@ 0000000180005508     flags.obj
 0001:00004520       ??_C@_0BJ@NMIFAPJD@OPIF_SHOWRIGHTALIGNNAMES?$AA@ 0000000180005520     flags.obj
 0001:00004540       ??_C@_0BG@HGPMKHIE@OPIF_SHOWPRESERVECASE?$AA@ 0000000180005540     flags.obj
 0001:00004558       ??_C@_0BE@GJEJHNKJ@OPIF_COMPAREFATTIME?$AA@ 0000000180005558     flags.obj
 0001:00004570       ??_C@_0BB@PELHBPAM@OPIF_EXTERNALGET?$AA@ 0000000180005570     flags.obj
 0001:00004588       ??_C@_0BB@CFFPNDFK@OPIF_EXTERNALPUT?$AA@ 0000000180005588     flags.obj
 0001:000045a0       ??_C@_0BE@LKEMICNM@OPIF_EXTERNALDELETE?$AA@ 00000001800055a0     flags.obj
 0001:000045b8       ??_C@_0BD@JIMJPFEP@OPIF_EXTERNALMKDIR?$AA@ 00000001800055b8     flags.obj
 0001:000045d0       ??_C@_0BJ@CALDMPLF@OPIF_USEATTRHIGHLIGHTING?$AA@ 00000001800055d0     flags.obj
 0001:000045f0       ??_C@_0O@JHHHMHIG@OPIF_USECRC32?$AA@ 00000001800055f0     flags.obj
 0001:00004600       ??_C@_0BB@PFDFAFHG@OPIF_USEFREESIZE?$AA@ 0000000180005600     flags.obj
 0001:00004618       ??_C@_0O@FJPLJDBC@OPIF_SHORTCUT?$AA@ 0000000180005618     flags.obj
 0001:00004628       ??_C@_09DOPJBMLM@OPIF_NONE?$AA@ 0000000180005628     flags.obj
 0001:00004638       ??_C@_0L@GEHHKNBL@OPM_SILENT?$AA@ 0000000180005638     flags.obj
 0001:00004648       ??_C@_08EKEBOKEP@OPM_FIND?$AA@ 0000000180005648     flags.obj
 0001:00004658       ??_C@_08EHBLNDLO@OPM_VIEW?$AA@ 0000000180005658     flags.obj
 0001:00004668       ??_C@_08LAAGEMJG@OPM_EDIT?$AA@ 0000000180005668     flags.obj
 0001:00004678       ??_C@_0N@NDGKAFDM@OPM_TOPLEVEL?$AA@ 0000000180005678     flags.obj
 0001:00004688       ??_C@_09EBKAPHPA@OPM_DESCR?$AA@ 0000000180005688     flags.obj
 0001:00004698       ??_C@_0O@OPDAGBBE@OPM_QUICKVIEW?$AA@ 0000000180005698     flags.obj
 0001:000046a8       ??_C@_08LCEGJCAC@OPM_PGDN?$AA@ 00000001800056a8     flags.obj
 0001:000046b8       ??_C@_0N@HKCLLJDG@OPM_COMMANDS?$AA@ 00000001800056b8     flags.obj
 0001:000046c8       ??_C@_08EGEBMPBD@OPM_NONE?$AA@ 00000001800056c8     flags.obj
 0001:000046d8       ??_C@_0M@MIGJPBPE@FOSF_ACTIVE?$AA@ 00000001800056d8     flags.obj
 0001:000046e8       ??_C@_09FMOOJHDF@FOSF_NONE?$AA@ 00000001800056e8     flags.obj
 0001:000046f8       ??_C@_0O@PLFENGLI@PCIF_FROMMAIN?$AA@ 00000001800056f8     flags.obj
 0001:00004708       ??_C@_09HNBBLIGN@PCIF_NONE?$AA@ 0000000180005708     flags.obj
 0001:00004718       ??_C@_0BA@MAEBFMHC@FOREGROUND_BLUE?$AA@ 0000000180005718     flags.obj
 0001:00004728       ??_C@_0BB@PDFNMAI@FOREGROUND_GREEN?$AA@ 0000000180005728     flags.obj
 0001:00004740       ??_C@_0P@PBJHCFGA@FOREGROUND_RED?$AA@ 0000000180005740     flags.obj
 0001:00004750       ??_C@_0BF@OOGEJCC@FOREGROUND_INTENSITY?$AA@ 0000000180005750     flags.obj
 0001:00004768       ??_C@_0BA@PIFINJCK@BACKGROUND_BLUE?$AA@ 0000000180005768     flags.obj
 0001:00004778       ??_C@_0BB@GKLNBMEL@BACKGROUND_GREEN?$AA@ 0000000180005778     flags.obj
 0001:00004790       ??_C@_0P@DANALJMC@BACKGROUND_RED?$AA@ 0000000180005790     flags.obj
 0001:000047a0       ??_C@_0BF@NIGKKPCF@BACKGROUND_INTENSITY?$AA@ 00000001800057a0     flags.obj
 0001:000047b8       ??_C@_0N@FEFOEFHG@CTRL_C_EVENT?$AA@ 00000001800057b8     flags.obj
 0001:000047c8       ??_C@_0BB@ELEIIFAE@CTRL_BREAK_EVENT?$AA@ 00000001800057c8     flags.obj
 0001:000047e0       ??_C@_0BB@KMPDMOKK@CTRL_CLOSE_EVENT?$AA@ 00000001800057e0     flags.obj
 0001:000047f8       ??_C@_0BC@MCKCEPAL@CTRL_LOGOFF_EVENT?$AA@ 00000001800057f8     flags.obj
 0001:00004810       ??_C@_0BE@BCNEFGKM@CTRL_SHUTDOWN_EVENT?$AA@ 0000000180005810     flags.obj
 0001:00004828       ??_C@_0BC@BBOPHMOM@ENABLE_LINE_INPUT?$AA@ 0000000180005828     flags.obj
 0001:00004840       ??_C@_0BC@JPFKLHOC@ENABLE_ECHO_INPUT?$AA@ 0000000180005840     flags.obj
 0001:00004858       ??_C@_0BH@EHINFMOF@ENABLE_PROCESSED_INPUT?$AA@ 0000000180005858     flags.obj
 0001:00004870       ??_C@_0BE@BLAHACNB@ENABLE_WINDOW_INPUT?$AA@ 0000000180005870     flags.obj
 0001:00004888       ??_C@_0BD@BJECBJPO@ENABLE_MOUSE_INPUT?$AA@ 0000000180005888     flags.obj
 0001:000048a0       ??_C@_0BD@KJBPOMPN@ENABLE_INSERT_MODE?$AA@ 00000001800058a0     flags.obj
 0001:000048b8       ??_C@_0BH@BJKMFKAO@ENABLE_QUICK_EDIT_MODE?$AA@ 00000001800058b8     flags.obj
 0001:000048d0       ??_C@_0BG@CBCHHIEH@ENABLE_EXTENDED_FLAGS?$AA@ 00000001800058d0     flags.obj
 0001:000048e8       ??_C@_0BF@PEBFEBKN@ENABLE_AUTO_POSITION?$AA@ 00000001800058e8     flags.obj
 0001:00004900       ??_C@_0BI@MHKNPIFM@ENABLE_PROCESSED_OUTPUT?$AA@ 0000000180005900     flags.obj
 0001:00004918       ??_C@_0BK@CDKLKCHJ@ENABLE_WRAP_AT_EOL_OUTPUT?$AA@ 0000000180005918     flags.obj
 0001:00004938       ??_C@_09JBABGNAE@KEY_EVENT?$AA@ 0000000180005938     flags.obj
 0001:00004948       ??_C@_0M@CPILDGOO@MOUSE_EVENT?$AA@ 0000000180005948     flags.obj
 0001:00004958       ??_C@_0BJ@OHDOHJKG@WINDOW_BUFFER_SIZE_EVENT?$AA@ 0000000180005958     flags.obj
 0001:00004978       ??_C@_0L@MPODFLFH@MENU_EVENT?$AA@ 0000000180005978     flags.obj
 0001:00004988       ??_C@_0M@LNGHCCGJ@FOCUS_EVENT?$AA@ 0000000180005988     flags.obj
 0001:00004998       ??_C@_0M@MKBGBFGO@CAPSLOCK_ON?$AA@ 0000000180005998     flags.obj
 0001:000049a8       ??_C@_0N@EMEOEKDA@ENHANCED_KEY?$AA@ 00000001800059a8     flags.obj
 0001:000049b8       ??_C@_0BC@GDHABBAP@RIGHT_ALT_PRESSED?$AA@ 00000001800059b8     flags.obj
 0001:000049d0       ??_C@_0BB@MCADLJJO@LEFT_ALT_PRESSED?$AA@ 00000001800059d0     flags.obj
 0001:000049e8       ??_C@_0BD@NEHHNAHO@RIGHT_CTRL_PRESSED?$AA@ 00000001800059e8     flags.obj
 0001:00004a00       ??_C@_0BC@FDNOAAAE@LEFT_CTRL_PRESSED?$AA@ 0000000180005a00     flags.obj
 0001:00004a18       ??_C@_0O@OGDFJMBK@SHIFT_PRESSED?$AA@ 0000000180005a18     flags.obj
 0001:00004a28       ??_C@_0L@IMGKKBIM@NUMLOCK_ON?$AA@ 0000000180005a28     flags.obj
 0001:00004a38       ??_C@_0O@LAHFNPLG@SCROLLLOCK_ON?$AA@ 0000000180005a38     flags.obj
 0001:00004a48       ??_C@_0BN@HACKHGAB@FROM_LEFT_1ST_BUTTON_PRESSED?$AA@ 0000000180005a48     flags.obj
 0001:00004a68       ??_C@_0BJ@JECFAJNJ@RIGHTMOST_BUTTON_PRESSED?$AA@ 0000000180005a68     flags.obj
 0001:00004a88       ??_C@_0BN@BJCFPKCG@FROM_LEFT_2ND_BUTTON_PRESSED?$AA@ 0000000180005a88     flags.obj
 0001:00004aa8       ??_C@_0BN@PMJNFPGM@FROM_LEFT_3RD_BUTTON_PRESSED?$AA@ 0000000180005aa8     flags.obj
 0001:00004ac8       ??_C@_0BN@CNMHAAPD@FROM_LEFT_4TH_BUTTON_PRESSED?$AA@ 0000000180005ac8     flags.obj
 0001:00004ae8       ??_C@_0M@KKBDEELB@MOUSE_MOVED?$AA@ 0000000180005ae8     flags.obj
 0001:00004af8       ??_C@_0N@EDCKBGJE@DOUBLE_CLICK?$AA@ 0000000180005af8     flags.obj
 0001:00004b08       ??_C@_0O@GABDOPO@MOUSE_WHEELED?$AA@ 0000000180005b08     flags.obj
 0001:00004b18       ??_C@_0BA@OOKCCMHH@KEY_WOW64_32KEY?$AA@ 0000000180005b18     flags.obj
 0001:00004b28       ??_C@_0BA@DBCPEIGE@KEY_WOW64_64KEY?$AA@ 0000000180005b28     flags.obj
 0001:00004b38       ??_C@_0BI@IDKIJMME@FARMANAGERVERSION_MAJOR?$AA@ 0000000180005b38     flags.obj
 0001:00004b50       ??_C@_0BI@DMLKEAFC@FARMANAGERVERSION_MINOR?$AA@ 0000000180005b50     flags.obj
 0001:00004b68       ??_C@_0BL@NMALNAFP@FARMANAGERVERSION_REVISION?$AA@ 0000000180005b68     flags.obj
 0001:00004b88       ??_C@_0BI@OLPFLLDD@FARMANAGERVERSION_BUILD?$AA@ 0000000180005b88     flags.obj
 0001:00004ba0       ??_C@_0BI@MOOFLFPC@FARMANAGERVERSION_STAGE?$AA@ 0000000180005ba0     flags.obj
 0001:00004bb8       ??_C@_0L@MIDBGFJO@CP_UNICODE?$AA@ 0000000180005bb8     flags.obj
 0001:00004bc8       ??_C@_0O@MNMCMEJH@CP_REVERSEBOM?$AA@ 0000000180005bc8     flags.obj
 0001:00004bd8       ??_C@_0L@JDNPCEDH@CP_DEFAULT?$AA@ 0000000180005bd8     flags.obj
 0001:00004be8       ??_C@_0M@OMCMFJHA@CP_REDETECT?$AA@ 0000000180005be8     flags.obj
 0001:00004bf8       ??_C@_09MNAPNKKC@INDEXMASK?$AA@ 0000000180005bf8     flags.obj
 0001:00004c08       ??_C@_09BLFIDJLF@COLORMASK?$AA@ 0000000180005c08     flags.obj
 0001:00004c18       ??_C@_09ENNBLPJC@ALPHAMASK?$AA@ 0000000180005c18     flags.obj
 0001:00004c28       ??_C@_0L@EHFOPLFD@PANEL_NONE?$AA@ 0000000180005c28     flags.obj
 0001:00004c38       ??_C@_0N@LPMKALBG@PANEL_ACTIVE?$AA@ 0000000180005c38     flags.obj
 0001:00004c48       ??_C@_0O@HPKEABPN@PANEL_PASSIVE?$AA@ 0000000180005c48     flags.obj
 0001:00004c58       ??_C@_0L@GOEBPENN@PANEL_STOP?$AA@ 0000000180005c58     flags.obj
 0001:00004c68       ??_C@_0N@HLIFAAPJ@EEREDRAW_ALL?$AA@ 0000000180005c68     flags.obj
 0001:00004c78       ??_C@_0P@NHNDIKJ@CURRENT_EDITOR?$AA@ 0000000180005c78     flags.obj
 0001:00004c88       ??_C@_0BN@PPNDCHHA@EDITOR_COLOR_NORMAL_PRIORITY?$AA@ 0000000180005c88     flags.obj
 0001:00004ca8       ??_C@_07MGGAEAFF@DI_TEXT?$AA@ 0000000180005ca8     flags.obj
 0001:00004cb0       ??_C@_08HODBDEHE@DI_VTEXT?$AA@ 0000000180005cb0     flags.obj
 0001:00004cc0       ??_C@_0N@IGKKGFMF@DI_SINGLEBOX?$AA@ 0000000180005cc0     flags.obj
 0001:00004cd0       ??_C@_0N@EDCLIEAE@DI_DOUBLEBOX?$AA@ 0000000180005cd0     flags.obj
 0001:00004ce0       ??_C@_07DOLIFAEF@DI_EDIT?$AA@ 0000000180005ce0     flags.obj
 0001:00004ce8       ??_C@_0L@EOMEIIFM@DI_PSWEDIT?$AA@ 0000000180005ce8     flags.obj
 0001:00004cf8       ??_C@_0L@MGOIMBKF@DI_FIXEDIT?$AA@ 0000000180005cf8     flags.obj
 0001:00004d08       ??_C@_09GGAEMAPJ@DI_BUTTON?$AA@ 0000000180005d08     flags.obj
 0001:00004d18       ??_C@_0M@MHFHGPHJ@DI_CHECKBOX?$AA@ 0000000180005d18     flags.obj
 0001:00004d28       ??_C@_0P@GIPCGMBE@DI_RADIOBUTTON?$AA@ 0000000180005d28     flags.obj
 0001:00004d38       ??_C@_0M@MAKBFNGC@DI_COMBOBOX?$AA@ 0000000180005d38     flags.obj
 0001:00004d48       ??_C@_0L@ONDMPPPO@DI_LISTBOX?$AA@ 0000000180005d48     flags.obj
 0001:00004d58       ??_C@_0P@GDJDPEIK@DI_USERCONTROL?$AA@ 0000000180005d58     flags.obj
 0001:00004d68       ??_C@_08KAEGOLOB@DM_FIRST?$AA@ 0000000180005d68     flags.obj
 0001:00004d78       ??_C@_08MJMBFJHA@DM_CLOSE?$AA@ 0000000180005d78     flags.obj
 0001:00004d88       ??_C@_09KLJOCKAA@DM_ENABLE?$AA@ 0000000180005d88     flags.obj
 0001:00004d98       ??_C@_0BA@KAMJGFDG@DM_ENABLEREDRAW?$AA@ 0000000180005d98     flags.obj
 0001:00004da8       ??_C@_0O@FKGMMKLP@DM_GETDLGDATA?$AA@ 0000000180005da8     flags.obj
 0001:00004db8       ??_C@_0O@HEGKCPOI@DM_GETDLGITEM?$AA@ 0000000180005db8     flags.obj
 0001:00004dc8       ??_C@_0O@BEHCGMCL@DM_GETDLGRECT?$AA@ 0000000180005dc8     flags.obj
 0001:00004dd8       ??_C@_0L@ELBDNLFO@DM_GETTEXT?$AA@ 0000000180005dd8     flags.obj
 0001:00004de4       ??_C@_06IKGPEGEJ@DM_KEY?$AA@ 0000000180005de4     flags.obj
 0001:00004df0       ??_C@_0O@DIPLLJEH@DM_MOVEDIALOG?$AA@ 0000000180005df0     flags.obj
 0001:00004e00       ??_C@_0O@EEEDHNPG@DM_SETDLGDATA?$AA@ 0000000180005e00     flags.obj
 0001:00004e10       ??_C@_0O@GKEFJIKB@DM_SETDLGITEM?$AA@ 0000000180005e10     flags.obj
 0001:00004e20       ??_C@_0M@GOFGHDFK@DM_SETFOCUS?$AA@ 0000000180005e20     flags.obj
 0001:00004e30       ??_C@_09ILPFEDOM@DM_REDRAW?$AA@ 0000000180005e30     flags.obj
 0001:00004e40       ??_C@_0L@LDOCOEIP@DM_SETTEXT?$AA@ 0000000180005e40     flags.obj
 0001:00004e50       ??_C@_0BE@LABEAIPD@DM_SETMAXTEXTLENGTH?$AA@ 0000000180005e50     flags.obj
 0001:00004e68       ??_C@_0O@BIFKIPIP@DM_SHOWDIALOG?$AA@ 0000000180005e68     flags.obj
 0001:00004e78       ??_C@_0M@JPHKGACH@DM_GETFOCUS?$AA@ 0000000180005e78     flags.obj
 0001:00004e88       ??_C@_0BA@NLMONBKJ@DM_GETCURSORPOS?$AA@ 0000000180005e88     flags.obj
 0001:00004e98       ??_C@_0BA@KPHABNOF@DM_SETCURSORPOS?$AA@ 0000000180005e98     flags.obj
 0001:00004ea8       ??_C@_0O@LGEKFPKK@DM_SETTEXTPTR?$AA@ 0000000180005ea8     flags.obj
 0001:00004eb8       ??_C@_0M@NCOJHJKI@DM_SHOWITEM?$AA@ 0000000180005eb8     flags.obj
 0001:00004ec8       ??_C@_0O@GKKCFHIM@DM_ADDHISTORY?$AA@ 0000000180005ec8     flags.obj
 0001:00004ed8       ??_C@_0M@MCEMDFMD@DM_GETCHECK?$AA@ 0000000180005ed8     flags.obj
 0001:00004ee8       ??_C@_0M@DDGACGLO@DM_SETCHECK?$AA@ 0000000180005ee8     flags.obj
 0001:00004ef8       ??_C@_0N@MEGOPFGK@DM_SET3STATE?$AA@ 0000000180005ef8     flags.obj
 0001:00004f08       ??_C@_0M@GEPBDDNC@DM_LISTSORT?$AA@ 0000000180005f08     flags.obj
 0001:00004f18       ??_C@_0P@NFJNHAKH@DM_LISTGETITEM?$AA@ 0000000180005f18     flags.obj
 0001:00004f28       ??_C@_0BB@EEIMACNO@DM_LISTGETCURPOS?$AA@ 0000000180005f28     flags.obj
 0001:00004f40       ??_C@_0BB@GKMJCDEM@DM_LISTSETCURPOS?$AA@ 0000000180005f40     flags.obj
 0001:00004f58       ??_C@_0O@NOPCAHGJ@DM_LISTDELETE?$AA@ 0000000180005f58     flags.obj
 0001:00004f68       ??_C@_0L@BMEAECNG@DM_LISTADD?$AA@ 0000000180005f68     flags.obj
 0001:00004f78       ??_C@_0O@HBHDMHP@DM_LISTADDSTR?$AA@ 0000000180005f78     flags.obj
 0001:00004f88       ??_C@_0O@PDFCNPKN@DM_LISTUPDATE?$AA@ 0000000180005f88     flags.obj
 0001:00004f98       ??_C@_0O@GAAGMJJL@DM_LISTINSERT?$AA@ 0000000180005f98     flags.obj
 0001:00004fa8       ??_C@_0BC@MIFCLOBD@DM_LISTFINDSTRING?$AA@ 0000000180005fa8     flags.obj
 0001:00004fc0       ??_C@_0M@EEAEBLKC@DM_LISTINFO?$AA@ 0000000180005fc0     flags.obj
 0001:00004fd0       ??_C@_0P@PLJLJFPA@DM_LISTGETDATA?$AA@ 0000000180005fd0     flags.obj
 0001:00004fe0       ??_C@_0P@DGKKKCB@DM_LISTSETDATA?$AA@ 0000000180005fe0     flags.obj
 0001:00004ff0       ??_C@_0BB@CELMNLLN@DM_LISTSETTITLES?$AA@ 0000000180005ff0     flags.obj
 0001:00005008       ??_C@_0BB@KPJPKCP@DM_LISTGETTITLES?$AA@ 0000000180006008     flags.obj
 0001:00005020       ??_C@_0BA@ICDJCFLE@DM_RESIZEDIALOG?$AA@ 0000000180006020     flags.obj
 0001:00005030       ??_C@_0BD@CNGGHGJF@DM_SETITEMPOSITION?$AA@ 0000000180006030     flags.obj
 0001:00005048       ??_C@_0BF@JMINBGBA@DM_GETDROPDOWNOPENED?$AA@ 0000000180006048     flags.obj
 0001:00005060       ??_C@_0BF@LJIGJNAO@DM_SETDROPDOWNOPENED?$AA@ 0000000180006060     flags.obj
 0001:00005078       ??_C@_0O@NPDKADMJ@DM_SETHISTORY?$AA@ 0000000180006078     flags.obj
 0001:00005088       ??_C@_0BD@BPHAAEIM@DM_GETITEMPOSITION?$AA@ 0000000180006088     flags.obj
 0001:000050a0       ??_C@_0BC@BENFKLNH@DM_SETINPUTNOTIFY?$AA@ 00000001800060a0     flags.obj
 0001:000050b8       ??_C@_0BH@CFMLLNNM@DM_SETMOUSEEVENTNOTIFY?$AA@ 00000001800060b8     flags.obj
 0001:000050d0       ??_C@_0BF@IAGIACOD@DM_EDITUNCHANGEDFLAG?$AA@ 00000001800060d0     flags.obj
 0001:000050e8       ??_C@_0P@OJKNHIPN@DM_GETITEMDATA?$AA@ 00000001800060e8     flags.obj
 0001:000050f8       ??_C@_0P@OGLDKOHO@DM_SETITEMDATA?$AA@ 00000001800060f8     flags.obj
 0001:00005108       ??_C@_0L@KNFAKFKE@DM_LISTSET?$AA@ 0000000180006108     flags.obj
 0001:00005118       ??_C@_0BB@EPMFHAFO@DM_GETCURSORSIZE?$AA@ 0000000180006118     flags.obj
 0001:00005130       ??_C@_0BB@DANLMDCJ@DM_SETCURSORSIZE?$AA@ 0000000180006130     flags.obj
 0001:00005148       ??_C@_0BD@LAOOKGHD@DM_LISTGETDATASIZE?$AA@ 0000000180006148     flags.obj
 0001:00005160       ??_C@_0BA@BHGANJAP@DM_GETSELECTION?$AA@ 0000000180006160     flags.obj
 0001:00005170       ??_C@_0BA@GDNOBFED@DM_SETSELECTION?$AA@ 0000000180006170     flags.obj
 0001:00005180       ??_C@_0BD@FIHDGIGO@DM_GETEDITPOSITION?$AA@ 0000000180006180     flags.obj
 0001:00005198       ??_C@_0BD@GKGFBKHH@DM_SETEDITPOSITION?$AA@ 0000000180006198     flags.obj
 0001:000051b0       ??_C@_0BE@MCECGHBC@DM_SETCOMBOBOXEVENT?$AA@ 00000001800061b0     flags.obj
 0001:000051c8       ??_C@_0BE@KGBLNJKA@DM_GETCOMBOBOXEVENT?$AA@ 00000001800061c8     flags.obj
 0001:000051e0       ??_C@_0BD@CJEPBACF@DM_GETCONSTTEXTPTR?$AA@ 00000001800061e0     flags.obj
 0001:000051f8       ??_C@_0BD@HOOHICEG@DM_GETDLGITEMSHORT?$AA@ 00000001800061f8     flags.obj
 0001:00005210       ??_C@_0BD@EMPBPAFP@DM_SETDLGITEMSHORT?$AA@ 0000000180006210     flags.obj
 0001:00005228       ??_C@_0BB@GAPFMPKE@DM_GETDIALOGINFO?$AA@ 0000000180006228     flags.obj
 0001:00005240       ??_C@_0BC@KJOLMFGG@DM_GETDIALOGTITLE?$AA@ 0000000180006240     flags.obj
 0001:00005258       ??_C@_08COMJOMAC@DN_FIRST?$AA@ 0000000180006258     flags.obj
 0001:00005268       ??_C@_0M@NNNAPNMA@DN_BTNCLICK?$AA@ 0000000180006268     flags.obj
 0001:00005278       ??_C@_0BC@MJFJAANN@DN_CTLCOLORDIALOG?$AA@ 0000000180006278     flags.obj
 0001:00005290       ??_C@_0BD@HFGBIBBL@DN_CTLCOLORDLGITEM?$AA@ 0000000180006290     flags.obj
 0001:000052a8       ??_C@_0BD@JMFJPHPD@DN_CTLCOLORDLGLIST?$AA@ 00000001800062a8     flags.obj
 0001:000052c0       ??_C@_0O@NKBDPILK@DN_DRAWDIALOG?$AA@ 00000001800062c0     flags.obj
 0001:000052d0       ??_C@_0P@KGKEDPBI@DN_DRAWDLGITEM?$AA@ 00000001800062d0     flags.obj
 0001:000052e0       ??_C@_0O@JMKNGFLE@DN_EDITCHANGE?$AA@ 00000001800062e0     flags.obj
 0001:000052f0       ??_C@_0N@OCGKCPJF@DN_ENTERIDLE?$AA@ 00000001800062f0     flags.obj
 0001:00005300       ??_C@_0M@JHFIBKOO@DN_GOTFOCUS?$AA@ 0000000180006300     flags.obj
 0001:00005310       ??_C@_07NJJEMKPA@DN_HELP?$AA@ 0000000180006310     flags.obj
 0001:00005318       ??_C@_09EDGJFAK@DN_HOTKEY?$AA@ 0000000180006318     flags.obj
 0001:00005328       ??_C@_0O@BJECHBCA@DN_INITDIALOG?$AA@ 0000000180006328     flags.obj
 0001:00005338       ??_C@_0N@CHLLLNBO@DN_KILLFOCUS?$AA@ 0000000180006338     flags.obj
 0001:00005348       ??_C@_0O@CLPABIGO@DN_LISTCHANGE?$AA@ 0000000180006348     flags.obj
 0001:00005358       ??_C@_0L@MLMFBHN@DN_DRAGGED?$AA@ 0000000180006358     flags.obj
 0001:00005368       ??_C@_0BB@BOOOCAEG@DN_RESIZECONSOLE?$AA@ 0000000180006368     flags.obj
 0001:00005380       ??_C@_0BC@FHPPFLKG@DN_DRAWDIALOGDONE?$AA@ 0000000180006380     flags.obj
 0001:00005398       ??_C@_0O@EONPBNNP@DN_LISTHOTKEY?$AA@ 0000000180006398     flags.obj
 0001:000053a8       ??_C@_08MDDLDGPO@DN_INPUT?$AA@ 00000001800063a8     flags.obj
 0001:000053b8       ??_C@_0BA@FGOGLDBC@DN_CONTROLINPUT?$AA@ 00000001800063b8     flags.obj
 0001:000053c8       ??_C@_08EHEOFOJD@DN_CLOSE?$AA@ 00000001800063c8     flags.obj
 0001:000053d8       ??_C@_0M@POIFBPFN@DN_GETVALUE?$AA@ 00000001800063d8     flags.obj
 0001:000053e8       ??_C@_0BC@MHCBFAAO@DN_DROPDOWNOPENED?$AA@ 00000001800063e8     flags.obj
 0001:00005400       ??_C@_0BD@NGEKAPIF@DN_DRAWDLGITEMDONE?$AA@ 0000000180006400     flags.obj
 0001:00005418       ??_C@_07DIJJNCBA@DM_USER?$AA@ 0000000180006418     flags.obj
 0001:00005420       ??_C@_0BB@HLBBGMAN@BSTATE_UNCHECKED?$AA@ 0000000180006420     flags.obj
 0001:00005438       ??_C@_0P@FALAMPGP@BSTATE_CHECKED?$AA@ 0000000180006438     flags.obj
 0001:00005448       ??_C@_0O@KBIFGGHO@BSTATE_3STATE?$AA@ 0000000180006448     flags.obj
 0001:00005458       ??_C@_0O@ILJOJGLD@BSTATE_TOGGLE?$AA@ 0000000180006458     flags.obj
 0001:00005468       ??_C@_08PPADCPCM@CBET_KEY?$AA@ 0000000180006468     flags.obj
 0001:00005478       ??_C@_0L@KHCLMGFJ@CBET_MOUSE?$AA@ 0000000180006478     flags.obj
 0001:00005488       ??_C@_0BA@KNHGEBNE@PTYPE_FILEPANEL?$AA@ 0000000180006488     flags.obj
 0001:00005498       ??_C@_0BA@LPPHNHIG@PTYPE_TREEPANEL?$AA@ 0000000180006498     flags.obj
 0001:000054a8       ??_C@_0BB@JBINOKAI@PTYPE_QVIEWPANEL?$AA@ 00000001800064a8     flags.obj
 0001:000054c0       ??_C@_0BA@NKMDEBG@PTYPE_INFOPANEL?$AA@ 00000001800064c0     flags.obj
 0001:000054d0       ??_C@_0L@OPHJOKKE@SM_DEFAULT?$AA@ 00000001800064d0     flags.obj
 0001:000054e0       ??_C@_0M@JGBFGGEA@SM_UNSORTED?$AA@ 00000001800064e0     flags.obj
 0001:000054f0       ??_C@_07KIFHAGIL@SM_NAME?$AA@ 00000001800064f0     flags.obj
 0001:000054f8       ??_C@_06GJJJNNFE@SM_EXT?$AA@ 00000001800064f8     flags.obj
 0001:00005500       ??_C@_08FICJBKFN@SM_MTIME?$AA@ 0000000180006500     flags.obj
 0001:00005510       ??_C@_08GCCDHLCN@SM_CTIME?$AA@ 0000000180006510     flags.obj
 0001:00005520       ??_C@_08CPOLNKCG@SM_ATIME?$AA@ 0000000180006520     flags.obj
 0001:00005530       ??_C@_07OMPKMIKC@SM_SIZE?$AA@ 0000000180006530     flags.obj
 0001:00005538       ??_C@_08BCBPOLMA@SM_DESCR?$AA@ 0000000180006538     flags.obj
 0001:00005548       ??_C@_08MEAGCMBB@SM_OWNER?$AA@ 0000000180006548     flags.obj
 0001:00005558       ??_C@_0BC@NKDBNAHD@SM_COMPRESSEDSIZE?$AA@ 0000000180006558     flags.obj
 0001:00005570       ??_C@_0M@PKNLKFI@SM_NUMLINKS?$AA@ 0000000180006570     flags.obj
 0001:00005580       ??_C@_0O@CCKEKPHL@SM_NUMSTREAMS?$AA@ 0000000180006580     flags.obj
 0001:00005590       ??_C@_0P@PKGMDPMD@SM_STREAMSSIZE?$AA@ 0000000180006590     flags.obj
 0001:000055a0       ??_C@_0M@OAFEBGNH@SM_FULLNAME?$AA@ 00000001800065a0     flags.obj
 0001:000055b0       ??_C@_09KFKGJDHC@SM_CHTIME?$AA@ 00000001800065b0     flags.obj
 0001:000055c0       ??_C@_0P@FEMAMJLE@EEC_OPEN_ERROR?$AA@ 00000001800065c0     flags.obj
 0001:000055d0       ??_C@_0N@GLMELIKF@EEC_MODIFIED?$AA@ 00000001800065d0     flags.obj
 0001:000055e0       ??_C@_0BB@HALKEFOL@EEC_NOT_MODIFIED?$AA@ 00000001800065e0     flags.obj
 0001:000055f8       ??_C@_0BI@CNPFKHKO@EEC_LOADING_INTERRUPTED?$AA@ 00000001800065f8     flags.obj
 0001:00005610       ??_C@_0BK@PHBCABMB@ACTL_GETFARMANAGERVERSION?$AA@ 0000000180006610     flags.obj
 0001:00005630       ??_C@_0N@DPABJDML@ACTL_WAITKEY?$AA@ 0000000180006630     flags.obj
 0001:00005640       ??_C@_0O@CEHHJAFD@ACTL_GETCOLOR?$AA@ 0000000180006640     flags.obj
 0001:00005650       ??_C@_0BD@OKPAACIK@ACTL_GETARRAYCOLOR?$AA@ 0000000180006650     flags.obj
 0001:00005668       ??_C@_0BD@DIFEEKNN@ACTL_GETWINDOWINFO?$AA@ 0000000180006668     flags.obj
 0001:00005680       ??_C@_0BE@PJBIPKOD@ACTL_GETWINDOWCOUNT?$AA@ 0000000180006680     flags.obj
 0001:00005698       ??_C@_0BG@MNKPOEEN@ACTL_SETCURRENTWINDOW?$AA@ 0000000180006698     flags.obj
 0001:000056b0       ??_C@_0M@IHHFGPPA@ACTL_COMMIT?$AA@ 00000001800066b0     flags.obj
 0001:000056c0       ??_C@_0BA@CLHFKJJP@ACTL_GETFARHWND?$AA@ 00000001800066c0     flags.obj
 0001:000056d0       ??_C@_0BD@JFOOLBPN@ACTL_SETARRAYCOLOR?$AA@ 00000001800066d0     flags.obj
 0001:000056e8       ??_C@_0P@JECKFIA@ACTL_REDRAWALL?$AA@ 00000001800066e8     flags.obj
 0001:000056f8       ??_C@_0N@DHPLJLHO@ACTL_SYNCHRO?$AA@ 00000001800066f8     flags.obj
 0001:00005708       ??_C@_0BG@IJPADENB@ACTL_SETPROGRESSSTATE?$AA@ 0000000180006708     flags.obj
 0001:00005720       ??_C@_0BG@ICJFAPHK@ACTL_SETPROGRESSVALUE?$AA@ 0000000180006720     flags.obj
 0001:00005738       ??_C@_09HNDBKLDC@ACTL_QUIT?$AA@ 0000000180006738     flags.obj
 0001:00005748       ??_C@_0BA@LJCPDIKK@ACTL_GETFARRECT?$AA@ 0000000180006748     flags.obj
 0001:00005758       ??_C@_0BC@FELBEIDG@ACTL_GETCURSORPOS?$AA@ 0000000180006758     flags.obj
 0001:00005770       ??_C@_0BC@CAAPIEHK@ACTL_SETCURSORPOS?$AA@ 0000000180006770     flags.obj
 0001:00005788       ??_C@_0BE@NPJGMDBM@ACTL_PROGRESSNOTIFY?$AA@ 0000000180006788     flags.obj
 0001:000057a0       ??_C@_0BD@IPKOEBIA@ACTL_GETWINDOWTYPE?$AA@ 00000001800067a0     flags.obj
 0001:000057b8       ??_C@_09CEDFMINA@MSSC_POST?$AA@ 00000001800067b8     flags.obj
 0001:000057c8       ??_C@_0L@MOADGAEB@MSSC_CHECK?$AA@ 00000001800067c8     flags.obj
 0001:000057d8       ??_C@_0BA@MMOAIEKP@MACROAREA_OTHER?$AA@ 00000001800067d8     flags.obj
 0001:000057e8       ??_C@_0BA@DEBOOAEB@MACROAREA_SHELL?$AA@ 00000001800067e8     flags.obj
 0001:000057f8       ??_C@_0BB@JIMPEHCD@MACROAREA_VIEWER?$AA@ 00000001800067f8     flags.obj
 0001:00005810       ??_C@_0BB@KILFBFJH@MACROAREA_EDITOR?$AA@ 0000000180006810     flags.obj
 0001:00005828       ??_C@_0BB@CADENPFI@MACROAREA_DIALOG?$AA@ 0000000180006828     flags.obj
 0001:00005840       ??_C@_0BB@MLMLHIGE@MACROAREA_SEARCH?$AA@ 0000000180006840     flags.obj
 0001:00005858       ??_C@_0BA@KKMKOLIK@MACROAREA_DISKS?$AA@ 0000000180006858     flags.obj
 0001:00005868       ??_C@_0BD@IGOOIJP@MACROAREA_MAINMENU?$AA@ 0000000180006868     flags.obj
 0001:00005880       ??_C@_0P@LFLMAHBF@MACROAREA_MENU?$AA@ 0000000180006880     flags.obj
 0001:00005890       ??_C@_0P@DKPKIEO@MACROAREA_HELP?$AA@ 0000000180006890     flags.obj
 0001:000058a0       ??_C@_0BE@MDJPICHC@MACROAREA_INFOPANEL?$AA@ 00000001800068a0     flags.obj
 0001:000058b8       ??_C@_0BF@NLJMHMPP@MACROAREA_QVIEWPANEL?$AA@ 00000001800068b8     flags.obj
 0001:000058d0       ??_C@_0BE@HBMEGBOC@MACROAREA_TREEPANEL?$AA@ 00000001800068d0     flags.obj
 0001:000058e8       ??_C@_0BF@FCHKCGLL@MACROAREA_FINDFOLDER?$AA@ 00000001800068e8     flags.obj
 0001:00005900       ??_C@_0BD@JCFMJGDE@MACROAREA_USERMENU?$AA@ 0000000180006900     flags.obj
 0001:00005918       ??_C@_0BO@OMLEPJPM@MACROAREA_SHELLAUTOCOMPLETION?$AA@ 0000000180006918     flags.obj
 0001:00005938       ??_C@_0BP@OIHAIGBK@MACROAREA_DIALOGAUTOCOMPLETION?$AA@ 0000000180006938     flags.obj
 0001:00005958       ??_C@_0BB@JPEEDDOG@MACROAREA_COMMON?$AA@ 0000000180006958     flags.obj
 0001:00005970       ??_C@_0BD@DIKEKAIJ@MACROSTATE_NOMACRO?$AA@ 0000000180006970     flags.obj
 0001:00005988       ??_C@_0BF@PCDEFEGP@MACROSTATE_EXECUTING?$AA@ 0000000180006988     flags.obj
 0001:000059a0       ??_C@_0BM@EJOFDENO@MACROSTATE_EXECUTING_COMMON?$AA@ 00000001800069a0     flags.obj
 0001:000059c0       ??_C@_0BF@BGODKPBB@MACROSTATE_RECORDING?$AA@ 00000001800069c0     flags.obj
 0001:000059d8       ??_C@_0BM@OICPADFE@MACROSTATE_RECORDING_COMMON?$AA@ 00000001800069d8     flags.obj
 0001:000059f8       ??_C@_0N@CGFFMLBC@MPEC_SUCCESS?$AA@ 00000001800069f8     flags.obj
 0001:00005a08       ??_C@_0L@FJDDLDNN@MPEC_ERROR?$AA@ 0000000180006a08     flags.obj
 0001:00005a18       ??_C@_0N@IBOAADDD@FMVT_UNKNOWN?$AA@ 0000000180006a18     flags.obj
 0001:00005a28       ??_C@_0N@BDMFKEKE@FMVT_INTEGER?$AA@ 0000000180006a28     flags.obj
 0001:00005a38       ??_C@_0M@LFMLDDKI@FMVT_STRING?$AA@ 0000000180006a38     flags.obj
 0001:00005a48       ??_C@_0M@CKDAIOEN@FMVT_DOUBLE?$AA@ 0000000180006a48     flags.obj
 0001:00005a58       ??_C@_0N@MHKOBOGF@FMVT_BOOLEAN?$AA@ 0000000180006a58     flags.obj
 0001:00005a68       ??_C@_0M@GKPDICDA@FMVT_BINARY?$AA@ 0000000180006a68     flags.obj
 0001:00005a78       ??_C@_0N@FMHCFNDF@FMVT_POINTER?$AA@ 0000000180006a78     flags.obj
 0001:00005a88       ??_C@_08DDPDBBNO@FMVT_NIL?$AA@ 0000000180006a88     flags.obj
 0001:00005a98       ??_C@_0L@DJIKMOJA@FMVT_ARRAY?$AA@ 0000000180006a98     flags.obj
 0001:00005aa8       ??_C@_0L@PMDDFEBD@FMVT_PANEL?$AA@ 0000000180006aa8     flags.obj
 0001:00005ab8       ??_C@_0O@DCGKMPOM@WTYPE_DESKTOP?$AA@ 0000000180006ab8     flags.obj
 0001:00005ac8       ??_C@_0N@FNCFCPIG@WTYPE_PANELS?$AA@ 0000000180006ac8     flags.obj
 0001:00005ad8       ??_C@_0N@EJKMDMBK@WTYPE_VIEWER?$AA@ 0000000180006ad8     flags.obj
 0001:00005ae8       ??_C@_0N@HJNGGOKO@WTYPE_EDITOR?$AA@ 0000000180006ae8     flags.obj
 0001:00005af8       ??_C@_0N@PBFHKEGB@WTYPE_DIALOG?$AA@ 0000000180006af8     flags.obj
 0001:00005b08       ??_C@_0M@OMKLELFA@WTYPE_VMENU?$AA@ 0000000180006b08     flags.obj
 0001:00005b18       ??_C@_0L@BCEMNGOG@WTYPE_HELP?$AA@ 0000000180006b18     flags.obj
 0001:00005b28       ??_C@_0BA@IPEAOBGN@TBPS_NOPROGRESS?$AA@ 0000000180006b28     flags.obj
 0001:00005b38       ??_C@_0BD@HMEHMDAL@TBPS_INDETERMINATE?$AA@ 0000000180006b38     flags.obj
 0001:00005b50       ??_C@_0M@KHLNKPHE@TBPS_NORMAL?$AA@ 0000000180006b50     flags.obj
 0001:00005b60       ??_C@_0L@DFDPCOFD@TBPS_ERROR?$AA@ 0000000180006b60     flags.obj
 0001:00005b70       ??_C@_0M@GHGAPHPP@TBPS_PAUSED?$AA@ 0000000180006b70     flags.obj
 0001:00005b80       ??_C@_0O@MCNCFBLF@VSMT_VIEWMODE?$AA@ 0000000180006b80     flags.obj
 0001:00005b90       ??_C@_09FLKONCNO@VSMT_WRAP?$AA@ 0000000180006b90     flags.obj
 0001:00005ba0       ??_C@_0O@INKALKJK@VSMT_WORDWRAP?$AA@ 0000000180006ba0     flags.obj
 0001:00005bb0       ??_C@_08FNEFFFEL@VMT_TEXT?$AA@ 0000000180006bb0     flags.obj
 0001:00005bc0       ??_C@_07FLIHDEDA@VMT_HEX?$AA@ 0000000180006bc0     flags.obj
 0001:00005bc8       ??_C@_08BDDNDBMJ@VMT_DUMP?$AA@ 0000000180006bc8     flags.obj
 0001:00005bd8       ??_C@_07OJCLGDHJ@VE_READ?$AA@ 0000000180006bd8     flags.obj
 0001:00005be0       ??_C@_08JIBCCIDC@VE_CLOSE?$AA@ 0000000180006be0     flags.obj
 0001:00005bf0       ??_C@_0M@FEFKOOMJ@VE_GOTFOCUS?$AA@ 0000000180006bf0     flags.obj
 0001:00005c00       ??_C@_0N@ICHCAKIB@VE_KILLFOCUS?$AA@ 0000000180006c00     flags.obj
 0001:00005c10       ??_C@_07BLBPFFLB@EE_READ?$AA@ 0000000180006c10     flags.obj
 0001:00005c18       ??_C@_07KJGPGPOC@EE_SAVE?$AA@ 0000000180006c18     flags.obj
 0001:00005c20       ??_C@_09NPOPIKMK@EE_REDRAW?$AA@ 0000000180006c20     flags.obj
 0001:00005c30       ??_C@_08NFPFGIG@EE_CLOSE?$AA@ 0000000180006c30     flags.obj
 0001:00005c40       ??_C@_0M@CPNMNBMF@EE_GOTFOCUS?$AA@ 0000000180006c40     flags.obj
 0001:00005c50       ??_C@_0N@ILLPMAJF@EE_KILLFOCUS?$AA@ 0000000180006c50     flags.obj
 0001:00005c60       ??_C@_09MIOGFFI@EE_CHANGE?$AA@ 0000000180006c60     flags.obj
 0001:00005c70       ??_C@_0P@MBHAHBBG@DE_DLGPROCINIT?$AA@ 0000000180006c70     flags.obj
 0001:00005c80       ??_C@_0BC@BMFEJAMO@DE_DEFDLGPROCINIT?$AA@ 0000000180006c80     flags.obj
 0001:00005c98       ??_C@_0O@ICBCOJCG@DE_DLGPROCEND?$AA@ 0000000180006c98     flags.obj
 0001:00005ca8       ??_C@_0BB@MNODJNPE@SE_COMMONSYNCHRO?$AA@ 0000000180006ca8     flags.obj
 0001:00005cc0       ??_C@_0N@HKGMPMJE@ESPT_TABSIZE?$AA@ 0000000180006cc0     flags.obj
 0001:00005cd0       ??_C@_0BA@GOKHPFCK@ESPT_EXPANDTABS?$AA@ 0000000180006cd0     flags.obj
 0001:00005ce0       ??_C@_0BA@KOADDMLI@ESPT_AUTOINDENT?$AA@ 0000000180006ce0     flags.obj
 0001:00005cf0       ??_C@_0BF@LPNONOMF@ESPT_CURSORBEYONDEOL?$AA@ 0000000180006cf0     flags.obj
 0001:00005d08       ??_C@_0BC@OECOCGLJ@ESPT_CHARCODEBASE?$AA@ 0000000180006d08     flags.obj
 0001:00005d20       ??_C@_0O@PIAOJINE@ESPT_CODEPAGE?$AA@ 0000000180006d20     flags.obj
 0001:00005d30       ??_C@_0BG@HAPABMJH@ESPT_SAVEFILEPOSITION?$AA@ 0000000180006d30     flags.obj
 0001:00005d48       ??_C@_0O@KCPDJCKC@ESPT_LOCKMODE?$AA@ 0000000180006d48     flags.obj
 0001:00005d58       ??_C@_0BA@EIGIAOHM@ESPT_SETWORDDIV?$AA@ 0000000180006d58     flags.obj
 0001:00005d68       ??_C@_0BA@FGEHLJDF@ESPT_GETWORDDIV?$AA@ 0000000180006d68     flags.obj
 0001:00005d78       ??_C@_0BE@MACJBCFP@ESPT_SHOWWHITESPACE?$AA@ 0000000180006d78     flags.obj
 0001:00005d90       ??_C@_0M@FICNFPPA@ESPT_SETBOM?$AA@ 0000000180006d90     flags.obj
 0001:00005da0       ??_C@_09FLEMPKKP@EUR_BEGIN?$AA@ 0000000180006da0     flags.obj
 0001:00005db0       ??_C@_07DDJDFJCN@EUR_END?$AA@ 0000000180006db0     flags.obj
 0001:00005db8       ??_C@_08FCONALGE@EUR_UNDO?$AA@ 0000000180006db8     flags.obj
 0001:00005dc8       ??_C@_08DHMMFAHF@EUR_REDO?$AA@ 0000000180006dc8     flags.obj
 0001:00005dd8       ??_C@_0O@PKOIFEBO@EXPAND_NOTABS?$AA@ 0000000180006dd8     flags.obj
 0001:00005de8       ??_C@_0P@MLHPCNDM@EXPAND_ALLTABS?$AA@ 0000000180006de8     flags.obj
 0001:00005df8       ??_C@_0P@OONGIIBL@EXPAND_NEWTABS?$AA@ 0000000180006df8     flags.obj
 0001:00005e08       ??_C@_0BD@DKHPEOHH@EOPT_EXPANDALLTABS?$AA@ 0000000180006e08     flags.obj
 0001:00005e20       ??_C@_0BG@BOINMDEK@EOPT_PERSISTENTBLOCKS?$AA@ 0000000180006e20     flags.obj
 0001:00005e38       ??_C@_0BG@PIIHHCAN@EOPT_DELREMOVESBLOCKS?$AA@ 0000000180006e38     flags.obj
 0001:00005e50       ??_C@_0BA@KPJEAKBD@EOPT_AUTOINDENT?$AA@ 0000000180006e50     flags.obj
 0001:00005e60       ??_C@_0BG@MBPADLG@EOPT_SAVEFILEPOSITION?$AA@ 0000000180006e60     flags.obj
 0001:00005e78       ??_C@_0BI@PFHCGCAI@EOPT_AUTODETECTCODEPAGE?$AA@ 0000000180006e78     flags.obj
 0001:00005e90       ??_C@_0BF@IMCOEIAL@EOPT_CURSORBEYONDEOL?$AA@ 0000000180006e90     flags.obj
 0001:00005ea8       ??_C@_0BH@CJPAGGLC@EOPT_EXPANDONLYNEWTABS?$AA@ 0000000180006ea8     flags.obj
 0001:00005ec0       ??_C@_0BE@DDKCDJDC@EOPT_SHOWWHITESPACE?$AA@ 0000000180006ec0     flags.obj
 0001:00005ed8       ??_C@_08HMMLONBH@EOPT_BOM?$AA@ 0000000180006ed8     flags.obj
 0001:00005ee8       ??_C@_0BD@CLLAKGOA@EOPT_SHOWLINEBREAK?$AA@ 0000000180006ee8     flags.obj
 0001:00005f00       ??_C@_0L@BJCBJJNB@BTYPE_NONE?$AA@ 0000000180006f00     flags.obj
 0001:00005f10       ??_C@_0N@OPHHGFPF@BTYPE_STREAM?$AA@ 0000000180006f10     flags.obj
 0001:00005f20       ??_C@_0N@EMEGNPLI@BTYPE_COLUMN?$AA@ 0000000180006f20     flags.obj
 0001:00005f30       ??_C@_0BB@BNPDAPGB@ECSTATE_MODIFIED?$AA@ 0000000180006f30     flags.obj
 0001:00005f48       ??_C@_0O@GBBGHDFM@ECSTATE_SAVED?$AA@ 0000000180006f48     flags.obj
 0001:00005f58       ??_C@_0P@BECIAJAM@ECSTATE_LOCKED?$AA@ 0000000180006f58     flags.obj
 0001:00005f68       ??_C@_0P@DOBJCNIG@ECTYPE_CHANGED?$AA@ 0000000180006f68     flags.obj
 0001:00005f78       ??_C@_0N@MDEFMEEA@ECTYPE_ADDED?$AA@ 0000000180006f78     flags.obj
 0001:00005f88       ??_C@_0P@NMOJJPOB@ECTYPE_DELETED?$AA@ 0000000180006f88     flags.obj
 0001:00005f98       ??_C@_08HHHKLJPB@PLT_PATH?$AA@ 0000000180006f98     flags.obj
 0001:00005fa8       ??_C@_08KBAMIIFB@PFM_GUID?$AA@ 0000000180006fa8     flags.obj
 0001:00005fb8       ??_C@_0P@KKEMMPNI@PFM_MODULENAME?$AA@ 0000000180006fb8     flags.obj
 0001:00005fc8       ??_C@_09BOODOHKD@FFT_PANEL?$AA@ 0000000180006fc8     flags.obj
 0001:00005fd8       ??_C@_0N@GMEDAGNH@FFT_FINDFILE?$AA@ 0000000180006fd8     flags.obj
 0001:00005fe8       ??_C@_08KKCPIPGP@FFT_COPY?$AA@ 0000000180006fe8     flags.obj
 0001:00005ff8       ??_C@_0L@EKPDMFDD@FFT_SELECT?$AA@ 0000000180006ff8     flags.obj
 0001:00006008       ??_C@_0L@LGPEDLLD@FFT_CUSTOM?$AA@ 0000000180007008     flags.obj
 0001:00006018       ??_C@_0M@OIOMMFOE@FST_UNKNOWN?$AA@ 0000000180007018     flags.obj
 0001:00006028       ??_C@_0L@GGGOEGKJ@FST_SUBKEY?$AA@ 0000000180007028     flags.obj
 0001:00006038       ??_C@_09LFEEAJIC@FST_QWORD?$AA@ 0000000180007038     flags.obj
 0001:00006048       ??_C@_0L@LPMPBKDL@FST_STRING?$AA@ 0000000180007048     flags.obj
 0001:00006058       ??_C@_08EJJJCLIG@FST_DATA?$AA@ 0000000180007058     flags.obj
 0001:00006068       ??_C@_09OBBBBFPE@FSSF_ROOT?$AA@ 0000000180007068     flags.obj
 0001:00006078       ??_C@_0BB@HDKCPBIO@FSSF_HISTORY_CMD?$AA@ 0000000180007078     flags.obj
 0001:00006090       ??_C@_0BE@BLPOFODL@FSSF_HISTORY_FOLDER?$AA@ 0000000180007090     flags.obj
 0001:000060a8       ??_C@_0BC@NJCJCCNH@FSSF_HISTORY_VIEW?$AA@ 00000001800070a8     flags.obj
 0001:000060c0       ??_C@_0BC@CODELNPP@FSSF_HISTORY_EDIT?$AA@ 00000001800070c0     flags.obj
 0001:000060d8       ??_C@_0BG@IFGEMJIF@FSSF_HISTORY_EXTERNAL?$AA@ 00000001800070d8     flags.obj
 0001:000060f0       ??_C@_0BG@DGAKDKFK@FSSF_FOLDERSHORTCUT_0?$AA@ 00000001800070f0     flags.obj
 0001:00006108       ??_C@_0BG@CPBBALBL@FSSF_FOLDERSHORTCUT_1?$AA@ 0000000180007108     flags.obj
 0001:00006120       ??_C@_0BG@EDMFINI@FSSF_FOLDERSHORTCUT_2?$AA@ 0000000180007120     flags.obj
 0001:00006138       ??_C@_0BG@BNCHGJJJ@FSSF_FOLDERSHORTCUT_3?$AA@ 0000000180007138     flags.obj
 0001:00006150       ??_C@_0BG@FCGGPPFO@FSSF_FOLDERSHORTCUT_4?$AA@ 0000000180007150     flags.obj
 0001:00006168       ??_C@_0BG@ELHNMOBP@FSSF_FOLDERSHORTCUT_5?$AA@ 0000000180007168     flags.obj
 0001:00006180       ??_C@_0BG@GAFAJNNM@FSSF_FOLDERSHORTCUT_6?$AA@ 0000000180007180     flags.obj
 0001:00006198       ??_C@_0BG@HJELKMJN@FSSF_FOLDERSHORTCUT_7?$AA@ 0000000180007198     flags.obj
 0001:000061b0       ??_C@_0BG@PONDLAFC@FSSF_FOLDERSHORTCUT_8?$AA@ 00000001800071b0     flags.obj
 0001:000061c8       ??_C@_0BG@OHMIIBBD@FSSF_FOLDERSHORTCUT_9?$AA@ 00000001800071c8     flags.obj
 0001:000061e0       ??_C@_0BD@PBIEGEHP@FSSF_CONFIRMATIONS?$AA@ 00000001800071e0     flags.obj
 0001:000061f8       ??_C@_0M@PIGDMPJB@FSSF_SYSTEM?$AA@ 00000001800071f8     flags.obj
 0001:00006208       ??_C@_0L@LBFNJGFB@FSSF_PANEL?$AA@ 0000000180007208     flags.obj
 0001:00006218       ??_C@_0M@KJLIHDEL@FSSF_EDITOR?$AA@ 0000000180007218     flags.obj
 0001:00006228       ??_C@_0M@KEMGKEOF@FSSF_SCREEN?$AA@ 0000000180007228     flags.obj
 0001:00006238       ??_C@_0M@CBDJLJIE@FSSF_DIALOG?$AA@ 0000000180007238     flags.obj
 0001:00006248       ??_C@_0P@OCDADNBF@FSSF_INTERFACE?$AA@ 0000000180007248     flags.obj
 0001:00006258       ??_C@_0BB@GBBEBNKE@FSSF_PANELLAYOUT?$AA@ 0000000180007258     flags.obj
 0001:00006270       ??_C@_0M@JCGHGLJF@PSL_ROAMING?$AA@ 0000000180007270     flags.obj
 0001:00006280       ??_C@_09EDBNDHCM@PSL_LOCAL?$AA@ 0000000180007280     flags.obj
 0001:00006290       ??_C@_07BPEFOPGM@FCT_ANY?$AA@ 0000000180007290     flags.obj
 0001:00006298       ??_C@_0L@CDAEILNM@FCT_STREAM?$AA@ 0000000180007298     flags.obj
 0001:000062a8       ??_C@_0L@IADFDBJB@FCT_COLUMN?$AA@ 00000001800072a8     flags.obj
 0001:000062b8       ??_C@_0O@KJFMBLFE@LINK_HARDLINK?$AA@ 00000001800072b8     flags.obj
 0001:000062c8       ??_C@_0O@OOAFIIDA@LINK_JUNCTION?$AA@ 00000001800072c8     flags.obj
 0001:000062d8       ??_C@_0O@FIAPLKLH@LINK_VOLMOUNT?$AA@ 00000001800072d8     flags.obj
 0001:000062e8       ??_C@_0BB@JDBEPJDK@LINK_SYMLINKFILE?$AA@ 00000001800072e8     flags.obj
 0001:00006300       ??_C@_0BA@GFPIOFMG@LINK_SYMLINKDIR?$AA@ 0000000180007300     flags.obj
 0001:00006310       ??_C@_0N@PJENIJFN@LINK_SYMLINK?$AA@ 0000000180007310     flags.obj
 0001:00006320       ??_C@_08HNOHKPBK@CPM_FULL?$AA@ 0000000180007320     flags.obj
 0001:00006330       ??_C@_08LAEGFKJE@CPM_REAL?$AA@ 0000000180007330     flags.obj
 0001:00006340       ??_C@_0L@NPJNPCJM@CPM_NATIVE?$AA@ 0000000180007340     flags.obj
 0001:00006350       ??_C@_0L@NCFOENCC@VS_RELEASE?$AA@ 0000000180007350     flags.obj
 0001:00006360       ??_C@_08BDGLHPMJ@VS_ALPHA?$AA@ 0000000180007360     flags.obj
 0001:00006370       ??_C@_07OKFPMINB@VS_BETA?$AA@ 0000000180007370     flags.obj
 0001:00006378       ??_C@_05MMFLPJEB@VS_RC?$AA@ 0000000180007378     flags.obj
 0001:00006380       ??_C@_0BC@OOKLINPG@OPEN_LEFTDISKMENU?$AA@ 0000000180007380     flags.obj
 0001:00006398       ??_C@_0BB@CEFDHHLF@OPEN_PLUGINSMENU?$AA@ 0000000180007398     flags.obj
 0001:000063b0       ??_C@_0O@IEJHJCNB@OPEN_FINDLIST?$AA@ 00000001800073b0     flags.obj
 0001:000063c0       ??_C@_0O@OGDCDPNG@OPEN_SHORTCUT?$AA@ 00000001800073c0     flags.obj
 0001:000063d0       ??_C@_0BB@JHCCMIPF@OPEN_COMMANDLINE?$AA@ 00000001800073d0     flags.obj
 0001:000063e8       ??_C@_0M@DMJLHMGM@OPEN_EDITOR?$AA@ 00000001800073e8     flags.obj
 0001:000063f8       ??_C@_0M@MOBCONI@OPEN_VIEWER?$AA@ 00000001800073f8     flags.obj
 0001:00006408       ??_C@_0P@LCDNLGDE@OPEN_FILEPANEL?$AA@ 0000000180007408     flags.obj
 0001:0000863c       ??_C@_06ICDCBJPI@Colors?$AA@ 000000018000963c     keysandcolors.obj
 0001:00008644       ??_C@_05GALAPKHH@Guids?$AA@ 0000000180009644     keysandcolors.obj
 0001:00008e80       ??_C@_01EEMJAFIK@?6?$AA@   0000000180009e80     lflua.obj
 0001:00008e88       ??_C@_0BB@BJDGDOHH@cannot?5?$CFs?5?$CFs?3?5?$CFs?$AA@ 0000000180009e88     lflua.obj
 0001:00008e9c       ??_C@_03PKPBNCAL@?o?$LL?$LP?$AA@ 0000000180009e9c     lflua.obj
 0001:00008ea0       ??_C@_06CCPPALKB@?$DNstdin?$AA@ 0000000180009ea0     lflua.obj
 0001:00008ea8       ??_C@_01EOFPKCAF@?$EA?$AA@ 0000000180009ea8     lflua.obj
 0001:00008eac       ??_C@_04PMOCAHAA@open?$AA@ 0000000180009eac     lflua.obj
 0001:00008eb4       ??_C@_15JJPIMNBO@?$AAr?$AAb?$AA?$AA@ 0000000180009eb4     lflua.obj
 0001:00008ebc       ??_C@_06IEGCHAII@reopen?$AA@ 0000000180009ebc     lflua.obj
 0001:00008ec4       ??_C@_04POLDLDMI@read?$AA@ 0000000180009ec4     lflua.obj
 0001:00008ecc       ??_C@_02LOCGON@?$AA?$AA?$AA@ 0000000180009ecc     lflua.obj
 0001:00009300       regex_methods              000000018000a300     lregex.obj
 0001:000093b0       regex_functions            000000018000a3b0     lregex.obj
 0001:00009840       ??_C@_04CKFJHKAP@find?$AA@ 000000018000a840     lregex.obj
 0001:00009848       ??_C@_04GOLEAPFD@gsub?$AA@ 000000018000a848     lregex.obj
 0001:00009850       ??_C@_05FNONLPDI@match?$AA@ 000000018000a850     lregex.obj
 0001:00009858       ??_C@_05GFGPIPHI@findW?$AA@ 000000018000a858     lregex.obj
 0001:00009860       ??_C@_05HPGHPNC@gsubW?$AA@ 000000018000a860     lregex.obj
 0001:00009868       ??_C@_06NNKFJOLC@matchW?$AA@ 000000018000a868     lregex.obj
 0001:00009870       ??_C@_0O@OJAOCNID@bracketscount?$AA@ 000000018000a870     lregex.obj
 0001:00009880       ??_C@_04BDLIKKMN@__gc?$AA@ 000000018000a880     lregex.obj
 0001:00009888       ??_C@_06DPFCLDIO@gmatch?$AA@ 000000018000a888     lregex.obj
 0001:00009890       ??_C@_07PPMFDHAH@gmatchW?$AA@ 000000018000a890     lregex.obj
 0001:00009898       ??_C@_09KIEPBIJC@far_regex?$AA@ 000000018000a898     lregex.obj
 0001:000098a8       ??_C@_0BO@PBOFMCLL@attempt?5to?5access?5freed?5regex?$AA@ 000000018000a8a8     lregex.obj
 0001:000098c8       ??_C@_07IHINEPFG@?$CFs?5?$CI?$CFp?$CJ?$AA@ 000000018000a8c8     lregex.obj
 0001:000098d0       ??_C@_01KMDKNFGN@?1?$AA@   000000018000a8d0     lregex.obj
 0001:000098d8       ??_C@_0BE@BBBEAHLK@RECTL_CREATE?5failed?$AA@ 000000018000a8d8     lregex.obj
 0001:000098f0       ??_C@_0BL@HEFMPIBG@invalid?5regular?5expression?$AA@ 000000018000a8f0     lregex.obj
 0001:00009910       ??_C@_0BK@JCLHPPNA@cannot?5add?5?$CFd?5stack?5slots?$AA@ 000000018000a910     lregex.obj
 0001:00009930       ??_C@_0BM@MOHHGMBK@string?5or?5table?5or?5function?$AA@ 000000018000a930     lregex.obj
 0001:00009950       ??_C@_0CG@IDFLGMFM@replace?5string?3?5invalid?5capture?5@ 000000018000a950     lregex.obj
 0001:00009978       ??_C@_0BJ@IMAIDFKH@invalid?5replacement?5type?$AA@ 000000018000a978     lregex.obj
 0001:00009998       ??_C@_0BE@KPDOHKBE@invalid?5return?5type?$AA@ 000000018000a998     lregex.obj
 0001:000099b0       ??_C@_07NHABFFHN@__index?$AA@ 000000018000a9b0     lregex.obj
 0001:000099b8       ??_C@_05FGAODPCE@regex?$AA@ 000000018000a9b8     lregex.obj
 0001:0000a200       ??_C@_0BC@PMGNICBE@MacroPluginReturn?$AA@ 000000018000b200     luamacro.obj
 0001:0000a214       ??_C@_02JIEIHMJD@wl?$AA@   000000018000b214     luamacro.obj
 0001:0000a218       ??_C@_15PMCGDJNJ@?$AAO?$AAK?$AA?$AA@ 000000018000b218     luamacro.obj
 0001:0000a220       ??_C@_1BC@GBFPAMBP@?$AAL?$AAu?$AAa?$AAM?$AAa?$AAc?$AAr?$AAo?$AA?$AA@ 000000018000b220     luamacro.obj
 0001:0000a240       ??_C@_1FA@DAFHIDEP@?$AAt?$AAo?$AAo?$AA?5?$AAm?$AAa?$AAn?$AAy?$AA?5?$AAv?$AAa?$AAl?$AAu?$AAe?$AAs?$AA?5?$AAt?$AAo?$AA?5?$AAp?$AAl?$AAa?$AAc?$AAe?$AA?5?$AAo?$AAn?$AAt?$AAo?$AA?5?$AAL?$AAu@ 000000018000b240     luamacro.obj
 0001:0000a290       ??_C@_0BN@ICDOMFBB@invalid?5argument?5?$CD?$CFd?5to?5?8?$CFs?8?$AA@ 000000018000b290     luamacro.obj
 0001:0000a2b0       ??_C@_0BB@FCMFBGOM@invalid?5argument?$AA@ 000000018000b2b0     luamacro.obj
 0001:0000a330       usercontrol_methods        000000018000b330     lusercontrol.obj
 0001:0000a380       usercontrol_functions      000000018000b380     lusercontrol.obj
 0001:0000ab60       ??_C@_05MNDELLDN@__len?$AA@ 000000018000bb60     lusercontrol.obj
 0001:0000ab68       ??_C@_0L@GADKNKH@__newindex?$AA@ 000000018000bb68     lusercontrol.obj
 0001:0000ab78       ??_C@_0BC@KFJDHEIC@CreateUserControl?$AA@ 000000018000bb78     lusercontrol.obj
 0001:0000ab90       ??_C@_0BA@MDNLMOMP@far_usercontrol?$AA@ 000000018000bb90     lusercontrol.obj
 0001:0000aba0       ??_C@_0BH@DOPNHMGD@bounds?5checking?5failed?$AA@ 000000018000bba0     lusercontrol.obj
 0001:0000abb8       ??_C@_04IMAAEPPE@Char?$AA@ 000000018000bbb8     lusercontrol.obj
 0001:0000abc0       ??_C@_0L@PLFFHFAH@Attributes?$AA@ 000000018000bbc0     lusercontrol.obj
 0001:0000abd0       ??_C@_0BD@BPIMECDH@X?5must?5be?5positive?$AA@ 000000018000bbd0     lusercontrol.obj
 0001:0000abe8       ??_C@_0BD@MIGOMCGP@Y?5must?5be?5positive?$AA@ 000000018000bbe8     lusercontrol.obj
 0001:0000ae10       timer_methods              000000018000be10     service.obj
 0001:0000aea0       filefilter_methods         000000018000bea0     service.obj
 0001:0000af20       dialog_methods             000000018000bf20     service.obj
 0001:0000af70       Settings_methods           000000018000bf70     service.obj
 0001:0000b010       editor_funcs               000000018000c010     service.obj
 0001:0000b2a0       viewer_funcs               000000018000c2a0     service.obj
 0001:0000b340       panel_funcs                000000018000c340     service.obj
 0001:0000b5b0       far_funcs                  000000018000c5b0     service.obj
 0001:0000bb20       far_Dialog                 000000018000cb20     service.obj
 0001:0000bda0       FarFileFilterType          000000018000cda0     service.obj
 0001:0000bdb8       FarTimerType               000000018000cdb8     service.obj
 0001:0000bdd8       FarDialogType              000000018000cdd8     service.obj
 0001:0000be00       SettingsType               000000018000ce00     service.obj
 0001:0000be18       SettingsHandles            000000018000ce18     service.obj
 0001:0000be30       PluginHandleType           000000018000ce30     service.obj
 0001:0000bf08       AddMacroDataType           000000018000cf08     service.obj
 0001:0000bf18       SavedScreenType            000000018000cf18     service.obj
 0001:0000bf28       FAR_VIRTUALKEYS            000000018000cf28     service.obj
 0001:0000bf38       FAR_FLAGSTABLE             000000018000cf38     service.obj
 0001:0000bf48       FAR_DN_STORAGE             000000018000cf48     service.obj
 0001:0000bfa0       api_functions              000000018000cfa0     service.obj
 0001:0000c458       ??_C@_0P@LKPINHLK@FreeFileFilter?$AA@ 000000018000d458     service.obj
 0001:0000c468       ??_C@_0BA@JGEOEAE@OpenFiltersMenu?$AA@ 000000018000d468     service.obj
 0001:0000c478       ??_C@_0BB@OPPOFOAK@StartingToFilter?$AA@ 000000018000d478     service.obj
 0001:0000c490       ??_C@_0P@JDMCHDIM@IsFileInFilter?$AA@ 000000018000d490     service.obj
 0001:0000c4a0       ??_C@_09LDLEBFOB@rawhandle?$AA@ 000000018000d4a0     service.obj
 0001:0000c4ac       ??_C@_04MIIPNNEF@send?$AA@ 000000018000d4ac     service.obj
 0001:0000c4b4       ??_C@_06JBKGCNBB@Delete?$AA@ 000000018000d4b4     service.obj
 0001:0000c4bc       ??_C@_04PAFOOALK@Enum?$AA@ 000000018000d4bc     service.obj
 0001:0000c4c4       ??_C@_04HJMOFLDF@Free?$AA@ 000000018000d4c4     service.obj
 0001:0000c4cc       ??_C@_03NNDHPFFO@Get?$AA@  000000018000d4cc     service.obj
 0001:0000c4d0       ??_C@_03CEMDFJG@Set?$AA@   000000018000d4d0     service.obj
 0001:0000c4d8       ??_C@_0N@OELJMCEC@CreateSubkey?$AA@ 000000018000d4d8     service.obj
 0001:0000c4e8       ??_C@_0L@CPCKAMD@OpenSubkey?$AA@ 000000018000d4e8     service.obj
 0001:0000c4f8       ??_C@_08EGJLHNCO@AddColor?$AA@ 000000018000d4f8     service.obj
 0001:0000c508       ??_C@_0BD@DOFEEDDC@AddSessionBookmark?$AA@ 000000018000d508     service.obj
 0001:0000c520       ??_C@_0BG@IGFHDIIN@ClearSessionBookmarks?$AA@ 000000018000d520     service.obj
 0001:0000c538       ??_C@_08PDEJHGJI@DelColor?$AA@ 000000018000d538     service.obj
 0001:0000c548       ??_C@_0M@LPIECDD@DeleteBlock?$AA@ 000000018000d548     service.obj
 0001:0000c558       ??_C@_0L@BCLIBKOC@DeleteChar?$AA@ 000000018000d558     service.obj
 0001:0000c568       ??_C@_0BG@KOELEFCN@DeleteSessionBookmark?$AA@ 000000018000d568     service.obj
 0001:0000c580       ??_C@_0N@EKENACAE@DeleteString?$AA@ 000000018000d580     service.obj
 0001:0000c590       ??_C@_06MJDIICIN@Editor?$AA@ 000000018000d590     service.obj
 0001:0000c598       ??_C@_0L@HDLPOLMA@ExpandTabs?$AA@ 000000018000d598     service.obj
 0001:0000c5a8       ??_C@_0N@MGAOADJN@GetBookmarks?$AA@ 000000018000d5a8     service.obj
 0001:0000c5b8       ??_C@_08JOPFJIPE@GetColor?$AA@ 000000018000d5b8     service.obj
 0001:0000c5c8       ??_C@_0M@FECPLAMN@GetFileName?$AA@ 000000018000d5c8     service.obj
 0001:0000c5d8       ??_C@_07NAJNLNAF@GetInfo?$AA@ 000000018000d5d8     service.obj
 0001:0000c5e0       ??_C@_0N@KIILHCLH@GetSelection?$AA@ 000000018000d5e0     service.obj
 0001:0000c5f0       ??_C@_0BE@LBJJGOGD@GetSessionBookmarks?$AA@ 000000018000d5f0     service.obj
 0001:0000c608       ??_C@_09HBLKHMEA@GetString?$AA@ 000000018000d608     service.obj
 0001:0000c618       ??_C@_0L@IDFHDAHP@GetStringW?$AA@ 000000018000d618     service.obj
 0001:0000c628       ??_C@_0N@ICPGLOEG@InsertString?$AA@ 000000018000d628     service.obj
 0001:0000c638       ??_C@_0L@JMOIGJIA@InsertText?$AA@ 000000018000d638     service.obj
 0001:0000c648       ??_C@_0M@BINOKANK@InsertTextW?$AA@ 000000018000d648     service.obj
 0001:0000c658       ??_C@_0BE@CNGODNDI@NextSessionBookmark?$AA@ 000000018000d658     service.obj
 0001:0000c670       ??_C@_0BE@IEBIGOAP@PrevSessionBookmark?$AA@ 000000018000d670     service.obj
 0001:0000c688       ??_C@_0N@FNCEPAJJ@ProcessInput?$AA@ 000000018000d688     service.obj
 0001:0000c698       ??_C@_04GMBKPCGK@Quit?$AA@ 000000018000d698     service.obj
 0001:0000c6a0       ??_C@_09KINLOJJJ@ReadInput?$AA@ 000000018000d6a0     service.obj
 0001:0000c6b0       ??_C@_09DBPLBJBJ@RealToTab?$AA@ 000000018000d6b0     service.obj
 0001:0000c6bc       ??_C@_06KAPLBEK@Redraw?$AA@ 000000018000d6bc     service.obj
 0001:0000c6c8       ??_C@_08FBDDPFPJ@SaveFile?$AA@ 000000018000d6c8     service.obj
 0001:0000c6d4       ??_C@_06HJGPBJLE@Select?$AA@ 000000018000d6d4     service.obj
 0001:0000c6e0       ??_C@_09PPEOOGEC@SetKeyBar?$AA@ 000000018000d6e0     service.obj
 0001:0000c6f0       ??_C@_08CCKJEGOF@SetParam?$AA@ 000000018000d6f0     service.obj
 0001:0000c700       ??_C@_0M@GKIFPNAD@SetPosition?$AA@ 000000018000d700     service.obj
 0001:0000c710       ??_C@_09FPPPFNNC@SetString?$AA@ 000000018000d710     service.obj
 0001:0000c720       ??_C@_0L@JNHIIHDG@SetStringW?$AA@ 000000018000d720     service.obj
 0001:0000c730       ??_C@_08GMCCAJLF@SetTitle?$AA@ 000000018000d730     service.obj
 0001:0000c740       ??_C@_08JNAOBKMI@GetTitle?$AA@ 000000018000d740     service.obj
 0001:0000c750       ??_C@_0BF@LIMPGNED@SubscribeChangeEvent?$AA@ 000000018000d750     service.obj
 0001:0000c768       ??_C@_09JFBCONJH@TabToReal?$AA@ 000000018000d768     service.obj
 0001:0000c778       ??_C@_08IBJJAHJG@UndoRedo?$AA@ 000000018000d778     service.obj
 0001:0000c788       ??_C@_07JMDLHPJF@SetMode?$AA@ 000000018000d788     service.obj
 0001:0000c790       ??_C@_06PJECNADJ@Viewer?$AA@ 000000018000d790     service.obj
 0001:0000c798       ??_C@_0BB@PJGDGIKA@CheckPanelsExist?$AA@ 000000018000d798     service.obj
 0001:0000c7b0       ??_C@_0P@DFBDDHFA@ClearSelection?$AA@ 000000018000d7b0     service.obj
 0001:0000c7c0       ??_C@_0L@KOHCMOPM@GetCmdLine?$AA@ 000000018000d7c0     service.obj
 0001:0000c7d0       ??_C@_0O@NLDIMJEA@GetCmdLinePos?$AA@ 000000018000d7d0     service.obj
 0001:0000c7e0       ??_C@_0BE@CBPLLCEH@GetCmdLineSelection?$AA@ 000000018000d7e0     service.obj
 0001:0000c7f8       ??_C@_0P@CMFANDFM@GetColumnTypes?$AA@ 000000018000d7f8     service.obj
 0001:0000c808       ??_C@_0BA@DJGLDCBG@GetColumnWidths?$AA@ 000000018000d808     service.obj
 0001:0000c818       ??_C@_0BE@JPAIJBCI@GetCurrentPanelItem?$AA@ 000000018000d818     service.obj
 0001:0000c830       ??_C@_0BC@NGKPIKGL@GetPanelDirectory?$AA@ 000000018000d830     service.obj
 0001:0000c848       ??_C@_0P@GODLFFFJ@GetPanelFormat?$AA@ 000000018000d848     service.obj
 0001:0000c858       ??_C@_0BB@LCMBHPNI@GetPanelHostFile?$AA@ 000000018000d858     service.obj
 0001:0000c870       ??_C@_0N@HPIPGDFA@GetPanelInfo?$AA@ 000000018000d870     service.obj
 0001:0000c880       ??_C@_0N@HAFLAIHA@GetPanelItem?$AA@ 000000018000d880     service.obj
 0001:0000c890       ??_C@_0P@HCBKDPMP@GetPanelPrefix?$AA@ 000000018000d890     service.obj
 0001:0000c8a0       ??_C@_0BF@MEMFMMGB@GetSelectedPanelItem?$AA@ 000000018000d8a0     service.obj
 0001:0000c8b8       ??_C@_0O@HEGDGAJG@GetUserScreen?$AA@ 000000018000d8b8     service.obj
 0001:0000c8c8       ??_C@_0O@EHOCCHAL@InsertCmdLine?$AA@ 000000018000d8c8     service.obj
 0001:0000c8d8       ??_C@_0O@OMMHIHHH@IsActivePanel?$AA@ 000000018000d8d8     service.obj
 0001:0000c8e8       ??_C@_0M@LCEPDNPK@RedrawPanel?$AA@ 000000018000d8e8     service.obj
 0001:0000c8f8       ??_C@_0P@OPKJJMLB@SetActivePanel?$AA@ 000000018000d8f8     service.obj
 0001:0000c908       ??_C@_0BF@LKMKIFPG@SetCaseSensitiveSort?$AA@ 000000018000d908     service.obj
 0001:0000c920       ??_C@_0L@LAFNHJLF@SetCmdLine?$AA@ 000000018000d920     service.obj
 0001:0000c930       ??_C@_0O@KECGHKDH@SetCmdLinePos?$AA@ 000000018000d930     service.obj
 0001:0000c940       ??_C@_0BE@IPNAPCDL@SetCmdLineSelection?$AA@ 000000018000d940     service.obj
 0001:0000c958       ??_C@_0BE@PAPEKLCP@SetDirectoriesFirst?$AA@ 000000018000d958     service.obj
 0001:0000c970       ??_C@_0P@NPNKOENM@SetNumericSort?$AA@ 000000018000d970     service.obj
 0001:0000c980       ??_C@_0BC@PDKEABHF@SetPanelDirectory?$AA@ 000000018000d980     service.obj
 0001:0000c998       ??_C@_0N@NMDFLOPL@SetSelection?$AA@ 000000018000d998     service.obj
 0001:0000c9a8       ??_C@_0M@CMMMGIDG@SetSortMode?$AA@ 000000018000d9a8     service.obj
 0001:0000c9b8       ??_C@_0N@HCHLALN@SetSortOrder?$AA@ 000000018000d9b8     service.obj
 0001:0000c9c8       ??_C@_0O@LHNNDOB@SetUserScreen?$AA@ 000000018000d9c8     service.obj
 0001:0000c9d8       ??_C@_0M@IENJPEBA@SetViewMode?$AA@ 000000018000d9d8     service.obj
 0001:0000c9e8       ??_C@_0M@EICBHAOA@UpdatePanel?$AA@ 000000018000d9e8     service.obj
 0001:0000c9f8       ??_C@_0BC@BIIKJLKB@PluginStartupInfo?$AA@ 000000018000d9f8     service.obj
 0001:0000ca10       ??_C@_0L@PJAHNOGM@DialogInit?$AA@ 000000018000da10     service.obj
 0001:0000ca20       ??_C@_09DBEDLMHB@DialogRun?$AA@ 000000018000da20     service.obj
 0001:0000ca30       ??_C@_0L@DLFLHLOO@DialogFree?$AA@ 000000018000da30     service.obj
 0001:0000ca40       ??_C@_0P@HLOFPDFP@SendDlgMessage?$AA@ 000000018000da40     service.obj
 0001:0000ca50       ??_C@_0L@CKELNLCE@GetDlgItem?$AA@ 000000018000da50     service.obj
 0001:0000ca60       ??_C@_0L@DEGEGMGN@SetDlgItem?$AA@ 000000018000da60     service.obj
 0001:0000ca70       ??_C@_0BK@EBIPEKDH@SubscribeDialogDrawEvents?$AA@ 000000018000da70     service.obj
 0001:0000ca90       ??_C@_0L@MCFABBED@GetDirList?$AA@ 000000018000da90     service.obj
 0001:0000ca9c       ??_C@_06KCCBBIBJ@GetMsg?$AA@ 000000018000da9c     service.obj
 0001:0000caa8       ??_C@_0BB@HIDBFOJJ@GetPluginDirList?$AA@ 000000018000daa8     service.obj
 0001:0000cabc       ??_C@_04IFEHPILC@Menu?$AA@ 000000018000dabc     service.obj
 0001:0000cac8       ??_C@_07BEIHKDLJ@Message?$AA@ 000000018000dac8     service.obj
 0001:0000cad0       ??_C@_0O@CGLFPNOD@RestoreScreen?$AA@ 000000018000dad0     service.obj
 0001:0000cae0       ??_C@_0L@PGGGPLFK@SaveScreen?$AA@ 000000018000dae0     service.obj
 0001:0000caf0       ??_C@_08DAHHHDJC@ShowHelp?$AA@ 000000018000daf0     service.obj
 0001:0000cb00       ??_C@_08IAADAJIH@InputBox?$AA@ 000000018000db00     service.obj
 0001:0000cb10       ??_C@_0L@HHLOIHOP@AdvControl?$AA@ 000000018000db10     service.obj
 0001:0000cb20       ??_C@_0N@GHGEMEN@MacroLoadAll?$AA@ 000000018000db20     service.obj
 0001:0000cb30       ??_C@_0N@NAGBAPAE@MacroSaveAll?$AA@ 000000018000db30     service.obj
 0001:0000cb40       ??_C@_0O@KGHDMPAJ@MacroGetState?$AA@ 000000018000db40     service.obj
 0001:0000cb50       ??_C@_0N@PNLHCOIE@MacroGetArea?$AA@ 000000018000db50     service.obj
 0001:0000cb60       ??_C@_09KGKKBHMO@MacroPost?$AA@ 000000018000db60     service.obj
 0001:0000cb70       ??_C@_0L@KBAKOGFP@MacroCheck?$AA@ 000000018000db70     service.obj
 0001:0000cb80       ??_C@_08KAFLEHAN@MacroAdd?$AA@ 000000018000db80     service.obj
 0001:0000cb90       ??_C@_0M@KFMHCNNB@MacroDelete?$AA@ 000000018000db90     service.obj
 0001:0000cba0       ??_C@_0BC@MJDKBAPF@MacroGetLastError?$AA@ 000000018000dba0     service.obj
 0001:0000cbb8       ??_C@_0N@COEPENFH@MacroExecute?$AA@ 000000018000dbb8     service.obj
 0001:0000cbc8       ??_C@_0BB@BICELPOF@CreateFileFilter?$AA@ 000000018000dbc8     service.obj
 0001:0000cbe0       ??_C@_0L@CHJBHF@LoadPlugin?$AA@ 000000018000dbe0     service.obj
 0001:0000cbf0       ??_C@_0N@DHIONCLI@UnloadPlugin?$AA@ 000000018000dbf0     service.obj
 0001:0000cc00       ??_C@_0BB@IJHIBGJA@ForcedLoadPlugin?$AA@ 000000018000dc00     service.obj
 0001:0000cc18       ??_C@_0L@DACPHGGH@FindPlugin?$AA@ 000000018000dc18     service.obj
 0001:0000cc28       ??_C@_0BF@KLOGLFMF@GetPluginInformation?$AA@ 000000018000dc28     service.obj
 0001:0000cc40       ??_C@_0L@JIDCIJHM@GetPlugins?$AA@ 000000018000dc40     service.obj
 0001:0000cc50       ??_C@_0P@IKAEEPOB@IsPluginLoaded?$AA@ 000000018000dc50     service.obj
 0001:0000cc60       ??_C@_0P@HMKEDHIE@CreateSettings?$AA@ 000000018000dc60     service.obj
 0001:0000cc70       ??_C@_0N@GOMOBHDB@FreeSettings?$AA@ 000000018000dc70     service.obj
 0001:0000cc80       ??_C@_0M@IFKFGKML@ColorDialog?$AA@ 000000018000dc80     service.obj
 0001:0000cc90       ??_C@_0BA@EOCNNPOG@CopyToClipboard?$AA@ 000000018000dc90     service.obj
 0001:0000cca0       ??_C@_0BD@PLIHDKFC@PasteFromClipboard?$AA@ 000000018000dca0     service.obj
 0001:0000ccb8       ??_C@_0BC@FJDIKOMH@InputRecordToName?$AA@ 000000018000dcb8     service.obj
 0001:0000ccd0       ??_C@_0BC@FFNOIDFI@NameToInputRecord?$AA@ 000000018000dcd0     service.obj
 0001:0000cce8       ??_C@_08HGLFNLMB@LStricmp?$AA@ 000000018000dce8     service.obj
 0001:0000ccf8       ??_C@_09GALOFBAC@LStrnicmp?$AA@ 000000018000dcf8     service.obj
 0001:0000cd08       ??_C@_0M@KPPMMAOL@ProcessName?$AA@ 000000018000dd08     service.obj
 0001:0000cd18       ??_C@_0M@KFCNKLDK@GetPathRoot?$AA@ 000000018000dd18     service.obj
 0001:0000cd28       ??_C@_0BE@EPGHGPJC@GetReparsePointInfo?$AA@ 000000018000dd28     service.obj
 0001:0000cd40       ??_C@_08DNJCLFF@LIsAlpha?$AA@ 000000018000dd40     service.obj
 0001:0000cd50       ??_C@_0M@LKJIEECA@LIsAlphanum?$AA@ 000000018000dd50     service.obj
 0001:0000cd60       ??_C@_08MAHKICD@LIsLower?$AA@ 000000018000dd60     service.obj
 0001:0000cd70       ??_C@_08FHLJMDJK@LIsUpper?$AA@ 000000018000dd70     service.obj
 0001:0000cd80       ??_C@_09LPKAHGM@LLowerBuf?$AA@ 000000018000dd80     service.obj
 0001:0000cd90       ??_C@_09GLKFOOEP@LUpperBuf?$AA@ 000000018000dd90     service.obj
 0001:0000cd9c       ??_C@_06ILCHIEBO@MkTemp?$AA@ 000000018000dd9c     service.obj
 0001:0000cda4       ??_C@_06DKBBJCCG@MkLink?$AA@ 000000018000dda4     service.obj
 0001:0000cdb0       ??_C@_0N@CCDDAJK@TruncPathStr?$AA@ 000000018000ddb0     service.obj
 0001:0000cdc0       ??_C@_08BNEIIKEJ@TruncStr?$AA@ 000000018000ddc0     service.obj
 0001:0000cdd0       ??_C@_0BA@CLEHBIPM@RecursiveSearch?$AA@ 000000018000ddd0     service.obj
 0001:0000cde0       ??_C@_0M@HKHGOOHG@ConvertPath?$AA@ 000000018000dde0     service.obj
 0001:0000cdec       ??_C@_04OCDKHGII@XLat?$AA@ 000000018000ddec     service.obj
 0001:0000cdf8       ??_C@_0P@BGLLKGOI@FormatFileSize?$AA@ 000000018000ddf8     service.obj
 0001:0000ce08       ??_C@_08KJBLDCDF@FarClock?$AA@ 000000018000de08     service.obj
 0001:0000ce18       ??_C@_0BD@ELMHPHAC@CPluginStartupInfo?$AA@ 000000018000de18     service.obj
 0001:0000ce30       ??_C@_0BE@DJLJEKBK@GetCurrentDirectory?$AA@ 000000018000de30     service.obj
 0001:0000ce48       ??_C@_0N@MOMBJEKA@GetFileOwner?$AA@ 000000018000de48     service.obj
 0001:0000ce58       ??_C@_0BB@JBNBALEM@GetNumberOfLinks?$AA@ 000000018000de58     service.obj
 0001:0000ce70       ??_C@_0O@BJEAJNBH@MakeMenuItems?$AA@ 000000018000de70     service.obj
 0001:0000ce80       ??_C@_04JLAJABDJ@Show?$AA@ 000000018000de80     service.obj
 0001:0000ce88       ??_C@_05NHFJDMOA@Timer?$AA@ 000000018000de88     service.obj
 0001:0000ce90       ??_C@_02KFNNKBCK@io?$AA@   000000018000de90     service.obj
 0001:0000ce94       ??_C@_02EHCHIAMF@os?$AA@   000000018000de94     service.obj
 0001:0000ce98       ??_C@_04CFDJAKFL@math?$AA@ 000000018000de98     service.obj
 0001:0000cea0       ??_C@_07GAJMMAJO@unicode?$AA@ 000000018000dea0     service.obj
 0001:0000cea8       ??_C@_03JECLAOEA@win?$AA@  000000018000dea8     service.obj
 0001:0000ceac       ??_C@_03EDMBFDDG@bit?$AA@  000000018000deac     service.obj
 0001:0000ceb0       ??_C@_03DIJDOPEA@ffi?$AA@  000000018000deb0     service.obj
 0001:0000ceb4       ??_C@_03IGHFHLNJ@jit?$AA@  000000018000deb4     service.obj
 0001:0000ceb8       ??_C@_07PHPIFDKI@LBUTTON?$AA@ 000000018000deb8     service.obj
 0001:0000cec0       ??_C@_07JOMJHALB@RBUTTON?$AA@ 000000018000dec0     service.obj
 0001:0000cec8       ??_C@_06JHILMIHF@CANCEL?$AA@ 000000018000dec8     service.obj
 0001:0000ced0       ??_C@_07DLFCFDDG@MBUTTON?$AA@ 000000018000ded0     service.obj
 0001:0000ced8       ??_C@_08OPILMHEG@XBUTTON1?$AA@ 000000018000ded8     service.obj
 0001:0000cee8       ??_C@_08MEKGJEIF@XBUTTON2?$AA@ 000000018000dee8     service.obj
 0001:0000cef4       ??_C@_04FJBHJJME@BACK?$AA@ 000000018000def4     service.obj
 0001:0000cefc       ??_C@_03CJMDHCGG@TAB?$AA@  000000018000defc     service.obj
 0001:0000cf00       ??_C@_05PONODPI@CLEAR?$AA@ 000000018000df00     service.obj
 0001:0000cf08       ??_C@_06LJMOENAO@RETURN?$AA@ 000000018000df08     service.obj
 0001:0000cf10       ??_C@_05OAHIEJBI@SHIFT?$AA@ 000000018000df10     service.obj
 0001:0000cf18       ??_C@_07DBEDOPMC@CONTROL?$AA@ 000000018000df18     service.obj
 0001:0000cf20       ??_C@_04IILMDFMO@MENU?$AA@ 000000018000df20     service.obj
 0001:0000cf28       ??_C@_05DIAHPDGL@PAUSE?$AA@ 000000018000df28     service.obj
 0001:0000cf30       ??_C@_07OPCFNGJB@CAPITAL?$AA@ 000000018000df30     service.obj
 0001:0000cf38       ??_C@_04KGDAIAGM@KANA?$AA@ 000000018000df38     service.obj
 0001:0000cf40       ??_C@_05PPKJGOLB@JUNJA?$AA@ 000000018000df40     service.obj
 0001:0000cf48       ??_C@_05JEIAEFOF@FINAL?$AA@ 000000018000df48     service.obj
 0001:0000cf50       ??_C@_05CHABPOPI@HANJA?$AA@ 000000018000df50     service.obj
 0001:0000cf58       ??_C@_06CDPDIIDH@ESCAPE?$AA@ 000000018000df58     service.obj
 0001:0000cf60       ??_C@_0L@ODNCKDCK@NONCONVERT?$AA@ 000000018000df60     service.obj
 0001:0000cf6c       ??_C@_06INBBKPI@ACCEPT?$AA@ 000000018000df6c     service.obj
 0001:0000cf78       ??_C@_0L@HEHNEBED@MODECHANGE?$AA@ 000000018000df78     service.obj
 0001:0000cf84       ??_C@_05CAEOFMEP@SPACE?$AA@ 000000018000df84     service.obj
 0001:0000cf8c       ??_C@_05BFDHCIJM@PRIOR?$AA@ 000000018000df8c     service.obj
 0001:0000cf94       ??_C@_04MOKMKBJN@NEXT?$AA@ 000000018000df94     service.obj
 0001:0000cf9c       ??_C@_03JMGAKCCH@END?$AA@  000000018000df9c     service.obj
 0001:0000cfa0       ??_C@_04GHGFPGNC@HOME?$AA@ 000000018000dfa0     service.obj
 0001:0000cfa8       ??_C@_04KCNEHMIH@LEFT?$AA@ 000000018000dfa8     service.obj
 0001:0000cfb0       ??_C@_02NAHCJHOC@UP?$AA@   000000018000dfb0     service.obj
 0001:0000cfb4       ??_C@_05PMAFOJDE@RIGHT?$AA@ 000000018000dfb4     service.obj
 0001:0000cfbc       ??_C@_04FANAOELO@DOWN?$AA@ 000000018000dfbc     service.obj
 0001:0000cfc4       ??_C@_06LCPJPOPK@SELECT?$AA@ 000000018000dfc4     service.obj
 0001:0000cfcc       ??_C@_05ECKPOFCN@PRINT?$AA@ 000000018000dfcc     service.obj
 0001:0000cfd8       ??_C@_07LBDEDADF@EXECUTE?$AA@ 000000018000dfd8     service.obj
 0001:0000cfe0       ??_C@_08EMOKHGD@SNAPSHOT?$AA@ 000000018000dfe0     service.obj
 0001:0000cfec       ??_C@_06OEMEAEKN@INSERT?$AA@ 000000018000dfec     service.obj
 0001:0000cff4       ??_C@_06FKDAMKFP@DELETE?$AA@ 000000018000dff4     service.obj
 0001:0000cffc       ??_C@_04DOKPJKJF@HELP?$AA@ 000000018000dffc     service.obj
 0001:0000d004       ??_C@_01GBGANLPD@0?$AA@    000000018000e004     service.obj
 0001:0000d008       ??_C@_01HIHLOKLC@1?$AA@    000000018000e008     service.obj
 0001:0000d00c       ??_C@_01FDFGLJHB@2?$AA@    000000018000e00c     service.obj
 0001:0000d010       ??_C@_01EKENIIDA@3?$AA@    000000018000e010     service.obj
 0001:0000d014       ??_C@_01FAMBOPH@4?$AA@     000000018000e014     service.obj
 0001:0000d018       ??_C@_01BMBHCPLG@5?$AA@    000000018000e018     service.obj
 0001:0000d01c       ??_C@_01DHDKHMHF@6?$AA@    000000018000e01c     service.obj
 0001:0000d020       ??_C@_01COCBENDE@7?$AA@    000000018000e020     service.obj
 0001:0000d024       ??_C@_01KJLJFBPL@8?$AA@    000000018000e024     service.obj
 0001:0000d028       ??_C@_01LAKCGALK@9?$AA@    000000018000e028     service.obj
 0001:0000d02c       ??_C@_01FHEEJDEE@A?$AA@    000000018000e02c     service.obj
 0001:0000d030       ??_C@_01HMGJMAIH@B?$AA@    000000018000e030     service.obj
 0001:0000d034       ??_C@_01GFHCPBMG@C?$AA@    000000018000e034     service.obj
 0001:0000d038       ??_C@_01CKDDGHAB@D?$AA@    000000018000e038     service.obj
 0001:0000d03c       ??_C@_01DDCIFGEA@E?$AA@    000000018000e03c     service.obj
 0001:0000d040       ??_C@_01BIAFAFID@F?$AA@    000000018000e040     service.obj
 0001:0000d044       ??_C@_01BBODEMC@G?$AA@     000000018000e044     service.obj
 0001:0000d048       ??_C@_01IGIGCIAN@H?$AA@    000000018000e048     service.obj
 0001:0000d04c       ??_C@_01JPJNBJEM@I?$AA@    000000018000e04c     service.obj
 0001:0000d050       ??_C@_01LELAEKIP@J?$AA@    000000018000e050     service.obj
 0001:0000d054       ??_C@_01KNKLHLMO@K?$AA@    000000018000e054     service.obj
 0001:0000d058       ??_C@_01OCOKONAJ@L?$AA@    000000018000e058     service.obj
 0001:0000d05c       ??_C@_01PLPBNMEI@M?$AA@    000000018000e05c     service.obj
 0001:0000d060       ??_C@_01NANMIPIL@N?$AA@    000000018000e060     service.obj
 0001:0000d064       ??_C@_01MJMHLOMK@O?$AA@    000000018000e064     service.obj
 0001:0000d068       ??_C@_01EJNLAFE@P?$AA@     000000018000e068     service.obj
 0001:0000d06c       ??_C@_01BNIGIBBF@Q?$AA@    000000018000e06c     service.obj
 0001:0000d070       ??_C@_01DGKLNCNG@R?$AA@    000000018000e070     service.obj
 0001:0000d074       ??_C@_01CPLAODJH@S?$AA@    000000018000e074     service.obj
 0001:0000d078       ??_C@_01GAPBHFFA@T?$AA@    000000018000e078     service.obj
 0001:0000d07c       ??_C@_01HJOKEEBB@U?$AA@    000000018000e07c     service.obj
 0001:0000d080       ??_C@_01FCMHBHNC@V?$AA@    000000018000e080     service.obj
 0001:0000d084       ??_C@_01ELNMCGJD@W?$AA@    000000018000e084     service.obj
 0001:0000d088       ??_C@_01MMEEDKFM@X?$AA@    000000018000e088     service.obj
 0001:0000d08c       ??_C@_01NFFPALBN@Y?$AA@    000000018000e08c     service.obj
 0001:0000d090       ??_C@_01POHCFINO@Z?$AA@    000000018000e090     service.obj
 0001:0000d094       ??_C@_04ODLFFOHF@LWIN?$AA@ 000000018000e094     service.obj
 0001:0000d09c       ??_C@_04DMGFHHJG@RWIN?$AA@ 000000018000e09c     service.obj
 0001:0000d0a4       ??_C@_04GKGJFGJO@APPS?$AA@ 000000018000e0a4     service.obj
 0001:0000d0ac       ??_C@_05DJAECLDN@SLEEP?$AA@ 000000018000e0ac     service.obj
 0001:0000d0b8       ??_C@_07NHIPMMJH@NUMPAD0?$AA@ 000000018000e0b8     service.obj
 0001:0000d0c0       ??_C@_07MOJEPNNG@NUMPAD1?$AA@ 000000018000e0c0     service.obj
 0001:0000d0c8       ??_C@_07OFLJKOBF@NUMPAD2?$AA@ 000000018000e0c8     service.obj
 0001:0000d0d0       ??_C@_07PMKCJPFE@NUMPAD3?$AA@ 000000018000e0d0     service.obj
 0001:0000d0d8       ??_C@_07LDODAJJD@NUMPAD4?$AA@ 000000018000e0d8     service.obj
 0001:0000d0e0       ??_C@_07KKPIDINC@NUMPAD5?$AA@ 000000018000e0e0     service.obj
 0001:0000d0e8       ??_C@_07IBNFGLBB@NUMPAD6?$AA@ 000000018000e0e8     service.obj
 0001:0000d0f0       ??_C@_07JIMOFKFA@NUMPAD7?$AA@ 000000018000e0f0     service.obj
 0001:0000d0f8       ??_C@_07BPFGEGJP@NUMPAD8?$AA@ 000000018000e0f8     service.obj
 0001:0000d100       ??_C@_07GENHHNO@NUMPAD9?$AA@ 000000018000e100     service.obj
 0001:0000d108       ??_C@_08LDEOAAGM@MULTIPLY?$AA@ 000000018000e108     service.obj
 0001:0000d114       ??_C@_03BOJFLAKG@ADD?$AA@  000000018000e114     service.obj
 0001:0000d118       ??_C@_09POPINEFK@SEPARATOR?$AA@ 000000018000e118     service.obj
 0001:0000d128       ??_C@_08MGBEENML@SUBTRACT?$AA@ 000000018000e128     service.obj
 0001:0000d138       ??_C@_07LJPMJDLL@DECIMAL?$AA@ 000000018000e138     service.obj
 0001:0000d140       ??_C@_06FBFCJJMP@DIVIDE?$AA@ 000000018000e140     service.obj
 0001:0000d148       ??_C@_02LCPENACN@F1?$AA@   000000018000e148     service.obj
 0001:0000d14c       ??_C@_02JJNJIDOO@F2?$AA@   000000018000e14c     service.obj
 0001:0000d150       ??_C@_02IAMCLCKP@F3?$AA@   000000018000e150     service.obj
 0001:0000d154       ??_C@_02MPIDCEGI@F4?$AA@   000000018000e154     service.obj
 0001:0000d158       ??_C@_02NGJIBFCJ@F5?$AA@   000000018000e158     service.obj
 0001:0000d15c       ??_C@_02PNLFEGOK@F6?$AA@   000000018000e15c     service.obj
 0001:0000d160       ??_C@_02OEKOHHKL@F7?$AA@   000000018000e160     service.obj
 0001:0000d164       ??_C@_02GDDGGLGE@F8?$AA@   000000018000e164     service.obj
 0001:0000d168       ??_C@_02HKCNFKCF@F9?$AA@   000000018000e168     service.obj
 0001:0000d16c       ??_C@_03JKCLJOFG@F10?$AA@  000000018000e16c     service.obj
 0001:0000d170       ??_C@_03IDDAKPBH@F11?$AA@  000000018000e170     service.obj
 0001:0000d174       ??_C@_03KIBNPMNE@F12?$AA@  000000018000e174     service.obj
 0001:0000d178       ??_C@_03LBAGMNJF@F13?$AA@  000000018000e178     service.obj
 0001:0000d17c       ??_C@_03POEHFLFC@F14?$AA@  000000018000e17c     service.obj
 0001:0000d180       ??_C@_03OHFMGKBD@F15?$AA@  000000018000e180     service.obj
 0001:0000d184       ??_C@_03MMHBDJNA@F16?$AA@  000000018000e184     service.obj
 0001:0000d188       ??_C@_03NFGKAIJB@F17?$AA@  000000018000e188     service.obj
 0001:0000d18c       ??_C@_03FCPCBEFO@F18?$AA@  000000018000e18c     service.obj
 0001:0000d190       ??_C@_03ELOJCFBP@F19?$AA@  000000018000e190     service.obj
 0001:0000d194       ??_C@_03JIGNCAAP@F20?$AA@  000000018000e194     service.obj
 0001:0000d198       ??_C@_03IBHGBBEO@F21?$AA@  000000018000e198     service.obj
 0001:0000d19c       ??_C@_03KKFLECIN@F22?$AA@  000000018000e19c     service.obj
 0001:0000d1a0       ??_C@_03LDEAHDMM@F23?$AA@  000000018000e1a0     service.obj
 0001:0000d1a4       ??_C@_03PMABOFAL@F24?$AA@  000000018000e1a4     service.obj
 0001:0000d1a8       ??_C@_07FLMEHHJP@NUMLOCK?$AA@ 000000018000e1a8     service.obj
 0001:0000d1b0       ??_C@_06FNIKALAE@SCROLL?$AA@ 000000018000e1b0     service.obj
 0001:0000d1b8       ??_C@_0O@DBBJDALK@OEM_NEC_EQUAL?$AA@ 000000018000e1b8     service.obj
 0001:0000d1c8       ??_C@_0P@JKGCFGCD@OEM_FJ_MASSHOU?$AA@ 000000018000e1c8     service.obj
 0001:0000d1d8       ??_C@_0P@NIEOFNLG@OEM_FJ_TOUROKU?$AA@ 000000018000e1d8     service.obj
 0001:0000d1e8       ??_C@_0M@IBEHGLCM@OEM_FJ_LOYA?$AA@ 000000018000e1e8     service.obj
 0001:0000d1f8       ??_C@_0M@FOJHECMP@OEM_FJ_ROYA?$AA@ 000000018000e1f8     service.obj
 0001:0000d204       ??_C@_06EPHNCIMI@LSHIFT?$AA@ 000000018000e204     service.obj
 0001:0000d20c       ??_C@_06HIJMMPFL@RSHIFT?$AA@ 000000018000e20c     service.obj
 0001:0000d218       ??_C@_08IKMONEBG@LCONTROL?$AA@ 000000018000e218     service.obj
 0001:0000d228       ??_C@_08OOMMENPF@RCONTROL?$AA@ 000000018000e228     service.obj
 0001:0000d234       ??_C@_05IHMGKJGH@LMENU?$AA@ 000000018000e234     service.obj
 0001:0000d23c       ??_C@_05LOBKMKIM@RMENU?$AA@ 000000018000e23c     service.obj
 0001:0000d248       ??_C@_0N@OAJIELLG@BROWSER_BACK?$AA@ 000000018000e248     service.obj
 0001:0000d258       ??_C@_0BA@ENOAJOGH@BROWSER_FORWARD?$AA@ 000000018000e258     service.obj
 0001:0000d268       ??_C@_0BA@GDNDIDGJ@BROWSER_REFRESH?$AA@ 000000018000e268     service.obj
 0001:0000d278       ??_C@_0N@HKPDGANH@BROWSER_STOP?$AA@ 000000018000e278     service.obj
 0001:0000d288       ??_C@_0P@BEAEBJDD@BROWSER_SEARCH?$AA@ 000000018000e288     service.obj
 0001:0000d298       ??_C@_0BC@BOMJIH@BROWSER_FAVORITES?$AA@ 000000018000e298     service.obj
 0001:0000d2b0       ??_C@_0N@NOOKCEKA@BROWSER_HOME?$AA@ 000000018000e2b0     service.obj
 0001:0000d2c0       ??_C@_0M@ENOHKBMG@VOLUME_MUTE?$AA@ 000000018000e2c0     service.obj
 0001:0000d2d0       ??_C@_0M@JOOBBDNO@VOLUME_DOWN?$AA@ 000000018000e2d0     service.obj
 0001:0000d2e0       ??_C@_09MGPMNMJC@VOLUME_UP?$AA@ 000000018000e2e0     service.obj
 0001:0000d2f0       ??_C@_0BB@KLAENPA@MEDIA_NEXT_TRACK?$AA@ 000000018000e2f0     service.obj
 0001:0000d308       ??_C@_0BB@CMOIJKPH@MEDIA_PREV_TRACK?$AA@ 000000018000e308     service.obj
 0001:0000d320       ??_C@_0L@KBJOCDHK@MEDIA_STOP?$AA@ 000000018000e320     service.obj
 0001:0000d330       ??_C@_0BB@HAEMIJHO@MEDIA_PLAY_PAUSE?$AA@ 000000018000e330     service.obj
 0001:0000d348       ??_C@_0M@GCIKMBID@LAUNCH_MAIL?$AA@ 000000018000e348     service.obj
 0001:0000d358       ??_C@_0BE@FADJJAPM@LAUNCH_MEDIA_SELECT?$AA@ 000000018000e358     service.obj
 0001:0000d370       ??_C@_0M@MGLJIDDM@LAUNCH_APP1?$AA@ 000000018000e370     service.obj
 0001:0000d380       ??_C@_0M@ONJENAPP@LAUNCH_APP2?$AA@ 000000018000e380     service.obj
 0001:0000d38c       ??_C@_05OIODNPAD@OEM_1?$AA@ 000000018000e38c     service.obj
 0001:0000d398       ??_C@_08LDJEIPBH@OEM_PLUS?$AA@ 000000018000e398     service.obj
 0001:0000d3a8       ??_C@_09CLPFJEOD@OEM_COMMA?$AA@ 000000018000e3a8     service.obj
 0001:0000d3b8       ??_C@_09OGMLCNMG@OEM_MINUS?$AA@ 000000018000e3b8     service.obj
 0001:0000d3c8       ??_C@_0L@DNNMNDGM@OEM_PERIOD?$AA@ 000000018000e3c8     service.obj
 0001:0000d3d4       ??_C@_05MDMOIMMA@OEM_2?$AA@ 000000018000e3d4     service.obj
 0001:0000d3dc       ??_C@_05NKNFLNIB@OEM_3?$AA@ 000000018000e3dc     service.obj
 0001:0000d3e4       ??_C@_05JFJECLEG@OEM_4?$AA@ 000000018000e3e4     service.obj
 0001:0000d3ec       ??_C@_05IMIPBKAH@OEM_5?$AA@ 000000018000e3ec     service.obj
 0001:0000d3f4       ??_C@_05KHKCEJME@OEM_6?$AA@ 000000018000e3f4     service.obj
 0001:0000d3fc       ??_C@_05LOLJHIIF@OEM_7?$AA@ 000000018000e3fc     service.obj
 0001:0000d404       ??_C@_05DJCBGEEK@OEM_8?$AA@ 000000018000e404     service.obj
 0001:0000d410       ??_C@_07PEFKMFIE@OEM_102?$AA@ 000000018000e410     service.obj
 0001:0000d418       ??_C@_0L@EFLJCPAM@PROCESSKEY?$AA@ 000000018000e418     service.obj
 0001:0000d424       ??_C@_06HOICDKCB@PACKET?$AA@ 000000018000e424     service.obj
 0001:0000d430       ??_C@_09CAKPMKHM@OEM_RESET?$AA@ 000000018000e430     service.obj
 0001:0000d440       ??_C@_08INMNLJCK@OEM_JUMP?$AA@ 000000018000e440     service.obj
 0001:0000d450       ??_C@_07JNOAEEG@OEM_PA1?$AA@ 000000018000e450     service.obj
 0001:0000d458       ??_C@_07CCPDFHIF@OEM_PA2?$AA@ 000000018000e458     service.obj
 0001:0000d460       ??_C@_07DLOIGGME@OEM_PA3?$AA@ 000000018000e460     service.obj
 0001:0000d468       ??_C@_0L@OCAIHDP@OEM_WSCTRL?$AA@ 000000018000e468     service.obj
 0001:0000d474       ??_C@_04BNGOAFAJ@ATTN?$AA@ 000000018000e474     service.obj
 0001:0000d47c       ??_C@_05HGAHFFFL@CRSEL?$AA@ 000000018000e47c     service.obj
 0001:0000d484       ??_C@_05OKOOKOOH@EXSEL?$AA@ 000000018000e484     service.obj
 0001:0000d48c       ??_C@_05CCFENDFJ@EREOF?$AA@ 000000018000e48c     service.obj
 0001:0000d494       ??_C@_04MKCNCBEG@PLAY?$AA@ 000000018000e494     service.obj
 0001:0000d49c       ??_C@_04LGBIGMFG@ZOOM?$AA@ 000000018000e49c     service.obj
 0001:0000d4a4       ??_C@_06LJIOOKLP@NONAME?$AA@ 000000018000e4a4     service.obj
 0001:0000d4ac       ??_C@_03KCLDMPAE@PA1?$AA@  000000018000e4ac     service.obj
 0001:0000d4b0       ??_C@_09MBBEHOCK@OEM_CLEAR?$AA@ 000000018000e4b0     service.obj
 0001:0000d4bc       ??_C@_05LCLENNFI@table?$AA@ 000000018000e4bc     service.obj
 0001:0000d4c4       ??_C@_06ICGJLFIM@string?$AA@ 000000018000e4c4     service.obj
 0001:0000d4d0       ??_C@_09GJGOMOL@lua51?4dll?$AA@ 000000018000e4d0     service.obj
 0001:0000d4e0       ??_C@_0M@PLOBHAKE@luaopen_bit?$AA@ 000000018000e4e0     service.obj
 0001:0000d4f0       ??_C@_0M@IALDMMNC@luaopen_ffi?$AA@ 000000018000e4f0     service.obj
 0001:0000d500       ??_C@_0M@DOFFFIEL@luaopen_jit?$AA@ 000000018000e500     service.obj
 0001:0000d510       ??_C@_0BE@OEPKKAAB@integer?5or?5userdata?$AA@ 000000018000e510     service.obj
 0001:0000d528       ??_C@_0N@JJLBBDOC@invalid?5flag?$AA@ 000000018000e528     service.obj
 0001:0000d538       ??_C@_0BJ@MIKGPOKL@invalid?5flag?5combination?$AA@ 000000018000e538     service.obj
 0001:0000d558       ??_C@_0P@EANMLDOP@MousePositionX?$AA@ 000000018000e558     service.obj
 0001:0000d568       ??_C@_0P@FJMHICKO@MousePositionY?$AA@ 000000018000e568     service.obj
 0001:0000d578       ??_C@_0M@BJAICPIE@ButtonState?$AA@ 000000018000e578     service.obj
 0001:0000d588       ??_C@_0L@EMFBJIPA@EventFlags?$AA@ 000000018000e588     service.obj
 0001:0000d598       ??_C@_07EEJLMCNH@CurLine?$AA@ 000000018000e598     service.obj
 0001:0000d5a0       ??_C@_06EDBJMJDC@CurPos?$AA@ 000000018000e5a0     service.obj
 0001:0000d5a8       ??_C@_09EGONKHKB@CurTabPos?$AA@ 000000018000e5a8     service.obj
 0001:0000d5b8       ??_C@_0O@OKGGHEJK@TopScreenLine?$AA@ 000000018000e5b8     service.obj
 0001:0000d5c8       ??_C@_07GDAKJHLE@LeftPos?$AA@ 000000018000e5c8     service.obj
 0001:0000d5d0       ??_C@_08LLJICOLD@Overtype?$AA@ 000000018000e5d0     service.obj
 0001:0000d5e0       ??_C@_0L@GEIEADPN@ModuleName?$AA@ 000000018000e5e0     service.obj
 0001:0000d5f0       ??_C@_09HOIHBHIM@ModuleDir?$AA@ 000000018000e5f0     service.obj
 0001:0000d600       ??_C@_0L@JLHCLFBG@PluginGuid?$AA@ 000000018000e600     service.obj
 0001:0000d610       ??_C@_08GGMFPBHM@EditorID?$AA@ 000000018000e610     service.obj
 0001:0000d620       ??_C@_0M@CPDBGLHN@WindowSizeX?$AA@ 000000018000e620     service.obj
 0001:0000d630       ??_C@_0M@DGCKFKDM@WindowSizeY?$AA@ 000000018000e630     service.obj
 0001:0000d640       ??_C@_0L@PMKENHMA@TotalLines?$AA@ 000000018000e640     service.obj
 0001:0000d650       ??_C@_09HKBEFIPN@BlockType?$AA@ 000000018000e650     service.obj
 0001:0000d660       ??_C@_0P@GAEEHNHE@BlockStartLine?$AA@ 000000018000e660     service.obj
 0001:0000d670       ??_C@_07KHIHFBFN@Options?$AA@ 000000018000e670     service.obj
 0001:0000d678       ??_C@_07FLDNELFM@TabSize?$AA@ 000000018000e678     service.obj
 0001:0000d680       ??_C@_0O@EBLDFOPH@BookmarkCount?$AA@ 000000018000e680     service.obj
 0001:0000d690       ??_C@_0BF@ODFKBFAK@SessionBookmarkCount?$AA@ 000000018000e690     service.obj
 0001:0000d6a8       ??_C@_08CPAOHJDL@CurState?$AA@ 000000018000e6a8     service.obj
 0001:0000d6b8       ??_C@_0N@DAJMJAE@StringLength?$AA@ 000000018000e6b8     service.obj
 0001:0000d6c8       ??_C@_08JPMALCFA@SelStart?$AA@ 000000018000e6c8     service.obj
 0001:0000d6d4       ??_C@_06JLEHDHII@SelEnd?$AA@ 000000018000e6d4     service.obj
 0001:0000d6e0       ??_C@_0L@IFNFGDGN@StringText?$AA@ 000000018000e6e0     service.obj
 0001:0000d6f0       ??_C@_09IBGOAAEM@StringEOL?$AA@ 000000018000e6f0     service.obj
 0001:0000d6fc       ??_C@_01LOCGONAA@?$AA?$AA@ 000000018000e6fc     service.obj
 0001:0000d700       ??_C@_06MFLCIING@redraw?$AA@ 000000018000e700     service.obj
 0001:0000d708       ??_C@_07HICINA@restore?$AA@ 000000018000e708     service.obj
 0001:0000d710       ??_C@_0CG@LAKEGANL@must?5be?5?8redraw?8?0?5?8restore?8?0?5or?5@ 000000018000e710     service.obj
 0001:0000d738       ??_C@_04LIDDHMOL@Line?$AA@ 000000018000e738     service.obj
 0001:0000d740       ??_C@_06OIIFPIKD@Cursor?$AA@ 000000018000e740     service.obj
 0001:0000d748       ??_C@_0L@GDDEHGKI@ScreenLine?$AA@ 000000018000e748     service.obj
 0001:0000d758       ??_C@_0O@CIAFMMMB@BlockStartPos?$AA@ 000000018000e758     service.obj
 0001:0000d768       ??_C@_0L@EKLJJHPF@BlockWidth?$AA@ 000000018000e768     service.obj
 0001:0000d778       ??_C@_0M@NKKGBDGK@BlockHeight?$AA@ 000000018000e778     service.obj
 0001:0000d788       ??_C@_09JFPCGCOC@StartLine?$AA@ 000000018000e788     service.obj
 0001:0000d798       ??_C@_08JBNOANJG@StartPos?$AA@ 000000018000e798     service.obj
 0001:0000d7a8       ??_C@_07DCKCOCOC@EndLine?$AA@ 000000018000e7a8     service.obj
 0001:0000d7b0       ??_C@_06KGHIGMHC@EndPos?$AA@ 000000018000e7b0     service.obj
 0001:0000d7b8       ??_C@_0BA@HNIJJEO@ForegroundColor?$AA@ 000000018000e7b8     service.obj
 0001:0000d7c8       ??_C@_0BA@DPMBBMBG@BackgroundColor?$AA@ 000000018000e7c8     service.obj
 0001:0000d7d8       ??_C@_0O@NHKEGDJF@GUID?5required?$AA@ 000000018000e7d8     service.obj
 0001:0000d7e8       ??_C@_0BJ@BMOGHFAN@table?5or?5number?5expected?$AA@ 000000018000e7e8     service.obj
 0001:0000d808       ??_C@_08KGEIBGG@Priority?$AA@ 000000018000e808     service.obj
 0001:0000d814       ??_C@_05PDOBBJNA@Color?$AA@ 000000018000e814     service.obj
 0001:0000d820       ??_C@_09KDLBEGCN@EventType?$AA@ 000000018000e820     service.obj
 0001:0000d830       ??_C@_07HPHPOAEG@KeyDown?$AA@ 000000018000e830     service.obj
 0001:0000d838       ??_C@_0M@FGGHEADP@RepeatCount?$AA@ 000000018000e838     service.obj
 0001:0000d848       ??_C@_0BA@KCCLHPM@VirtualScanCode?$AA@ 000000018000e848     service.obj
 0001:0000d858       ??_C@_0M@PBJKDIHH@UnicodeChar?$AA@ 000000018000e858     service.obj
 0001:0000d864       ??_C@_05GIPJKPFG@SizeX?$AA@ 000000018000e864     service.obj
 0001:0000d86c       ??_C@_05HBOCJOBH@SizeY?$AA@ 000000018000e86c     service.obj
 0001:0000d878       ??_C@_09GEJJJAHL@CommandId?$AA@ 000000018000e878     service.obj
 0001:0000d888       ??_C@_08GPNNBNIL@SetFocus?$AA@ 000000018000e888     service.obj
 0001:0000d898       ??_C@_0M@BEDENHPD@invalid?5key?$AA@ 000000018000e898     service.obj
 0001:0000d8a8       ??_C@_19IBCFILMC@?$AAM?$AAe?$AAn?$AAu?$AA?$AA@ 000000018000e8a8     service.obj
 0001:0000d8b8       ??_C@_0BF@OOLFJKGP@must?5be?5table?5or?5nil?$AA@ 000000018000e8b8     service.obj
 0001:0000d8d0       ??_C@_09FDAFFNEA@MaxHeight?$AA@ 000000018000e8d0     service.obj
 0001:0000d8dc       ??_C@_06DDHCBBGN@Bottom?$AA@ 000000018000e8dc     service.obj
 0001:0000d8e8       ??_C@_09CFELDMD@HelpTopic?$AA@ 000000018000e8e8     service.obj
 0001:0000d8f8       ??_C@_0M@GGMLPAIK@SelectIndex?$AA@ 000000018000e8f8     service.obj
 0001:0000d904       ??_C@_02HOGEDOAB@Id?$AA@   000000018000e904     service.obj
 0001:0000d908       ??_C@_07FJOBMBFC@checked?$AA@ 000000018000e908     service.obj
 0001:0000d910       ??_C@_09MOAJOJKN@separator?$AA@ 000000018000e910     service.obj
 0001:0000d920       ??_C@_07DBNODEFN@disable?$AA@ 000000018000e920     service.obj
 0001:0000d928       ??_C@_06JHIAOIKD@grayed?$AA@ 000000018000e928     service.obj
 0001:0000d930       ??_C@_06JIKFICKK@hidden?$AA@ 000000018000e930     service.obj
 0001:0000d938       ??_C@_08MMCKBNNI@AccelKey?$AA@ 000000018000e938     service.obj
 0001:0000d948       ??_C@_08PNHLLJE@BreakKey?$AA@ 000000018000e948     service.obj
 0001:0000d954       ??_C@_15FMBEJGOH@?$AAO?$AAk?$AA?$AA@ 000000018000e954     service.obj
 0001:0000d960       ??_C@_1BC@IBCAPFAE@?$AAO?$AAk?$AAC?$AAa?$AAn?$AAc?$AAe?$AAl?$AA?$AA@ 000000018000e960     service.obj
 0001:0000d978       ??_C@_1CC@HODOHOHB@?$AAA?$AAb?$AAo?$AAr?$AAt?$AAR?$AAe?$AAt?$AAr?$AAy?$AAI?$AAg?$AAn?$AAo?$AAr?$AAe?$AA?$AA@ 000000018000e978     service.obj
 0001:0000d9a0       ??_C@_1M@GGPOIMAD@?$AAY?$AAe?$AAs?$AAN?$AAo?$AA?$AA@ 000000018000e9a0     service.obj
 0001:0000d9b0       ??_C@_1BI@BNDFIGCI@?$AAY?$AAe?$AAs?$AAN?$AAo?$AAC?$AAa?$AAn?$AAc?$AAe?$AAl?$AA?$AA@ 000000018000e9b0     service.obj
 0001:0000d9c8       ??_C@_1BI@KMMIHPHF@?$AAR?$AAe?$AAt?$AAr?$AAy?$AAC?$AAa?$AAn?$AAc?$AAe?$AAl?$AA?$AA@ 000000018000e9c8     service.obj
 0001:0000d9e0       ??_C@_1DG@LMKDDADI@?$AA?$DM?$AAn?$AAo?$AAn?$AA?9?$AAs?$AAt?$AAr?$AAi?$AAn?$AAg?$AA?5?$AAe?$AAr?$AAr?$AAo?$AAr?$AA?5?$AAm?$AAe?$AAs?$AAs?$AAa?$AAg?$AAe?$AA?$DO?$AA?$AA@ 000000018000e9e0     service.obj
 0001:0000da18       ??_C@_15IEGBJKPD@?$AA?3?$AA?6?$AA?$AA@ 000000018000ea18     service.obj
 0001:0000da20       ??_C@_19FFLPMPBO@?$AA?6?$AA?5?$AA?5?$AA?5?$AA?$AA@ 000000018000ea20     service.obj
 0001:0000da2c       ??_C@_15JCKODCLA@?$AA?6?$AA?7?$AA?$AA@ 000000018000ea2c     service.obj
 0001:0000da38       ??_C@_1M@ILHOPKA@?$AAE?$AAr?$AAr?$AAo?$AAr?$AA?$AA@ 000000018000ea38     service.obj
 0001:0000da48       ??_C@_08FNIIFOJC@tostring?$AA@ 000000018000ea48     service.obj
 0001:0000da58       ??_C@_0BJ@JOELOGM@cannot?5convert?5to?5string?$AA@ 000000018000ea58     service.obj
 0001:0000da78       ??_C@_1BA@HHOMBECE@?$AAM?$AAe?$AAs?$AAs?$AAa?$AAg?$AAe?$AA?$AA@ 000000018000ea78     service.obj
 0001:0000da88       ??_C@_17PAGBAIDI@?$AA?$DL?$AAO?$AAK?$AA?$AA@ 000000018000ea88     service.obj
 0001:0000da90       ??_C@_09ENKGJCEC@OwnerGuid?$AA@ 000000018000ea90     service.obj
 0001:0000daa0       ??_C@_0N@CCPLCIHE@PluginHandle?$AA@ 000000018000eaa0     service.obj
 0001:0000dab0       ??_C@_09BKHPOLGD@PanelType?$AA@ 000000018000eab0     service.obj
 0001:0000dabc       ??_C@_04GOOOJOPP@left?$AA@ 000000018000eabc     service.obj
 0001:0000dac4       ??_C@_03FGFCOCMD@top?$AA@  000000018000eac4     service.obj
 0001:0000dac8       ??_C@_05DHJDAOHK@right?$AA@ 000000018000eac8     service.obj
 0001:0000dad0       ??_C@_06PMMPCIPB@bottom?$AA@ 000000018000ead0     service.obj
 0001:0000dad8       ??_C@_09MCEJMINN@PanelRect?$AA@ 000000018000ead8     service.obj
 0001:0000dae8       ??_C@_0M@DDGFKGKJ@ItemsNumber?$AA@ 000000018000eae8     service.obj
 0001:0000daf8       ??_C@_0BE@EOBAHHNK@SelectedItemsNumber?$AA@ 000000018000eaf8     service.obj
 0001:0000db10       ??_C@_0M@JMILNLLF@CurrentItem?$AA@ 000000018000eb10     service.obj
 0001:0000db20       ??_C@_0N@CDHIFJIH@TopPanelItem?$AA@ 000000018000eb20     service.obj
 0001:0000db30       ??_C@_08IMMBLBLF@ViewMode?$AA@ 000000018000eb30     service.obj
 0001:0000db40       ??_C@_08CENECNJD@SortMode?$AA@ 000000018000eb40     service.obj
 0001:0000db4c       ??_C@_04FABLJDN@Name?$AA@  000000018000eb4c     service.obj
 0001:0000db54       ??_C@_05LOJBNELM@Param?$AA@ 000000018000eb54     service.obj
 0001:0000db5c       ??_C@_04PBAHLACE@File?$AA@ 000000018000eb5c     service.obj
 0001:0000db68       ??_C@_08HGEAFCFN@PluginId?$AA@ 000000018000eb68     service.obj
 0001:0000db78       ??_C@_0BA@MLHECKCE@table?5or?5string?$AA@ 000000018000eb78     service.obj
 0001:0000db88       ??_C@_0BD@CKJHMJBG@non?9positive?5index?$AA@ 000000018000eb88     service.obj
 0001:0000dba0       ??_C@_0BA@GNKNKKDM@number?5or?5table?$AA@ 000000018000eba0     service.obj
 0001:0000dbb0       ??_C@_0CI@DDAJHJKO@?$CFs?5?9?5unsupported?5type?5in?5dialog?5@ 000000018000ebb0     service.obj
 0001:0000dbd8       ??_C@_0CD@JIANOKII@unsupported?5flag?5in?5dialog?5item?5@ 000000018000ebd8     service.obj
 0001:0000dc00       ??_C@_0CB@EOGFCCCC@value?5at?5index?5?$CFd?5is?5not?5a?5table@ 000000018000ec00     service.obj
 0001:0000dc28       ??_C@_0O@FEBHKEHB@closed?5dialog?$AA@ 000000018000ec28     service.obj
 0001:0000dc38       ??_C@_0BK@NEMPGLFN@operation?5not?5implemented?$AA@ 000000018000ec38     service.obj
 0001:0000dc54       ??_C@_04KPCPLBPL@Left?$AA@ 000000018000ec54     service.obj
 0001:0000dc5c       ??_C@_03PGGAENPN@Top?$AA@  000000018000ec5c     service.obj
 0001:0000dc60       ??_C@_05DADPALEM@Right?$AA@ 000000018000ec60     service.obj
 0001:0000dc68       ??_C@_0CK@JHNDGJBB@element?5?$CD?$CFd?5in?5argument?5?$CD4?5is?5no@ 000000018000ec68     service.obj
 0001:0000dc98       ??_C@_0L@CECHCPAP@StartIndex?$AA@ 000000018000ec98     service.obj
 0001:0000dca4       ??_C@_05IJGIMMHE@Count?$AA@ 000000018000eca4     service.obj
 0001:0000dcb0       ??_C@_07NOCIGAPP@Pattern?$AA@ 000000018000ecb0     service.obj
 0001:0000dcb8       ??_C@_09IMOCKOO@SelectPos?$AA@ 000000018000ecb8     service.obj
 0001:0000dcc4       ??_C@_06DJONBJOP@TopPos?$AA@ 000000018000ecc4     service.obj
 0001:0000dcd0       ??_C@_09OGCBKCAK@MaxLength?$AA@ 000000018000ecd0     service.obj
 0001:0000dcdc       ??_C@_05FNNGFGLF@Index?$AA@ 000000018000ecdc     service.obj
 0001:0000dce8       ??_C@_07GHGHLGFI@GetType?$AA@ 000000018000ece8     service.obj
 0001:0000dcf0       ??_C@_07MMLMCDAI@ValType?$AA@ 000000018000ecf0     service.obj
 0001:0000dcf8       ??_C@_05LPIJGKJ@Value?$AA@ 000000018000ecf8     service.obj
 0001:0000dd00       ??_C@_0L@LPFMIAHH@helpstring?$AA@ 000000018000ed00     service.obj
 0001:0000dd10       ??_C@_0P@NABDHFON@getvaluestring?$AA@ 000000018000ed10     service.obj
 0001:0000dd20       ??_C@_0BJ@IINAPFDG@Items?$FL?$CFd?$FN?5is?5not?5a?5table?$AA@ 000000018000ed20     service.obj
 0001:0000dd40       ??_C@_0CC@GBOJFNBI@error?5occured?5in?5dialog?5procedur@ 000000018000ed40     service.obj
 0001:0000dd68       ??_C@_0M@EHMONPJO@?$CFs?5?$CIclosed?$CJ?$AA@ 000000018000ed68     service.obj
 0001:0000dd78       ??_C@_08GDAJJKGC@ViewerID?$AA@ 000000018000ed78     service.obj
 0001:0000dd88       ??_C@_07MJHBHMFM@FilePos?$AA@ 000000018000ed88     service.obj
 0001:0000dd90       ??_C@_07FBAHDBGN@CurMode?$AA@ 000000018000ed90     service.obj
 0001:0000dd98       ??_C@_06IMBBKDFH@iParam?$AA@ 000000018000ed98     service.obj
 0001:0000dda0       ??_C@_1BE@CGKCNEEP@?$AAI?$AAn?$AAp?$AAu?$AAt?$AA?5?$AAB?$AAo?$AAx?$AA?$AA@ 000000018000eda0     service.obj
 0001:0000ddb8       ??_C@_1CA@PCDNIBFH@?$AAE?$AAn?$AAt?$AAe?$AAr?$AA?5?$AAt?$AAh?$AAe?$AA?5?$AAt?$AAe?$AAx?$AAt?$AA?3?$AA?$AA@ 000000018000edb8     service.obj
 0001:0000ddd8       ??_C@_0BG@GAFLOAPP@command?5not?5supported?$AA@ 000000018000edd8     service.obj
 0001:0000ddf0       ??_C@_09MIJAKHKB@Completed?$AA@ 000000018000edf0     service.obj
 0001:0000ddfc       ??_C@_05KGEAEGFG@Total?$AA@ 000000018000edfc     service.obj
 0001:0000de08       ??_C@_0P@DJOANNIK@?$CFd?4?$CFd?4?$CFd?4?$CFd?4?$CFd?$AA@ 000000018000ee08     service.obj
 0001:0000de18       ??_C@_03FCCPIJGJ@Pos?$AA@  000000018000ee18     service.obj
 0001:0000de20       ??_C@_08NNKIOIN@TypeName?$AA@ 000000018000ee20     service.obj
 0001:0000de30       ??_C@_07ONPPLIAF@ErrCode?$AA@ 000000018000ee30     service.obj
 0001:0000de38       ??_C@_07LJDOKIBM@ErrPosX?$AA@ 000000018000ee38     service.obj
 0001:0000de40       ??_C@_07KACFJJFN@ErrPosY?$AA@ 000000018000ee40     service.obj
 0001:0000de48       ??_C@_06HBEFEBCM@ErrSrc?$AA@ 000000018000ee48     service.obj
 0001:0000de50       ??_C@_06LDIMCHFC@?$CF?$CKs?$CFs?5?$AA@ 000000018000ee50     service.obj
 0001:0000de58       ??_C@_0CC@JIGPFMKG@global?5?$GAtostring?8?5is?5not?5functio@ 000000018000ee58     service.obj
 0001:0000de80       ??_C@_0CH@OINAPBOJ@tostring?$CI?$CJ?5returned?5a?5non?9string@ 000000018000ee80     service.obj
 0001:0000dea8       ??_C@_06GBEMGMMA@?$CF?$CKd?$CFs?5?$AA@ 000000018000eea8     service.obj
 0001:0000deb0       ??_C@_04CIMGMMMG@text?$AA@ 000000018000eeb0     service.obj
 0001:0000deb8       ??_C@_03CAOIPBNL@arg?$AA@  000000018000eeb8     service.obj
 0001:0000dec0       ??_C@_0ME@JDKAEDFJ@local?5items?0n?$DN?4?4?4?6local?5bottom?$DNn@ 000000018000eec0     service.obj
 0001:0000df88       ??_C@_0CG@FGNNCNLL@attempt?5to?5access?5invalid?5file?5f@ 000000018000ef88     service.obj
 0001:0000dfb0       ??_C@_07BJOIOONN@Strings?$AA@ 000000018000efb0     service.obj
 0001:0000dfb8       ??_C@_08FGAFMHLF@DiskMenu?$AA@ 000000018000efb8     service.obj
 0001:0000dfc8       ??_C@_0L@NHENMPLN@PluginMenu?$AA@ 000000018000efc8     service.obj
 0001:0000dfd8       ??_C@_0N@IEACHFBM@PluginConfig?$AA@ 000000018000efd8     service.obj
 0001:0000dfe8       ??_C@_05GCJGCMFJ@PInfo?$AA@ 000000018000efe8     service.obj
 0001:0000dff0       ??_C@_05HMEFBOHK@GInfo?$AA@ 000000018000eff0     service.obj
 0001:0000dff8       ??_C@_0N@GAMEMCEE@invalid?5GUID?$AA@ 000000018000eff8     service.obj
 0001:0000e008       ??_C@_0BP@NJEEOHDB@attempt?5to?5access?5closed?5timer?$AA@ 000000018000f008     service.obj
 0001:0000e028       ??_C@_05LGELBCGM@Close?$AA@ 000000018000f028     service.obj
 0001:0000e030       ??_C@_07DOAOMMKG@Enabled?$AA@ 000000018000f030     service.obj
 0001:0000e038       ??_C@_08KDKDEPAG@Interval?$AA@ 000000018000f038     service.obj
 0001:0000e048       ??_C@_07CIINKFND@OnTimer?$AA@ 000000018000f048     service.obj
 0001:0000e050       ??_C@_06EFCDMIMC@Closed?$AA@ 000000018000f050     service.obj
 0001:0000e058       ??_C@_0CE@LHJCBGGH@attempt?5to?5call?5non?9existent?5met@ 000000018000f058     service.obj
 0001:0000e080       ??_C@_0BO@PNFLEJKN@attempt?5to?5access?5a?5closed?5?$CFs?$AA@ 000000018000f080     service.obj
 0001:0000e0a0       ??_C@_04OKOFBOPB@Time?$AA@ 000000018000f0a0     service.obj
 0001:0000e0a8       ??_C@_04LADJNOK@Lock?$AA@  000000018000f0a8     service.obj
 0001:0000e0b0       ??_C@_0N@ECMJOJJG@MacroCallFar?$AA@ 000000018000f0b0     service.obj
 0001:0000e0c0       ??_C@_0BC@JJHHFNMP@FarMacroCallToLua?$AA@ 000000018000f0c0     service.obj
 0001:0000e0d4       ??_C@_06GIFLLBB@editor?$AA@ 000000018000f0d4     service.obj
 0001:0000e0dc       ??_C@_06DGPPOJKF@viewer?$AA@ 000000018000f0dc     service.obj
 0001:0000e0e4       ??_C@_01DICPFPGM@k?$AA@    000000018000f0e4     service.obj
 0001:0000e0e8       ??_C@_06BPGFKLEK@__mode?$AA@ 000000018000f0e8     service.obj
 0001:0000e0f0       ??_C@_1CC@OPOAGCKN@?$AA?2?$AAl?$AAu?$AAa?$AAf?$AAa?$AAr?$AA_?$AAi?$AAn?$AAi?$AAt?$AA?4?$AAl?$AAu?$AAa?$AA?$AA@ 000000018000f0f0     service.obj
 0001:0000e118       ??_C@_1BG@BDOBMIBP@?$AAF?$AAA?$AAR?$AAP?$AAR?$AAO?$AAF?$AAI?$AAL?$AAE?$AA?$AA@ 000000018000f118     service.obj
 0001:0000e130       ??_C@_04LHHHFLPP@utf8?$AA@ 000000018000f130     service.obj
 0001:0000e138       ??_C@_06ONNDGCDK@dofile?$AA@ 000000018000f138     service.obj
 0001:0000e140       ??_C@_08BNNFLGCJ@loadfile?$AA@ 000000018000f140     service.obj
 0001:0000e14c       ??_C@_03OFAPEBGM@?$CFs?6?$AA@ 000000018000f14c     service.obj
 0001:0000e150       __real@3ff0000000000000    000000018000f150     service.obj
 0001:0000e158       __real@4059000000000000    000000018000f158     service.obj
 0001:0000e160       __real@41e0000000000000    000000018000f160     service.obj
 0001:0000e168       __real@43f0000000000000    000000018000f168     service.obj
 0001:0000e170       __xmm@ffffffffffffffffffffffffffffffff 000000018000f170     service.obj
 0001:0000e290       ??_C@_04IHGKJMLH@byte?$AA@ 000000018000f290     slnunico.obj
 0001:0000e298       ??_C@_04ENMBGAPA@char?$AA@ 000000018000f298     slnunico.obj
 0001:0000e2a0       ??_C@_04GGLOKIEE@dump?$AA@ 000000018000f2a0     slnunico.obj
 0001:0000e2a8       ??_C@_06DLEPGFEF@format?$AA@ 000000018000f2a8     slnunico.obj
 0001:0000e2b0       ??_C@_05EIEIBDFD@gfind?$AA@ 000000018000f2b0     slnunico.obj
 0001:0000e2b8       ??_C@_03BKCJCHLK@len?$AA@  000000018000f2b8     slnunico.obj
 0001:0000e2bc       ??_C@_05IPJEPLHL@lower?$AA@ 000000018000f2bc     slnunico.obj
 0001:0000e2c4       ??_C@_03HOKODIMJ@rep?$AA@  000000018000f2c4     slnunico.obj
 0001:0000e2c8       ??_C@_07KOIEOCCE@reverse?$AA@ 000000018000f2c8     slnunico.obj
 0001:0000e2d0       ??_C@_05NECKJAMC@upper?$AA@ 000000018000f2d0     slnunico.obj
 0001:0000e2d8       ??_C@_09GCBMKPBD@utf8valid?$AA@ 000000018000f2d8     slnunico.obj
 0001:0000e2e4       ??_C@_04GMGOKAFF@mode?$AA@ 000000018000f2e4     slnunico.obj
 0001:0000e2f0       ??_C@_0BG@DFAIEAEC@string?5slice?5too?5long?$AA@ 000000018000f2f0     slnunico.obj
 0001:0000e308       ??_C@_0O@EAJJMEEM@invalid?5value?$AA@ 000000018000f308     slnunico.obj
 0001:0000e318       ??_C@_0BO@BNLBHKJN@unable?5to?5dump?5given?5function?$AA@ 000000018000f318     slnunico.obj
 0001:0000e338       ??_C@_0BG@LEHNKOGD@invalid?5capture?5index?$AA@ 000000018000f338     slnunico.obj
 0001:0000e350       ??_C@_0BI@ECNPHIBF@invalid?5pattern?5capture?$AA@ 000000018000f350     slnunico.obj
 0001:0000e368       ??_C@_0CD@PLJBIEHA@malformed?5pattern?5?$CIends?5with?5?8?$CF?$CF@ 000000018000f368     slnunico.obj
 0001:0000e390       ??_C@_0CA@CFGACOGB@malformed?5pattern?5?$CImissing?5?8?$FN?8?$CJ?$AA@ 000000018000f390     slnunico.obj
 0001:0000e3b0       ??_C@_0BD@NGJIMPLI@unbalanced?5pattern?$AA@ 000000018000f3b0     slnunico.obj
 0001:0000e3c8       ??_C@_0BC@IMEAEJPD@too?5many?5captures?$AA@ 000000018000f3c8     slnunico.obj
 0001:0000e3e0       ??_C@_0BD@BFKNEALP@unfinished?5capture?$AA@ 000000018000f3e0     slnunico.obj
 0001:0000e3f8       ??_C@_0L@NLFJOONJ@?$FO$?$CK?$CL?$DP?4?$CI?$FL?$CF?9?$AA@ 000000018000f3f8     slnunico.obj
 0001:0000e408       ??_C@_0CO@MAGJPEI@?8string?4gfind?8?5was?5renamed?5to?5?8s@ 000000018000f408     slnunico.obj
 0001:0000e438       ??_C@_0BP@PPPOBACA@string?1function?1table?5expected?$AA@ 000000018000f438     slnunico.obj
 0001:0000e458       ??_C@_0CB@LPDIHGGA@invalid?5replacement?5value?5?$CIa?5?$CFs?$CJ@ 000000018000f458     slnunico.obj
 0001:0000e47c       ??_C@_02HIBBOKEN@?2r?$AA@  000000018000f47c     slnunico.obj
 0001:0000e480       ??_C@_04MPDIABOK@?2000?$AA@ 000000018000f480     slnunico.obj
 0001:0000e488       ??_C@_05GGBDHNF@?9?$CL?5?$CD0?$AA@ 000000018000f488     slnunico.obj
 0001:0000e490       ??_C@_0CA@COOMGCAO@invalid?5format?5?$CIrepeated?5flags?$CJ?$AA@ 000000018000f490     slnunico.obj
 0001:0000e4b0       ??_C@_0CN@KALFEKPN@invalid?5format?5?$CIwidth?5or?5precisi@ 000000018000f4b0     slnunico.obj
 0001:0000e4e0       ??_C@_01HHGOMJKL@l?$AA@    000000018000f4e0     slnunico.obj
 0001:0000e4e8       ??_C@_0CC@KIPBEOBI@invalid?5option?5?8?$CF?$CF?$CFc?8?5to?5?8format@ 000000018000f4e8     slnunico.obj
 0001:0000e510       ??_C@_0O@EJMKHGFJ@unicode?4ascii?$AA@ 000000018000f510     slnunico.obj
 0001:0000e520       ??_C@_0P@CMOFLLND@unicode?4latin1?$AA@ 000000018000f520     slnunico.obj
 0001:0000e530       ??_C@_0BB@EFCDCNG@unicode?4grapheme?$AA@ 000000018000f530     slnunico.obj
 0001:0000e548       ??_C@_0N@DKIDGKBP@unicode?4utf8?$AA@ 000000018000f548     slnunico.obj
 0001:0000e730       ??_C@_05DFJCHPDH@input?$AA@ 000000018000f730     uliolib51.obj
 0001:0000e738       ??_C@_06DKIGHACF@output?$AA@ 000000018000f738     uliolib51.obj
 0001:0000e740       ??_C@_03KCHOJKKI@set?$AA@  000000018000f740     uliolib51.obj
 0001:0000e744       ??_C@_03LIBLMJMB@cur?$AA@  000000018000f744     uliolib51.obj
 0001:0000e748       ??_C@_03JBJLGPFL@end?$AA@  000000018000f748     uliolib51.obj
 0001:0000e74c       ??_C@_02KAJCLHKP@no?$AA@   000000018000f74c     uliolib51.obj
 0001:0000e750       ??_C@_04PLMLMMEO@full?$AA@ 000000018000f750     uliolib51.obj
 0001:0000e758       ??_C@_04HJPCFDOP@line?$AA@ 000000018000f758     uliolib51.obj
 0001:0000e760       ??_C@_05LBOHBHFK@close?$AA@ 000000018000f760     uliolib51.obj
 0001:0000e768       ??_C@_05GLCAEPFP@flush?$AA@ 000000018000f768     uliolib51.obj
 0001:0000e770       ??_C@_05DENOCHIP@lines?$AA@ 000000018000f770     uliolib51.obj
 0001:0000e778       ??_C@_05IACAFMHP@popen?$AA@ 000000018000f778     uliolib51.obj
 0001:0000e780       ??_C@_07FKJPAINK@tmpfile?$AA@ 000000018000f780     uliolib51.obj
 0001:0000e788       ??_C@_05NGFEDHGN@write?$AA@ 000000018000f788     uliolib51.obj
 0001:0000e790       ??_C@_04EDECCOGL@seek?$AA@ 000000018000f790     uliolib51.obj
 0001:0000e798       ??_C@_07HHBPNGAN@setvbuf?$AA@ 000000018000f798     uliolib51.obj
 0001:0000e7a0       ??_C@_06DJHOIPC@?$CFs?3?5?$CFs?$AA@ 000000018000f7a0     uliolib51.obj
 0001:0000e7a8       ??_C@_02DKCKIIND@?$CFs?$AA@ 000000018000f7a8     uliolib51.obj
 0001:0000e7ac       ??_C@_05KCHOJJD@FILE?$CK?$AA@ 000000018000f7ac     uliolib51.obj
 0001:0000e7b8       ??_C@_0M@IBKPHHKH@closed?5file?$AA@ 000000018000f7b8     uliolib51.obj
 0001:0000e7c4       ??_C@_04DAMGJPCA@file?$AA@ 000000018000f7c4     uliolib51.obj
 0001:0000e7d0       ??_C@_0BN@LPOOHAOM@attempt?5to?5use?5a?5closed?5file?$AA@ 000000018000f7d0     uliolib51.obj
 0001:0000e7f0       ??_C@_0BL@PEFGCPAG@cannot?5close?5standard?5file?$AA@ 000000018000f7f0     uliolib51.obj
 0001:0000e810       ??_C@_07DMJMBBKE@__close?$AA@ 000000018000f810     uliolib51.obj
 0001:0000e818       ??_C@_0O@PLFAPHPG@file?5?$CIclosed?$CJ?$AA@ 000000018000f818     uliolib51.obj
 0001:0000e828       ??_C@_09BPMAMLLD@file?5?$CI?$CFp?$CJ?$AA@ 000000018000f828     uliolib51.obj
 0001:0000e838       ??_C@_17OBBFBLGE@?$AAr?$AAw?$AAa?$AA?$AA@ 000000018000f838     uliolib51.obj
 0001:0000e840       ??_C@_0CP@DHGANCPP@invalid?5mode?5?8?$CFs?8?5?$CIshould?5match?5@ 000000018000f840     uliolib51.obj
 0001:0000e870       ??_C@_0BL@JMNLNGCA@standard?5?$CFs?5file?5is?5closed?$AA@ 000000018000f870     uliolib51.obj
 0001:0000e88c       ??_C@_13CIFDLIMG@?$AAw?$AA?$AA@ 000000018000f88c     uliolib51.obj
 0001:0000e890       ??_C@_03DLDNIBIK@?$CFlf?$AA@ 000000018000f890     uliolib51.obj
 0001:0000e898       ??_C@_0BD@IOJAAODF@too?5many?5arguments?$AA@ 000000018000f898     uliolib51.obj
 0001:0000e8b0       ??_C@_0P@PJFAGLMH@invalid?5option?$AA@ 000000018000f8b0     uliolib51.obj
 0001:0000e8c0       ??_C@_0P@CENJCLHM@invalid?5format?$AA@ 000000018000f8c0     uliolib51.obj
 0001:0000e8d0       ??_C@_0BH@PBGIDLEF@file?5is?5already?5closed?$AA@ 000000018000f8d0     uliolib51.obj
 0001:0000e8e8       ??_C@_05CGOEHEFE@?$CF?414g?$AA@ 000000018000f8e8     uliolib51.obj
 0001:0000e8f0       ??_C@_05MHOFLBOO@stdin?$AA@ 000000018000f8f0     uliolib51.obj
 0001:0000e8f8       ??_C@_06DJDOIFHB@stdout?$AA@ 000000018000f8f8     uliolib51.obj
 0001:0000e900       ??_C@_06FJGNEBG@stderr?$AA@ 000000018000f900     uliolib51.obj
 0001:0000e998       ??_C@_07KOEABFCN@loadlib?$AA@ 000000018000f998     uloadlib51.obj
 0001:0000e9a0       ??_C@_06LNOHAKGK@seeall?$AA@ 000000018000f9a0     uloadlib51.obj
 0001:0000e9a8       ??_C@_06BIEEJMKO@module?$AA@ 000000018000f9a8     uloadlib51.obj
 0001:0000e9b0       ??_C@_07FFLLPPLH@require?$AA@ 000000018000f9b0     uloadlib51.obj
 0001:0000e9b8       ??_C@_0BN@GMPFCLAN@unable?5to?5get?5ModuleFileName?$AA@ 000000018000f9b8     uloadlib51.obj
 0001:0000e9d8       ??_C@_13MGDFOILI@?$AA?$CB?$AA?$AA@ 000000018000f9d8     uloadlib51.obj
 0001:0000e9e0       ??_C@_09GMLHALBF@LOADLIB?3?5?$AA@ 000000018000f9e0     uloadlib51.obj
 0001:0000e9ec       ??_C@_04HDOCAJNK@?$CFs?$CFs?$AA@ 000000018000f9ec     uloadlib51.obj
 0001:0000e9f8       ??_C@_08HNNNOMMJ@_LOADLIB?$AA@ 000000018000f9f8     uloadlib51.obj
 0001:0000ea04       ??_C@_04HKFDNBLD@init?$AA@ 000000018000fa04     uloadlib51.obj
 0001:0000ea0c       ??_C@_13FPGAJAPJ@?$AA?2?$AA?$AA@ 000000018000fa0c     uloadlib51.obj
 0001:0000ea10       ??_C@_13JOFGPIOO@?$AA?4?$AA?$AA@ 000000018000fa10     uloadlib51.obj
 0001:0000ea18       ??_C@_0BO@COFCKCAL@?8package?4?$CFs?8?5must?5be?5a?5string?$AA@ 000000018000fa18     uloadlib51.obj
 0001:0000ea38       ??_C@_0CE@EPEHLLIH@?8package?4?$CFs?8?5contains?5invalid?5UT@ 000000018000fa38     uloadlib51.obj
 0001:0000ea5c       ??_C@_13HGPDMIBE@?$AA?$DP?$AA?$AA@ 000000018000fa5c     uloadlib51.obj
 0001:0000ea60       ??_C@_0P@NEBKIMDC@?6?7no?5file?5?8?$CFs?8?$AA@ 000000018000fa60     uloadlib51.obj
 0001:0000ea70       ??_C@_0CO@KHMIPLKM@error?5loading?5module?5?8?$CFs?8?5from?5f@ 000000018000fa70     uloadlib51.obj
 0001:0000eaa0       ??_C@_04LNEJFJGI@path?$AA@ 000000018000faa0     uloadlib51.obj
 0001:0000eaa8       ??_C@_01IDAFKMJL@_?$AA@    000000018000faa8     uloadlib51.obj
 0001:0000eaac       ??_C@_01LFCBOECM@?4?$AA@   000000018000faac     uloadlib51.obj
 0001:0000eab0       ??_C@_0L@KHKMBFOE@luaopen_?$CFs?$AA@ 000000018000fab0     uloadlib51.obj
 0001:0000eabc       ??_C@_05EEMJHCCC@cpath?$AA@ 000000018000fabc     uloadlib51.obj
 0001:0000eac8       ??_C@_0BO@KOILFIGK@?6?7no?5module?5?8?$CFs?8?5in?5file?5?8?$CFs?8?$AA@ 000000018000fac8     uloadlib51.obj
 0001:0000eae8       ??_C@_0CC@CCJHFBLH@?8package?4preload?8?5must?5be?5a?5tabl@ 000000018000fae8     uloadlib51.obj
 0001:0000eb10       ??_C@_0CB@NPNABMBF@?6?7no?5field?5package?4preload?$FL?8?$CFs?8?$FN@ 000000018000fb10     uloadlib51.obj
 0001:0000eb38       ??_C@_07PINPBNPB@_LOADED?$AA@ 000000018000fb38     uloadlib51.obj
 0001:0000eb40       ??_C@_0CL@DIEJCPFH@loop?5or?5previous?5error?5loading?5m@ 000000018000fb40     uloadlib51.obj
 0001:0000eb70       ??_C@_07JAOCDFCG@loaders?$AA@ 000000018000fb70     uloadlib51.obj
 0001:0000eb78       ??_C@_0CC@IGEJMOFI@?8package?4loaders?8?5must?5be?5a?5tabl@ 000000018000fb78     uloadlib51.obj
 0001:0000eba0       ??_C@_0BJ@HFHHABH@module?5?8?$CFs?8?5not?5found?3?$CFs?$AA@ 000000018000fba0     uloadlib51.obj
 0001:0000ebbc       ??_C@_01INIBCBCB@f?$AA@    000000018000fbbc     uloadlib51.obj
 0001:0000ebc0       ??_C@_0CI@GKOMOAFD@?8module?8?5not?5called?5from?5a?5Lua?5f@ 000000018000fbc0     uloadlib51.obj
 0001:0000ebe8       ??_C@_02CCIJHOCI@_M?$AA@   000000018000fbe8     uloadlib51.obj
 0001:0000ebec       ??_C@_05ICMCJINN@_NAME?$AA@ 000000018000fbec     uloadlib51.obj
 0001:0000ebf8       ??_C@_08HONLOGDK@_PACKAGE?$AA@ 000000018000fbf8     uloadlib51.obj
 0001:0000ec08       ??_C@_0BO@CBJIAGLF@name?5conflict?5for?5module?5?8?$CFs?8?$AA@ 000000018000fc08     uloadlib51.obj
 0001:0000ec28       ??_C@_17KOAMMDLI@?$AA?$DL?$AA?$AB?$AA?$DL?$AA?$AA@ 000000018000fc28     uloadlib51.obj
 0001:0000ec30       ??_C@_15HKKNGJC@?$AA?$DL?$AA?$DL?$AA?$AA@ 000000018000fc30     uloadlib51.obj
 0001:0000ec38       ??_C@_13GGAHEHIG@?$AA?$AB?$AA?$AA@ 000000018000fc38     uloadlib51.obj
 0001:0000ec40       ??_C@_1HE@JLDBNBHO@?$AA?4?$AA?2?$AA?$DP?$AA?4?$AAl?$AAu?$AAa?$AA?$DL?$AA?$CB?$AA?2?$AAl?$AAu?$AAa?$AA?2?$AA?$DP?$AA?4?$AAl?$AAu?$AAa?$AA?$DL?$AA?$CB?$AA?2?$AAl?$AAu?$AAa?$AA?2?$AA?$DP?$AA?2?$AAi?$AAn?$AAi?$AAt@ 000000018000fc40     uloadlib51.obj
 0001:0000ecb8       ??_C@_1BC@ILFFIBFI@?$AAL?$AAU?$AAA?$AA_?$AAP?$AAA?$AAT?$AAH?$AA?$AA@ 000000018000fcb8     uloadlib51.obj
 0001:0000ecd0       ??_C@_1DM@FGPGEDD@?$AA?4?$AA?2?$AA?$DP?$AA?4?$AAd?$AAl?$AAl?$AA?$DL?$AA?$CB?$AA?2?$AA?$DP?$AA?4?$AAd?$AAl?$AAl?$AA?$DL?$AA?$CB?$AA?2?$AAl?$AAo?$AAa?$AAd?$AAa?$AAl?$AAl?$AA?4?$AAd?$AAl?$AAl?$AA?$AA@ 000000018000fcd0     uloadlib51.obj
 0001:0000ed10       ??_C@_1BE@EFNILHBI@?$AAL?$AAU?$AAA?$AA_?$AAC?$AAP?$AAA?$AAT?$AAH?$AA?$AA@ 000000018000fd10     uloadlib51.obj
 0001:0000ed28       ??_C@_1BE@CKNDCMBB@?$AA?2?$AA?6?$AA?$DL?$AA?6?$AA?$DP?$AA?6?$AA?$CB?$AA?6?$AA?9?$AA?$AA@ 000000018000fd28     uloadlib51.obj
 0001:0000ed3c       ??_C@_06HEJKKHEK@config?$AA@ 000000018000fd3c     uloadlib51.obj
 0001:0000ed44       ??_C@_06IILMCCFO@loaded?$AA@ 000000018000fd44     uloadlib51.obj
 0001:0000ed50       ustring_funcs              000000018000fd50     ustring.obj
 0001:0000eef0       ??_C@_0BE@DEHGONAH@EnumSystemCodePages?$AA@ 000000018000fef0     ustring.obj
 0001:0000ef04       ??_C@_06FMJLOCAF@GetACP?$AA@ 000000018000ff04     ustring.obj
 0001:0000ef10       ??_C@_09HLFMNDA@GetCPInfo?$AA@ 000000018000ff10     ustring.obj
 0001:0000ef20       ??_C@_0O@PIBBCLJF@GetCurrentDir?$AA@ 000000018000ff20     ustring.obj
 0001:0000ef30       ??_C@_0N@IIBOJKJ@GetDriveType?$AA@ 000000018000ff30     ustring.obj
 0001:0000ef40       ??_C@_0M@KHMMJMNI@GetFileAttr?$AA@ 000000018000ff40     ustring.obj
 0001:0000ef50       ??_C@_0BH@KKAFOIJJ@GetLogicalDriveStrings?$AA@ 000000018000ff50     ustring.obj
 0001:0000ef68       ??_C@_08OMCNFONF@GetOEMCP?$AA@ 000000018000ff68     ustring.obj
 0001:0000ef78       ??_C@_0BD@IHIHPGDL@GlobalMemoryStatus?$AA@ 000000018000ff78     ustring.obj
 0001:0000ef90       ??_C@_0BE@HCIKGJGE@MultiByteToWideChar?$AA@ 000000018000ff90     ustring.obj
 0001:0000efa8       ??_C@_09EPINLGBH@OemToUtf8?$AA@ 000000018000ffa8     ustring.obj
 0001:0000efb8       ??_C@_0BC@NFCPMJFM@OutputDebugString?$AA@ 000000018000ffb8     ustring.obj
 0001:0000efd0       ??_C@_0BA@MNJFBAJH@SHGetFolderPath?$AA@ 000000018000ffd0     ustring.obj
 0001:0000efe0       ??_C@_0L@PMCLJMMJ@SearchPath?$AA@ 000000018000ffe0     ustring.obj
 0001:0000eff0       ??_C@_0O@IHAPJIOC@SetCurrentDir?$AA@ 000000018000fff0     ustring.obj
 0001:0000f000       ??_C@_0M@KINCEKFL@SetFileAttr?$AA@ 0000000180010000     ustring.obj
 0001:0000f00c       ??_C@_05PFDOMJEF@Sleep?$AA@ 000000018001000c     ustring.obj
 0001:0000f018       ??_C@_0M@KJELMDJD@Utf16ToUtf8?$AA@ 0000000180010018     ustring.obj
 0001:0000f028       ??_C@_09LCEKPEGC@Utf8ToOem?$AA@ 0000000180010028     ustring.obj
 0001:0000f038       ??_C@_0M@GJGCILHG@Utf8ToUtf16?$AA@ 0000000180010038     ustring.obj
 0001:0000f044       ??_C@_04NDFIEGPL@Uuid?$AA@ 0000000180010044     ustring.obj
 0001:0000f050       ??_C@_0BE@LJADKLBD@WideCharToMultiByte?$AA@ 0000000180010050     ustring.obj
 0001:0000f064       ??_C@_04GFOHBGIO@subW?$AA@ 0000000180010064     ustring.obj
 0001:0000f06c       ??_C@_06FHFOAHML@system?$AA@ 000000018001006c     ustring.obj
 0001:0000f074       ??_C@_04NOFELICG@lenW?$AA@ 0000000180010074     ustring.obj
 0001:0000f080       ??_C@_0BB@BLJKPILH@system?5error?5?$CFd?6?$AA@ 0000000180010080     ustring.obj
 0001:0000f098       ??_C@_0BJ@MEAJDMDL@invalid?5multibyte?5string?$AA@ 0000000180010098     ustring.obj
 0001:0000f0b8       ??_C@_0BG@ELIKBHAO@invalid?5UTF?916?5string?$AA@ 00000001800100b8     ustring.obj
 0001:0000f0d0       ??_C@_0M@KJGJBDLL@MaxCharSize?$AA@ 00000001800100d0     ustring.obj
 0001:0000f0e0       ??_C@_0M@IMOFNPBB@DefaultChar?$AA@ 00000001800100e0     ustring.obj
 0001:0000f0f0       ??_C@_08HIIJAENB@LeadByte?$AA@ 00000001800100f0     ustring.obj
 0001:0000f100       ??_C@_0BD@CBNPFFPH@UnicodeDefaultChar?$AA@ 0000000180010100     ustring.obj
 0001:0000f118       ??_C@_0N@DJCOCBOB@CodePageName?$AA@ 0000000180010118     ustring.obj
 0001:0000f128       ??_C@_0N@IFJMFGJK@unknown?5type?$AA@ 0000000180010128     ustring.obj
 0001:0000f138       ??_C@_0BC@GPFCFLGN@no?5root?5directory?$AA@ 0000000180010138     ustring.obj
 0001:0000f150       ??_C@_09HPGMKNKO@removable?$AA@ 0000000180010150     ustring.obj
 0001:0000f15c       ??_C@_05OFLEIIDM@fixed?$AA@ 000000018001015c     ustring.obj
 0001:0000f164       ??_C@_06IMIHEKN@remote?$AA@ 0000000180010164     ustring.obj
 0001:0000f16c       ??_C@_05POABADMF@cdrom?$AA@ 000000018001016c     ustring.obj
 0001:0000f178       ??_C@_07BHCBOAMP@ramdisk?$AA@ 0000000180010178     ustring.obj
 0001:0000f180       ??_C@_0L@PLJFMBIJ@MemoryLoad?$AA@ 0000000180010180     ustring.obj
 0001:0000f190       ??_C@_09MMAOIBBJ@TotalPhys?$AA@ 0000000180010190     ustring.obj
 0001:0000f1a0       ??_C@_09KFOEOLH@AvailPhys?$AA@ 00000001800101a0     ustring.obj
 0001:0000f1b0       ??_C@_0O@PEEMGPEP@TotalPageFile?$AA@ 00000001800101b0     ustring.obj
 0001:0000f1c0       ??_C@_0O@LLHOKNF@AvailPageFile?$AA@ 00000001800101c0     ustring.obj
 0001:0000f1d0       ??_C@_0N@LCJEOHMM@TotalVirtual?$AA@ 00000001800101d0     ustring.obj
 0001:0000f1e0       ??_C@_0N@EGHLANBF@AvailVirtual?$AA@ 00000001800101e0     ustring.obj
 0001:0000f1f0       ??_C@_0BF@KKNLCGDE@AvailExtendedVirtual?$AA@ 00000001800101f0     ustring.obj
 0001:0000f208       ??_C@_0P@KJDDGAFH@FileAttributes?$AA@ 0000000180010208     ustring.obj
 0001:0000f218       ??_C@_07JOJHCKGP@ustring?$AA@ 0000000180010218     ustring.obj
 0001:0000fa40       ??_C@_0DJ@KKHMCMAP@bad?5field?5?$FL?$CFd?$FN?5in?5table?5stackpos@ 0000000180010a40     util.obj
 0001:0000fa80       ??_C@_0DJ@PFHHGAMM@bad?5field?5?8?$CFs?8?5in?5table?5stackpos@ 0000000180010a80     util.obj
 0001:0000fabc       ??_C@_06EBGNBFIA@number?$AA@ 0000000180010abc     util.obj
 0001:0000ffa0       win_funcs                  0000000180010fa0     win.obj
 0001:00010490       ??_C@_0O@CFPMOCDP@CompareString?$AA@ 0000000180011490     win.obj
 0001:000104a0       ??_C@_08PPLNFCGA@CopyFile?$AA@ 00000001800114a0     win.obj
 0001:000104b0       ??_C@_09INHPLKKM@CreateDir?$AA@ 00000001800114b0     win.obj
 0001:000104c0       ??_C@_0L@GPLPOFDC@DeleteFile?$AA@ 00000001800114c0     win.obj
 0001:000104d0       ??_C@_0N@FOJPHHPH@DeleteRegKey?$AA@ 00000001800114d0     win.obj
 0001:000104e0       ??_C@_0P@PCCDOIAL@DeleteRegValue?$AA@ 00000001800114e0     win.obj
 0001:000104f0       ??_C@_0L@DGAGCFOP@EnumRegKey?$AA@ 00000001800114f0     win.obj
 0001:00010500       ??_C@_0N@PFFNCIBD@EnumRegValue?$AA@ 0000000180011500     win.obj
 0001:00010510       ??_C@_0L@MGMEFCAE@ExtractKey?$AA@ 0000000180011510     win.obj
 0001:00010520       ??_C@_0BI@EKFDIGHI@FileTimeToLocalFileTime?$AA@ 0000000180011520     win.obj
 0001:00010538       ??_C@_0BF@KPJNHALE@FileTimeToSystemTime?$AA@ 0000000180011538     win.obj
 0001:00010550       ??_C@_0BL@NAIJNMLL@GetConsoleScreenBufferInfo?$AA@ 0000000180011550     win.obj
 0001:0001056c       ??_C@_06CALCCDMF@GetEnv?$AA@ 000000018001156c     win.obj
 0001:00010578       ??_C@_0M@EINGHLOA@GetFileInfo?$AA@ 0000000180011578     win.obj
 0001:00010588       ??_C@_09GFGIAJLD@GetRegKey?$AA@ 0000000180011588     win.obj
 0001:00010598       ??_C@_0BI@ENMDHCMK@GetSystemTimeAsFileTime?$AA@ 0000000180011598     win.obj
 0001:000105b0       ??_C@_0P@GGGHOPAD@GetVirtualKeys?$AA@ 00000001800115b0     win.obj
 0001:000105c0       ??_C@_08CALLHOCI@MoveFile?$AA@ 00000001800115c0     win.obj
 0001:000105d0       ??_C@_09EDKALOCB@RemoveDir?$AA@ 00000001800115d0     win.obj
 0001:000105e0       ??_C@_0L@HBAGBENL@RenameFile?$AA@ 00000001800115e0     win.obj
 0001:000105ec       ??_C@_06LDCDJLBI@SetEnv?$AA@ 00000001800115ec     win.obj
 0001:000105f8       ??_C@_09ELCNCICB@SetRegKey?$AA@ 00000001800115f8     win.obj
 0001:00010608       ??_C@_0N@BFFIJKHB@ShellExecute?$AA@ 0000000180011608     win.obj
 0001:00010618       ??_C@_0BF@HBHGIPOG@SystemTimeToFileTime?$AA@ 0000000180011618     win.obj
 0001:00010630       ??_C@_06DNONFAKH@wcscmp?$AA@ 0000000180011630     win.obj
 0001:00010638       ??_C@_04CBBMIBLK@HKLM?$AA@ 0000000180011638     win.obj
 0001:00010640       ??_C@_04LEMDOLAJ@HKCC?$AA@ 0000000180011640     win.obj
 0001:00010648       ??_C@_04OHBKMIBJ@HKCR?$AA@ 0000000180011648     win.obj
 0001:00010650       ??_C@_04KIFLFONO@HKCU?$AA@ 0000000180011650     win.obj
 0001:00010658       ??_C@_03DLBIJLAB@HKU?$AA@  0000000180011658     win.obj
 0001:00010660       ??_C@_0DA@DKALLFDI@must?5be?5?8HKLM?8?0?5?8HKCC?8?0?5?8HKCR?8?0?5@ 0000000180011660     win.obj
 0001:00010690       ??_C@_05KDALNKAH@dword?$AA@ 0000000180011690     win.obj
 0001:00010698       ??_C@_06FNFBAEBE@binary?$AA@ 0000000180011698     win.obj
 0001:000106a0       ??_C@_0N@CBOMHLPN@expandstring?$AA@ 00000001800116a0     win.obj
 0001:000106b0       ??_C@_0M@PEGIPCHN@multistring?$AA@ 00000001800116b0     win.obj
 0001:000106c0       ??_C@_0BH@NOJOGNJM@unsupported?5value?5type?$AA@ 00000001800116c0     win.obj
 0001:000106d8       ??_C@_0BD@MJODDCFG@OpenRegKey?5failed?4?$AA@ 00000001800116d8     win.obj
 0001:000106f0       ??_C@_0BI@COLHBIIE@RegQueryValueEx?5failed?4?$AA@ 00000001800116f0     win.obj
 0001:00010708       ??_C@_0BG@HHFHBIKG@RegOpenKeyExW?5failed?4?$AA@ 0000000180011708     win.obj
 0001:00010720       ??_C@_05DFPNHDMN@wYear?$AA@ 0000000180011720     win.obj
 0001:00010728       ??_C@_06MGNNJGBJ@wMonth?$AA@ 0000000180011728     win.obj
 0001:00010730       ??_C@_0L@OAHPHHP@wDayOfWeek?$AA@ 0000000180011730     win.obj
 0001:0001073c       ??_C@_04NBLBJIPP@wDay?$AA@ 000000018001173c     win.obj
 0001:00010744       ??_C@_05BMOPCGDH@wHour?$AA@ 0000000180011744     win.obj
 0001:00010750       ??_C@_07HPODENI@wMinute?$AA@ 0000000180011750     win.obj
 0001:00010758       ??_C@_07IIEDHHJN@wSecond?$AA@ 0000000180011758     win.obj
 0001:00010760       ??_C@_0O@HBAPEOKP@wMilliseconds?$AA@ 0000000180011760     win.obj
 0001:00010770       ??_C@_01LKDEMHDF@s?$AA@    0000000180011770     win.obj
 0001:00010778       ??_C@_0BA@IAFODGNM@CursorPositionX?$AA@ 0000000180011778     win.obj
 0001:00010788       ??_C@_0BA@JJEFAHJN@CursorPositionY?$AA@ 0000000180011788     win.obj
 0001:00010798       ??_C@_0L@NFCEOFBF@WindowLeft?$AA@ 0000000180011798     win.obj
 0001:000107a8       ??_C@_09JHGOALHG@WindowTop?$AA@ 00000001800117a8     win.obj
 0001:000107b8       ??_C@_0M@HHPHMPGH@WindowRight?$AA@ 00000001800117b8     win.obj
 0001:000107c8       ??_C@_0N@JPIJCAOJ@WindowBottom?$AA@ 00000001800117c8     win.obj
 0001:000107d8       ??_C@_0BD@DOLDEII@MaximumWindowSizeX?$AA@ 00000001800117d8     win.obj
 0001:000107f0       ??_C@_0BD@BKPAAFMJ@MaximumWindowSizeY?$AA@ 00000001800117f0     win.obj
 0001:00010804       ??_C@_01PFHFFBPC@t?$AA@    0000000180011804     win.obj
 0001:00010808       ??_C@_0BJ@LPJMBJJL@directory?5already?5exists?$AA@ 0000000180011808     win.obj
 0001:00010828       __real@41f0000000000000    0000000180011828     win.obj
 0001:00010830       _pDefaultRawDllMain        0000000180011830     LIBCMT:dll_dllmain.obj
 0001:00010830       _pRawDllMain               0000000180011830     LIBCMT:dll_dllmain.obj
 0001:00010838       _Microsoft_CRTProvider     0000000180011838     libvcruntime:telemetry.obj
 0001:00010840       ??_C@_0O@JEOPJOMI@Main?5Invoked?4?$AA@ 0000000180011840     libvcruntime:telemetry.obj
 0001:00010850       ??_C@_0P@NEAEIBDO@Main?5Returned?4?$AA@ 0000000180011850     libvcruntime:telemetry.obj
 0001:00010880       ??_C@_1BC@DNHGCMLG@?$AAa?$AAd?$AAv?$AAa?$AAp?$AAi?$AA3?$AA2?$AA?$AA@ 0000000180011880     libvcruntime:winapi_downlevel.obj
 0001:00010898       ??_C@_1DM@KHCHBNEB@?$AAa?$AAp?$AAi?$AA?9?$AAm?$AAs?$AA?9?$AAw?$AAi?$AAn?$AA?9?$AAc?$AAo?$AAr?$AAe?$AA?9?$AAf?$AAi?$AAb?$AAe?$AAr?$AAs?$AA?9?$AAl?$AA1?$AA?9?$AA1?$AA?9?$AA1?$AA?$AA@ 0000000180011898     libvcruntime:winapi_downlevel.obj
 0001:000108d8       ??_C@_1DK@LPPGFMPP@?$AAa?$AAp?$AAi?$AA?9?$AAm?$AAs?$AA?9?$AAw?$AAi?$AAn?$AA?9?$AAc?$AAo?$AAr?$AAe?$AA?9?$AAs?$AAy?$AAn?$AAc?$AAh?$AA?9?$AAl?$AA1?$AA?9?$AA2?$AA?9?$AA0?$AA?$AA@ 00000001800118d8     libvcruntime:winapi_downlevel.obj
 0001:00010918       ??_C@_1BC@GDMECMAK@?$AAk?$AAe?$AAr?$AAn?$AAe?$AAl?$AA3?$AA2?$AA?$AA@ 0000000180011918     libvcruntime:winapi_downlevel.obj
 0001:00010930       ??_C@_0O@BAMBGLIE@EventRegister?$AA@ 0000000180011930     libvcruntime:winapi_downlevel.obj
 0001:00010948       ??_C@_0BE@BJEEGHGK@EventSetInformation?$AA@ 0000000180011948     libvcruntime:winapi_downlevel.obj
 0001:00010960       ??_C@_0BA@FAKLIPIC@EventUnregister?$AA@ 0000000180011960     libvcruntime:winapi_downlevel.obj
 0001:00010978       ??_C@_0BD@PKLHJPHD@EventWriteTransfer?$AA@ 0000000180011978     libvcruntime:winapi_downlevel.obj
 0001:00010998       ??_C@_08KNHFBNJ@FlsAlloc?$AA@ 0000000180011998     libvcruntime:winapi_downlevel.obj
 0001:000109b0       ??_C@_07PEJMOBNF@FlsFree?$AA@ 00000001800119b0     libvcruntime:winapi_downlevel.obj
 0001:000109c0       ??_C@_0M@GDNOONDI@FlsGetValue?$AA@ 00000001800119c0     libvcruntime:winapi_downlevel.obj
 0001:000109d8       ??_C@_0M@JCPCPOEF@FlsSetValue?$AA@ 00000001800119d8     libvcruntime:winapi_downlevel.obj
 0001:000109f0       ??_C@_0BM@HCFOFFN@InitializeCriticalSectionEx?$AA@ 00000001800119f0     libvcruntime:winapi_downlevel.obj
 0001:00010a0c       ??_C@_01JOAMLHOP@?9?$AA@   0000000180011a0c     libvcruntime:undname.obj
 0001:00010a10       ??_C@_01MIFGBAGJ@?$CL?$AA@ 0000000180011a10     libvcruntime:undname.obj
 0001:00010a14       ??_C@_01HNPIGOCE@?$CG?$AA@ 0000000180011a14     libvcruntime:undname.obj
 0001:00010a18       ??_C@_03MNHNFDLC@?9?$DO?$CK?$AA@ 0000000180011a18     libvcruntime:undname.obj
 0001:00010a1c       ??_C@_01FGNFDNOH@?$CF?$AA@ 0000000180011a1c     libvcruntime:undname.obj
 0001:00010a20       ??_C@_01MNNFJEPP@?$DM?$AA@ 0000000180011a20     libvcruntime:undname.obj
 0001:00010a24       ??_C@_02EHCHHCKH@?$DM?$DN?$AA@ 0000000180011a24     libvcruntime:undname.obj
 0001:00010a28       ??_C@_01PPODPGHN@?$DO?$AA@ 0000000180011a28     libvcruntime:undname.obj
 0001:00010a2c       ??_C@_02EEKDKGMJ@?$DO?$DN?$AA@ 0000000180011a2c     libvcruntime:undname.obj
 0001:00010a30       ??_C@_01IHBHIGKO@?0?$AA@   0000000180011a30     libvcruntime:undname.obj
 0001:00010a34       ??_C@_02HCKGKOFO@?$CI?$CJ?$AA@ 0000000180011a34     libvcruntime:undname.obj
 0001:00010a38       ??_C@_01PJKLJHI@?$HO?$AA@  0000000180011a38     libvcruntime:undname.obj
 0001:00010a3c       ??_C@_01JKBOJNNK@?$FO?$AA@ 0000000180011a3c     libvcruntime:undname.obj
 0001:00010a40       ??_C@_01DNKMNLPK@?$HM?$AA@ 0000000180011a40     libvcruntime:undname.obj
 0001:00010a44       ??_C@_02PPKAJPJL@?$CG?$CG?$AA@ 0000000180011a44     libvcruntime:undname.obj
 0001:00010a48       ??_C@_02NONPIBCD@?$HM?$HM?$AA@ 0000000180011a48     libvcruntime:undname.obj
 0001:00010a4c       ??_C@_02FPIMKNGF@?$CK?$DN?$AA@ 0000000180011a4c     libvcruntime:undname.obj
 0001:00010a50       ??_C@_02FOEOMHFC@?$CL?$DN?$AA@ 0000000180011a50     libvcruntime:undname.obj
 0001:00010a54       ??_C@_02FKMDLLOA@?9?$DN?$AA@ 0000000180011a54     libvcruntime:undname.obj
 0001:00010a58       ??_C@_02FJEHGPIO@?1?$DN?$AA@ 0000000180011a58     libvcruntime:undname.obj
 0001:00010a5c       ??_C@_02FENAOKFI@?$CF?$DN?$AA@ 0000000180011a5c     libvcruntime:undname.obj
 0001:00010a60       ??_C@_03IKFCCPFF@?$DO?$DO?$DN?$AA@ 0000000180011a60     libvcruntime:undname.obj
 0001:00010a64       ??_C@_03CDNPDDLA@?$DM?$DM?$DN?$AA@ 0000000180011a64     libvcruntime:undname.obj
 0001:00010a68       ??_C@_02FGJGFEAB@?$CG?$DN?$AA@ 0000000180011a68     libvcruntime:undname.obj
 0001:00010a6c       ??_C@_02DHLNPPGH@?$HM?$DN?$AA@ 0000000180011a6c     libvcruntime:undname.obj
 0001:00010a70       ??_C@_02MHEGNOJ@?$FO?$DN?$AA@ 0000000180011a70     libvcruntime:undname.obj
 0001:00010a78       ??_C@_09IFPLHPGF@?$GAvftable?8?$AA@ 0000000180011a78     libvcruntime:undname.obj
 0001:00010a88       ??_C@_09BLBHBJP@?$GAvbtable?8?$AA@ 0000000180011a88     libvcruntime:undname.obj
 0001:00010a98       ??_C@_07FEEIOKP@?$GAvcall?8?$AA@ 0000000180011a98     libvcruntime:undname.obj
 0001:00010aa0       ??_C@_08LLFFHHDJ@?$GAtypeof?8?$AA@ 0000000180011aa0     libvcruntime:undname.obj
 0001:00010ab0       ??_C@_0BF@KDPPACIK@?$GAlocal?5static?5guard?8?$AA@ 0000000180011ab0     libvcruntime:undname.obj
 0001:00010ac8       ??_C@_08OBABFOLI@?$GAstring?8?$AA@ 0000000180011ac8     libvcruntime:undname.obj
 0001:00010ad8       ??_C@_0BD@JDLKDPAB@?$GAvbase?5destructor?8?$AA@ 0000000180011ad8     libvcruntime:undname.obj
 0001:00010af0       ??_C@_0BN@DEGPLNFK@?$GAvector?5deleting?5destructor?8?$AA@ 0000000180011af0     libvcruntime:undname.obj
 0001:00010b10       ??_C@_0BO@OBMKPJIG@?$GAdefault?5constructor?5closure?8?$AA@ 0000000180011b10     libvcruntime:undname.obj
 0001:00010b30       ??_C@_0BN@IMDCHIKM@?$GAscalar?5deleting?5destructor?8?$AA@ 0000000180011b30     libvcruntime:undname.obj
 0001:00010b50       ??_C@_0BO@PFGOCPJJ@?$GAvector?5constructor?5iterator?8?$AA@ 0000000180011b50     libvcruntime:undname.obj
 0001:00010b70       ??_C@_0BN@LFPFMEDL@?$GAvector?5destructor?5iterator?8?$AA@ 0000000180011b70     libvcruntime:undname.obj
 0001:00010b90       ??_C@_0CE@IKBNEHA@?$GAvector?5vbase?5constructor?5iterat@ 0000000180011b90     libvcruntime:undname.obj
 0001:00010bb8       ??_C@_0BL@NILFHHPC@?$GAvirtual?5displacement?5map?8?$AA@ 0000000180011bb8     libvcruntime:undname.obj
 0001:00010bd8       ??_C@_0CB@JONCMFFK@?$GAeh?5vector?5constructor?5iterator?8@ 0000000180011bd8     libvcruntime:undname.obj
 0001:00010c00       ??_C@_0CA@GCEOPDGL@?$GAeh?5vector?5destructor?5iterator?8?$AA@ 0000000180011c00     libvcruntime:undname.obj
 0001:00010c20       ??_C@_0CH@OOJPLCPH@?$GAeh?5vector?5vbase?5constructor?5ite@ 0000000180011c20     libvcruntime:undname.obj
 0001:00010c48       ??_C@_0BL@LLKPOHJI@?$GAcopy?5constructor?5closure?8?$AA@ 0000000180011c48     libvcruntime:undname.obj
 0001:00010c68       ??_C@_0BA@KBCDOMBN@?$GAudt?5returning?8?$AA@ 0000000180011c68     libvcruntime:undname.obj
 0001:00010c78       ??_C@_03KLGMFNMG@?$GAEH?$AA@ 0000000180011c78     libvcruntime:undname.obj
 0001:00010c7c       ??_C@_05KHLCHHI@?$GARTTI?$AA@ 0000000180011c7c     libvcruntime:undname.obj
 0001:00010c88       ??_C@_0BA@KKLDJDLB@?$GAlocal?5vftable?8?$AA@ 0000000180011c88     libvcruntime:undname.obj
 0001:00010c98       ??_C@_0CE@IIHCMGGL@?$GAlocal?5vftable?5constructor?5closu@ 0000000180011c98     libvcruntime:undname.obj
 0001:00010cbc       ??_C@_06FHBGPFGH@?5new?$FL?$FN?$AA@ 0000000180011cbc     libvcruntime:undname.obj
 0001:00010cc8       ??_C@_09LBNFPBCA@?5delete?$FL?$FN?$AA@ 0000000180011cc8     libvcruntime:undname.obj
 0001:00010cd8       ??_C@_0P@HJKNJFNN@?$GAomni?5callsig?8?$AA@ 0000000180011cd8     libvcruntime:undname.obj
 0001:00010ce8       ??_C@_0BL@CNOONJFP@?$GAplacement?5delete?5closure?8?$AA@ 0000000180011ce8     libvcruntime:undname.obj
 0001:00010d08       ??_C@_0BN@CKNJLHMB@?$GAplacement?5delete?$FL?$FN?5closure?8?$AA@ 0000000180011d08     libvcruntime:undname.obj
 0001:00010d28       ??_C@_0CG@CFDHKGGD@?$GAmanaged?5vector?5constructor?5iter@ 0000000180011d28     libvcruntime:undname.obj
 0001:00010d50       ??_C@_0CF@IMGKMJNO@?$GAmanaged?5vector?5destructor?5itera@ 0000000180011d50     libvcruntime:undname.obj
 0001:00010d78       ??_C@_0CG@HLDDJMAG@?$GAeh?5vector?5copy?5constructor?5iter@ 0000000180011d78     libvcruntime:undname.obj
 0001:00010da0       ??_C@_0CM@FCBBDIGB@?$GAeh?5vector?5vbase?5copy?5constructo@ 0000000180011da0     libvcruntime:undname.obj
 0001:00010dd0       ??_C@_0BL@CLIPGLGB@?$GAdynamic?5initializer?5for?5?8?$AA@ 0000000180011dd0     libvcruntime:undname.obj
 0001:00010df0       ??_C@_0CB@PDBIFEP@?$GAdynamic?5atexit?5destructor?5for?5?8@ 0000000180011df0     libvcruntime:undname.obj
 0001:00010e18       ??_C@_0CD@CGAJBKEJ@?$GAvector?5copy?5constructor?5iterato@ 0000000180011e18     libvcruntime:undname.obj
 0001:00010e40       ??_C@_0CJ@GJELGAMM@?$GAvector?5vbase?5copy?5constructor?5i@ 0000000180011e40     libvcruntime:undname.obj
 0001:00010e70       ??_C@_0CL@FGIJHLCE@?$GAmanaged?5vector?5copy?5constructor@ 0000000180011e70     libvcruntime:undname.obj
 0001:00010ea0       ??_C@_0BM@PMGGMLDN@?$GAlocal?5static?5thread?5guard?8?$AA@ 0000000180011ea0     libvcruntime:undname.obj
 0001:00010ec0       ??_C@_0N@BDNMDMOL@operator?5?$CC?$CC?5?$AA@ 0000000180011ec0     libvcruntime:undname.obj
 0001:000111f8       ??_C@_0BC@DAFEJGAK@?5Type?5Descriptor?8?$AA@ 00000001800121f8     libvcruntime:undname.obj
 0001:00011210       ??_C@_0BM@LDKODKLH@?5Base?5Class?5Descriptor?5at?5?$CI?$AA@ 0000000180012210     libvcruntime:undname.obj
 0001:00011230       ??_C@_0BD@LGICGFMM@?5Base?5Class?5Array?8?$AA@ 0000000180012230     libvcruntime:undname.obj
 0001:00011248       ??_C@_0BN@MECKDCOJ@?5Class?5Hierarchy?5Descriptor?8?$AA@ 0000000180012248     libvcruntime:undname.obj
 0001:00011268       ??_C@_0BK@CFCOFLF@?5Complete?5Object?5Locator?8?$AA@ 0000000180012268     libvcruntime:undname.obj
 0001:00011288       ??_C@_08EHJDFFNH@__based?$CI?$AA@ 0000000180012288     libvcruntime:undname.obj
 0001:00011298       ??_C@_07KOLFKCDI@__cdecl?$AA@ 0000000180012298     libvcruntime:undname.obj
 0001:000112a0       ??_C@_08GHMPAG@__pascal?$AA@ 00000001800122a0     libvcruntime:undname.obj
 0001:000112b0       ??_C@_09IFJBGAPI@__stdcall?$AA@ 00000001800122b0     libvcruntime:undname.obj
 0001:000112c0       ??_C@_0L@NPHFGOKO@__thiscall?$AA@ 00000001800122c0     libvcruntime:undname.obj
 0001:000112d0       ??_C@_0L@JMKHOMEK@__fastcall?$AA@ 00000001800122d0     libvcruntime:undname.obj
 0001:000112e0       ??_C@_0N@BCKKPABJ@__vectorcall?$AA@ 00000001800122e0     libvcruntime:undname.obj
 0001:000112f0       ??_C@_09HIJEGCPM@__clrcall?$AA@ 00000001800122f0     libvcruntime:undname.obj
 0001:000112fc       ??_C@_06GHPCKEAG@__eabi?$AA@ 00000001800122fc     libvcruntime:undname.obj
 0001:00011308       ??_C@_07JOMMBBKO@__ptr64?$AA@ 0000000180012308     libvcruntime:undname.obj
 0001:00011310       ??_C@_0L@PILCLIHE@__restrict?$AA@ 0000000180012310     libvcruntime:undname.obj
 0001:00011320       ??_C@_0M@GFIIJFMG@__unaligned?$AA@ 0000000180012320     libvcruntime:undname.obj
 0001:00011330       ??_C@_09DHDLOLLB@restrict?$CI?$AA@ 0000000180012330     libvcruntime:undname.obj
 0001:0001133c       ??_C@_04NIHEBCM@?5new?$AA@ 000000018001233c     libvcruntime:undname.obj
 0001:00011348       ??_C@_07FPCDHGMM@?5delete?$AA@ 0000000180012348     libvcruntime:undname.obj
 0001:00011350       ??_C@_01NEMOKFLO@?$DN?$AA@ 0000000180012350     libvcruntime:undname.obj
 0001:00011354       ??_C@_02GPIOPFAK@?$DO?$DO?$AA@ 0000000180012354     libvcruntime:undname.obj
 0001:00011358       ??_C@_02FODMEDOG@?$DM?$DM?$AA@ 0000000180012358     libvcruntime:undname.obj
 0001:0001135c       ??_C@_01DCLJPIOD@?$CB?$AA@ 000000018001235c     libvcruntime:undname.obj
 0001:00011360       ??_C@_02EGOFBIJA@?$DN?$DN?$AA@ 0000000180012360     libvcruntime:undname.obj
 0001:00011364       ??_C@_02FDNJECIE@?$CB?$DN?$AA@ 0000000180012364     libvcruntime:undname.obj
 0001:00011368       ??_C@_02GPECMEKF@?$FL?$FN?$AA@ 0000000180012368     libvcruntime:undname.obj
 0001:00011370       ??_C@_08LHJFAFGD@operator?$AA@ 0000000180012370     libvcruntime:undname.obj
 0001:0001137c       ??_C@_02HBOOOICD@?9?$DO?$AA@ 000000018001237c     libvcruntime:undname.obj
 0001:00011380       ??_C@_01NBENCBCI@?$CK?$AA@ 0000000180012380     libvcruntime:undname.obj
 0001:00011384       ??_C@_02ECNGHCIF@?$CL?$CL?$AA@ 0000000180012384     libvcruntime:undname.obj
 0001:00011388       ??_C@_02BAABKJLB@?9?9?$AA@ 0000000180012388     libvcruntime:undname.obj
 0001:00011390       standard_lookup_table      0000000180012390     libucrt:output.obj
 0001:000113ec       ??_C@_06OJHGLDPL@?$CInull?$CJ?$AA@ 00000001800123ec     libucrt:output.obj
 0001:000113f8       ??_C@_1O@CEDCILHN@?$AA?$CI?$AAn?$AAu?$AAl?$AAl?$AA?$CJ?$AA?$AA@ 00000001800123f8     libucrt:output.obj
 0001:00011580       ??_C@_0EA@FCLIIPNN@Visual?5C?$CL?$CL?5CRT?3?5Not?5enough?5memor@ 0000000180012580     libucrt:strerror.obj
 0001:00011610       ?large_power_data@?1??multiply_by_power_of_ten@__crt_strtox@@YA_NAEAUbig_integer@2@I@Z@4QBIB 0000000180012610     libucrt:input.obj
 0001:00011f20       ?large_power_indices@?1??multiply_by_power_of_ten@__crt_strtox@@YA_NAEAUbig_integer@2@I@Z@4QBUunpack_index@?1??12@YA_N0I@Z@B 0000000180012f20     libucrt:input.obj
 0001:00011fb8       ?small_powers_of_ten@?6??multiply_by_power_of_ten@__crt_strtox@@YA_NAEAUbig_integer@2@I@Z@4QBIB 0000000180012fb8     libucrt:input.obj
 0001:00011fe0       ??_C@_1GE@DPGDJKLM@?$AAm?$AAi?$AAn?$AAk?$AAe?$AAr?$AAn?$AAe?$AAl?$AA?2?$AAc?$AAr?$AAt?$AAs?$AA?2?$AAu?$AAc?$AAr?$AAt?$AA?2?$AAi?$AAn?$AAc?$AA?2?$AAc?$AAo?$AAr?$AAe?$AAc?$AAr?$AAt?$AA_@ 0000000180012fe0     libucrt:input.obj
 0001:00012050       ??_C@_1FM@FELNCOBF@?$AA_?$AA_?$AAc?$AAr?$AAt?$AA_?$AAs?$AAt?$AAr?$AAt?$AAo?$AAx?$AA?3?$AA?3?$AAf?$AAl?$AAo?$AAa?$AAt?$AAi?$AAn?$AAg?$AA_?$AAp?$AAo?$AAi?$AAn?$AAt?$AA_?$AAv?$AAa?$AAl@ 0000000180013050     libucrt:input.obj
 0001:000120b0       ??_C@_1BG@GEMHBGAF@?$AA_?$AAi?$AAs?$AA_?$AAd?$AAo?$AAu?$AAb?$AAl?$AAe?$AA?$AA@ 00000001800130b0     libucrt:input.obj
 0001:000120d0       ??_C@_1FK@JOJELFFO@?$AA_?$AA_?$AAc?$AAr?$AAt?$AA_?$AAs?$AAt?$AAr?$AAt?$AAo?$AAx?$AA?3?$AA?3?$AAf?$AAl?$AAo?$AAa?$AAt?$AAi?$AAn?$AAg?$AA_?$AAp?$AAo?$AAi?$AAn?$AAt?$AA_?$AAv?$AAa?$AAl@ 00000001800130d0     libucrt:input.obj
 0001:00012130       ??_C@_1BI@BANMPGJI@?$AA?$CB?$AA_?$AAi?$AAs?$AA_?$AAd?$AAo?$AAu?$AAb?$AAl?$AAe?$AA?$AA@ 0000000180013130     libucrt:input.obj
 0001:00012150       ?constraints@?1??is_length_valid@__crt_stdio_input@@YA_NW4conversion_mode@2@W4length_modifier@2@@Z@4QAY0M@$$CBEA 0000000180013150     libucrt:input.obj
 0001:000121c8       ?inf_uppercase@?2???$parse_floating_point_possible_infinity@DV?$input_adapter_character_source@V?$stream_input_adapter@D@__crt_stdio_input@@@__crt_strtox@@_K@__crt_strtox@@YA?AW4floating_point_parse_result@1@AEADAEAV?$input_adapter_character_source@V?$stream_input_adapter@D@__crt_stdio_input@@@1@_K@Z@4QBDB 00000001800131c8     libucrt:input.obj
 0001:000121cc       ?inf_lowercase@?2???$parse_floating_point_possible_infinity@DV?$input_adapter_character_source@V?$stream_input_adapter@D@__crt_stdio_input@@@__crt_strtox@@_K@__crt_strtox@@YA?AW4floating_point_parse_result@1@AEADAEAV?$input_adapter_character_source@V?$stream_input_adapter@D@__crt_stdio_input@@@1@_K@Z@4QBDB 00000001800131cc     libucrt:input.obj
 0001:000121d0       ?inity_uppercase@?5???$parse_floating_point_possible_infinity@DV?$input_adapter_character_source@V?$stream_input_adapter@D@__crt_stdio_input@@@__crt_strtox@@_K@__crt_strtox@@YA?AW4floating_point_parse_result@1@AEADAEAV?$input_adapter_character_source@V?$stream_input_adapter@D@__crt_stdio_input@@@1@_K@Z@4QBDB 00000001800131d0     libucrt:input.obj
 0001:000121d8       ?inity_lowercase@?5???$parse_floating_point_possible_infinity@DV?$input_adapter_character_source@V?$stream_input_adapter@D@__crt_stdio_input@@@__crt_strtox@@_K@__crt_strtox@@YA?AW4floating_point_parse_result@1@AEADAEAV?$input_adapter_character_source@V?$stream_input_adapter@D@__crt_stdio_input@@@1@_K@Z@4QBDB 00000001800131d8     libucrt:input.obj
 0001:000121e0       ?uppercase@?2???$parse_floating_point_possible_nan@DV?$input_adapter_character_source@V?$stream_input_adapter@D@__crt_stdio_input@@@__crt_strtox@@_K@__crt_strtox@@YA?AW4floating_point_parse_result@1@AEADAEAV?$input_adapter_character_source@V?$stream_input_adapter@D@__crt_stdio_input@@@1@_K@Z@4QBDB 00000001800131e0     libucrt:input.obj
 0001:000121e4       ?lowercase@?2???$parse_floating_point_possible_nan@DV?$input_adapter_character_source@V?$stream_input_adapter@D@__crt_stdio_input@@@__crt_strtox@@_K@__crt_strtox@@YA?AW4floating_point_parse_result@1@AEADAEAV?$input_adapter_character_source@V?$stream_input_adapter@D@__crt_stdio_input@@@1@_K@Z@4QBDB 00000001800131e4     libucrt:input.obj
 0001:000121e8       ?uppercase@?1???$parse_floating_point_possible_nan_is_snan@DV?$input_adapter_character_source@V?$stream_input_adapter@D@__crt_stdio_input@@@__crt_strtox@@@__crt_strtox@@YA_NAEADAEAV?$input_adapter_character_source@V?$stream_input_adapter@D@__crt_stdio_input@@@1@@Z@4QBDB 00000001800131e8     libucrt:input.obj
 0001:000121f0       ?lowercase@?1???$parse_floating_point_possible_nan_is_snan@DV?$input_adapter_character_source@V?$stream_input_adapter@D@__crt_stdio_input@@@__crt_strtox@@@__crt_strtox@@YA_NAEADAEAV?$input_adapter_character_source@V?$stream_input_adapter@D@__crt_stdio_input@@@1@@Z@4QBDB 00000001800131f0     libucrt:input.obj
 0001:000121f8       ?uppercase@?1???$parse_floating_point_possible_nan_is_ind@DV?$input_adapter_character_source@V?$stream_input_adapter@D@__crt_stdio_input@@@__crt_strtox@@@__crt_strtox@@YA_NAEADAEAV?$input_adapter_character_source@V?$stream_input_adapter@D@__crt_stdio_input@@@1@@Z@4QBDB 00000001800131f8     libucrt:input.obj
 0001:000121fc       ?lowercase@?1???$parse_floating_point_possible_nan_is_ind@DV?$input_adapter_character_source@V?$stream_input_adapter@D@__crt_stdio_input@@@__crt_strtox@@@__crt_strtox@@YA_NAEADAEAV?$input_adapter_character_source@V?$stream_input_adapter@D@__crt_stdio_input@@@1@@Z@4QBDB 00000001800131fc     libucrt:input.obj
 0001:00012230       __acrt_exception_action_table 0000000180013230     libucrt:exception_filter.obj
 0001:000122f0       __acrt_signal_action_table_count 00000001800132f0     libucrt:exception_filter.obj
 0001:000122f8       __acrt_signal_action_first_fpe_index 00000001800132f8     libucrt:exception_filter.obj
 0001:00012300       __acrt_signal_action_fpe_count 0000000180013300     libucrt:exception_filter.obj
 0001:00012308       ??_C@_1BI@BGOHAHKC@?$AAm?$AAs?$AAc?$AAo?$AAr?$AAe?$AAe?$AA?4?$AAd?$AAl?$AAl?$AA?$AA@ 0000000180013308     libucrt:exit.obj
 0001:00012320       ??_C@_0P@MIGLKIOC@CorExitProcess?$AA@ 0000000180013320     libucrt:exit.obj
 0001:00012420       ??_C@_03OEIAHPBN@INF?$AA@  0000000180013420     libucrt:cvt.obj
 0001:00012424       ??_C@_03OJHLLCGB@inf?$AA@  0000000180013424     libucrt:cvt.obj
 0001:00012428       ??_C@_03LKNCIKJB@NAN?$AA@  0000000180013428     libucrt:cvt.obj
 0001:0001242c       ??_C@_03LHCJEHON@nan?$AA@  000000018001342c     libucrt:cvt.obj
 0001:00012430       ??_C@_09OFJJIMPC@NAN?$CISNAN?$CJ?$AA@ 0000000180013430     libucrt:cvt.obj
 0001:00012440       ??_C@_09IPFBKMDL@nan?$CIsnan?$CJ?$AA@ 0000000180013440     libucrt:cvt.obj
 0001:00012450       ??_C@_08IKHNHAJ@NAN?$CIIND?$CJ?$AA@ 0000000180013450     libucrt:cvt.obj
 0001:00012460       ??_C@_08OFCDMILK@nan?$CIind?$CJ?$AA@ 0000000180013460     libucrt:cvt.obj
 0001:0001246c       ??_C@_05KLBDPFGC@e?$CL000?$AA@ 000000018001346c     libucrt:cvt.obj
 0001:00012480       __lc_time_c                0000000180013480     libucrt:nlsdata.obj
 0001:00012740       ??_C@_03KOEHGMDN@Sun?$AA@  0000000180013740     libucrt:nlsdata.obj
 0001:00012744       ??_C@_03PDAGKDH@Mon?$AA@   0000000180013744     libucrt:nlsdata.obj
 0001:00012748       ??_C@_03NAGEINEP@Tue?$AA@  0000000180013748     libucrt:nlsdata.obj
 0001:0001274c       ??_C@_03MHOMLAJA@Wed?$AA@  000000018001374c     libucrt:nlsdata.obj
 0001:00012750       ??_C@_03IOFIKPDN@Thu?$AA@  0000000180013750     libucrt:nlsdata.obj
 0001:00012754       ??_C@_03IDIOELNC@Fri?$AA@  0000000180013754     libucrt:nlsdata.obj
 0001:00012758       ??_C@_03FEFJNEK@Sat?$AA@   0000000180013758     libucrt:nlsdata.obj
 0001:0001275c       ??_C@_06OOPIFAJ@Sunday?$AA@ 000000018001375c     libucrt:nlsdata.obj
 0001:00012764       ??_C@_06JLEDEDGH@Monday?$AA@ 0000000180013764     libucrt:nlsdata.obj
 0001:00012770       ??_C@_07BAAGCFCM@Tuesday?$AA@ 0000000180013770     libucrt:nlsdata.obj
 0001:00012778       ??_C@_09DLIGFAKA@Wednesday?$AA@ 0000000180013778     libucrt:nlsdata.obj
 0001:00012788       ??_C@_08HACCIKIA@Thursday?$AA@ 0000000180013788     libucrt:nlsdata.obj
 0001:00012794       ??_C@_06JECMNKMI@Friday?$AA@ 0000000180013794     libucrt:nlsdata.obj
 0001:000127a0       ??_C@_08INBOOONO@Saturday?$AA@ 00000001800137a0     libucrt:nlsdata.obj
 0001:000127ac       ??_C@_03JIHJHPIE@Jan?$AA@  00000001800137ac     libucrt:nlsdata.obj
 0001:000127b0       ??_C@_03HJBDCHOM@Feb?$AA@  00000001800137b0     libucrt:nlsdata.obj
 0001:000127b4       ??_C@_03ODNJBKGA@Mar?$AA@  00000001800137b4     libucrt:nlsdata.obj
 0001:000127b8       ??_C@_03LEOLGMJP@Apr?$AA@  00000001800137b8     libucrt:nlsdata.obj
 0001:000127bc       ??_C@_03CNMDKL@May?$AA@    00000001800137bc     libucrt:nlsdata.obj
 0001:000127c0       ??_C@_03IDFGHECI@Jun?$AA@  00000001800137c0     libucrt:nlsdata.obj
 0001:000127c4       ??_C@_03LBGABGKK@Jul?$AA@  00000001800137c4     libucrt:nlsdata.obj
 0001:000127c8       ??_C@_03IFJFEIGA@Aug?$AA@  00000001800137c8     libucrt:nlsdata.obj
 0001:000127cc       ??_C@_03GGCAPAJC@Sep?$AA@  00000001800137cc     libucrt:nlsdata.obj
 0001:000127d0       ??_C@_03BMAOKBAD@Oct?$AA@  00000001800137d0     libucrt:nlsdata.obj
 0001:000127d4       ??_C@_03JPJOFNIA@Nov?$AA@  00000001800137d4     libucrt:nlsdata.obj
 0001:000127d8       ??_C@_03MKABNOCG@Dec?$AA@  00000001800137d8     libucrt:nlsdata.obj
 0001:000127e0       ??_C@_07CGJPFGJA@January?$AA@ 00000001800137e0     libucrt:nlsdata.obj
 0001:000127e8       ??_C@_08GNJGEPFN@February?$AA@ 00000001800137e8     libucrt:nlsdata.obj
 0001:000127f4       ??_C@_05HPCKOFNC@March?$AA@ 00000001800137f4     libucrt:nlsdata.obj
 0001:000127fc       ??_C@_05DMJDNLEJ@April?$AA@ 00000001800137fc     libucrt:nlsdata.obj
 0001:00012804       ??_C@_04CNLMGBGM@June?$AA@ 0000000180013804     libucrt:nlsdata.obj
 0001:0001280c       ??_C@_04MIEPOIFP@July?$AA@ 000000018001380c     libucrt:nlsdata.obj
 0001:00012814       ??_C@_06LBBHFDDG@August?$AA@ 0000000180013814     libucrt:nlsdata.obj
 0001:00012820       ??_C@_09BHHEALKD@September?$AA@ 0000000180013820     libucrt:nlsdata.obj
 0001:00012830       ??_C@_07JJNFCEND@October?$AA@ 0000000180013830     libucrt:nlsdata.obj
 0001:00012838       ??_C@_08HCHEGEOA@November?$AA@ 0000000180013838     libucrt:nlsdata.obj
 0001:00012848       ??_C@_08EDHMEBNP@December?$AA@ 0000000180013848     libucrt:nlsdata.obj
 0001:00012854       ??_C@_02DEDBPAFC@AM?$AA@   0000000180013854     libucrt:nlsdata.obj
 0001:00012858       ??_C@_02CJNFDJBF@PM?$AA@   0000000180013858     libucrt:nlsdata.obj
 0001:00012860       ??_C@_08BPBNCDIB@MM?1dd?1yy?$AA@ 0000000180013860     libucrt:nlsdata.obj
 0001:00012870       ??_C@_0BE@CKGJFCPC@dddd?0?5MMMM?5dd?0?5yyyy?$AA@ 0000000180013870     libucrt:nlsdata.obj
 0001:00012888       ??_C@_08JCCMCCIL@HH?3mm?3ss?$AA@ 0000000180013888     libucrt:nlsdata.obj
 0001:00012898       ??_C@_17MBGCMIPB@?$AAS?$AAu?$AAn?$AA?$AA@ 0000000180013898     libucrt:nlsdata.obj
 0001:000128a0       ??_C@_17KBOMKBF@?$AAM?$AAo?$AAn?$AA?$AA@ 00000001800138a0     libucrt:nlsdata.obj
 0001:000128a8       ??_C@_17BMKGEGOJ@?$AAT?$AAu?$AAe?$AA?$AA@ 00000001800138a8     libucrt:nlsdata.obj
 0001:000128b0       ??_C@_17CJEDCEPE@?$AAW?$AAe?$AAd?$AA?$AA@ 00000001800138b0     libucrt:nlsdata.obj
 0001:000128b8       ??_C@_17PDPHAADD@?$AAT?$AAh?$AAu?$AA?$AA@ 00000001800138b8     libucrt:nlsdata.obj
 0001:000128c0       ??_C@_17HFOLPPLP@?$AAF?$AAr?$AAi?$AA?$AA@ 00000001800138c0     libucrt:nlsdata.obj
 0001:000128c8       ??_C@_17GGIBDPIH@?$AAS?$AAa?$AAt?$AA?$AA@ 00000001800138c8     libucrt:nlsdata.obj
 0001:000128d0       ??_C@_1O@IHNHDHPB@?$AAS?$AAu?$AAn?$AAd?$AAa?$AAy?$AA?$AA@ 00000001800138d0     libucrt:nlsdata.obj
 0001:000128e0       ??_C@_1O@MMNBFLIA@?$AAM?$AAo?$AAn?$AAd?$AAa?$AAy?$AA?$AA@ 00000001800138e0     libucrt:nlsdata.obj
 0001:000128f0       ??_C@_1BA@ENFBFFEK@?$AAT?$AAu?$AAe?$AAs?$AAd?$AAa?$AAy?$AA?$AA@ 00000001800138f0     libucrt:nlsdata.obj
 0001:00012900       ??_C@_1BE@EBOGMDOH@?$AAW?$AAe?$AAd?$AAn?$AAe?$AAs?$AAd?$AAa?$AAy?$AA?$AA@ 0000000180013900     libucrt:nlsdata.obj
 0001:00012918       ??_C@_1BC@HHMNLIHE@?$AAT?$AAh?$AAu?$AAr?$AAs?$AAd?$AAa?$AAy?$AA?$AA@ 0000000180013918     libucrt:nlsdata.obj
 0001:00012930       ??_C@_1O@PDICJHAG@?$AAF?$AAr?$AAi?$AAd?$AAa?$AAy?$AA?$AA@ 0000000180013930     libucrt:nlsdata.obj
 0001:00012940       ??_C@_1BC@ENMNNPAJ@?$AAS?$AAa?$AAt?$AAu?$AAr?$AAd?$AAa?$AAy?$AA?$AA@ 0000000180013940     libucrt:nlsdata.obj
 0001:00012958       ??_C@_17DKNBKCHM@?$AAJ?$AAa?$AAn?$AA?$AA@ 0000000180013958     libucrt:nlsdata.obj
 0001:00012960       ??_C@_17LMDJEKJN@?$AAF?$AAe?$AAb?$AA?$AA@ 0000000180013960     libucrt:nlsdata.obj
 0001:00012968       ??_C@_17CKNLEDEC@?$AAM?$AAa?$AAr?$AA?$AA@ 0000000180013968     libucrt:nlsdata.obj
 0001:00012970       ??_C@_17LFPOIHDD@?$AAA?$AAp?$AAr?$AA?$AA@ 0000000180013970     libucrt:nlsdata.obj
 0001:00012978       ??_C@_17PNNKMEED@?$AAM?$AAa?$AAy?$AA?$AA@ 0000000180013978     libucrt:nlsdata.obj
 0001:00012980       ??_C@_17KCJGOCPB@?$AAJ?$AAu?$AAn?$AA?$AA@ 0000000180013980     libucrt:nlsdata.obj
 0001:00012988       ??_C@_17IJPCKHK@?$AAJ?$AAu?$AAl?$AA?$AA@ 0000000180013988     libucrt:nlsdata.obj
 0001:00012990       ??_C@_17ICPELBCN@?$AAA?$AAu?$AAg?$AA?$AA@ 0000000180013990     libucrt:nlsdata.obj
 0001:00012998       ??_C@_17HCHCOKMG@?$AAS?$AAe?$AAp?$AA?$AA@ 0000000180013998     libucrt:nlsdata.obj
 0001:000129a0       ??_C@_17FNLKOI@?$AAO?$AAc?$AAt?$AA?$AA@ 00000001800139a0     libucrt:nlsdata.obj
 0001:000129a8       ??_C@_17BBDMLCIG@?$AAN?$AAo?$AAv?$AA?$AA@ 00000001800139a8     libucrt:nlsdata.obj
 0001:000129b0       ??_C@_17EGKACKIF@?$AAD?$AAe?$AAc?$AA?$AA@ 00000001800139b0     libucrt:nlsdata.obj
 0001:000129b8       ??_C@_1BA@EFMEIEBA@?$AAJ?$AAa?$AAn?$AAu?$AAa?$AAr?$AAy?$AA?$AA@ 00000001800139b8     libucrt:nlsdata.obj
 0001:000129c8       ??_C@_1BC@JGDDFFAM@?$AAF?$AAe?$AAb?$AAr?$AAu?$AAa?$AAr?$AAy?$AA?$AA@ 00000001800139c8     libucrt:nlsdata.obj
 0001:000129e0       ??_C@_1M@IKEENEDF@?$AAM?$AAa?$AAr?$AAc?$AAh?$AA?$AA@ 00000001800139e0     libucrt:nlsdata.obj
 0001:000129f0       ??_C@_1M@GJNLMHFD@?$AAA?$AAp?$AAr?$AAi?$AAl?$AA?$AA@ 00000001800139f0     libucrt:nlsdata.obj
 0001:00012a00       ??_C@_19EPFLPGAP@?$AAJ?$AAu?$AAn?$AAe?$AA?$AA@ 0000000180013a00     libucrt:nlsdata.obj
 0001:00012a10       ??_C@_19BIFMLPCD@?$AAJ?$AAu?$AAl?$AAy?$AA?$AA@ 0000000180013a10     libucrt:nlsdata.obj
 0001:00012a20       ??_C@_1O@PAHLKOAC@?$AAA?$AAu?$AAg?$AAu?$AAs?$AAt?$AA?$AA@ 0000000180013a20     libucrt:nlsdata.obj
 0001:00012a30       ??_C@_1BE@DKAAMBJL@?$AAS?$AAe?$AAp?$AAt?$AAe?$AAm?$AAb?$AAe?$AAr?$AA?$AA@ 0000000180013a30     libucrt:nlsdata.obj
 0001:00012a48       ??_C@_1BA@EPANDLNG@?$AAO?$AAc?$AAt?$AAo?$AAb?$AAe?$AAr?$AA?$AA@ 0000000180013a48     libucrt:nlsdata.obj
 0001:00012a58       ??_C@_1BC@BGLIFPF@?$AAN?$AAo?$AAv?$AAe?$AAm?$AAb?$AAe?$AAr?$AA?$AA@ 0000000180013a58     libucrt:nlsdata.obj
 0001:00012a70       ??_C@_1BC@FEMKIFH@?$AAD?$AAe?$AAc?$AAe?$AAm?$AAb?$AAe?$AAr?$AA?$AA@ 0000000180013a70     libucrt:nlsdata.obj
 0001:00012a84       ??_C@_15ODEHAHHF@?$AAA?$AAM?$AA?$AA@ 0000000180013a84     libucrt:nlsdata.obj
 0001:00012a8c       ??_C@_15CLMNNGEL@?$AAP?$AAM?$AA?$AA@ 0000000180013a8c     libucrt:nlsdata.obj
 0001:00012a98       ??_C@_1BC@IEBCMHCM@?$AAM?$AAM?$AA?1?$AAd?$AAd?$AA?1?$AAy?$AAy?$AA?$AA@ 0000000180013a98     libucrt:nlsdata.obj
 0001:00012ab0       ??_C@_1CI@KNAKOEBC@?$AAd?$AAd?$AAd?$AAd?$AA?0?$AA?5?$AAM?$AAM?$AAM?$AAM?$AA?5?$AAd?$AAd?$AA?0?$AA?5?$AAy?$AAy?$AAy?$AAy?$AA?$AA@ 0000000180013ab0     libucrt:nlsdata.obj
 0001:00012ad8       ??_C@_1BC@GDGBMEMK@?$AAH?$AAH?$AA?3?$AAm?$AAm?$AA?3?$AAs?$AAs?$AA?$AA@ 0000000180013ad8     libucrt:nlsdata.obj
 0001:00012af0       ??_C@_1M@BMHNFIME@?$AAe?$AAn?$AA?9?$AAU?$AAS?$AA?$AA@ 0000000180013af0     libucrt:nlsdata.obj
 0001:00012afc       ?ccs@?BL@???$__acrt_stdio_parse_mode@_W@@YA?AU__acrt_stdio_stream_mode@@QEB_W@Z@4QB_WB 0000000180013afc     libucrt:openfile.obj
 0001:00012b08       ?utf8_encoding@?BL@???$__acrt_stdio_parse_mode@_W@@YA?AU__acrt_stdio_stream_mode@@QEB_W@Z@4QB_WB 0000000180013b08     libucrt:openfile.obj
 0001:00012b18       ?utf16_encoding@?BL@???$__acrt_stdio_parse_mode@_W@@YA?AU__acrt_stdio_stream_mode@@QEB_W@Z@4QB_WB 0000000180013b18     libucrt:openfile.obj
 0001:00012b28       ?unicode_encoding@?BL@???$__acrt_stdio_parse_mode@_W@@YA?AU__acrt_stdio_stream_mode@@QEB_W@Z@4QB_WB 0000000180013b28     libucrt:openfile.obj
 0001:00012b50       _sys_errlist               0000000180013b50     libucrt:syserr.obj
 0001:00012cb0       ??_C@_08INEPGKHH@No?5error?$AA@ 0000000180013cb0     libucrt:syserr.obj
 0001:00012cc0       ??_C@_0BI@BJFCGOHL@Operation?5not?5permitted?$AA@ 0000000180013cc0     libucrt:syserr.obj
 0001:00012cd8       ??_C@_0BK@FMDHKPNF@No?5such?5file?5or?5directory?$AA@ 0000000180013cd8     libucrt:syserr.obj
 0001:00012cf8       ??_C@_0BA@FKIAIBGA@No?5such?5process?$AA@ 0000000180013cf8     libucrt:syserr.obj
 0001:00012d08       ??_C@_0BK@FJBOAFDK@Interrupted?5function?5call?$AA@ 0000000180013d08     libucrt:syserr.obj
 0001:00012d28       ??_C@_0BD@KKNFOBBD@Input?1output?5error?$AA@ 0000000180013d28     libucrt:syserr.obj
 0001:00012d40       ??_C@_0BK@DPKMCKJ@No?5such?5device?5or?5address?$AA@ 0000000180013d40     libucrt:syserr.obj
 0001:00012d60       ??_C@_0BC@MFFGCDFL@Arg?5list?5too?5long?$AA@ 0000000180013d60     libucrt:syserr.obj
 0001:00012d78       ??_C@_0BC@HKPNECK@Exec?5format?5error?$AA@ 0000000180013d78     libucrt:syserr.obj
 0001:00012d90       ??_C@_0BE@NFGDDCEF@Bad?5file?5descriptor?$AA@ 0000000180013d90     libucrt:syserr.obj
 0001:00012da8       ??_C@_0BD@LOHELEP@No?5child?5processes?$AA@ 0000000180013da8     libucrt:syserr.obj
 0001:00012dc0       ??_C@_0CB@EPFKGNAK@Resource?5temporarily?5unavailable@ 0000000180013dc0     libucrt:syserr.obj
 0001:00012de8       ??_C@_0BB@IMDKMPFB@Not?5enough?5space?$AA@ 0000000180013de8     libucrt:syserr.obj
 0001:00012e00       ??_C@_0BC@HFNFNKAI@Permission?5denied?$AA@ 0000000180013e00     libucrt:syserr.obj
 0001:00012e18       ??_C@_0M@LOEHLCJD@Bad?5address?$AA@ 0000000180013e18     libucrt:syserr.obj
 0001:00012e28       ??_C@_0O@NIPGCINC@Unknown?5error?$AA@ 0000000180013e28     libucrt:syserr.obj
 0001:00012e38       ??_C@_0BA@BIBLIOEK@Resource?5device?$AA@ 0000000180013e38     libucrt:syserr.obj
 0001:00012e48       ??_C@_0M@NAAJNNGH@File?5exists?$AA@ 0000000180013e48     libucrt:syserr.obj
 0001:00012e58       ??_C@_0O@OAMDNOCP@Improper?5link?$AA@ 0000000180013e58     libucrt:syserr.obj
 0001:00012e68       ??_C@_0P@NLEIANHE@No?5such?5device?$AA@ 0000000180013e68     libucrt:syserr.obj
 0001:00012e78       ??_C@_0BA@CJBACOOL@Not?5a?5directory?$AA@ 0000000180013e78     libucrt:syserr.obj
 0001:00012e88       ??_C@_0P@NDHGCGKE@Is?5a?5directory?$AA@ 0000000180013e88     libucrt:syserr.obj
 0001:00012e98       ??_C@_0BB@HMGGCEBG@Invalid?5argument?$AA@ 0000000180013e98     libucrt:syserr.obj
 0001:00012eb0       ??_C@_0BO@IIFBODJE@Too?5many?5open?5files?5in?5system?$AA@ 0000000180013eb0     libucrt:syserr.obj
 0001:00012ed0       ??_C@_0BE@INBJMKGG@Too?5many?5open?5files?$AA@ 0000000180013ed0     libucrt:syserr.obj
 0001:00012ee8       ??_C@_0CE@ONOKNLPF@Inappropriate?5I?1O?5control?5operat@ 0000000180013ee8     libucrt:syserr.obj
 0001:00012f10       ??_C@_0P@LFMMIPAE@File?5too?5large?$AA@ 0000000180013f10     libucrt:syserr.obj
 0001:00012f20       ??_C@_0BI@FEALHKLD@No?5space?5left?5on?5device?$AA@ 0000000180013f20     libucrt:syserr.obj
 0001:00012f38       ??_C@_0N@FEHLOILP@Invalid?5seek?$AA@ 0000000180013f38     libucrt:syserr.obj
 0001:00012f48       ??_C@_0BG@DDBFNKBH@Read?9only?5file?5system?$AA@ 0000000180013f48     libucrt:syserr.obj
 0001:00012f60       ??_C@_0P@PKCJJLLM@Too?5many?5links?$AA@ 0000000180013f60     libucrt:syserr.obj
 0001:00012f70       ??_C@_0M@LHEPIIOM@Broken?5pipe?$AA@ 0000000180013f70     libucrt:syserr.obj
 0001:00012f80       ??_C@_0N@MMJPGLJK@Domain?5error?$AA@ 0000000180013f80     libucrt:syserr.obj
 0001:00012f90       ??_C@_0BB@FCBJFCAJ@Result?5too?5large?$AA@ 0000000180013f90     libucrt:syserr.obj
 0001:00012fa8       ??_C@_0BK@JAEBMJJM@Resource?5deadlock?5avoided?$AA@ 0000000180013fa8     libucrt:syserr.obj
 0001:00012fc8       ??_C@_0BC@BEDIHIDK@Filename?5too?5long?$AA@ 0000000180013fc8     libucrt:syserr.obj
 0001:00012fe0       ??_C@_0BD@CLHBCGPB@No?5locks?5available?$AA@ 0000000180013fe0     libucrt:syserr.obj
 0001:00012ff8       ??_C@_0BJ@IHEHINLI@Function?5not?5implemented?$AA@ 0000000180013ff8     libucrt:syserr.obj
 0001:00013018       ??_C@_0BE@ICMCHPHH@Directory?5not?5empty?$AA@ 0000000180014018     libucrt:syserr.obj
 0001:00013030       ??_C@_0BG@KLEAJEFJ@Illegal?5byte?5sequence?$AA@ 0000000180014030     libucrt:syserr.obj
 0001:00013048       _sys_nerr                  0000000180014048     libucrt:syserr.obj
 0001:000130f0       ??_C@_1EG@CNNIPFIM@?$AAa?$AAp?$AAi?$AA?9?$AAm?$AAs?$AA?9?$AAw?$AAi?$AAn?$AA?9?$AAa?$AAp?$AAp?$AAm?$AAo?$AAd?$AAe?$AAl?$AA?9?$AAr?$AAu?$AAn?$AAt?$AAi?$AAm?$AAe?$AA?9?$AAl?$AA1?$AA?9?$AA1@ 00000001800140f0     libucrt:winapi_thunks.obj
 0001:00013140       ??_C@_1EA@JGEFHKEI@?$AAa?$AAp?$AAi?$AA?9?$AAm?$AAs?$AA?9?$AAw?$AAi?$AAn?$AA?9?$AAc?$AAo?$AAr?$AAe?$AA?9?$AAd?$AAa?$AAt?$AAe?$AAt?$AAi?$AAm?$AAe?$AA?9?$AAl?$AA1?$AA?9?$AA1?$AA?9?$AA1?$AA?$AA@ 0000000180014140     libucrt:winapi_thunks.obj
 0001:00013180       ??_C@_1DI@GCIAAENM@?$AAa?$AAp?$AAi?$AA?9?$AAm?$AAs?$AA?9?$AAw?$AAi?$AAn?$AA?9?$AAc?$AAo?$AAr?$AAe?$AA?9?$AAf?$AAi?$AAl?$AAe?$AA?9?$AAl?$AA2?$AA?9?$AA1?$AA?9?$AA1?$AA?$AA@ 0000000180014180     libucrt:winapi_thunks.obj
 0001:000131c0       ??_C@_1EI@MPIAOHOC@?$AAa?$AAp?$AAi?$AA?9?$AAm?$AAs?$AA?9?$AAw?$AAi?$AAn?$AA?9?$AAc?$AAo?$AAr?$AAe?$AA?9?$AAl?$AAo?$AAc?$AAa?$AAl?$AAi?$AAz?$AAa?$AAt?$AAi?$AAo?$AAn?$AA?9?$AAl?$AA1?$AA?9@ 00000001800141c0     libucrt:winapi_thunks.obj
 0001:00013210       ??_C@_1FK@FPHCKFIE@?$AAa?$AAp?$AAi?$AA?9?$AAm?$AAs?$AA?9?$AAw?$AAi?$AAn?$AA?9?$AAc?$AAo?$AAr?$AAe?$AA?9?$AAl?$AAo?$AAc?$AAa?$AAl?$AAi?$AAz?$AAa?$AAt?$AAi?$AAo?$AAn?$AA?9?$AAo?$AAb?$AAs@ 0000000180014210     libucrt:winapi_thunks.obj
 0001:00013270       ??_C@_1EM@DILCGIIO@?$AAa?$AAp?$AAi?$AA?9?$AAm?$AAs?$AA?9?$AAw?$AAi?$AAn?$AA?9?$AAc?$AAo?$AAr?$AAe?$AA?9?$AAp?$AAr?$AAo?$AAc?$AAe?$AAs?$AAs?$AAt?$AAh?$AAr?$AAe?$AAa?$AAd?$AAs?$AA?9?$AAl@ 0000000180014270     libucrt:winapi_thunks.obj
 0001:000132c0       ??_C@_1DM@LNCGDDPN@?$AAa?$AAp?$AAi?$AA?9?$AAm?$AAs?$AA?9?$AAw?$AAi?$AAn?$AA?9?$AAc?$AAo?$AAr?$AAe?$AA?9?$AAs?$AAt?$AAr?$AAi?$AAn?$AAg?$AA?9?$AAl?$AA1?$AA?9?$AA1?$AA?9?$AA0?$AA?$AA@ 00000001800142c0     libucrt:winapi_thunks.obj
 0001:00013300       ??_C@_1DO@FPAPJEMD@?$AAa?$AAp?$AAi?$AA?9?$AAm?$AAs?$AA?9?$AAw?$AAi?$AAn?$AA?9?$AAc?$AAo?$AAr?$AAe?$AA?9?$AAs?$AAy?$AAs?$AAi?$AAn?$AAf?$AAo?$AA?9?$AAl?$AA1?$AA?9?$AA2?$AA?9?$AA1?$AA?$AA@ 0000000180014300     libucrt:winapi_thunks.obj
 0001:00013340       ??_C@_1DK@NDHNAHIO@?$AAa?$AAp?$AAi?$AA?9?$AAm?$AAs?$AA?9?$AAw?$AAi?$AAn?$AA?9?$AAc?$AAo?$AAr?$AAe?$AA?9?$AAw?$AAi?$AAn?$AAr?$AAt?$AA?9?$AAl?$AA1?$AA?9?$AA1?$AA?9?$AA0?$AA?$AA@ 0000000180014340     libucrt:winapi_thunks.obj
 0001:00013380       ??_C@_1DM@KGHDGBCM@?$AAa?$AAp?$AAi?$AA?9?$AAm?$AAs?$AA?9?$AAw?$AAi?$AAn?$AA?9?$AAc?$AAo?$AAr?$AAe?$AA?9?$AAx?$AAs?$AAt?$AAa?$AAt?$AAe?$AA?9?$AAl?$AA2?$AA?9?$AA1?$AA?9?$AA0?$AA?$AA@ 0000000180014380     libucrt:winapi_thunks.obj
 0001:000133c0       ??_C@_1EO@IJIOEFOH@?$AAa?$AAp?$AAi?$AA?9?$AAm?$AAs?$AA?9?$AAw?$AAi?$AAn?$AA?9?$AAr?$AAt?$AAc?$AAo?$AAr?$AAe?$AA?9?$AAn?$AAt?$AAu?$AAs?$AAe?$AAr?$AA?9?$AAw?$AAi?$AAn?$AAd?$AAo?$AAw?$AA?9@ 00000001800143c0     libucrt:winapi_thunks.obj
 0001:00013410       ??_C@_1FG@HHGEKANL@?$AAa?$AAp?$AAi?$AA?9?$AAm?$AAs?$AA?9?$AAw?$AAi?$AAn?$AA?9?$AAs?$AAe?$AAc?$AAu?$AAr?$AAi?$AAt?$AAy?$AA?9?$AAs?$AAy?$AAs?$AAt?$AAe?$AAm?$AAf?$AAu?$AAn?$AAc?$AAt?$AAi@ 0000000180014410     libucrt:winapi_thunks.obj
 0001:00013470       ??_C@_1FG@NCKKOLKO@?$AAe?$AAx?$AAt?$AA?9?$AAm?$AAs?$AA?9?$AAw?$AAi?$AAn?$AA?9?$AAk?$AAe?$AAr?$AAn?$AAe?$AAl?$AA3?$AA2?$AA?9?$AAp?$AAa?$AAc?$AAk?$AAa?$AAg?$AAe?$AA?9?$AAc?$AAu?$AAr?$AAr@ 0000000180014470     libucrt:winapi_thunks.obj
 0001:000134d0       ??_C@_1EG@DBIOJECG@?$AAe?$AAx?$AAt?$AA?9?$AAm?$AAs?$AA?9?$AAw?$AAi?$AAn?$AA?9?$AAn?$AAt?$AAu?$AAs?$AAe?$AAr?$AA?9?$AAd?$AAi?$AAa?$AAl?$AAo?$AAg?$AAb?$AAo?$AAx?$AA?9?$AAl?$AA1?$AA?9?$AA1@ 00000001800144d0     libucrt:winapi_thunks.obj
 0001:00013520       ??_C@_1EO@FIHMJCLF@?$AAe?$AAx?$AAt?$AA?9?$AAm?$AAs?$AA?9?$AAw?$AAi?$AAn?$AA?9?$AAn?$AAt?$AAu?$AAs?$AAe?$AAr?$AA?9?$AAw?$AAi?$AAn?$AAd?$AAo?$AAw?$AAs?$AAt?$AAa?$AAt?$AAi?$AAo?$AAn?$AA?9@ 0000000180014520     libucrt:winapi_thunks.obj
 0001:00013570       ??_C@_1O@BCCLBEOE@?$AAu?$AAs?$AAe?$AAr?$AA3?$AA2?$AA?$AA@ 0000000180014570     libucrt:winapi_thunks.obj
 0001:00013588       ??_C@_0BA@FHFNEAED@AreFileApisANSI?$AA@ 0000000180014588     libucrt:winapi_thunks.obj
 0001:000135a0       ??_C@_0BA@IHGNDAEB@CompareStringEx?$AA@ 00000001800145a0     libucrt:winapi_thunks.obj
 0001:000135d8       ??_C@_0BE@JOGNEJCI@GetCurrentPackageId?$AA@ 00000001800145d8     libucrt:winapi_thunks.obj
 0001:00013600       ??_C@_0O@KKBNKAPF@LCMapStringEx?$AA@ 0000000180014600     libucrt:winapi_thunks.obj
 0001:00013618       ??_C@_0BB@HBDEELFH@LocaleNameToLCID?$AA@ 0000000180014618     libucrt:winapi_thunks.obj
 0001:00013630       __newctype                 0000000180014630     libucrt:ctype.obj
 0001:00013930       __newclmap                 0000000180014930     libucrt:ctype.obj
 0001:00013ab0       __newcumap                 0000000180014ab0     libucrt:ctype.obj
 0001:00013c30       _wctype                    0000000180014c30     libucrt:ctype.obj
 0001:00013e88       ??_C@_1M@HPNHIDJI@?$AAj?$AAa?$AA?9?$AAJ?$AAP?$AA?$AA@ 0000000180014e88     libucrt:mbctype.obj
 0001:00013e98       ??_C@_1M@BIBDDEMK@?$AAz?$AAh?$AA?9?$AAC?$AAN?$AA?$AA@ 0000000180014e98     libucrt:mbctype.obj
 0001:00013ea8       ??_C@_1M@JLOOOEGK@?$AAk?$AAo?$AA?9?$AAK?$AAR?$AA?$AA@ 0000000180014ea8     libucrt:mbctype.obj
 0001:00013eb8       ??_C@_1M@CLNBBOPM@?$AAz?$AAh?$AA?9?$AAT?$AAW?$AA?$AA@ 0000000180014eb8     libucrt:mbctype.obj
 0001:00013ec4       ??_C@_05DNEBIAHO@1?$CDINF?$AA@ 0000000180014ec4     libucrt:cfout.obj
 0001:00013ecc       ??_C@_06IMKFLFPG@1?$CDQNAN?$AA@ 0000000180014ecc     libucrt:cfout.obj
 0001:00013ed4       ??_C@_06PGGFOGJG@1?$CDSNAN?$AA@ 0000000180014ed4     libucrt:cfout.obj
 0001:00013edc       ??_C@_05PHHOCPM@1?$CDIND?$AA@ 0000000180014edc     libucrt:cfout.obj
 0001:00013ee4       ??_C@_15PJPFLCCM@?$AAu?$AAk?$AA?$AA@ 0000000180014ee4     libucrt:get_qualified_locale.obj
 0001:00014d30       ??_C@_15EMKDOKLE@?$AAa?$AAr?$AA?$AA@ 0000000180015d30     libucrt:lcidtoname_downlevel.obj
 0001:00014d38       ??_C@_15KNPADPLH@?$AAb?$AAg?$AA?$AA@ 0000000180015d38     libucrt:lcidtoname_downlevel.obj
 0001:00014d40       ??_C@_15EDMHLDMO@?$AAc?$AAa?$AA?$AA@ 0000000180015d40     libucrt:lcidtoname_downlevel.obj
 0001:00014d48       ??_C@_1O@BPEAJADD@?$AAz?$AAh?$AA?9?$AAC?$AAH?$AAS?$AA?$AA@ 0000000180015d48     libucrt:lcidtoname_downlevel.obj
 0001:00014d58       ??_C@_15LJNHCMNK@?$AAc?$AAs?$AA?$AA@ 0000000180015d58     libucrt:lcidtoname_downlevel.obj
 0001:00014d60       ??_C@_15FOMCIDHG@?$AAd?$AAa?$AA?$AA@ 0000000180015d60     libucrt:lcidtoname_downlevel.obj
 0001:00014d68       ??_C@_15NBKABECB@?$AAd?$AAe?$AA?$AA@ 0000000180015d68     libucrt:lcidtoname_downlevel.obj
 0001:00014d70       ??_C@_15GHPEIIAO@?$AAe?$AAl?$AA?$AA@ 0000000180015d70     libucrt:lcidtoname_downlevel.obj
 0001:00014d78       ??_C@_15MNPNEAIF@?$AAe?$AAn?$AA?$AA@ 0000000180015d78     libucrt:lcidtoname_downlevel.obj
 0001:00014d80       ??_C@_15GPIOMPMH@?$AAe?$AAs?$AA?$AA@ 0000000180015d80     libucrt:lcidtoname_downlevel.obj
 0001:00014d88       ??_C@_15NGLOAKJC@?$AAf?$AAi?$AA?$AA@ 0000000180015d88     libucrt:lcidtoname_downlevel.obj
 0001:00014d90       ??_C@_15FBKGNKAM@?$AAf?$AAr?$AA?$AA@ 0000000180015d90     libucrt:lcidtoname_downlevel.obj
 0001:00014d98       ??_C@_15KGGCNEFK@?$AAh?$AAe?$AA?$AA@ 0000000180015d98     libucrt:lcidtoname_downlevel.obj
 0001:00014da0       ??_C@_15PGHLIDMF@?$AAh?$AAu?$AA?$AA@ 0000000180015da0     libucrt:lcidtoname_downlevel.obj
 0001:00014da8       ??_C@_15BIEMAPLM@?$AAi?$AAs?$AA?$AA@ 0000000180015da8     libucrt:lcidtoname_downlevel.obj
 0001:00014db0       ??_C@_15IFJLDHAF@?$AAi?$AAt?$AA?$AA@ 0000000180015db0     libucrt:lcidtoname_downlevel.obj
 0001:00014db8       ??_C@_15GEMIOCAG@?$AAj?$AAa?$AA?$AA@ 0000000180015db8     libucrt:lcidtoname_downlevel.obj
 0001:00014dc0       ??_C@_15EPELEGJA@?$AAk?$AAo?$AA?$AA@ 0000000180015dc0     libucrt:lcidtoname_downlevel.obj
 0001:00014dc8       ??_C@_15NDDHIMN@?$AAn?$AAl?$AA?$AA@ 0000000180015dc8     libucrt:lcidtoname_downlevel.obj
 0001:00014dd0       ??_C@_15BPIGNHCD@?$AAn?$AAo?$AA?$AA@ 0000000180015dd0     libucrt:lcidtoname_downlevel.obj
 0001:00014dd8       ??_C@_15DEOPBLCG@?$AAp?$AAl?$AA?$AA@ 0000000180015dd8     libucrt:lcidtoname_downlevel.obj
 0001:00014de0       ??_C@_15KBECGEFG@?$AAp?$AAt?$AA?$AA@ 0000000180015de0     libucrt:lcidtoname_downlevel.obj
 0001:00014de8       ??_C@_15GLJCBFMD@?$AAr?$AAo?$AA?$AA@ 0000000180015de8     libucrt:lcidtoname_downlevel.obj
 0001:00014df0       ??_C@_15FEDGKCDI@?$AAr?$AAu?$AA?$AA@ 0000000180015df0     libucrt:lcidtoname_downlevel.obj
 0001:00014df8       ??_C@_15GLKMLLHM@?$AAh?$AAr?$AA?$AA@ 0000000180015df8     libucrt:lcidtoname_downlevel.obj
 0001:00014e00       ??_C@_15CPKMFBDB@?$AAs?$AAk?$AA?$AA@ 0000000180015e00     libucrt:lcidtoname_downlevel.obj
 0001:00014e08       ??_C@_15BAAIOGMK@?$AAs?$AAq?$AA?$AA@ 0000000180015e08     libucrt:lcidtoname_downlevel.obj
 0001:00014e10       ??_C@_15INNPNOHD@?$AAs?$AAv?$AA?$AA@ 0000000180015e10     libucrt:lcidtoname_downlevel.obj
 0001:00014e18       ??_C@_15CABMMOGH@?$AAt?$AAh?$AA?$AA@ 0000000180015e18     libucrt:lcidtoname_downlevel.obj
 0001:00014e20       ??_C@_15BPLIHJJM@?$AAt?$AAr?$AA?$AA@ 0000000180015e20     libucrt:lcidtoname_downlevel.obj
 0001:00014e28       ??_C@_15NEOEKKDJ@?$AAu?$AAr?$AA?$AA@ 0000000180015e28     libucrt:lcidtoname_downlevel.obj
 0001:00014e30       ??_C@_15NFICGAJK@?$AAi?$AAd?$AA?$AA@ 0000000180015e30     libucrt:lcidtoname_downlevel.obj
 0001:00014e38       ??_C@_15HPJPHDM@?$AAb?$AAe?$AA?$AA@ 0000000180015e38     libucrt:lcidtoname_downlevel.obj
 0001:00014e40       ??_C@_15LCHLGJII@?$AAs?$AAl?$AA?$AA@ 0000000180015e40     libucrt:lcidtoname_downlevel.obj
 0001:00014e48       ??_C@_15PCFJPHHO@?$AAe?$AAt?$AA?$AA@ 0000000180015e48     libucrt:lcidtoname_downlevel.obj
 0001:00014e50       ??_C@_15HPFPGODN@?$AAl?$AAv?$AA?$AA@ 0000000180015e50     libucrt:lcidtoname_downlevel.obj
 0001:00014e58       ??_C@_15NFFGKGLG@?$AAl?$AAt?$AA?$AA@ 0000000180015e58     libucrt:lcidtoname_downlevel.obj
 0001:00014e60       ??_C@_15BDAKCCHN@?$AAf?$AAa?$AA?$AA@ 0000000180015e60     libucrt:lcidtoname_downlevel.obj
 0001:00014e68       ??_C@_15NFGIAIAJ@?$AAv?$AAi?$AA?$AA@ 0000000180015e68     libucrt:lcidtoname_downlevel.obj
 0001:00014e70       ??_C@_15LMKNDMHN@?$AAh?$AAy?$AA?$AA@ 0000000180015e70     libucrt:lcidtoname_downlevel.obj
 0001:00014e78       ??_C@_15IJBHMCFL@?$AAa?$AAz?$AA?$AA@ 0000000180015e78     libucrt:lcidtoname_downlevel.obj
 0001:00014e80       ??_C@_15EKOFJABL@?$AAe?$AAu?$AA?$AA@ 0000000180015e80     libucrt:lcidtoname_downlevel.obj
 0001:00014e88       ??_C@_15BGHADCNK@?$AAm?$AAk?$AA?$AA@ 0000000180015e88     libucrt:lcidtoname_downlevel.obj
 0001:00014e90       ??_C@_15JDNICKHM@?$AAa?$AAf?$AA?$AA@ 0000000180015e90     libucrt:lcidtoname_downlevel.obj
 0001:00014e98       ??_C@_15KPJEDBKD@?$AAk?$AAa?$AA?$AA@ 0000000180015e98     libucrt:lcidtoname_downlevel.obj
 0001:00014ea0       ??_C@_15PDNFFFEO@?$AAf?$AAo?$AA?$AA@ 0000000180015ea0     libucrt:lcidtoname_downlevel.obj
 0001:00014ea8       ??_C@_15OMLEGLOC@?$AAh?$AAi?$AA?$AA@ 0000000180015ea8     libucrt:lcidtoname_downlevel.obj
 0001:00014eb0       ??_C@_15IDNNENKK@?$AAm?$AAs?$AA?$AA@ 0000000180015eb0     libucrt:lcidtoname_downlevel.obj
 0001:00014eb8       ??_C@_15MACJNBMH@?$AAk?$AAk?$AA?$AA@ 0000000180015eb8     libucrt:lcidtoname_downlevel.obj
 0001:00014ec0       ??_C@_15DKDJEOND@?$AAk?$AAy?$AA?$AA@ 0000000180015ec0     libucrt:lcidtoname_downlevel.obj
 0001:00014ec8       ??_C@_15DFGDLJBG@?$AAs?$AAw?$AA?$AA@ 0000000180015ec8     libucrt:lcidtoname_downlevel.obj
 0001:00014ed0       ??_C@_15BBFAICNG@?$AAu?$AAz?$AA?$AA@ 0000000180015ed0     libucrt:lcidtoname_downlevel.obj
 0001:00014ed8       ??_C@_15DKNDCGEA@?$AAt?$AAt?$AA?$AA@ 0000000180015ed8     libucrt:lcidtoname_downlevel.obj
 0001:00014ee0       ??_C@_15MGIFMDPL@?$AAp?$AAa?$AA?$AA@ 0000000180015ee0     libucrt:lcidtoname_downlevel.obj
 0001:00014ee8       ??_C@_15HCNDBBA@?$AAg?$AAu?$AA?$AA@ 0000000180015ee8     libucrt:lcidtoname_downlevel.obj
 0001:00014ef0       ??_C@_15FNBEIBON@?$AAt?$AAa?$AA?$AA@ 0000000180015ef0     libucrt:lcidtoname_downlevel.obj
 0001:00014ef8       ??_C@_15NCHGBGLK@?$AAt?$AAe?$AA?$AA@ 0000000180015ef8     libucrt:lcidtoname_downlevel.obj
 0001:00014f00       ??_C@_15PHPHCBPF@?$AAk?$AAn?$AA?$AA@ 0000000180015f00     libucrt:lcidtoname_downlevel.obj
 0001:00014f08       ??_C@_15DLGBCKMP@?$AAm?$AAr?$AA?$AA@ 0000000180015f08     libucrt:lcidtoname_downlevel.obj
 0001:00014f10       ??_C@_15EABBLBFF@?$AAs?$AAa?$AA?$AA@ 0000000180015f10     libucrt:lcidtoname_downlevel.obj
 0001:00014f18       ??_C@_15CBKOMCOI@?$AAm?$AAn?$AA?$AA@ 0000000180015f18     libucrt:lcidtoname_downlevel.obj
 0001:00014f20       ??_C@_15CKDMCJAF@?$AAg?$AAl?$AA?$AA@ 0000000180015f20     libucrt:lcidtoname_downlevel.obj
 0001:00014f28       ??_C@_17CNJFBPG@?$AAk?$AAo?$AAk?$AA?$AA@ 0000000180015f28     libucrt:lcidtoname_downlevel.obj
 0001:00014f30       ??_C@_17FFBJICPL@?$AAs?$AAy?$AAr?$AA?$AA@ 0000000180015f30     libucrt:lcidtoname_downlevel.obj
 0001:00014f38       ??_C@_17KPNDCPAF@?$AAd?$AAi?$AAv?$AA?$AA@ 0000000180015f38     libucrt:lcidtoname_downlevel.obj
 0001:00014f40       ??_C@_1M@OKAHONE@?$AAa?$AAr?$AA?9?$AAS?$AAA?$AA?$AA@ 0000000180015f40     libucrt:lcidtoname_downlevel.obj
 0001:00014f50       ??_C@_1M@FFFIGIGK@?$AAb?$AAg?$AA?9?$AAB?$AAG?$AA?$AA@ 0000000180015f50     libucrt:lcidtoname_downlevel.obj
 0001:00014f60       ??_C@_1M@BJNKEDC@?$AAc?$AAa?$AA?9?$AAE?$AAS?$AA?$AA@ 0000000180015f60     libucrt:lcidtoname_downlevel.obj
 0001:00014f70       ??_C@_1M@IJJHFJHA@?$AAc?$AAs?$AA?9?$AAC?$AAZ?$AA?$AA@ 0000000180015f70     libucrt:lcidtoname_downlevel.obj
 0001:00014f80       ??_C@_1M@CLPEOBGI@?$AAd?$AAa?$AA?9?$AAD?$AAK?$AA?$AA@ 0000000180015f80     libucrt:lcidtoname_downlevel.obj
 0001:00014f90       ??_C@_1M@MCMADGCB@?$AAd?$AAe?$AA?9?$AAD?$AAE?$AA?$AA@ 0000000180015f90     libucrt:lcidtoname_downlevel.obj
 0001:00014fa0       ??_C@_1M@OOCKEMAM@?$AAe?$AAl?$AA?9?$AAG?$AAR?$AA?$AA@ 0000000180015fa0     libucrt:lcidtoname_downlevel.obj
 0001:00014fb0       ??_C@_1M@DDNJFGID@?$AAf?$AAi?$AA?9?$AAF?$AAI?$AA?$AA@ 0000000180015fb0     libucrt:lcidtoname_downlevel.obj
 0001:00014fc0       ??_C@_1M@GLIPPMAC@?$AAf?$AAr?$AA?9?$AAF?$AAR?$AA?$AA@ 0000000180015fc0     libucrt:lcidtoname_downlevel.obj
 0001:00014fd0       ??_C@_1M@GFMCHPE@?$AAh?$AAe?$AA?9?$AAI?$AAL?$AA?$AA@ 0000000180015fd0     libucrt:lcidtoname_downlevel.obj
 0001:00014fe0       ??_C@_1M@MHLPGNKM@?$AAh?$AAu?$AA?9?$AAH?$AAU?$AA?$AA@ 0000000180015fe0     libucrt:lcidtoname_downlevel.obj
 0001:00014ff0       ??_C@_1M@LPDDNNPN@?$AAi?$AAs?$AA?9?$AAI?$AAS?$AA?$AA@ 0000000180015ff0     libucrt:lcidtoname_downlevel.obj
 0001:00015000       ??_C@_1M@MADIPODN@?$AAi?$AAt?$AA?9?$AAI?$AAT?$AA?$AA@ 0000000180016000     libucrt:lcidtoname_downlevel.obj
 0001:00015010       ??_C@_1M@IHBJJGG@?$AAn?$AAl?$AA?9?$AAN?$AAL?$AA?$AA@ 0000000180016010     libucrt:lcidtoname_downlevel.obj
 0001:00015020       ??_C@_1M@EANAGDL@?$AAn?$AAb?$AA?9?$AAN?$AAO?$AA?$AA@ 0000000180016020     libucrt:lcidtoname_downlevel.obj
 0001:00015030       ??_C@_1M@NEIEMEGP@?$AAp?$AAl?$AA?9?$AAP?$AAL?$AA?$AA@ 0000000180016030     libucrt:lcidtoname_downlevel.obj
 0001:00015040       ??_C@_1M@BOCFIGEP@?$AAp?$AAt?$AA?9?$AAB?$AAR?$AA?$AA@ 0000000180016040     libucrt:lcidtoname_downlevel.obj
 0001:00015050       ??_C@_1M@IMPFOPBG@?$AAr?$AAo?$AA?9?$AAR?$AAO?$AA?$AA@ 0000000180016050     libucrt:lcidtoname_downlevel.obj
 0001:00015060       ??_C@_1M@IDNNEJMM@?$AAr?$AAu?$AA?9?$AAR?$AAU?$AA?$AA@ 0000000180016060     libucrt:lcidtoname_downlevel.obj
 0001:00015070       ??_C@_1M@LILEEOGM@?$AAh?$AAr?$AA?9?$AAH?$AAR?$AA?$AA@ 0000000180016070     libucrt:lcidtoname_downlevel.obj
 0001:00015080       ??_C@_1M@FKIFEHPB@?$AAs?$AAk?$AA?9?$AAS?$AAK?$AA?$AA@ 0000000180016080     libucrt:lcidtoname_downlevel.obj
 0001:00015090       ??_C@_1M@LJMAMNPJ@?$AAs?$AAq?$AA?9?$AAA?$AAL?$AA?$AA@ 0000000180016090     libucrt:lcidtoname_downlevel.obj
 0001:000150a0       ??_C@_1M@GIAKDKJK@?$AAs?$AAv?$AA?9?$AAS?$AAE?$AA?$AA@ 00000001800160a0     libucrt:lcidtoname_downlevel.obj
 0001:000150b0       ??_C@_1M@MKJKIKCL@?$AAt?$AAh?$AA?9?$AAT?$AAH?$AA?$AA@ 00000001800160b0     libucrt:lcidtoname_downlevel.obj
 0001:000150c0       ??_C@_1M@MFLCCMPB@?$AAt?$AAr?$AA?9?$AAT?$AAR?$AA?$AA@ 00000001800160c0     libucrt:lcidtoname_downlevel.obj
 0001:000150d0       ??_C@_1M@OIJHDKJN@?$AAu?$AAr?$AA?9?$AAP?$AAK?$AA?$AA@ 00000001800160d0     libucrt:lcidtoname_downlevel.obj
 0001:000150e0       ??_C@_1M@LHIPCIEK@?$AAi?$AAd?$AA?9?$AAI?$AAD?$AA?$AA@ 00000001800160e0     libucrt:lcidtoname_downlevel.obj
 0001:000150f0       ??_C@_1M@MFMOBGI@?$AAu?$AAk?$AA?9?$AAU?$AAA?$AA?$AA@ 00000001800160f0     libucrt:lcidtoname_downlevel.obj
 0001:00015100       ??_C@_1M@OBGLJIPL@?$AAb?$AAe?$AA?9?$AAB?$AAY?$AA?$AA@ 0000000180016100     libucrt:lcidtoname_downlevel.obj
 0001:00015110       ??_C@_1M@BCFAJEAD@?$AAs?$AAl?$AA?9?$AAS?$AAI?$AA?$AA@ 0000000180016110     libucrt:lcidtoname_downlevel.obj
 0001:00015120       ??_C@_1M@FKFFEDDN@?$AAe?$AAt?$AA?9?$AAE?$AAE?$AA?$AA@ 0000000180016120     libucrt:lcidtoname_downlevel.obj
 0001:00015130       ??_C@_1M@KGKKAACI@?$AAl?$AAv?$AA?9?$AAL?$AAV?$AA?$AA@ 0000000180016130     libucrt:lcidtoname_downlevel.obj
 0001:00015140       ??_C@_1M@IFGBIJO@?$AAl?$AAt?$AA?9?$AAL?$AAT?$AA?$AA@ 0000000180016140     libucrt:lcidtoname_downlevel.obj
 0001:00015150       ??_C@_1M@FGEAHEDM@?$AAf?$AAa?$AA?9?$AAI?$AAR?$AA?$AA@ 0000000180016150     libucrt:lcidtoname_downlevel.obj
 0001:00015160       ??_C@_1M@KBMAIBFN@?$AAv?$AAi?$AA?9?$AAV?$AAN?$AA?$AA@ 0000000180016160     libucrt:lcidtoname_downlevel.obj
 0001:00015170       ??_C@_1M@GPCBKDJK@?$AAh?$AAy?$AA?9?$AAA?$AAM?$AA?$AA@ 0000000180016170     libucrt:lcidtoname_downlevel.obj
 0001:00015180       ??_C@_1BG@BECMDDJB@?$AAa?$AAz?$AA?9?$AAA?$AAZ?$AA?9?$AAL?$AAa?$AAt?$AAn?$AA?$AA@ 0000000180016180     libucrt:lcidtoname_downlevel.obj
 0001:00015198       ??_C@_1M@MAOFCAEA@?$AAe?$AAu?$AA?9?$AAE?$AAS?$AA?$AA@ 0000000180016198     libucrt:lcidtoname_downlevel.obj
 0001:000151a8       ??_C@_1M@IGHABKPI@?$AAm?$AAk?$AA?9?$AAM?$AAK?$AA?$AA@ 00000001800161a8     libucrt:lcidtoname_downlevel.obj
 0001:000151b8       ??_C@_1M@IAIGNEJG@?$AAt?$AAn?$AA?9?$AAZ?$AAA?$AA?$AA@ 00000001800161b8     libucrt:lcidtoname_downlevel.obj
 0001:000151c8       ??_C@_1M@IIJCOJFA@?$AAx?$AAh?$AA?9?$AAZ?$AAA?$AA?$AA@ 00000001800161c8     libucrt:lcidtoname_downlevel.obj
 0001:000151d8       ??_C@_1M@LGPJHNJH@?$AAz?$AAu?$AA?9?$AAZ?$AAA?$AA?$AA@ 00000001800161d8     libucrt:lcidtoname_downlevel.obj
 0001:000151e8       ??_C@_1M@HOKAOIO@?$AAa?$AAf?$AA?9?$AAZ?$AAA?$AA?$AA@ 00000001800161e8     libucrt:lcidtoname_downlevel.obj
 0001:000151f8       ??_C@_1M@DPCLHLIE@?$AAk?$AAa?$AA?9?$AAG?$AAE?$AA?$AA@ 00000001800161f8     libucrt:lcidtoname_downlevel.obj
 0001:00015208       ??_C@_1M@BLKMHJBI@?$AAf?$AAo?$AA?9?$AAF?$AAO?$AA?$AA@ 0000000180016208     libucrt:lcidtoname_downlevel.obj
 0001:00015218       ??_C@_1M@LGGJAPPB@?$AAh?$AAi?$AA?9?$AAI?$AAN?$AA?$AA@ 0000000180016218     libucrt:lcidtoname_downlevel.obj
 0001:00015228       ??_C@_1M@FIKPIHFE@?$AAm?$AAt?$AA?9?$AAM?$AAT?$AA?$AA@ 0000000180016228     libucrt:lcidtoname_downlevel.obj
 0001:00015238       ??_C@_1M@HEGGPBFA@?$AAs?$AAe?$AA?9?$AAN?$AAO?$AA?$AA@ 0000000180016238     libucrt:lcidtoname_downlevel.obj
 0001:00015248       ??_C@_1M@EIBJEEPA@?$AAm?$AAs?$AA?9?$AAM?$AAY?$AA?$AA@ 0000000180016248     libucrt:lcidtoname_downlevel.obj
 0001:00015258       ??_C@_1M@FHLBGMPP@?$AAk?$AAk?$AA?9?$AAK?$AAZ?$AA?$AA@ 0000000180016258     libucrt:lcidtoname_downlevel.obj
 0001:00015268       ??_C@_1M@NGJJLCGI@?$AAk?$AAy?$AA?9?$AAK?$AAG?$AA?$AA@ 0000000180016268     libucrt:lcidtoname_downlevel.obj
 0001:00015278       ??_C@_1M@GIENNBFC@?$AAs?$AAw?$AA?9?$AAK?$AAE?$AA?$AA@ 0000000180016278     libucrt:lcidtoname_downlevel.obj
 0001:00015288       ??_C@_1BG@NDGMJIMJ@?$AAu?$AAz?$AA?9?$AAU?$AAZ?$AA?9?$AAL?$AAa?$AAt?$AAn?$AA?$AA@ 0000000180016288     libucrt:lcidtoname_downlevel.obj
 0001:000152a0       ??_C@_1M@IDCCIHBC@?$AAt?$AAt?$AA?9?$AAR?$AAU?$AA?$AA@ 00000001800162a0     libucrt:lcidtoname_downlevel.obj
 0001:000152b0       ??_C@_1M@LOICPMOJ@?$AAb?$AAn?$AA?9?$AAI?$AAN?$AA?$AA@ 00000001800162b0     libucrt:lcidtoname_downlevel.obj
 0001:000152c0       ??_C@_1M@KPKKNEAH@?$AAp?$AAa?$AA?9?$AAI?$AAN?$AA?$AA@ 00000001800162c0     libucrt:lcidtoname_downlevel.obj
 0001:000152d0       ??_C@_1M@PJGPPBOG@?$AAg?$AAu?$AA?9?$AAI?$AAN?$AA?$AA@ 00000001800162d0     libucrt:lcidtoname_downlevel.obj
 0001:000152e0       ??_C@_1M@KMKMOPHI@?$AAt?$AAa?$AA?9?$AAI?$AAN?$AA?$AA@ 00000001800162e0     libucrt:lcidtoname_downlevel.obj
 0001:000152f0       ??_C@_1M@KFEHEPAC@?$AAt?$AAe?$AA?9?$AAI?$AAN?$AA?$AA@ 00000001800162f0     libucrt:lcidtoname_downlevel.obj
 0001:00015300       ??_C@_1M@CDCLMGHI@?$AAk?$AAn?$AA?9?$AAI?$AAN?$AA?$AA@ 0000000180016300     libucrt:lcidtoname_downlevel.obj
 0001:00015310       ??_C@_1M@MIODLDKF@?$AAm?$AAl?$AA?9?$AAI?$AAN?$AA?$AA@ 0000000180016310     libucrt:lcidtoname_downlevel.obj
 0001:00015320       ??_C@_1M@PBIEACPO@?$AAm?$AAr?$AA?9?$AAI?$AAN?$AA?$AA@ 0000000180016320     libucrt:lcidtoname_downlevel.obj
 0001:00015330       ??_C@_1M@NIDEAGPH@?$AAs?$AAa?$AA?9?$AAI?$AAN?$AA?$AA@ 0000000180016330     libucrt:lcidtoname_downlevel.obj
 0001:00015340       ??_C@_1M@FHIHCBIO@?$AAm?$AAn?$AA?9?$AAM?$AAN?$AA?$AA@ 0000000180016340     libucrt:lcidtoname_downlevel.obj
 0001:00015350       ??_C@_1M@JAIJPENP@?$AAc?$AAy?$AA?9?$AAG?$AAB?$AA?$AA@ 0000000180016350     libucrt:lcidtoname_downlevel.obj
 0001:00015360       ??_C@_1M@PHGFBEPN@?$AAg?$AAl?$AA?9?$AAE?$AAS?$AA?$AA@ 0000000180016360     libucrt:lcidtoname_downlevel.obj
 0001:00015370       ??_C@_1O@KPIPDNCP@?$AAk?$AAo?$AAk?$AA?9?$AAI?$AAN?$AA?$AA@ 0000000180016370     libucrt:lcidtoname_downlevel.obj
 0001:00015380       ??_C@_1O@KNHJLDJA@?$AAs?$AAy?$AAr?$AA?9?$AAS?$AAY?$AA?$AA@ 0000000180016380     libucrt:lcidtoname_downlevel.obj
 0001:00015390       ??_C@_1O@MKEKBLAH@?$AAd?$AAi?$AAv?$AA?9?$AAM?$AAV?$AA?$AA@ 0000000180016390     libucrt:lcidtoname_downlevel.obj
 0001:000153a0       ??_C@_1O@OHDCKDDF@?$AAq?$AAu?$AAz?$AA?9?$AAB?$AAO?$AA?$AA@ 00000001800163a0     libucrt:lcidtoname_downlevel.obj
 0001:000153b0       ??_C@_1M@LEPJNLFD@?$AAn?$AAs?$AA?9?$AAZ?$AAA?$AA?$AA@ 00000001800163b0     libucrt:lcidtoname_downlevel.obj
 0001:000153c0       ??_C@_1M@OMLEIIJB@?$AAm?$AAi?$AA?9?$AAN?$AAZ?$AA?$AA@ 00000001800163c0     libucrt:lcidtoname_downlevel.obj
 0001:000153d0       ??_C@_1M@PMPEAILG@?$AAa?$AAr?$AA?9?$AAI?$AAQ?$AA?$AA@ 00000001800163d0     libucrt:lcidtoname_downlevel.obj
 0001:000153e0       ??_C@_1M@CNKPNOEE@?$AAd?$AAe?$AA?9?$AAC?$AAH?$AA?$AA@ 00000001800163e0     libucrt:lcidtoname_downlevel.obj
 0001:000153f0       ??_C@_1M@LKMGMLKO@?$AAe?$AAn?$AA?9?$AAG?$AAB?$AA?$AA@ 00000001800163f0     libucrt:lcidtoname_downlevel.obj
 0001:00015400       ??_C@_1M@PGKJFFGL@?$AAe?$AAs?$AA?9?$AAM?$AAX?$AA?$AA@ 0000000180016400     libucrt:lcidtoname_downlevel.obj
 0001:00015410       ??_C@_1M@DNNANBDC@?$AAf?$AAr?$AA?9?$AAB?$AAE?$AA?$AA@ 0000000180016410     libucrt:lcidtoname_downlevel.obj
 0001:00015420       ??_C@_1M@HLGMDFHM@?$AAi?$AAt?$AA?9?$AAC?$AAH?$AA?$AA@ 0000000180016420     libucrt:lcidtoname_downlevel.obj
 0001:00015430       ??_C@_1M@CLLBGJH@?$AAn?$AAl?$AA?9?$AAB?$AAE?$AA?$AA@ 0000000180016430     libucrt:lcidtoname_downlevel.obj
 0001:00015440       ??_C@_1M@BODBOGLF@?$AAn?$AAn?$AA?9?$AAN?$AAO?$AA?$AA@ 0000000180016440     libucrt:lcidtoname_downlevel.obj
 0001:00015450       ??_C@_1M@HFFAHKAD@?$AAp?$AAt?$AA?9?$AAP?$AAT?$AA?$AA@ 0000000180016450     libucrt:lcidtoname_downlevel.obj
 0001:00015460       ??_C@_1BG@LNOAKHIE@?$AAs?$AAr?$AA?9?$AAS?$AAP?$AA?9?$AAL?$AAa?$AAt?$AAn?$AA?$AA@ 0000000180016460     libucrt:lcidtoname_downlevel.obj
 0001:00015478       ??_C@_1M@HBMHBGAK@?$AAs?$AAv?$AA?9?$AAF?$AAI?$AA?$AA@ 0000000180016478     libucrt:lcidtoname_downlevel.obj
 0001:00015488       ??_C@_1BG@DGCJGJBE@?$AAa?$AAz?$AA?9?$AAA?$AAZ?$AA?9?$AAC?$AAy?$AAr?$AAl?$AA?$AA@ 0000000180016488     libucrt:lcidtoname_downlevel.obj
 0001:000154a0       ??_C@_1M@KEJDAAHB@?$AAs?$AAe?$AA?9?$AAS?$AAE?$AA?$AA@ 00000001800164a0     libucrt:lcidtoname_downlevel.obj
 0001:000154b0       ??_C@_1M@HEIBJJAD@?$AAm?$AAs?$AA?9?$AAB?$AAN?$AA?$AA@ 00000001800164b0     libucrt:lcidtoname_downlevel.obj
 0001:000154c0       ??_C@_1BG@PBGJMCEM@?$AAu?$AAz?$AA?9?$AAU?$AAZ?$AA?9?$AAC?$AAy?$AAr?$AAl?$AA?$AA@ 00000001800164c0     libucrt:lcidtoname_downlevel.obj
 0001:000154d8       ??_C@_1O@LAOBCMDF@?$AAq?$AAu?$AAz?$AA?9?$AAE?$AAC?$AA?$AA@ 00000001800164d8     libucrt:lcidtoname_downlevel.obj
 0001:000154e8       ??_C@_1M@POEEMAIO@?$AAa?$AAr?$AA?9?$AAE?$AAG?$AA?$AA@ 00000001800164e8     libucrt:lcidtoname_downlevel.obj
 0001:000154f8       ??_C@_1M@EFAKDEDL@?$AAz?$AAh?$AA?9?$AAH?$AAK?$AA?$AA@ 00000001800164f8     libucrt:lcidtoname_downlevel.obj
 0001:00015508       ??_C@_1M@HKKIJHGI@?$AAd?$AAe?$AA?9?$AAA?$AAT?$AA?$AA@ 0000000180016508     libucrt:lcidtoname_downlevel.obj
 0001:00015518       ??_C@_1M@KBFBEHJF@?$AAe?$AAn?$AA?9?$AAA?$AAU?$AA?$AA@ 0000000180016518     libucrt:lcidtoname_downlevel.obj
 0001:00015528       ??_C@_1M@MNPLFAAH@?$AAe?$AAs?$AA?9?$AAE?$AAS?$AA?$AA@ 0000000180016528     libucrt:lcidtoname_downlevel.obj
 0001:00015538       ??_C@_1M@HJOOJFMA@?$AAf?$AAr?$AA?9?$AAC?$AAA?$AA?$AA@ 0000000180016538     libucrt:lcidtoname_downlevel.obj
 0001:00015548       ??_C@_1BG@JPOFPNAB@?$AAs?$AAr?$AA?9?$AAS?$AAP?$AA?9?$AAC?$AAy?$AAr?$AAl?$AA?$AA@ 0000000180016548     libucrt:lcidtoname_downlevel.obj
 0001:00015560       ??_C@_1M@LNFOCMOB@?$AAs?$AAe?$AA?9?$AAF?$AAI?$AA?$AA@ 0000000180016560     libucrt:lcidtoname_downlevel.obj
 0001:00015570       ??_C@_1O@MGJBOAMB@?$AAq?$AAu?$AAz?$AA?9?$AAP?$AAE?$AA?$AA@ 0000000180016570     libucrt:lcidtoname_downlevel.obj
 0001:00015580       ??_C@_1M@GJINLBOK@?$AAa?$AAr?$AA?9?$AAL?$AAY?$AA?$AA@ 0000000180016580     libucrt:lcidtoname_downlevel.obj
 0001:00015590       ??_C@_1M@GGMNHJNL@?$AAz?$AAh?$AA?9?$AAS?$AAG?$AA?$AA@ 0000000180016590     libucrt:lcidtoname_downlevel.obj
 0001:000155a0       ??_C@_1M@HOIKODND@?$AAd?$AAe?$AA?9?$AAL?$AAU?$AA?$AA@ 00000001800165a0     libucrt:lcidtoname_downlevel.obj
 0001:000155b0       ??_C@_1M@DDOCCGFG@?$AAe?$AAn?$AA?9?$AAC?$AAA?$AA?$AA@ 00000001800165b0     libucrt:lcidtoname_downlevel.obj
 0001:000155c0       ??_C@_1M@BNOEMJLF@?$AAe?$AAs?$AA?9?$AAG?$AAT?$AA?$AA@ 00000001800165c0     libucrt:lcidtoname_downlevel.obj
 0001:000155d0       ??_C@_1M@EOGNKEK@?$AAf?$AAr?$AA?9?$AAC?$AAH?$AA?$AA@ 00000001800165d0     libucrt:lcidtoname_downlevel.obj
 0001:000155e0       ??_C@_1M@FLIDJFHL@?$AAh?$AAr?$AA?9?$AAB?$AAA?$AA?$AA@ 00000001800165e0     libucrt:lcidtoname_downlevel.obj
 0001:000155f0       ??_C@_1O@FMCELNAJ@?$AAs?$AAm?$AAj?$AA?9?$AAN?$AAO?$AA?$AA@ 00000001800165f0     libucrt:lcidtoname_downlevel.obj
 0001:00015600       ??_C@_1M@JHGLJMGJ@?$AAa?$AAr?$AA?9?$AAD?$AAZ?$AA?$AA@ 0000000180016600     libucrt:lcidtoname_downlevel.obj
 0001:00015610       ??_C@_1M@JKKFDCNP@?$AAz?$AAh?$AA?9?$AAM?$AAO?$AA?$AA@ 0000000180016610     libucrt:lcidtoname_downlevel.obj
 0001:00015620       ??_C@_1M@GEEFALPE@?$AAd?$AAe?$AA?9?$AAL?$AAI?$AA?$AA@ 0000000180016620     libucrt:lcidtoname_downlevel.obj
 0001:00015630       ??_C@_1M@IGEOFBG@?$AAe?$AAn?$AA?9?$AAN?$AAZ?$AA?$AA@ 0000000180016630     libucrt:lcidtoname_downlevel.obj
 0001:00015640       ??_C@_1M@KDBONEHP@?$AAe?$AAs?$AA?9?$AAC?$AAR?$AA?$AA@ 0000000180016640     libucrt:lcidtoname_downlevel.obj
 0001:00015650       ??_C@_1M@FHMDOHNN@?$AAf?$AAr?$AA?9?$AAL?$AAU?$AA?$AA@ 0000000180016650     libucrt:lcidtoname_downlevel.obj
 0001:00015660       ??_C@_1BG@NFKKMAFG@?$AAb?$AAs?$AA?9?$AAB?$AAA?$AA?9?$AAL?$AAa?$AAt?$AAn?$AA?$AA@ 0000000180016660     libucrt:lcidtoname_downlevel.obj
 0001:00015678       ??_C@_1O@IMNBEMCI@?$AAs?$AAm?$AAj?$AA?9?$AAS?$AAE?$AA?$AA@ 0000000180016678     libucrt:lcidtoname_downlevel.obj
 0001:00015688       ??_C@_1M@DHHMBNDP@?$AAa?$AAr?$AA?9?$AAM?$AAA?$AA?$AA@ 0000000180016688     libucrt:lcidtoname_downlevel.obj
 0001:00015698       ??_C@_1M@BNBLJCGH@?$AAe?$AAn?$AA?9?$AAI?$AAE?$AA?$AA@ 0000000180016698     libucrt:lcidtoname_downlevel.obj
 0001:000156a8       ??_C@_1M@GEPAFMDL@?$AAe?$AAs?$AA?9?$AAP?$AAA?$AA?$AA@ 00000001800166a8     libucrt:lcidtoname_downlevel.obj
 0001:000156b8       ??_C@_1M@OJONDMDL@?$AAf?$AAr?$AA?9?$AAM?$AAC?$AA?$AA@ 00000001800166b8     libucrt:lcidtoname_downlevel.obj
 0001:000156c8       ??_C@_1BG@OBCNFJB@?$AAs?$AAr?$AA?9?$AAB?$AAA?$AA?9?$AAL?$AAa?$AAt?$AAn?$AA?$AA@ 00000001800166c8     libucrt:lcidtoname_downlevel.obj
 0001:000156e0       ??_C@_1O@KEMEEGPO@?$AAs?$AAm?$AAa?$AA?9?$AAN?$AAO?$AA?$AA@ 00000001800166e0     libucrt:lcidtoname_downlevel.obj
 0001:000156f0       ??_C@_1M@ELMGFODK@?$AAa?$AAr?$AA?9?$AAT?$AAN?$AA?$AA@ 00000001800166f0     libucrt:lcidtoname_downlevel.obj
 0001:00015700       ??_C@_1M@BHDLHFAF@?$AAe?$AAn?$AA?9?$AAZ?$AAA?$AA?$AA@ 0000000180016700     libucrt:lcidtoname_downlevel.obj
 0001:00015710       ??_C@_1M@BMGIGLIF@?$AAe?$AAs?$AA?9?$AAD?$AAO?$AA?$AA@ 0000000180016710     libucrt:lcidtoname_downlevel.obj
 0001:00015720       ??_C@_1BG@CMBHIPBE@?$AAs?$AAr?$AA?9?$AAB?$AAA?$AA?9?$AAC?$AAy?$AAr?$AAl?$AA?$AA@ 0000000180016720     libucrt:lcidtoname_downlevel.obj
 0001:00015738       ??_C@_1O@HEDBLHNP@?$AAs?$AAm?$AAa?$AA?9?$AAS?$AAE?$AA?$AA@ 0000000180016738     libucrt:lcidtoname_downlevel.obj
 0001:00015748       ??_C@_1M@DAGCADIM@?$AAa?$AAr?$AA?9?$AAO?$AAM?$AA?$AA@ 0000000180016748     libucrt:lcidtoname_downlevel.obj
 0001:00015758       ??_C@_1M@FODLMICG@?$AAe?$AAn?$AA?9?$AAJ?$AAM?$AA?$AA@ 0000000180016758     libucrt:lcidtoname_downlevel.obj
 0001:00015768       ??_C@_1M@DNMLCIHB@?$AAe?$AAs?$AA?9?$AAV?$AAE?$AA?$AA@ 0000000180016768     libucrt:lcidtoname_downlevel.obj
 0001:00015778       ??_C@_1O@EOKHMKJK@?$AAs?$AAm?$AAs?$AA?9?$AAF?$AAI?$AA?$AA@ 0000000180016778     libucrt:lcidtoname_downlevel.obj
 0001:00015788       ??_C@_1M@CAFJMKOF@?$AAa?$AAr?$AA?9?$AAY?$AAE?$AA?$AA@ 0000000180016788     libucrt:lcidtoname_downlevel.obj
 0001:00015798       ??_C@_1M@CBFHIJLI@?$AAe?$AAn?$AA?9?$AAC?$AAB?$AA?$AA@ 0000000180016798     libucrt:lcidtoname_downlevel.obj
 0001:000157a8       ??_C@_1M@BGNFLDN@?$AAe?$AAs?$AA?9?$AAC?$AAO?$AA?$AA@ 00000001800167a8     libucrt:lcidtoname_downlevel.obj
 0001:000157b8       ??_C@_1O@JMPHMAMC@?$AAs?$AAm?$AAn?$AA?9?$AAF?$AAI?$AA?$AA@ 00000001800167b8     libucrt:lcidtoname_downlevel.obj
 0001:000157c8       ??_C@_1M@JLANABKE@?$AAa?$AAr?$AA?9?$AAS?$AAY?$AA?$AA@ 00000001800167c8     libucrt:lcidtoname_downlevel.obj
 0001:000157d8       ??_C@_1M@HPKGCFGN@?$AAe?$AAn?$AA?9?$AAB?$AAZ?$AA?$AA@ 00000001800167d8     libucrt:lcidtoname_downlevel.obj
 0001:000157e8       ??_C@_1M@OLJCMLGM@?$AAe?$AAs?$AA?9?$AAP?$AAE?$AA?$AA@ 00000001800167e8     libucrt:lcidtoname_downlevel.obj
 0001:000157f8       ??_C@_1M@MKKGFKLE@?$AAa?$AAr?$AA?9?$AAJ?$AAO?$AA?$AA@ 00000001800167f8     libucrt:lcidtoname_downlevel.obj
 0001:00015808       ??_C@_1M@EKPGLDNI@?$AAe?$AAn?$AA?9?$AAT?$AAT?$AA?$AA@ 0000000180016808     libucrt:lcidtoname_downlevel.obj
 0001:00015818       ??_C@_1M@OONGHFHE@?$AAe?$AAs?$AA?9?$AAA?$AAR?$AA?$AA@ 0000000180016818     libucrt:lcidtoname_downlevel.obj
 0001:00015828       ??_C@_1M@OOJFGBHE@?$AAa?$AAr?$AA?9?$AAL?$AAB?$AA?$AA@ 0000000180016828     libucrt:lcidtoname_downlevel.obj
 0001:00015838       ??_C@_1M@GCEJHNEG@?$AAe?$AAn?$AA?9?$AAZ?$AAW?$AA?$AA@ 0000000180016838     libucrt:lcidtoname_downlevel.obj
 0001:00015848       ??_C@_1M@JNOCAHJI@?$AAe?$AAs?$AA?9?$AAE?$AAC?$AA?$AA@ 0000000180016848     libucrt:lcidtoname_downlevel.obj
 0001:00015858       ??_C@_1M@JEFHPGGB@?$AAa?$AAr?$AA?9?$AAK?$AAW?$AA?$AA@ 0000000180016858     libucrt:lcidtoname_downlevel.obj
 0001:00015868       ??_C@_1M@MLKIBJOJ@?$AAe?$AAn?$AA?9?$AAP?$AAH?$AA?$AA@ 0000000180016868     libucrt:lcidtoname_downlevel.obj
 0001:00015878       ??_C@_1M@BDNIPEND@?$AAe?$AAs?$AA?9?$AAC?$AAL?$AA?$AA@ 0000000180016878     libucrt:lcidtoname_downlevel.obj
 0001:00015888       ??_C@_1M@MPNMEKBD@?$AAa?$AAr?$AA?9?$AAA?$AAE?$AA?$AA@ 0000000180016888     libucrt:lcidtoname_downlevel.obj
 0001:00015898       ??_C@_1M@KBJALCPI@?$AAe?$AAs?$AA?9?$AAU?$AAY?$AA?$AA@ 0000000180016898     libucrt:lcidtoname_downlevel.obj
 0001:000158a8       ??_C@_1M@LLCCOAGA@?$AAa?$AAr?$AA?9?$AAB?$AAH?$AA?$AA@ 00000001800168a8     libucrt:lcidtoname_downlevel.obj
 0001:000158b8       ??_C@_1M@PBFNCDEL@?$AAe?$AAs?$AA?9?$AAP?$AAY?$AA?$AA@ 00000001800168b8     libucrt:lcidtoname_downlevel.obj
 0001:000158c8       ??_C@_1M@EDGINPNP@?$AAa?$AAr?$AA?9?$AAQ?$AAA?$AA?$AA@ 00000001800168c8     libucrt:lcidtoname_downlevel.obj
 0001:000158d8       ??_C@_1M@MKDBIIJI@?$AAe?$AAs?$AA?9?$AAB?$AAO?$AA?$AA@ 00000001800168d8     libucrt:lcidtoname_downlevel.obj
 0001:000158e8       ??_C@_1M@CPKKEBLD@?$AAe?$AAs?$AA?9?$AAS?$AAV?$AA?$AA@ 00000001800168e8     libucrt:lcidtoname_downlevel.obj
 0001:000158f8       ??_C@_1M@NDBGMMJL@?$AAe?$AAs?$AA?9?$AAH?$AAN?$AA?$AA@ 00000001800168f8     libucrt:lcidtoname_downlevel.obj
 0001:00015908       ??_C@_1M@JIJIBHDP@?$AAe?$AAs?$AA?9?$AAN?$AAI?$AA?$AA@ 0000000180016908     libucrt:lcidtoname_downlevel.obj
 0001:00015918       ??_C@_1M@CGFMKEEK@?$AAe?$AAs?$AA?9?$AAP?$AAR?$AA?$AA@ 0000000180016918     libucrt:lcidtoname_downlevel.obj
 0001:00015928       ??_C@_1O@ICJHKIIK@?$AAz?$AAh?$AA?9?$AAC?$AAH?$AAT?$AA?$AA@ 0000000180016928     libucrt:lcidtoname_downlevel.obj
 0001:00015938       ??_C@_15CLNEJCE@?$AAs?$AAr?$AA?$AA@ 0000000180016938     libucrt:lcidtoname_downlevel.obj
 0001:00016780       ??_C@_1M@KAHEKEIG@?$AAa?$AAf?$AA?9?$AAz?$AAa?$AA?$AA@ 0000000180017780     libucrt:lcidtoname_downlevel.obj
 0001:00016790       ??_C@_1M@GIECOABL@?$AAa?$AAr?$AA?9?$AAa?$AAe?$AA?$AA@ 0000000180017790     libucrt:lcidtoname_downlevel.obj
 0001:000167a0       ??_C@_1M@BMLMEKGI@?$AAa?$AAr?$AA?9?$AAb?$AAh?$AA?$AA@ 00000001800177a0     libucrt:lcidtoname_downlevel.obj
 0001:000167b0       ??_C@_1M@DAPFDGGB@?$AAa?$AAr?$AA?9?$AAd?$AAz?$AA?$AA@ 00000001800177b0     libucrt:lcidtoname_downlevel.obj
 0001:000167c0       ??_C@_1M@FJNKGKIG@?$AAa?$AAr?$AA?9?$AAe?$AAg?$AA?$AA@ 00000001800177c0     libucrt:lcidtoname_downlevel.obj
 0001:000167d0       ??_C@_1M@FLGKKCLO@?$AAa?$AAr?$AA?9?$AAi?$AAq?$AA?$AA@ 00000001800177d0     libucrt:lcidtoname_downlevel.obj
 0001:000167e0       ??_C@_1M@GNDIPALM@?$AAa?$AAr?$AA?9?$AAj?$AAo?$AA?$AA@ 00000001800177e0     libucrt:lcidtoname_downlevel.obj
 0001:000167f0       ??_C@_1M@DDMJFMGJ@?$AAa?$AAr?$AA?9?$AAk?$AAw?$AA?$AA@ 00000001800177f0     libucrt:lcidtoname_downlevel.obj
 0001:00016800       ??_C@_1M@EJALMLHM@?$AAa?$AAr?$AA?9?$AAl?$AAb?$AA?$AA@ 0000000180017800     libucrt:lcidtoname_downlevel.obj
 0001:00016810       ??_C@_1M@MOBDBLOC@?$AAa?$AAr?$AA?9?$AAl?$AAy?$AA?$AA@ 0000000180017810     libucrt:lcidtoname_downlevel.obj
 0001:00016820       ??_C@_1M@JAOCLHDH@?$AAa?$AAr?$AA?9?$AAm?$AAa?$AA?$AA@ 0000000180017820     libucrt:lcidtoname_downlevel.obj
 0001:00016830       ??_C@_1M@JHPMKJIE@?$AAa?$AAr?$AA?9?$AAo?$AAm?$AA?$AA@ 0000000180017830     libucrt:lcidtoname_downlevel.obj
 0001:00016840       ??_C@_1M@OEPGHFNH@?$AAa?$AAr?$AA?9?$AAq?$AAa?$AA?$AA@ 0000000180017840     libucrt:lcidtoname_downlevel.obj
 0001:00016850       ??_C@_1M@KJDONENM@?$AAa?$AAr?$AA?9?$AAs?$AAa?$AA?$AA@ 0000000180017850     libucrt:lcidtoname_downlevel.obj
 0001:00016860       ??_C@_1M@DMJDKLKM@?$AAa?$AAr?$AA?9?$AAs?$AAy?$AA?$AA@ 0000000180017860     libucrt:lcidtoname_downlevel.obj
 0001:00016870       ??_C@_1M@OMFIPEDC@?$AAa?$AAr?$AA?9?$AAt?$AAn?$AA?$AA@ 0000000180017870     libucrt:lcidtoname_downlevel.obj
 0001:00016880       ??_C@_1M@IHMHGAON@?$AAa?$AAr?$AA?9?$AAy?$AAe?$AA?$AA@ 0000000180017880     libucrt:lcidtoname_downlevel.obj
 0001:00016890       ??_C@_1BG@KDCPGJGB@?$AAa?$AAz?$AA?9?$AAa?$AAz?$AA?9?$AAc?$AAy?$AAr?$AAl?$AA?$AA@ 0000000180017890     libucrt:lcidtoname_downlevel.obj
 0001:000168a8       ??_C@_1BG@IBCKDDOE@?$AAa?$AAz?$AA?9?$AAa?$AAz?$AA?9?$AAl?$AAa?$AAt?$AAn?$AA?$AA@ 00000001800178a8     libucrt:lcidtoname_downlevel.obj
 0001:000168c0       ??_C@_1M@EGPFDCPD@?$AAb?$AAe?$AA?9?$AAb?$AAy?$AA?$AA@ 00000001800178c0     libucrt:lcidtoname_downlevel.obj
 0001:000168d0       ??_C@_1M@PCMGMCGC@?$AAb?$AAg?$AA?9?$AAb?$AAg?$AA?$AA@ 00000001800178d0     libucrt:lcidtoname_downlevel.obj
 0001:000168e0       ??_C@_1M@BJBMFGOB@?$AAb?$AAn?$AA?9?$AAi?$AAn?$AA?$AA@ 00000001800178e0     libucrt:lcidtoname_downlevel.obj
 0001:000168f0       ??_C@_1BG@EAKMMACD@?$AAb?$AAs?$AA?9?$AAb?$AAa?$AA?9?$AAl?$AAa?$AAt?$AAn?$AA?$AA@ 00000001800178f0     libucrt:lcidtoname_downlevel.obj
 0001:00016908       ??_C@_1M@KGADAODK@?$AAc?$AAa?$AA?9?$AAe?$AAs?$AA?$AA@ 0000000180017908     libucrt:lcidtoname_downlevel.obj
 0001:00016918       ??_C@_1M@COAJPDHI@?$AAc?$AAs?$AA?9?$AAc?$AAz?$AA?$AA@ 0000000180017918     libucrt:lcidtoname_downlevel.obj
 0001:00016928       ??_C@_1M@DHBHFONH@?$AAc?$AAy?$AA?9?$AAg?$AAb?$AA?$AA@ 0000000180017928     libucrt:lcidtoname_downlevel.obj
 0001:00016938       ??_C@_1M@IMGKELGA@?$AAd?$AAa?$AA?9?$AAd?$AAk?$AA?$AA@ 0000000180017938     libucrt:lcidtoname_downlevel.obj
 0001:00016948       ??_C@_1M@NNDGDNGA@?$AAd?$AAe?$AA?9?$AAa?$AAt?$AA?$AA@ 0000000180017948     libucrt:lcidtoname_downlevel.obj
 0001:00016958       ??_C@_1M@IKDBHEEM@?$AAd?$AAe?$AA?9?$AAc?$AAh?$AA?$AA@ 0000000180017958     libucrt:lcidtoname_downlevel.obj
 0001:00016968       ??_C@_1M@GFFOJMCJ@?$AAd?$AAe?$AA?9?$AAd?$AAe?$AA?$AA@ 0000000180017968     libucrt:lcidtoname_downlevel.obj
 0001:00016978       ??_C@_1M@MDNLKBPM@?$AAd?$AAe?$AA?9?$AAl?$AAi?$AA?$AA@ 0000000180017978     libucrt:lcidtoname_downlevel.obj
 0001:00016988       ??_C@_1M@NJBEEJNL@?$AAd?$AAe?$AA?9?$AAl?$AAu?$AA?$AA@ 0000000180017988     libucrt:lcidtoname_downlevel.obj
 0001:00016998       ??_C@_1O@GNNELBAP@?$AAd?$AAi?$AAv?$AA?9?$AAm?$AAv?$AA?$AA@ 0000000180017998     libucrt:lcidtoname_downlevel.obj
 0001:000169a8       ??_C@_1M@EJLEOGAE@?$AAe?$AAl?$AA?9?$AAg?$AAr?$AA?$AA@ 00000001800179a8     libucrt:lcidtoname_downlevel.obj
 0001:000169b8       ??_C@_1M@GMPONJN@?$AAe?$AAn?$AA?9?$AAa?$AAu?$AA?$AA@ 00000001800179b8     libucrt:lcidtoname_downlevel.obj
 0001:000169c8       ??_C@_1M@NIDIIPGF@?$AAe?$AAn?$AA?9?$AAb?$AAz?$AA?$AA@ 00000001800179c8     libucrt:lcidtoname_downlevel.obj
 0001:000169d8       ??_C@_1M@JEHMIMFO@?$AAe?$AAn?$AA?9?$AAc?$AAa?$AA?$AA@ 00000001800179d8     libucrt:lcidtoname_downlevel.obj
 0001:000169e8       ??_C@_1M@IGMJCDLA@?$AAe?$AAn?$AA?9?$AAc?$AAb?$AA?$AA@ 00000001800179e8     libucrt:lcidtoname_downlevel.obj
 0001:000169f8       ??_C@_1M@BNFIGBKG@?$AAe?$AAn?$AA?9?$AAg?$AAb?$AA?$AA@ 00000001800179f8     libucrt:lcidtoname_downlevel.obj
 0001:00016a08       ??_C@_1M@LKIFDIGP@?$AAe?$AAn?$AA?9?$AAi?$AAe?$AA?$AA@ 0000000180017a08     libucrt:lcidtoname_downlevel.obj
 0001:00016a18       ??_C@_1M@PJKFGCCO@?$AAe?$AAn?$AA?9?$AAj?$AAm?$AA?$AA@ 0000000180017a18     libucrt:lcidtoname_downlevel.obj
 0001:00016a28       ??_C@_1M@KPPKEPBO@?$AAe?$AAn?$AA?9?$AAn?$AAz?$AA?$AA@ 0000000180017a28     libucrt:lcidtoname_downlevel.obj
 0001:00016a38       ??_C@_1M@GMDGLDOB@?$AAe?$AAn?$AA?9?$AAp?$AAh?$AA?$AA@ 0000000180017a38     libucrt:lcidtoname_downlevel.obj
 0001:00016a48       ??_C@_1M@ONGIBJNA@?$AAe?$AAn?$AA?9?$AAt?$AAt?$AA?$AA@ 0000000180017a48     libucrt:lcidtoname_downlevel.obj
 0001:00016a58       ??_C@_1M@LLODPCMM@?$AAe?$AAn?$AA?9?$AAu?$AAs?$AA?$AA@ 0000000180017a58     libucrt:lcidtoname_downlevel.obj
 0001:00016a68       ??_C@_1M@LAKFNPAN@?$AAe?$AAn?$AA?9?$AAz?$AAa?$AA?$AA@ 0000000180017a68     libucrt:lcidtoname_downlevel.obj
 0001:00016a78       ??_C@_1M@MFNHNHEO@?$AAe?$AAn?$AA?9?$AAz?$AAw?$AA?$AA@ 0000000180017a78     libucrt:lcidtoname_downlevel.obj
 0001:00016a88       ??_C@_1M@EJEINPHM@?$AAe?$AAs?$AA?9?$AAa?$AAr?$AA?$AA@ 0000000180017a88     libucrt:lcidtoname_downlevel.obj
 0001:00016a98       ??_C@_1M@GNKPCCJA@?$AAe?$AAs?$AA?9?$AAb?$AAo?$AA?$AA@ 0000000180017a98     libucrt:lcidtoname_downlevel.obj
 0001:00016aa8       ??_C@_1M@LEEGFONL@?$AAe?$AAs?$AA?9?$AAc?$AAl?$AA?$AA@ 0000000180017aa8     libucrt:lcidtoname_downlevel.obj
 0001:00016ab8       ??_C@_1M@KGPDPBDF@?$AAe?$AAs?$AA?9?$AAc?$AAo?$AA?$AA@ 0000000180017ab8     libucrt:lcidtoname_downlevel.obj
 0001:00016ac8       ??_C@_1M@EIAHOHH@?$AAe?$AAs?$AA?9?$AAc?$AAr?$AA?$AA@ 0000000180017ac8     libucrt:lcidtoname_downlevel.obj
 0001:00016ad8       ??_C@_1M@LLPGMBIN@?$AAe?$AAs?$AA?9?$AAd?$AAo?$AA?$AA@ 0000000180017ad8     libucrt:lcidtoname_downlevel.obj
 0001:00016ae8       ??_C@_1M@DKHMKNJA@?$AAe?$AAs?$AA?9?$AAe?$AAc?$AA?$AA@ 0000000180017ae8     libucrt:lcidtoname_downlevel.obj
 0001:00016af8       ??_C@_1M@GKGFPKAP@?$AAe?$AAs?$AA?9?$AAe?$AAs?$AA?$AA@ 0000000180017af8     libucrt:lcidtoname_downlevel.obj
 0001:00016b08       ??_C@_1M@LKHKGDLN@?$AAe?$AAs?$AA?9?$AAg?$AAt?$AA?$AA@ 0000000180017b08     libucrt:lcidtoname_downlevel.obj
 0001:00016b18       ??_C@_1M@HEIIGGJD@?$AAe?$AAs?$AA?9?$AAh?$AAn?$AA?$AA@ 0000000180017b18     libucrt:lcidtoname_downlevel.obj
 0001:00016b28       ??_C@_1M@FBDHPPGD@?$AAe?$AAs?$AA?9?$AAm?$AAx?$AA?$AA@ 0000000180017b28     libucrt:lcidtoname_downlevel.obj
 0001:00016b38       ??_C@_1M@DPAGLNDH@?$AAe?$AAs?$AA?9?$AAn?$AAi?$AA?$AA@ 0000000180017b38     libucrt:lcidtoname_downlevel.obj
 0001:00016b48       ??_C@_1M@MDGOPGDD@?$AAe?$AAs?$AA?9?$AAp?$AAa?$AA?$AA@ 0000000180017b48     libucrt:lcidtoname_downlevel.obj
 0001:00016b58       ??_C@_1M@EMAMGBGE@?$AAe?$AAs?$AA?9?$AAp?$AAe?$AA?$AA@ 0000000180017b58     libucrt:lcidtoname_downlevel.obj
 0001:00016b68       ??_C@_1M@IBMCAOEC@?$AAe?$AAs?$AA?9?$AAp?$AAr?$AA?$AA@ 0000000180017b68     libucrt:lcidtoname_downlevel.obj
 0001:00016b78       ??_C@_1M@FGMDIJED@?$AAe?$AAs?$AA?9?$AAp?$AAy?$AA?$AA@ 0000000180017b78     libucrt:lcidtoname_downlevel.obj
 0001:00016b88       ??_C@_1M@IIDEOLLL@?$AAe?$AAs?$AA?9?$AAs?$AAv?$AA?$AA@ 0000000180017b88     libucrt:lcidtoname_downlevel.obj
 0001:00016b98       ??_C@_1M@GAOBIPA@?$AAe?$AAs?$AA?9?$AAu?$AAy?$AA?$AA@ 0000000180017b98     libucrt:lcidtoname_downlevel.obj
 0001:00016ba8       ??_C@_1M@JKFFICHJ@?$AAe?$AAs?$AA?9?$AAv?$AAe?$AA?$AA@ 0000000180017ba8     libucrt:lcidtoname_downlevel.obj
 0001:00016bb8       ??_C@_1M@PNMLOJDF@?$AAe?$AAt?$AA?9?$AAe?$AAe?$AA?$AA@ 0000000180017bb8     libucrt:lcidtoname_downlevel.obj
 0001:00016bc8       ??_C@_1M@GHHLIKEI@?$AAe?$AAu?$AA?9?$AAe?$AAs?$AA?$AA@ 0000000180017bc8     libucrt:lcidtoname_downlevel.obj
 0001:00016bd8       ??_C@_1M@PBNONODE@?$AAf?$AAa?$AA?9?$AAi?$AAr?$AA?$AA@ 0000000180017bd8     libucrt:lcidtoname_downlevel.obj
 0001:00016be8       ??_C@_1M@JEEHPMIL@?$AAf?$AAi?$AA?9?$AAf?$AAi?$AA?$AA@ 0000000180017be8     libucrt:lcidtoname_downlevel.obj
 0001:00016bf8       ??_C@_1M@LMDCNDBA@?$AAf?$AAo?$AA?9?$AAf?$AAo?$AA?$AA@ 0000000180017bf8     libucrt:lcidtoname_downlevel.obj
 0001:00016c08       ??_C@_1M@JKEOHLDK@?$AAf?$AAr?$AA?9?$AAb?$AAe?$AA?$AA@ 0000000180017c08     libucrt:lcidtoname_downlevel.obj
 0001:00016c18       ??_C@_1M@NOHADPMI@?$AAf?$AAr?$AA?9?$AAc?$AAa?$AA?$AA@ 0000000180017c18     libucrt:lcidtoname_downlevel.obj
 0001:00016c28       ??_C@_1M@KDHIHAEC@?$AAf?$AAr?$AA?9?$AAc?$AAh?$AA?$AA@ 0000000180017c28     libucrt:lcidtoname_downlevel.obj
 0001:00016c38       ??_C@_1M@MMBBFGAK@?$AAf?$AAr?$AA?9?$AAf?$AAr?$AA?$AA@ 0000000180017c38     libucrt:lcidtoname_downlevel.obj
 0001:00016c48       ??_C@_1M@PAFNENNF@?$AAf?$AAr?$AA?9?$AAl?$AAu?$AA?$AA@ 0000000180017c48     libucrt:lcidtoname_downlevel.obj
 0001:00016c58       ??_C@_1M@EOHDJGDD@?$AAf?$AAr?$AA?9?$AAm?$AAc?$AA?$AA@ 0000000180017c58     libucrt:lcidtoname_downlevel.obj
 0001:00016c68       ??_C@_1M@FAPLLOPF@?$AAg?$AAl?$AA?9?$AAe?$AAs?$AA?$AA@ 0000000180017c68     libucrt:lcidtoname_downlevel.obj
 0001:00016c78       ??_C@_1M@FOPBFLOO@?$AAg?$AAu?$AA?9?$AAi?$AAn?$AA?$AA@ 0000000180017c78     libucrt:lcidtoname_downlevel.obj
 0001:00016c88       ??_C@_1M@KBMCINPM@?$AAh?$AAe?$AA?9?$AAi?$AAl?$AA?$AA@ 0000000180017c88     libucrt:lcidtoname_downlevel.obj
 0001:00016c98       ??_C@_1M@BBPHKFPJ@?$AAh?$AAi?$AA?9?$AAi?$AAn?$AA?$AA@ 0000000180017c98     libucrt:lcidtoname_downlevel.obj
 0001:00016ca8       ??_C@_1M@PMBNDPHD@?$AAh?$AAr?$AA?9?$AAb?$AAa?$AA?$AA@ 0000000180017ca8     libucrt:lcidtoname_downlevel.obj
 0001:00016cb8       ??_C@_1M@BPCKOEGE@?$AAh?$AAr?$AA?9?$AAh?$AAr?$AA?$AA@ 0000000180017cb8     libucrt:lcidtoname_downlevel.obj
 0001:00016cc8       ??_C@_1M@GACBMHKE@?$AAh?$AAu?$AA?9?$AAh?$AAu?$AA?$AA@ 0000000180017cc8     libucrt:lcidtoname_downlevel.obj
 0001:00016cd8       ??_C@_1M@MILPAJJC@?$AAh?$AAy?$AA?9?$AAa?$AAm?$AA?$AA@ 0000000180017cd8     libucrt:lcidtoname_downlevel.obj
 0001:00016ce8       ??_C@_1M@BABBICEC@?$AAi?$AAd?$AA?9?$AAi?$AAd?$AA?$AA@ 0000000180017ce8     libucrt:lcidtoname_downlevel.obj
 0001:00016cf8       ??_C@_1M@BIKNHHPF@?$AAi?$AAs?$AA?9?$AAi?$AAs?$AA?$AA@ 0000000180017cf8     libucrt:lcidtoname_downlevel.obj
 0001:00016d08       ??_C@_1M@NMPCJPHE@?$AAi?$AAt?$AA?9?$AAc?$AAh?$AA?$AA@ 0000000180017d08     libucrt:lcidtoname_downlevel.obj
 0001:00016d18       ??_C@_1M@GHKGFEDF@?$AAi?$AAt?$AA?9?$AAi?$AAt?$AA?$AA@ 0000000180017d18     libucrt:lcidtoname_downlevel.obj
 0001:00016d28       ??_C@_1M@NIEJCJJA@?$AAj?$AAa?$AA?9?$AAj?$AAp?$AA?$AA@ 0000000180017d28     libucrt:lcidtoname_downlevel.obj
 0001:00016d38       ??_C@_1M@JILFNBIM@?$AAk?$AAa?$AA?9?$AAg?$AAe?$AA?$AA@ 0000000180017d38     libucrt:lcidtoname_downlevel.obj
 0001:00016d48       ??_C@_1M@PACPMGPH@?$AAk?$AAk?$AA?9?$AAk?$AAz?$AA?$AA@ 0000000180017d48     libucrt:lcidtoname_downlevel.obj
 0001:00016d58       ??_C@_1M@IELFGMHA@?$AAk?$AAn?$AA?9?$AAi?$AAn?$AA?$AA@ 0000000180017d58     libucrt:lcidtoname_downlevel.obj
 0001:00016d68       ??_C@_1O@IBBJHCH@?$AAk?$AAo?$AAk?$AA?9?$AAi?$AAn?$AA?$AA@ 0000000180017d68     libucrt:lcidtoname_downlevel.obj
 0001:00016d78       ??_C@_1M@DMHAEOGC@?$AAk?$AAo?$AA?9?$AAk?$AAr?$AA?$AA@ 0000000180017d78     libucrt:lcidtoname_downlevel.obj
 0001:00016d88       ??_C@_1M@HBAHBIGA@?$AAk?$AAy?$AA?9?$AAk?$AAg?$AA?$AA@ 0000000180017d88     libucrt:lcidtoname_downlevel.obj
 0001:00016d98       ??_C@_1M@KPMILCJG@?$AAl?$AAt?$AA?9?$AAl?$AAt?$AA?$AA@ 0000000180017d98     libucrt:lcidtoname_downlevel.obj
 0001:00016da8       ??_C@_1M@BDEKKCA@?$AAl?$AAv?$AA?9?$AAl?$AAv?$AA?$AA@ 0000000180017da8     libucrt:lcidtoname_downlevel.obj
 0001:00016db8       ??_C@_1M@ELCKCCJJ@?$AAm?$AAi?$AA?9?$AAn?$AAz?$AA?$AA@ 0000000180017db8     libucrt:lcidtoname_downlevel.obj
 0001:00016dc8       ??_C@_1M@CBOOLAPA@?$AAm?$AAk?$AA?9?$AAm?$AAk?$AA?$AA@ 0000000180017dc8     libucrt:lcidtoname_downlevel.obj
 0001:00016dd8       ??_C@_1M@GPHNBJKN@?$AAm?$AAl?$AA?9?$AAi?$AAn?$AA?$AA@ 0000000180017dd8     libucrt:lcidtoname_downlevel.obj
 0001:00016de8       ??_C@_1M@PABJILIG@?$AAm?$AAn?$AA?9?$AAm?$AAn?$AA?$AA@ 0000000180017de8     libucrt:lcidtoname_downlevel.obj
 0001:00016df8       ??_C@_1M@FGBKKIPG@?$AAm?$AAr?$AA?9?$AAi?$AAn?$AA?$AA@ 0000000180017df8     libucrt:lcidtoname_downlevel.obj
 0001:00016e08       ??_C@_1M@NDBPDDAL@?$AAm?$AAs?$AA?9?$AAb?$AAn?$AA?$AA@ 0000000180017e08     libucrt:lcidtoname_downlevel.obj
 0001:00016e18       ??_C@_1M@OPIHOOPI@?$AAm?$AAs?$AA?9?$AAm?$AAy?$AA?$AA@ 0000000180017e18     libucrt:lcidtoname_downlevel.obj
 0001:00016e28       ??_C@_1M@PPDBCNFM@?$AAm?$AAt?$AA?9?$AAm?$AAt?$AA?$AA@ 0000000180017e28     libucrt:lcidtoname_downlevel.obj
 0001:00016e38       ??_C@_1M@KDJDKMDD@?$AAn?$AAb?$AA?9?$AAn?$AAo?$AA?$AA@ 0000000180017e38     libucrt:lcidtoname_downlevel.obj
 0001:00016e48       ??_C@_1M@KFCFLMJP@?$AAn?$AAl?$AA?9?$AAb?$AAe?$AA?$AA@ 0000000180017e48     libucrt:lcidtoname_downlevel.obj
 0001:00016e58       ??_C@_1M@KPOPDDGO@?$AAn?$AAl?$AA?9?$AAn?$AAl?$AA?$AA@ 0000000180017e58     libucrt:lcidtoname_downlevel.obj
 0001:00016e68       ??_C@_1M@LJKPEMLN@?$AAn?$AAn?$AA?9?$AAn?$AAo?$AA?$AA@ 0000000180017e68     libucrt:lcidtoname_downlevel.obj
 0001:00016e78       ??_C@_1M@BDGHHBFL@?$AAn?$AAs?$AA?9?$AAz?$AAa?$AA?$AA@ 0000000180017e78     libucrt:lcidtoname_downlevel.obj
 0001:00016e88       ??_C@_1M@IDEHOAP@?$AAp?$AAa?$AA?9?$AAi?$AAn?$AA?$AA@ 0000000180017e88     libucrt:lcidtoname_downlevel.obj
 0001:00016e98       ??_C@_1M@HDBKGOGH@?$AAp?$AAl?$AA?9?$AAp?$AAl?$AA?$AA@ 0000000180017e98     libucrt:lcidtoname_downlevel.obj
 0001:00016ea8       ??_C@_1M@LJLLCMEH@?$AAp?$AAt?$AA?9?$AAb?$AAr?$AA?$AA@ 0000000180017ea8     libucrt:lcidtoname_downlevel.obj
 0001:00016eb8       ??_C@_1M@NCMONAAL@?$AAp?$AAt?$AA?9?$AAp?$AAt?$AA?$AA@ 0000000180017eb8     libucrt:lcidtoname_downlevel.obj
 0001:00016ec8       ??_C@_1O@EAKMAJDN@?$AAq?$AAu?$AAz?$AA?9?$AAb?$AAo?$AA?$AA@ 0000000180017ec8     libucrt:lcidtoname_downlevel.obj
 0001:00016ed8       ??_C@_1O@BHHPIGDN@?$AAq?$AAu?$AAz?$AA?9?$AAe?$AAc?$AA?$AA@ 0000000180017ed8     libucrt:lcidtoname_downlevel.obj
 0001:00016ee8       ??_C@_1O@GBAPEKMJ@?$AAq?$AAu?$AAz?$AA?9?$AAp?$AAe?$AA?$AA@ 0000000180017ee8     libucrt:lcidtoname_downlevel.obj
 0001:00016ef8       ??_C@_1M@CLGLEFBO@?$AAr?$AAo?$AA?9?$AAr?$AAo?$AA?$AA@ 0000000180017ef8     libucrt:lcidtoname_downlevel.obj
 0001:00016f08       ??_C@_1M@CEEDODME@?$AAr?$AAu?$AA?9?$AAr?$AAu?$AA?$AA@ 0000000180017f08     libucrt:lcidtoname_downlevel.obj
 0001:00016f18       ??_C@_1M@HPKKKMPP@?$AAs?$AAa?$AA?9?$AAi?$AAn?$AA?$AA@ 0000000180017f18     libucrt:lcidtoname_downlevel.obj
 0001:00016f28       ??_C@_1M@BKMAIGOJ@?$AAs?$AAe?$AA?9?$AAf?$AAi?$AA?$AA@ 0000000180017f28     libucrt:lcidtoname_downlevel.obj
 0001:00016f38       ??_C@_1M@NDPIFLFI@?$AAs?$AAe?$AA?9?$AAn?$AAo?$AA?$AA@ 0000000180017f38     libucrt:lcidtoname_downlevel.obj
 0001:00016f48       ??_C@_1M@DANKKHJ@?$AAs?$AAe?$AA?9?$AAs?$AAe?$AA?$AA@ 0000000180017f48     libucrt:lcidtoname_downlevel.obj
 0001:00016f58       ??_C@_1M@PNBLONPJ@?$AAs?$AAk?$AA?9?$AAs?$AAk?$AA?$AA@ 0000000180017f58     libucrt:lcidtoname_downlevel.obj
 0001:00016f68       ??_C@_1M@LFMODOAL@?$AAs?$AAl?$AA?9?$AAs?$AAi?$AA?$AA@ 0000000180017f68     libucrt:lcidtoname_downlevel.obj
 0001:00016f78       ??_C@_1O@DFKOMPG@?$AAs?$AAm?$AAa?$AA?9?$AAn?$AAo?$AA?$AA@ 0000000180017f78     libucrt:lcidtoname_downlevel.obj
 0001:00016f88       ??_C@_1O@NDKPBNNH@?$AAs?$AAm?$AAa?$AA?9?$AAs?$AAe?$AA?$AA@ 0000000180017f88     libucrt:lcidtoname_downlevel.obj
 0001:00016f98       ??_C@_1O@PLLKBHAB@?$AAs?$AAm?$AAj?$AA?9?$AAn?$AAo?$AA?$AA@ 0000000180017f98     libucrt:lcidtoname_downlevel.obj
 0001:00016fa8       ??_C@_1O@CLEPOGCA@?$AAs?$AAm?$AAj?$AA?9?$AAs?$AAe?$AA?$AA@ 0000000180017fa8     libucrt:lcidtoname_downlevel.obj
 0001:00016fb8       ??_C@_1O@DLGJGKMK@?$AAs?$AAm?$AAn?$AA?9?$AAf?$AAi?$AA?$AA@ 0000000180017fb8     libucrt:lcidtoname_downlevel.obj
 0001:00016fc8       ??_C@_1O@OJDJGAJC@?$AAs?$AAm?$AAs?$AA?9?$AAf?$AAi?$AA?$AA@ 0000000180017fc8     libucrt:lcidtoname_downlevel.obj
 0001:00016fd8       ??_C@_1M@BOFOGHPB@?$AAs?$AAq?$AA?9?$AAa?$AAl?$AA?$AA@ 0000000180017fd8     libucrt:lcidtoname_downlevel.obj
 0001:00016fe8       ??_C@_1BG@LJBBIPGB@?$AAs?$AAr?$AA?9?$AAb?$AAa?$AA?9?$AAc?$AAy?$AAr?$AAl?$AA?$AA@ 0000000180017fe8     libucrt:lcidtoname_downlevel.obj
 0001:00017000       ??_C@_1BG@JLBENFOE@?$AAs?$AAr?$AA?9?$AAb?$AAa?$AA?9?$AAl?$AAa?$AAt?$AAn?$AA?$AA@ 0000000180018000     libucrt:lcidtoname_downlevel.obj
 0001:00017018       ??_C@_1BG@KODPNHE@?$AAs?$AAr?$AA?9?$AAs?$AAp?$AA?9?$AAc?$AAy?$AAr?$AAl?$AA?$AA@ 0000000180018018     libucrt:lcidtoname_downlevel.obj
 0001:00017030       ??_C@_1BG@CIOGKHPB@?$AAs?$AAr?$AA?9?$AAs?$AAp?$AA?9?$AAl?$AAa?$AAt?$AAn?$AA?$AA@ 0000000180018030     libucrt:lcidtoname_downlevel.obj
 0001:00017048       ??_C@_1M@NGFJLMAC@?$AAs?$AAv?$AA?9?$AAf?$AAi?$AA?$AA@ 0000000180018048     libucrt:lcidtoname_downlevel.obj
 0001:00017058       ??_C@_1M@MPJEJAJC@?$AAs?$AAv?$AA?9?$AAs?$AAe?$AA?$AA@ 0000000180018058     libucrt:lcidtoname_downlevel.obj
 0001:00017068       ??_C@_1M@MPNDHLFK@?$AAs?$AAw?$AA?9?$AAk?$AAe?$AA?$AA@ 0000000180018068     libucrt:lcidtoname_downlevel.obj
 0001:00017078       ??_C@_1O@KOHBJJI@?$AAs?$AAy?$AAr?$AA?9?$AAs?$AAy?$AA?$AA@ 0000000180018078     libucrt:lcidtoname_downlevel.obj
 0001:00017088       ??_C@_1M@LDCEFHA@?$AAt?$AAa?$AA?9?$AAi?$AAn?$AA?$AA@ 0000000180018088     libucrt:lcidtoname_downlevel.obj
 0001:00017098       ??_C@_1M@CNJOFAK@?$AAt?$AAe?$AA?9?$AAi?$AAn?$AA?$AA@ 0000000180018098     libucrt:lcidtoname_downlevel.obj
 0001:000170a8       ??_C@_1M@GNAECACD@?$AAt?$AAh?$AA?9?$AAt?$AAh?$AA?$AA@ 00000001800180a8     libucrt:lcidtoname_downlevel.obj
 0001:000170b8       ??_C@_1M@CHBIHOJO@?$AAt?$AAn?$AA?9?$AAz?$AAa?$AA?$AA@ 00000001800180b8     libucrt:lcidtoname_downlevel.obj
 0001:000170c8       ??_C@_1M@GCCMIGPJ@?$AAt?$AAr?$AA?9?$AAt?$AAr?$AA?$AA@ 00000001800180c8     libucrt:lcidtoname_downlevel.obj
 0001:000170d8       ??_C@_1M@CELMCNBK@?$AAt?$AAt?$AA?9?$AAr?$AAu?$AA?$AA@ 00000001800180d8     libucrt:lcidtoname_downlevel.obj
 0001:000170e8       ??_C@_1M@KLMCELGA@?$AAu?$AAk?$AA?9?$AAu?$AAa?$AA?$AA@ 00000001800180e8     libucrt:lcidtoname_downlevel.obj
 0001:000170f8       ??_C@_1M@EPAJJAJF@?$AAu?$AAr?$AA?9?$AAp?$AAk?$AA?$AA@ 00000001800180f8     libucrt:lcidtoname_downlevel.obj
 0001:00017108       ??_C@_1BG@GEGPMCDJ@?$AAu?$AAz?$AA?9?$AAu?$AAz?$AA?9?$AAc?$AAy?$AAr?$AAl?$AA?$AA@ 0000000180018108     libucrt:lcidtoname_downlevel.obj
 0001:00017120       ??_C@_1BG@EGGKJILM@?$AAu?$AAz?$AA?9?$AAu?$AAz?$AA?9?$AAl?$AAa?$AAt?$AAn?$AA?$AA@ 0000000180018120     libucrt:lcidtoname_downlevel.obj
 0001:00017138       ??_C@_1M@GFOCLFF@?$AAv?$AAi?$AA?9?$AAv?$AAn?$AA?$AA@ 0000000180018138     libucrt:lcidtoname_downlevel.obj
 0001:00017148       ??_C@_1M@CPAMEDFI@?$AAx?$AAh?$AA?9?$AAz?$AAa?$AA?$AA@ 0000000180018148     libucrt:lcidtoname_downlevel.obj
 0001:00017158       ??_C@_1O@EBKIFIGN@?$AAz?$AAh?$AA?9?$AAc?$AAh?$AAs?$AA?$AA@ 0000000180018158     libucrt:lcidtoname_downlevel.obj
 0001:00017168       ??_C@_1O@NMHPGANE@?$AAz?$AAh?$AA?9?$AAc?$AAh?$AAt?$AA?$AA@ 0000000180018168     libucrt:lcidtoname_downlevel.obj
 0001:00017178       ??_C@_1M@LPINJOMC@?$AAz?$AAh?$AA?9?$AAc?$AAn?$AA?$AA@ 0000000180018178     libucrt:lcidtoname_downlevel.obj
 0001:00017188       ??_C@_1M@OCJEJODD@?$AAz?$AAh?$AA?9?$AAh?$AAk?$AA?$AA@ 0000000180018188     libucrt:lcidtoname_downlevel.obj
 0001:00017198       ??_C@_1M@DNDLJINH@?$AAz?$AAh?$AA?9?$AAm?$AAo?$AA?$AA@ 0000000180018198     libucrt:lcidtoname_downlevel.obj
 0001:000171a8       ??_C@_1M@MBFDNDND@?$AAz?$AAh?$AA?9?$AAs?$AAg?$AA?$AA@ 00000001800181a8     libucrt:lcidtoname_downlevel.obj
 0001:000171b8       ??_C@_1M@IMEPLEPE@?$AAz?$AAh?$AA?9?$AAt?$AAw?$AA?$AA@ 00000001800181b8     libucrt:lcidtoname_downlevel.obj
 0001:000171c8       ??_C@_1M@BBGHNHJP@?$AAz?$AAu?$AA?9?$AAz?$AAa?$AA?$AA@ 00000001800181c8     libucrt:lcidtoname_downlevel.obj
 0001:00017430       ??_C@_1BA@BALFACEM@?$AAC?$AAO?$AAN?$AAO?$AAU?$AAT?$AA$?$AA?$AA@ 0000000180018430     libucrt:initcon.obj
 0001:00017440       __log10_256_lead           0000000180018440     libucrt:log10_256_lead_tail_table.obj
 0001:00017c50       __log10_256_tail           0000000180018c50     libucrt:log10_256_lead_tail_table.obj
 0001:00018460       __log_F_inv_qword          0000000180019460     libucrt:log_f_inv_qword_table.obj
 0001:00018c70       ??_C@_05HGHHAHAP@log10?$AA@ 0000000180019c70     libucrt:log_special.obj
 0001:00018cb0       _load_config_used          0000000180019cb0     LIBCMT:loadcfg.obj
 0001:00018d48       ?_TraceLoggingMetadata@?1??_TlgWrite@__vcrt_trace_logging_provider@@YAJPEBU_TlgProvider_t@2@PEFBXPEBU_GUID@@2IPEAU_EVENT_DATA_DESCRIPTOR@@@Z@4U_TraceLoggingMetadata_t@2@B 0000000180019d48     libvcruntime:telemetry.obj
 0001:00018dfb       ?_TraceLoggingMetadataEnd@?1??_TlgWrite@__vcrt_trace_logging_provider@@YAJPEBU_TlgProvider_t@2@PEFBXPEBU_GUID@@2IPEAU_EVENT_DATA_DESCRIPTOR@@@Z@4EB 0000000180019dfb     libvcruntime:telemetry.obj
 0001:00019110       __rtc_iaa                  000000018001a110     LIBCMT:_initsect_.obj
 0001:00019118       __rtc_izz                  000000018001a118     LIBCMT:_initsect_.obj
 0001:00019120       __rtc_taa                  000000018001a120     LIBCMT:_initsect_.obj
 0001:00019128       __rtc_tzz                  000000018001a128     LIBCMT:_initsect_.obj
 0001:00019130       ?TraceLoggingRegister@__vcrt_trace_logging_provider@@YAJPEBU_TlgProvider_t@1@PEBU_GUID@@P6AX1KE_K2PEAU_EVENT_FILTER_DESCRIPTOR@@PEAX@Z4@Z 000000018001a130 f i libvcruntime:telemetry.obj
 0001:000191ac       ?_TlgEnableCallback@__vcrt_trace_logging_provider@@YAXPEBU_GUID@@KE_K1PEAU_EVENT_FILTER_DESCRIPTOR@@PEAX@Z 000000018001a1ac f i libvcruntime:telemetry.obj
 0001:00019270       ?_TlgWrite@__vcrt_trace_logging_provider@@YAJPEBU_TlgProvider_t@1@PEFBXPEBU_GUID@@2IPEAU_EVENT_DATA_DESCRIPTOR@@@Z 000000018001a270 f i libvcruntime:telemetry.obj
 0001:00019320       _alloca_probe              000000018001a320 f   chkstk.obj
 0001:00019320       __chkstk                   000000018001a320 f   chkstk.obj
 0001:0001b400       __local_stdio_printf_options 000000018001c400 f i bit64.obj
 0001:0001b410       bit64_getvalue             000000018001c410 f   bit64.obj
 0001:0001b4c0       bit64_push                 000000018001c4c0 f   bit64.obj
 0001:0001b550       bit64_pushuserdata         000000018001c550 f   bit64.obj
 0001:0001b5a0       luaopen_bit64              000000018001c5a0 f   bit64.obj
 0001:0001b5f0       sprintf                    000000018001c5f0 f i bit64.obj
 0001:0001b650       AddBufToCollector          000000018001c650 f   exported.obj
 0001:0001b760       CreateStringsArray         000000018001c760 f   exported.obj
 0001:0001b8a0       FarPanelItemFreeCallback   000000018001c8a0 f   exported.obj
 0001:0001bb70       FillFindData               000000018001cb70 f   exported.obj
 0001:0001bf70       FillPluginPanelItem        000000018001cf70 f   exported.obj
 0001:0001c220       GetExportFunction          000000018001d220 f   exported.obj
 0001:0001c2d0       LF_Analyse                 000000018001d2d0 f   exported.obj
 0001:0001c390       LF_CloseAnalyse            000000018001d390 f   exported.obj
 0001:0001c3a0       LF_ClosePanel              000000018001d3a0 f   exported.obj
 0001:0001c480       LF_Compare                 000000018001d480 f   exported.obj
 0001:0001c580       LF_Configure               000000018001d580 f   exported.obj
 0001:0001c610       LF_DeleteFiles             000000018001d610 f   exported.obj
 0001:0001c700       LF_ExitFAR                 000000018001d700 f   exported.obj
 0001:0001c740       LF_FreeContentData         000000018001d740 f   exported.obj
 0001:0001c790       LF_FreeFindData            000000018001d790 f   exported.obj
 0001:0001c7f0       LF_GetContentData          000000018001d7f0 f   exported.obj
 0001:0001c950       LF_GetContentFields        000000018001d950 f   exported.obj
 0001:0001ca20       LF_GetFiles                000000018001da20 f   exported.obj
 0001:0001cbb0       LF_GetFindData             000000018001dbb0 f   exported.obj
 0001:0001ccc0       LF_GetGlobalInfo           000000018001dcc0 f   exported.obj
 0001:0001d100       LF_GetOpenPanelInfo        000000018001e100 f   exported.obj
 0001:0001da80       LF_GetPluginInfo           000000018001ea80 f   exported.obj
 0001:0001dbe0       LF_MakeDirectory           000000018001ebe0 f   exported.obj
 0001:0001dd20       LF_Open                    000000018001ed20 f   exported.obj
 0001:0001e0f0       LF_ProcessConsoleInput     000000018001f0f0 f   exported.obj
 0001:0001e1e0       LF_ProcessDialogEvent      000000018001f1e0 f   exported.obj
 0001:0001e3f0       LF_ProcessEditorEvent      000000018001f3f0 f   exported.obj
 0001:0001e540       LF_ProcessEditorInput      000000018001f540 f   exported.obj
 0001:0001e5c0       LF_ProcessHostFile         000000018001f5c0 f   exported.obj
 0001:0001e6e0       LF_ProcessPanelEvent       000000018001f6e0 f   exported.obj
 0001:0001e7f0       LF_ProcessPanelInput       000000018001f7f0 f   exported.obj
 0001:0001e8c0       LF_ProcessSynchroEvent     000000018001f8c0 f   exported.obj
 0001:0001eac0       LF_ProcessViewerEvent      000000018001fac0 f   exported.obj
 0001:0001eb60       LF_PutFiles                000000018001fb60 f   exported.obj
 0001:0001eca0       LF_RunDefaultScript        000000018001fca0 f   exported.obj
 0001:0001ecb0       LF_SetDirectory            000000018001fcb0 f   exported.obj
 0001:0001ed90       LF_SetFindList             000000018001fd90 f   exported.obj
 0001:0001ee60       PackMacroValues            000000018001fe60 f   exported.obj
 0001:0001f060       PushFarMacroValue          0000000180020060 f   exported.obj
 0001:0001f200       ReplacePluginInfoCollector 0000000180020200 f   exported.obj
 0001:0001f480       UpdateFileSelection        0000000180020480 f   exported.obj
 0001:0001f570       _AddStringToCollector      0000000180020570 f   exported.obj
 0001:0001f5f0       docall                     00000001800205f0 f   exported.obj
 0001:0001f680       getPluginMenuItems         0000000180020680 f   exported.obj
 0001:0001f750       pcall_msg                  0000000180020750 f   exported.obj
 0001:0001f7f0       traceback                  00000001800207f0 f   exported.obj
 0001:0001f8a0       push_flags_table           00000001800208a0 f   flags.obj
 0001:0001f920       SetFarColors               0000000180020920 f   keysandcolors.obj
 0001:0001f990       LF_Gsub                    0000000180020990 f   lflua.obj
 0001:0001fab0       LF_LoadFile                0000000180020ab0 f   lflua.obj
 0001:0001fe50       luaB_dofileW               0000000180020e50 f   lflua.obj
 0001:0001fec0       luaB_loadfileW             0000000180020ec0 f   lflua.obj
 0001:0001ff10       method_gc                  0000000180020f10 f   lregex.obj
 0001:0001ff90       method_tostring            0000000180020f90 f   lregex.obj
 0001:00020000       func_Gmatch                0000000180021000 f   lregex.obj
 0001:00020010       func_GmatchW               0000000180021010 f   lregex.obj
 0001:00020020       method_bracketscount       0000000180021020 f   lregex.obj
 0001:000200a0       func_New                   00000001800210a0 f   lregex.obj
 0001:000200f0       method_find                00000001800210f0 f   lregex.obj
 0001:00020100       func_find                  0000000180021100 f   lregex.obj
 0001:00020110       method_findW               0000000180021110 f   lregex.obj
 0001:00020130       func_findW                 0000000180021130 f   lregex.obj
 0001:00020140       method_match               0000000180021140 f   lregex.obj
 0001:00020150       func_match                 0000000180021150 f   lregex.obj
 0001:00020160       method_matchW              0000000180021160 f   lregex.obj
 0001:00020170       func_matchW                0000000180021170 f   lregex.obj
 0001:00020180       method_gsub                0000000180021180 f   lregex.obj
 0001:00020190       func_gsub                  0000000180021190 f   lregex.obj
 0001:000201a0       method_gsubW               00000001800211a0 f   lregex.obj
 0001:000201b0       func_gsubW                 00000001800211b0 f   lregex.obj
 0001:000201c0       _Gmatch                    00000001800211c0 f   lregex.obj
 0001:000202e0       _regex_gmatch_closure      00000001800212e0 f   lregex.obj
 0001:00020430       check_regex_pattern        0000000180021430 f   lregex.obj
 0001:00020510       luaopen_regex              0000000180021510 f   lregex.obj
 0001:000205a0       push_far_regex             00000001800215a0 f   lregex.obj
 0001:00020650       regex_gmatch_closure       0000000180021650 f   lregex.obj
 0001:00020660       regex_gmatch_closureW      0000000180021660 f   lregex.obj
 0001:00020670       rx_find_match              0000000180021670 f   lregex.obj
 0001:000208f0       rx_gsub                    00000001800218f0 f   lregex.obj
 0001:00021200       Open_Luamacro              0000000180022200 f   luamacro.obj
 0001:000215f0       far_FarMacroCallToLua      00000001800225f0 f   luamacro.obj
 0001:00021690       far_MacroCallFar           0000000180022690 f   luamacro.obj
 0001:000218d0       uc_len                     00000001800228d0 f   lusercontrol.obj
 0001:00021b70       CheckFarUserControl        0000000180022b70 f   lusercontrol.obj
 0001:00021b80       luaopen_usercontrol        0000000180022b80 f   lusercontrol.obj
 0001:00021c60       CreateRegKey               0000000180022c60 f   reg.obj
 0001:00021cb0       OpenRegKey                 0000000180022cb0 f   reg.obj
 0001:00021cf0       SetRegKeyArr               0000000180022cf0 f   reg.obj
 0001:00021d80       SetRegKeyDword             0000000180022d80 f   reg.obj
 0001:00021e10       SetRegKeyStr               0000000180022e10 f   reg.obj
 0001:0002cb30       ConvertLuaValue            000000018002db30 f   service.obj
 0001:0002cc70       CreateList                 000000018002dc70 f   service.obj
 0001:0002ce50       DialogHandleEqual          000000018002de50 f   service.obj
 0001:0002ceb0       DllMain                    000000018002deb0 f   service.obj
 0001:0002d100       FillInputRecord            000000018002e100 f   service.obj
 0001:0002d690       GetFarColor                000000018002e690 f   service.obj
 0001:0002d7c0       GetFlagCombination         000000018002e7c0 f   service.obj
 0001:0002d9d0       GetFlagsFromTable          000000018002e9d0 f   service.obj
 0001:0002dbc0       GetPluginData              000000018002ebc0 f   service.obj
 0001:0002dbe0       IsLuaJIT                   000000018002ebe0 f   service.obj
 0001:0002dbf0       LF_DlgProc                 000000018002ebf0 f   service.obj
 0001:0002dd80       LF_DoFile                  000000018002ed80 f   service.obj
 0001:0002de50       LF_Error                   000000018002ee50 f   service.obj
 0001:0002df50       LF_GetLuafarAPI            000000018002ef50 f   service.obj
 0001:0002df90       LF_InitLuaState1           000000018002ef90 f   service.obj
 0001:0002e160       LF_InitLuaState2           000000018002f160 f   service.obj
 0001:0002e230       LF_MacroCallback           000000018002f230 f   service.obj
 0001:0002e240       LF_Message                 000000018002f240 f   service.obj
 0001:0002e730       _guard_check_icall_nop     000000018002f730 f   LIBCMT:guard_support.obj
 0001:0002e730       __except_validate_context_record 000000018002f730 f   libvcruntime:jbcxrval.obj
 0001:0002e730       LF_ProcessEnvVars          000000018002f730 f   service.obj
 0001:0002e740       LF_RunLuafarInit           000000018002f740 f   service.obj
 0001:0002e820       MacroAddCallback           000000018002f820 f   service.obj
 0001:0002ea50       NewDialogData              000000018002fa50 f   service.obj
 0001:0002eb00       NewVirtualKeyTable         000000018002fb00 f   service.obj
 0001:0002ebc0       OptFlags                   000000018002fbc0 f   service.obj
 0001:0002ec30       OptHandle                  000000018002fc30 f   service.obj
 0001:0002ed70       ProcessDNResult            000000018002fd70 f   service.obj
 0001:0002f1e0       PushDMParams               00000001800301e0 f   service.obj
 0001:0002f2d0       PushDNParams               00000001800302d0 f   service.obj
 0001:0002f7b0       PushFarColor               00000001800307b0 f   service.obj
 0001:0002f830       PushInputRecord            0000000180030830 f   service.obj
 0001:0002fab0       PushPanelItem              0000000180030ab0 f   service.obj
 0001:0002fd10       PushPanelItems             0000000180030d10 f   service.obj
 0001:00030030       PutFlagsToTable            0000000180031030 f   service.obj
 0001:00030070       PutMouseEvent              0000000180031070 f   service.obj
 0001:00030950       TimerThreadFunc            0000000180031950 f   service.obj
 0001:00031060       dir_exist                  0000000180032060 f   service.obj
 0001:00031090       fprintf                    0000000180032090 f i service.obj
 0001:000318d0       pushFileTime               00000001800328d0 f   service.obj
 0001:00032ee0       _snwprintf                 0000000180033ee0 f i slnunico.obj
 0001:000336b0       luaopen_unicode            00000001800346b0 f   slnunico.obj
 0001:00035bb0       __local_stdio_scanf_options 0000000180036bb0 f i uliolib51.obj
 0001:00035c40       fscanf                     0000000180036c40 f i uliolib51.obj
 0001:00036320       luaopen_uio                0000000180037320 f   uliolib51.obj
 0001:00037420       luaopen_upackage           0000000180038420 f   uloadlib51.obj
 0001:000379f0       ustring_WideCharToMultiByte 00000001800389f0 f   ustring.obj
 0001:00037b80       ustring_MultiByteToWideChar 0000000180038b80 f   ustring.obj
 0001:00037d10       ustring_OemToUtf8          0000000180038d10 f   ustring.obj
 0001:00037e10       ustring_Utf8ToOem          0000000180038e10 f   ustring.obj
 0001:00037f00       ustring_Utf16ToUtf8        0000000180038f00 f   ustring.obj
 0001:00037f50       ustring_Utf8ToUtf16        0000000180038f50 f   ustring.obj
 0001:00038030       ustring_GetACP             0000000180039030 f   ustring.obj
 0001:00038060       ustring_GetOEMCP           0000000180039060 f   ustring.obj
 0001:00038090       ustring_EnumSystemCodePages 0000000180039090 f   ustring.obj
 0001:00038120       ustring_GetCPInfo          0000000180039120 f   ustring.obj
 0001:000383c0       ustring_GetLogicalDriveStrings 00000001800393c0 f   ustring.obj
 0001:000384d0       ustring_GetDriveType       00000001800394d0 f   ustring.obj
 0001:000385e0       ustring_Uuid               00000001800395e0 f   ustring.obj
 0001:000386b0       ustring_SearchPath         00000001800396b0 f   ustring.obj
 0001:000388c0       ustring_GlobalMemoryStatus 00000001800398c0 f   ustring.obj
 0001:00038ad0       ustring_Sleep              0000000180039ad0 f   ustring.obj
 0001:00038af0       ustring_SetFileAttr        0000000180039af0 f   ustring.obj
 0001:00038c30       ustring_GetFileAttr        0000000180039c30 f   ustring.obj
 0001:00038d50       ustring_SHGetFolderPath    0000000180039d50 f   ustring.obj
 0001:00038e80       ustring_sub                0000000180039e80 f   ustring.obj
 0001:00038f40       ustring_len                0000000180039f40 f   ustring.obj
 0001:000391f0       ustring_GetCurrentDir      000000018003a1f0 f   ustring.obj
 0001:00039370       ustring_SetCurrentDir      000000018003a370 f   ustring.obj
 0001:00039490       DecodeAttributes           000000018003a490 f   ustring.obj
 0001:00039540       EnumCodePagesProc          000000018003a540 f   ustring.obj
 0001:000395b0       GetBoolFromTable           000000018003a5b0 f   ustring.obj
 0001:000395f0       GetOptBoolFromTable        000000018003a5f0 f   ustring.obj
 0001:00039650       GetOptIntFromArray         000000018003a650 f   ustring.obj
 0001:000396b0       GetOptIntFromTable         000000018003a6b0 f   ustring.obj
 0001:00039710       GetOptNumFromTable         000000018003a710 f   ustring.obj
 0001:00039770       PushAttrString             000000018003a770 f   ustring.obj
 0001:00039810       PutAttrToTable             000000018003a810 f   ustring.obj
 0001:00039840       PutBoolToTable             000000018003a840 f   ustring.obj
 0001:00039880       PutIntToArray              000000018003a880 f   ustring.obj
 0001:000398c0       PutIntToTable              000000018003a8c0 f   ustring.obj
 0001:00039900       PutLStrToTable             000000018003a900 f   ustring.obj
 0001:00039940       PutNumToTable              000000018003a940 f   ustring.obj
 0001:00039980       PutStrToArray              000000018003a980 f   ustring.obj
 0001:000399c0       PutStrToTable              000000018003a9c0 f   ustring.obj
 0001:00039a00       PutWStrToArray             000000018003aa00 f   ustring.obj
 0001:00039a60       PutWStrToTable             000000018003aa60 f   ustring.obj
 0001:00039aa0       SysErrorReturn             000000018003aaa0 f   ustring.obj
 0001:00039ae0       check_utf16_string         000000018003aae0 f   ustring.obj
 0001:00039b10       check_utf8_string          000000018003ab10 f   ustring.obj
 0001:00039b40       convert_multibyte_string   000000018003ab40 f   ustring.obj
 0001:00039c80       luaopen_ustring            000000018003ac80 f   ustring.obj
 0001:00039ce0       opt_utf16_string           000000018003ace0 f   ustring.obj
 0001:00039cf0       opt_utf8_string            000000018003acf0 f   ustring.obj
 0001:00039e00       push_multibyte_string      000000018003ae00 f   ustring.obj
 0001:00039f10       push_utf16_string          000000018003af10 f   ustring.obj
 0001:00039f40       push_utf8_string           000000018003af40 f   ustring.obj
 0001:00039f70       pusherror                  000000018003af70 f   ustring.obj
 0001:00039f90       pusherrorcode              000000018003af90 f   ustring.obj
 0001:0003a030       utf8_to_utf16              000000018003b030 f   ustring.obj
 0001:0003a060       GetAttrFromTable           000000018003b060 f   util.obj
 0001:0003a0c0       GetFileSizeFromTable       000000018003b0c0 f   util.obj
 0001:0003a140       GetFileTimeFromTable       000000018003b140 f   util.obj
 0001:0003a1c0       GetIntFromArray            000000018003b1c0 f   util.obj
 0001:0003a280       PutFileTimeToTable         000000018003b280 f   util.obj
 0001:0003a2d0       luaLF_FieldError           000000018003b2d0 f   util.obj
 0001:0003a340       luaLF_SlotError            000000018003b340 f   util.obj
 0001:0003b9b0       luaopen_win                000000018003c9b0 f   win.obj
 0001:0003bcf4       lua_gettop                 000000018003ccf4 f   lua51:lua51.dll
 0001:0003bcfa       lua_settop                 000000018003ccfa f   lua51:lua51.dll
 0001:0003bd00       lua_type                   000000018003cd00 f   lua51:lua51.dll
 0001:0003bd06       lua_rawequal               000000018003cd06 f   lua51:lua51.dll
 0001:0003bd0c       lua_tonumber               000000018003cd0c f   lua51:lua51.dll
 0001:0003bd12       lua_tolstring              000000018003cd12 f   lua51:lua51.dll
 0001:0003bd18       lua_touserdata             000000018003cd18 f   lua51:lua51.dll
 0001:0003bd1e       lua_pushnil                000000018003cd1e f   lua51:lua51.dll
 0001:0003bd24       lua_pushnumber             000000018003cd24 f   lua51:lua51.dll
 0001:0003bd2a       lua_pushstring             000000018003cd2a f   lua51:lua51.dll
 0001:0003bd30       lua_pushboolean            000000018003cd30 f   lua51:lua51.dll
 0001:0003bd36       lua_getfield               000000018003cd36 f   lua51:lua51.dll
 0001:0003bd3c       lua_newuserdata            000000018003cd3c f   lua51:lua51.dll
 0001:0003bd42       lua_getmetatable           000000018003cd42 f   lua51:lua51.dll
 0001:0003bd48       lua_setmetatable           000000018003cd48 f   lua51:lua51.dll
 0001:0003bd4e       luaL_register              000000018003cd4e f   lua51:lua51.dll
 0001:0003bd54       luaL_argerror              000000018003cd54 f   lua51:lua51.dll
 0001:0003bd5a       luaL_checkinteger          000000018003cd5a f   lua51:lua51.dll
 0001:0003bd60       luaL_newmetatable          000000018003cd60 f   lua51:lua51.dll
 0001:0003bd66       lua_pushvalue              000000018003cd66 f   lua51:lua51.dll
 0001:0003bd6c       lua_remove                 000000018003cd6c f   lua51:lua51.dll
 0001:0003bd72       lua_insert                 000000018003cd72 f   lua51:lua51.dll
 0001:0003bd78       lua_isnumber               000000018003cd78 f   lua51:lua51.dll
 0001:0003bd7e       lua_isstring               000000018003cd7e f   lua51:lua51.dll
 0001:0003bd84       lua_tointeger              000000018003cd84 f   lua51:lua51.dll
 0001:0003bd8a       lua_toboolean              000000018003cd8a f   lua51:lua51.dll
 0001:0003bd90       lua_objlen                 000000018003cd90 f   lua51:lua51.dll
 0001:0003bd96       lua_pushinteger            000000018003cd96 f   lua51:lua51.dll
 0001:0003bd9c       lua_pushlstring            000000018003cd9c f   lua51:lua51.dll
 0001:0003bda2       lua_pushcclosure           000000018003cda2 f   lua51:lua51.dll
 0001:0003bda8       lua_pushlightuserdata      000000018003cda8 f   lua51:lua51.dll
 0001:0003bdae       lua_gettable               000000018003cdae f   lua51:lua51.dll
 0001:0003bdb4       lua_rawgeti                000000018003cdb4 f   lua51:lua51.dll
 0001:0003bdba       lua_createtable            000000018003cdba f   lua51:lua51.dll
 0001:0003bdc0       lua_setfield               000000018003cdc0 f   lua51:lua51.dll
 0001:0003bdc6       lua_rawseti                000000018003cdc6 f   lua51:lua51.dll
 0001:0003bdcc       lua_call                   000000018003cdcc f   lua51:lua51.dll
 0001:0003bdd2       lua_pcall                  000000018003cdd2 f   lua51:lua51.dll
 0001:0003bdd8       lua_gc                     000000018003cdd8 f   lua51:lua51.dll
 0001:0003bdde       luaL_ref                   000000018003cdde f   lua51:lua51.dll
 0001:0003bde4       luaL_unref                 000000018003cde4 f   lua51:lua51.dll
 0001:0003bdea       luaL_loadstring            000000018003cdea f   lua51:lua51.dll
 0001:0003bdf0       lua_pushfstring            000000018003cdf0 f   lua51:lua51.dll
 0001:0003bdf6       lua_load                   000000018003cdf6 f   lua51:lua51.dll
 0001:0003bdfc       lua_error                  000000018003cdfc f   lua51:lua51.dll
 0001:0003be02       lua_concat                 000000018003ce02 f   lua51:lua51.dll
 0001:0003be08       luaL_buffinit              000000018003ce08 f   lua51:lua51.dll
 0001:0003be0e       luaL_addlstring            000000018003ce0e f   lua51:lua51.dll
 0001:0003be14       luaL_pushresult            000000018003ce14 f   lua51:lua51.dll
 0001:0003be1a       lua_replace                000000018003ce1a f   lua51:lua51.dll
 0001:0003be20       lua_checkstack             000000018003ce20 f   lua51:lua51.dll
 0001:0003be26       luaL_checklstring          000000018003ce26 f   lua51:lua51.dll
 0001:0003be2c       luaL_optlstring            000000018003ce2c f   lua51:lua51.dll
 0001:0003be32       luaL_optinteger            000000018003ce32 f   lua51:lua51.dll
 0001:0003be38       luaL_checkudata            000000018003ce38 f   lua51:lua51.dll
 0001:0003be3e       luaL_error                 000000018003ce3e f   lua51:lua51.dll
 0001:0003be44       luaL_addvalue              000000018003ce44 f   lua51:lua51.dll
 0001:0003be4a       lua_getstack               000000018003ce4a f   lua51:lua51.dll
 0001:0003be50       lua_getinfo                000000018003ce50 f   lua51:lua51.dll
 0001:0003be56       luaL_checktype             000000018003ce56 f   lua51:lua51.dll
 0001:0003be5c       luaopen_base               000000018003ce5c f   lua51:lua51.dll
 0001:0003be62       luaopen_table              000000018003ce62 f   lua51:lua51.dll
 0001:0003be68       luaopen_os                 000000018003ce68 f   lua51:lua51.dll
 0001:0003be6e       luaopen_string             000000018003ce6e f   lua51:lua51.dll
 0001:0003be74       luaopen_math               000000018003ce74 f   lua51:lua51.dll
 0001:0003be7a       luaopen_debug              000000018003ce7a f   lua51:lua51.dll
 0001:0003be80       lua_rawget                 000000018003ce80 f   lua51:lua51.dll
 0001:0003be86       lua_getfenv                000000018003ce86 f   lua51:lua51.dll
 0001:0003be8c       lua_settable               000000018003ce8c f   lua51:lua51.dll
 0001:0003be92       lua_rawset                 000000018003ce92 f   lua51:lua51.dll
 0001:0003be98       lua_setfenv                000000018003ce98 f   lua51:lua51.dll
 0001:0003be9e       lua_next                   000000018003ce9e f   lua51:lua51.dll
 0001:0003bea4       lua_getallocf              000000018003cea4 f   lua51:lua51.dll
 0001:0003beaa       lua_setallocf              000000018003ceaa f   lua51:lua51.dll
 0001:0003beb0       luaL_typerror              000000018003ceb0 f   lua51:lua51.dll
 0001:0003beb6       luaL_checknumber           000000018003ceb6 f   lua51:lua51.dll
 0001:0003bebc       luaL_optnumber             000000018003cebc f   lua51:lua51.dll
 0001:0003bec2       luaL_checkany              000000018003cec2 f   lua51:lua51.dll
 0001:0003bec8       lua_typename               000000018003cec8 f   lua51:lua51.dll
 0001:0003bece       lua_dump                   000000018003cece f   lua51:lua51.dll
 0001:0003bed4       luaL_checkstack            000000018003ced4 f   lua51:lua51.dll
 0001:0003beda       luaL_prepbuffer            000000018003ceda f   lua51:lua51.dll
 0001:0003bee0       lua_tocfunction            000000018003cee0 f   lua51:lua51.dll
 0001:0003bee6       luaL_checkoption           000000018003cee6 f   lua51:lua51.dll
 0001:0003beec       lua_iscfunction            000000018003ceec f   lua51:lua51.dll
 0001:0003bef2       luaL_gsub                  000000018003cef2 f   lua51:lua51.dll
 0001:0003bef8       luaL_findtable             000000018003cef8 f   lua51:lua51.dll
 0001:0003befe       lua_isuserdata             000000018003cefe f   lua51:lua51.dll
 0001:0003c260       _DllMainCRTStartup         000000018003d260 f   LIBCMT:dll_dllmain.obj
 0001:0003c2a0       __scrt_acquire_startup_lock 000000018003d2a0 f   LIBCMT:utility.obj
 0001:0003c2dc       __scrt_dllmain_after_initialize_c 000000018003d2dc f   LIBCMT:utility.obj
 0001:0003c2fc       __scrt_dllmain_before_initialize_c 000000018003d2fc f   LIBCMT:utility.obj
 0001:0003c314       __scrt_dllmain_crt_thread_attach 000000018003d314 f   LIBCMT:utility.obj
 0001:0003c33c       __scrt_dllmain_crt_thread_detach 000000018003d33c f   LIBCMT:utility.obj
 0001:0003c354       __scrt_dllmain_exception_filter 000000018003d354 f   LIBCMT:utility.obj
 0001:0003c3b8       __scrt_dllmain_uninitialize_c 000000018003d3b8 f   LIBCMT:utility.obj
 0001:0003c3e8       __scrt_dllmain_uninitialize_critical 000000018003d3e8 f   LIBCMT:utility.obj
 0001:0003c3fc       __scrt_initialize_crt      000000018003d3fc f   LIBCMT:utility.obj
 0001:0003c448       __scrt_initialize_onexit_tables 000000018003d448 f   LIBCMT:utility.obj
 0001:0003c514       __scrt_is_nonwritable_in_current_image 000000018003d514 f   LIBCMT:utility.obj
 0001:0003c5b0       __scrt_release_startup_lock 000000018003d5b0 f   LIBCMT:utility.obj
 0001:0003c5d4       __scrt_uninitialize_crt    000000018003d5d4 f   LIBCMT:utility.obj
 0001:0003c600       _onexit                    000000018003d600 f   LIBCMT:utility.obj
 0001:0003c650       atexit                     000000018003d650 f   LIBCMT:utility.obj
 0001:0003c668       __security_init_cookie     000000018003d668 f   LIBCMT:gs_support.obj
 0001:0003c714       ?__scrt_initialize_type_info@@YAXXZ 000000018003d714 f   LIBCMT:tncleanup.obj
 0001:0003c724       ?__scrt_uninitialize_type_info@@YAXXZ 000000018003d724 f   LIBCMT:tncleanup.obj
 0001:0003c730       __scrt_initialize_default_local_stdio_options 000000018003d730 f   LIBCMT:default_local_stdio_options.obj
 0001:0003c74c       __scrt_get_dyn_tls_init_callback 000000018003d74c f   LIBCMT:dyn_tls_init.obj
 0001:0003c754       __crt_debugger_hook        000000018003d754 f   LIBCMT:utility_desktop.obj
 0001:0003c75c       __scrt_fastfail            000000018003d75c f   LIBCMT:utility_desktop.obj
 0001:0003c8a4       _RTC_Initialize            000000018003d8a4 f   LIBCMT:_initsect_.obj
 0001:0003c8f0       _RTC_Terminate             000000018003d8f0 f   LIBCMT:_initsect_.obj
 0001:0003c93c       _guard_check_icall         000000018003d93c f i LIBCMT:checkcfg.obj
 0001:0003c944       __isa_available_init       000000018003d944 f   LIBCMT:_cpu_disp_.obj
 0001:0003cb08       __scrt_is_ucrt_dll_in_use  000000018003db08 f   LIBCMT:ucrt_detection.obj
 0001:0003cb20       wcsrchr                    000000018003db20 f   libvcruntime:wcsrchr.obj
 0001:0003cbe0       memmove                    000000018003dbe0 f   libvcruntime:memcpy.obj
 0001:0003cbe0       memcpy                     000000018003dbe0 f   libvcruntime:memcpy.obj
 0001:0003d030       memset                     000000018003e030 f   libvcruntime:memset.obj
 0001:0003d1d0       wcsstr                     000000018003e1d0 f   libvcruntime:wcsstr.obj
 0001:0003d3d0       strchr                     000000018003e3d0 f   libvcruntime:strchr.obj
 0001:0003d45c       wcschr                     000000018003e45c f   libvcruntime:wcschr.obj
 0001:0003d4e8       memchr                     000000018003e4e8 f   libvcruntime:memchr.obj
 0001:0003d520       memcmp                     000000018003e520 f   libvcruntime:memcmp.obj
 0001:0003d5e8       strrchr                    000000018003e5e8 f   libvcruntime:strrchr.obj
 0001:0003d730       __telemetry_main_invoke_trigger 000000018003e730 f   libvcruntime:telemetry.obj
 0001:0003d848       __telemetry_main_return_trigger 000000018003e848 f   libvcruntime:telemetry.obj
 0001:0003d960       __vcrt_initialize_telemetry_provider 000000018003e960 f   libvcruntime:telemetry.obj
 0001:0003d974       __vcrt_uninitialize_telemetry_provider 000000018003e974 f   libvcruntime:telemetry.obj
 0001:0003d994       __C_specific_handler       000000018003e994 f   libvcruntime:_chandler_.obj
 0001:0003db84       __vcrt_initialize          000000018003eb84 f   libvcruntime:initialization.obj
 0001:0003dbbc       __vcrt_thread_attach       000000018003ebbc f   libvcruntime:initialization.obj
 0001:0003dbd0       __vcrt_thread_detach       000000018003ebd0 f   libvcruntime:initialization.obj
 0001:0003dbe4       __vcrt_uninitialize        000000018003ebe4 f   libvcruntime:initialization.obj
 0001:0003dc10       __vcrt_uninitialize_critical 000000018003ec10 f   libvcruntime:initialization.obj
 0001:0003dc20       __std_type_info_destroy_list 000000018003ec20 f   libvcruntime:std_type_info.obj
 0001:0003de14       __vcrt_EventRegister       000000018003ee14 f   libvcruntime:winapi_downlevel.obj
 0001:0003de98       __vcrt_EventSetInformation 000000018003ee98 f   libvcruntime:winapi_downlevel.obj
 0001:0003df1c       __vcrt_EventUnregister     000000018003ef1c f   libvcruntime:winapi_downlevel.obj
 0001:0003df70       __vcrt_EventWriteTransfer  000000018003ef70 f   libvcruntime:winapi_downlevel.obj
 0001:0003e008       __vcrt_FlsAlloc            000000018003f008 f   libvcruntime:winapi_downlevel.obj
 0001:0003e05c       __vcrt_FlsFree             000000018003f05c f   libvcruntime:winapi_downlevel.obj
 0001:0003e0b0       __vcrt_FlsGetValue         000000018003f0b0 f   libvcruntime:winapi_downlevel.obj
 0001:0003e104       __vcrt_FlsSetValue         000000018003f104 f   libvcruntime:winapi_downlevel.obj
 0001:0003e16c       __vcrt_InitializeCriticalSectionEx 000000018003f16c f   libvcruntime:winapi_downlevel.obj
 0001:0003e1e4       __vcrt_initialize_winapi_thunks 000000018003f1e4 f   libvcruntime:winapi_downlevel.obj
 0001:0003e21c       __vcrt_uninitialize_winapi_thunks 000000018003f21c f   libvcruntime:winapi_downlevel.obj
 0001:0003e270       _local_unwind              000000018003f270 f   libvcruntime:_jmpuwind_.obj
 0001:0003e2a0       _NLG_Notify                000000018003f2a0 f   libvcruntime:_jmpuwind_.obj
 0001:0003e2c0       __NLG_Dispatch2            000000018003f2c0 f   libvcruntime:_jmpuwind_.obj
 0001:0003e2d0       __NLG_Return2              000000018003f2d0 f   libvcruntime:_jmpuwind_.obj
 0001:0003e2d4       __vcrt_freefls             000000018003f2d4 f   libvcruntime:per_thread_data.obj
 0001:0003e2f4       __vcrt_freeptd             000000018003f2f4 f   libvcruntime:per_thread_data.obj
 0001:0003e344       __vcrt_getptd_noexit       000000018003f344 f   libvcruntime:per_thread_data.obj
 0001:0003e3ec       __vcrt_initialize_ptd      000000018003f3ec f   libvcruntime:per_thread_data.obj
 0001:0003e42c       __vcrt_uninitialize_ptd    000000018003f42c f   libvcruntime:per_thread_data.obj
 0001:0003e450       __vcrt_initialize_locks    000000018003f450 f   libvcruntime:locks.obj
 0001:0003e498       __vcrt_uninitialize_locks  000000018003f498 f   libvcruntime:locks.obj
 0001:0003e4d0       __vcrt_initialize_pure_virtual_call_handler 000000018003f4d0 f   libvcruntime:purevirt_data.obj
 0001:0003e4f4       ??$?RV<lambda_aa279a7bcb127014629d5b1d62c7325d>@@AEAV<lambda_0a64b6a4deda75c01876f29c44fc5eb3>@@V<lambda_3323e69fbefe9d1a11713e670d47cdfa>@@@?$__crt_seh_guarded_call@H@@QEAAH$$QEAV<lambda_aa279a7bcb127014629d5b1d62c7325d>@@AEAV<lambda_0a64b6a4deda75c01876f29c44fc5eb3>@@$$QEAV<lambda_3323e69fbefe9d1a11713e670d47cdfa>@@@Z 000000018003f4f4 f i libucrt:output.obj
 0001:0003e534       ??$ensure_buffer_is_big_enough@D@formatting_buffer@__crt_stdio_output@@QEAA_N_K@Z 000000018003f534 f i libucrt:output.obj
 0001:0003e5e0       ??$is_wide_character_specifier@D@__crt_stdio_output@@YA_N_KDW4length_modifier@0@@Z 000000018003f5e0 f i libucrt:output.obj
 0001:0003e610       ??$is_wide_character_specifier@_W@__crt_stdio_output@@YA_N_K_WW4length_modifier@0@@Z 000000018003f610 f i libucrt:output.obj
 0001:0003e654       ??$type_case_integer_parse_into_buffer@I@?$output_processor@DV?$stream_output_adapter@D@__crt_stdio_output@@V?$standard_base@DV?$stream_output_adapter@D@__crt_stdio_output@@@2@@__crt_stdio_output@@AEAAXII_N@Z 000000018003f654 f i libucrt:output.obj
 0001:0003e654       ??$type_case_integer_parse_into_buffer@I@?$output_processor@_WV?$string_output_adapter@_W@__crt_stdio_output@@V?$standard_base@_WV?$string_output_adapter@_W@__crt_stdio_output@@@2@@__crt_stdio_output@@AEAAXII_N@Z 000000018003f654 f i libucrt:output.obj
 0001:0003e654       ??$type_case_integer_parse_into_buffer@I@?$output_processor@DV?$string_output_adapter@D@__crt_stdio_output@@V?$standard_base@DV?$string_output_adapter@D@__crt_stdio_output@@@2@@__crt_stdio_output@@AEAAXII_N@Z 000000018003f654 f i libucrt:output.obj
 0001:0003e6f0       ??$type_case_integer_parse_into_buffer@_K@?$output_processor@DV?$stream_output_adapter@D@__crt_stdio_output@@V?$standard_base@DV?$stream_output_adapter@D@__crt_stdio_output@@@2@@__crt_stdio_output@@AEAAX_KI_N@Z 000000018003f6f0 f i libucrt:output.obj
 0001:0003e6f0       ??$type_case_integer_parse_into_buffer@_K@?$output_processor@DV?$string_output_adapter@D@__crt_stdio_output@@V?$standard_base@DV?$string_output_adapter@D@__crt_stdio_output@@@2@@__crt_stdio_output@@AEAAX_KI_N@Z 000000018003f6f0 f i libucrt:output.obj
 0001:0003e6f0       ??$type_case_integer_parse_into_buffer@_K@?$output_processor@_WV?$string_output_adapter@_W@__crt_stdio_output@@V?$standard_base@_WV?$string_output_adapter@_W@__crt_stdio_output@@@2@@__crt_stdio_output@@AEAAX_KI_N@Z 000000018003f6f0 f i libucrt:output.obj
 0001:0003e78c       ??$write_multiple_characters@V?$stream_output_adapter@D@__crt_stdio_output@@D@__crt_stdio_output@@YAXAEBV?$stream_output_adapter@D@0@DHQEAH@Z 000000018003f78c f i libucrt:output.obj
 0001:0003e810       ??$write_multiple_characters@V?$string_output_adapter@D@__crt_stdio_output@@D@__crt_stdio_output@@YAXAEBV?$string_output_adapter@D@0@DHQEAH@Z 000000018003f810 f i libucrt:output.obj
 0001:0003e86c       ??$write_multiple_characters@V?$string_output_adapter@_W@__crt_stdio_output@@D@__crt_stdio_output@@YAXAEBV?$string_output_adapter@_W@0@DHQEAH@Z 000000018003f86c f i libucrt:output.obj
 0001:0003e8dc       ??0?$output_processor@DV?$string_output_adapter@D@__crt_stdio_output@@V?$standard_base@DV?$string_output_adapter@D@__crt_stdio_output@@@2@@__crt_stdio_output@@QEAA@AEBV?$string_output_adapter@D@1@_KQEBDQEAU__crt_locale_pointers@@QEAD@Z 000000018003f8dc f i libucrt:output.obj
 0001:0003e8dc       ??0?$output_processor@DV?$stream_output_adapter@D@__crt_stdio_output@@V?$standard_base@DV?$stream_output_adapter@D@__crt_stdio_output@@@2@@__crt_stdio_output@@QEAA@AEBV?$stream_output_adapter@D@1@_KQEBDQEAU__crt_locale_pointers@@QEAD@Z 000000018003f8dc f i libucrt:output.obj
 0001:0003e958       ??0?$output_processor@_WV?$string_output_adapter@_W@__crt_stdio_output@@V?$standard_base@_WV?$string_output_adapter@_W@__crt_stdio_output@@@2@@__crt_stdio_output@@QEAA@AEBV?$string_output_adapter@_W@1@_KQEB_WQEAU__crt_locale_pointers@@QEAD@Z 000000018003f958 f i libucrt:output.obj
 0001:0003e9d8       ??0_LocaleUpdate@@QEAA@QEAU__crt_locale_pointers@@@Z 000000018003f9d8 f i libucrt:output.obj
 0001:0003eb58       ?force_decimal_point@__crt_stdio_output@@YAXPEADQEAU__crt_locale_pointers@@@Z 000000018003fb58 f i libucrt:output.obj
 0001:0003ebc8       ?parse_int_from_format_string@?$output_processor@DV?$string_output_adapter@D@__crt_stdio_output@@V?$standard_base@DV?$string_output_adapter@D@__crt_stdio_output@@@2@@__crt_stdio_output@@AEAA_NQEAH@Z 000000018003fbc8 f i libucrt:output.obj
 0001:0003ebc8       ?parse_int_from_format_string@?$output_processor@DV?$stream_output_adapter@D@__crt_stdio_output@@V?$standard_base@DV?$stream_output_adapter@D@__crt_stdio_output@@@2@@__crt_stdio_output@@AEAA_NQEAH@Z 000000018003fbc8 f i libucrt:output.obj
 0001:0003ec4c       ?parse_int_from_format_string@?$output_processor@_WV?$string_output_adapter@_W@__crt_stdio_output@@V?$standard_base@_WV?$string_output_adapter@_W@__crt_stdio_output@@@2@@__crt_stdio_output@@AEAA_NQEAH@Z 000000018003fc4c f i libucrt:output.obj
 0001:0003eccc       ?process@?$output_processor@DV?$stream_output_adapter@D@__crt_stdio_output@@V?$standard_base@DV?$stream_output_adapter@D@__crt_stdio_output@@@2@@__crt_stdio_output@@QEAAHXZ 000000018003fccc f i libucrt:output.obj
 0001:0003eedc       ?process@?$output_processor@DV?$string_output_adapter@D@__crt_stdio_output@@V?$standard_base@DV?$string_output_adapter@D@__crt_stdio_output@@@2@@__crt_stdio_output@@QEAAHXZ 000000018003fedc f i libucrt:output.obj
 0001:0003f0e0       ?process@?$output_processor@_WV?$string_output_adapter@_W@__crt_stdio_output@@V?$standard_base@_WV?$string_output_adapter@_W@__crt_stdio_output@@@2@@__crt_stdio_output@@QEAAHXZ 00000001800400e0 f i libucrt:output.obj
 0001:0003f35c       ?state_case_normal@?$output_processor@DV?$stream_output_adapter@D@__crt_stdio_output@@V?$standard_base@DV?$stream_output_adapter@D@__crt_stdio_output@@@2@@__crt_stdio_output@@AEAA_NXZ 000000018004035c f i libucrt:output.obj
 0001:0003f3cc       ?state_case_normal@?$output_processor@DV?$string_output_adapter@D@__crt_stdio_output@@V?$standard_base@DV?$string_output_adapter@D@__crt_stdio_output@@@2@@__crt_stdio_output@@AEAA_NXZ 00000001800403cc f i libucrt:output.obj
 0001:0003f440       ?state_case_normal_tchar@?$output_processor@DV?$stream_output_adapter@D@__crt_stdio_output@@V?$standard_base@DV?$stream_output_adapter@D@__crt_stdio_output@@@2@@__crt_stdio_output@@AEAA_ND@Z 0000000180040440 f i libucrt:output.obj
 0001:0003f4d4       ?state_case_normal_tchar@?$output_processor@DV?$string_output_adapter@D@__crt_stdio_output@@V?$standard_base@DV?$string_output_adapter@D@__crt_stdio_output@@@2@@__crt_stdio_output@@AEAA_ND@Z 00000001800404d4 f i libucrt:output.obj
 0001:0003f56c       ?state_case_size@?$output_processor@DV?$stream_output_adapter@D@__crt_stdio_output@@V?$standard_base@DV?$stream_output_adapter@D@__crt_stdio_output@@@2@@__crt_stdio_output@@AEAA_NXZ 000000018004056c f i libucrt:output.obj
 0001:0003f6e8       ?state_case_size@?$output_processor@DV?$string_output_adapter@D@__crt_stdio_output@@V?$standard_base@DV?$string_output_adapter@D@__crt_stdio_output@@@2@@__crt_stdio_output@@AEAA_NXZ 00000001800406e8 f i libucrt:output.obj
 0001:0003f864       ?state_case_size@?$output_processor@_WV?$string_output_adapter@_W@__crt_stdio_output@@V?$standard_base@_WV?$string_output_adapter@_W@__crt_stdio_output@@@2@@__crt_stdio_output@@AEAA_NXZ 0000000180040864 f i libucrt:output.obj
 0001:0003fa08       ?state_case_type@?$output_processor@DV?$stream_output_adapter@D@__crt_stdio_output@@V?$standard_base@DV?$stream_output_adapter@D@__crt_stdio_output@@@2@@__crt_stdio_output@@AEAA_NXZ 0000000180040a08 f i libucrt:output.obj
 0001:0003fc84       ?state_case_type@?$output_processor@DV?$string_output_adapter@D@__crt_stdio_output@@V?$standard_base@DV?$string_output_adapter@D@__crt_stdio_output@@@2@@__crt_stdio_output@@AEAA_NXZ 0000000180040c84 f i libucrt:output.obj
 0001:0003ff00       ?state_case_type@?$output_processor@_WV?$string_output_adapter@_W@__crt_stdio_output@@V?$standard_base@_WV?$string_output_adapter@_W@__crt_stdio_output@@@2@@__crt_stdio_output@@AEAA_NXZ 0000000180040f00 f i libucrt:output.obj
 0001:000401cc       ?type_case_Z@?$output_processor@DV?$string_output_adapter@D@__crt_stdio_output@@V?$standard_base@DV?$string_output_adapter@D@__crt_stdio_output@@@2@@__crt_stdio_output@@AEAA_NXZ 00000001800411cc f i libucrt:output.obj
 0001:000401cc       ?type_case_Z@?$output_processor@DV?$stream_output_adapter@D@__crt_stdio_output@@V?$standard_base@DV?$stream_output_adapter@D@__crt_stdio_output@@@2@@__crt_stdio_output@@AEAA_NXZ 00000001800411cc f i libucrt:output.obj
 0001:0004024c       ?type_case_Z@?$output_processor@_WV?$string_output_adapter@_W@__crt_stdio_output@@V?$standard_base@_WV?$string_output_adapter@_W@__crt_stdio_output@@@2@@__crt_stdio_output@@AEAA_NXZ 000000018004124c f i libucrt:output.obj
 0001:000402cc       ?type_case_a@?$output_processor@DV?$stream_output_adapter@D@__crt_stdio_output@@V?$standard_base@DV?$stream_output_adapter@D@__crt_stdio_output@@@2@@__crt_stdio_output@@AEAA_NXZ 00000001800412cc f i libucrt:output.obj
 0001:000402cc       ?type_case_a@?$output_processor@DV?$string_output_adapter@D@__crt_stdio_output@@V?$standard_base@DV?$string_output_adapter@D@__crt_stdio_output@@@2@@__crt_stdio_output@@AEAA_NXZ 00000001800412cc f i libucrt:output.obj
 0001:000404e8       ?type_case_a@?$output_processor@_WV?$string_output_adapter@_W@__crt_stdio_output@@V?$standard_base@_WV?$string_output_adapter@_W@__crt_stdio_output@@@2@@__crt_stdio_output@@AEAA_NXZ 00000001800414e8 f i libucrt:output.obj
 0001:0004072c       ?type_case_c_tchar@?$output_processor@DV?$stream_output_adapter@D@__crt_stdio_output@@V?$standard_base@DV?$stream_output_adapter@D@__crt_stdio_output@@@2@@__crt_stdio_output@@AEAA_ND@Z 000000018004172c f i libucrt:output.obj
 0001:0004072c       ?type_case_c_tchar@?$output_processor@DV?$string_output_adapter@D@__crt_stdio_output@@V?$standard_base@DV?$string_output_adapter@D@__crt_stdio_output@@@2@@__crt_stdio_output@@AEAA_ND@Z 000000018004172c f i libucrt:output.obj
 0001:000407e0       ?type_case_c_tchar@?$output_processor@_WV?$string_output_adapter@_W@__crt_stdio_output@@V?$standard_base@_WV?$string_output_adapter@_W@__crt_stdio_output@@@2@@__crt_stdio_output@@AEAA_N_W@Z 00000001800417e0 f i libucrt:output.obj
 0001:00040888       ?type_case_integer@?$output_processor@DV?$stream_output_adapter@D@__crt_stdio_output@@V?$standard_base@DV?$stream_output_adapter@D@__crt_stdio_output@@@2@@__crt_stdio_output@@AEAA_NI_N@Z 0000000180041888 f i libucrt:output.obj
 0001:00040888       ?type_case_integer@?$output_processor@_WV?$string_output_adapter@_W@__crt_stdio_output@@V?$standard_base@_WV?$string_output_adapter@_W@__crt_stdio_output@@@2@@__crt_stdio_output@@AEAA_NI_N@Z 0000000180041888 f i libucrt:output.obj
 0001:00040888       ?type_case_integer@?$output_processor@DV?$string_output_adapter@D@__crt_stdio_output@@V?$standard_base@DV?$string_output_adapter@D@__crt_stdio_output@@@2@@__crt_stdio_output@@AEAA_NI_N@Z 0000000180041888 f i libucrt:output.obj
 0001:00040a28       ?type_case_n@?$output_processor@DV?$stream_output_adapter@D@__crt_stdio_output@@V?$standard_base@DV?$stream_output_adapter@D@__crt_stdio_output@@@2@@__crt_stdio_output@@AEAA_NXZ 0000000180041a28 f i libucrt:output.obj
 0001:00040a28       ?type_case_n@?$output_processor@_WV?$string_output_adapter@_W@__crt_stdio_output@@V?$standard_base@_WV?$string_output_adapter@_W@__crt_stdio_output@@@2@@__crt_stdio_output@@AEAA_NXZ 0000000180041a28 f i libucrt:output.obj
 0001:00040a28       ?type_case_n@?$output_processor@DV?$string_output_adapter@D@__crt_stdio_output@@V?$standard_base@DV?$string_output_adapter@D@__crt_stdio_output@@@2@@__crt_stdio_output@@AEAA_NXZ 0000000180041a28 f i libucrt:output.obj
 0001:00040b04       ?type_case_s@?$output_processor@DV?$string_output_adapter@D@__crt_stdio_output@@V?$standard_base@DV?$string_output_adapter@D@__crt_stdio_output@@@2@@__crt_stdio_output@@AEAA_NXZ 0000000180041b04 f i libucrt:output.obj
 0001:00040b04       ?type_case_s@?$output_processor@DV?$stream_output_adapter@D@__crt_stdio_output@@V?$standard_base@DV?$stream_output_adapter@D@__crt_stdio_output@@@2@@__crt_stdio_output@@AEAA_NXZ 0000000180041b04 f i libucrt:output.obj
 0001:00040b94       ?type_case_s@?$output_processor@_WV?$string_output_adapter@_W@__crt_stdio_output@@V?$standard_base@_WV?$string_output_adapter@_W@__crt_stdio_output@@@2@@__crt_stdio_output@@AEAA_NXZ 0000000180041b94 f i libucrt:output.obj
 0001:00040c5c       ?validate_stream_is_ansi_if_required@?$__acrt_stdio_char_traits@D@@SA_NQEAU_iobuf@@@Z 0000000180041c5c f i libucrt:output.obj
 0001:00040ce8       ?write_stored_string_tchar@?$output_processor@DV?$stream_output_adapter@D@__crt_stdio_output@@V?$standard_base@DV?$stream_output_adapter@D@__crt_stdio_output@@@2@@__crt_stdio_output@@AEAA_ND@Z 0000000180041ce8 f i libucrt:output.obj
 0001:00040dc0       ?write_stored_string_tchar@?$output_processor@DV?$string_output_adapter@D@__crt_stdio_output@@V?$standard_base@DV?$string_output_adapter@D@__crt_stdio_output@@@2@@__crt_stdio_output@@AEAA_ND@Z 0000000180041dc0 f i libucrt:output.obj
 0001:00040e98       ?write_stored_string_tchar@?$output_processor@_WV?$string_output_adapter@_W@__crt_stdio_output@@V?$standard_base@_WV?$string_output_adapter@_W@__crt_stdio_output@@@2@@__crt_stdio_output@@AEAA_N_W@Z 0000000180041e98 f i libucrt:output.obj
 0001:00040f88       ?write_string@?$stream_output_adapter@D@__crt_stdio_output@@QEBAXQEBDHQEAH1@Z 0000000180041f88 f i libucrt:output.obj
 0001:00041080       ?write_string@?$string_output_adapter@D@__crt_stdio_output@@QEBAXQEBDHQEAH1@Z 0000000180042080 f i libucrt:output.obj
 0001:0004113c       ?write_string@?$string_output_adapter@_W@__crt_stdio_output@@QEBAXQEB_WHQEAH1@Z 000000018004213c f i libucrt:output.obj
 0001:000411fc       __stdio_common_vfprintf    00000001800421fc f   libucrt:output.obj
 0001:00041288       __stdio_common_vsprintf    0000000180042288 f   libucrt:output.obj
 0001:000414bc       __stdio_common_vswprintf   00000001800424bc f   libucrt:output.obj
 0001:000416f4       wcsdup                     00000001800426f4 f   libucrt:wcsdup.obj
 0001:000416f4       _wcsdup                    00000001800426f4 f   libucrt:wcsdup.obj
 0001:00041778       free                       0000000180042778 f   libucrt:free.obj
 0001:00041780       malloc                     0000000180042780 f   libucrt:malloc.obj
 0001:0004186c       _wfopen                    000000018004286c f   libucrt:fopen.obj
 0001:00041878       _fclose_nolock             0000000180042878 f   libucrt:fclose.obj
 0001:000418fc       fclose                     00000001800428fc f   libucrt:fclose.obj
 0001:00041968       _clearfp                   0000000180042968 f   libucrt:ieee.obj
 0001:000419bc       _control87                 00000001800429bc f   libucrt:ieee.obj
 0001:000419c4       _controlfp                 00000001800429c4 f   libucrt:ieee.obj
 0001:000419d0       _statusfp                  00000001800429d0 f   libucrt:ieee.obj
 0001:00041cb0       __acrt_errno_from_os_error 0000000180042cb0 f   libucrt:errno.obj
 0001:00041cf8       __acrt_errno_map_os_error  0000000180042cf8 f   libucrt:errno.obj
 0001:00041d48       __doserrno                 0000000180042d48 f   libucrt:errno.obj
 0001:00041d68       _errno                     0000000180042d68 f   libucrt:errno.obj
 0001:00041d88       strerror                   0000000180042d88 f   libucrt:strerror.obj
 0001:00041e2c       __acrt_initialize_stdio    0000000180042e2c f   libucrt:_file.obj
 0001:00041f4c       __acrt_iob_func            0000000180042f4c f   libucrt:_file.obj
 0001:00041f60       __acrt_uninitialize_stdio  0000000180042f60 f   libucrt:_file.obj
 0001:00041fbc       _lock_file                 0000000180042fbc f   libucrt:_file.obj
 0001:00041fc8       _unlock_file               0000000180042fc8 f   libucrt:_file.obj
 0001:0004210c       _wfreopen                  000000018004310c f   libucrt:freopen.obj
 0001:0004213c       feof                       000000018004313c f   libucrt:feoferr.obj
 0001:00042168       ferror                     0000000180043168 f   libucrt:feoferr.obj
 0001:00042194       _fread_nolock_s            0000000180043194 f   libucrt:fread.obj
 0001:00042414       fread                      0000000180043414 f   libucrt:fread.obj
 0001:00042434       fread_s                    0000000180043434 f   libucrt:fread.obj
 0001:000424dc       _fgetc_nolock              00000001800434dc f   libucrt:fgetc.obj
 0001:00042520       _getc_nolock               0000000180043520 f   libucrt:fgetc.obj
 0001:00042528       fgetc                      0000000180043528 f   libucrt:fgetc.obj
 0001:0004262c       getc                       000000018004362c f   libucrt:fgetc.obj
 0001:00042634       rewind                     0000000180043634 f   libucrt:rewind.obj
 0001:00042700       _ungetc_nolock             0000000180043700 f   libucrt:ungetc.obj
 0001:00042810       ungetc                     0000000180043810 f   libucrt:ungetc.obj
 0001:00042870       iswctype                   0000000180043870 f   libucrt:iswctype.obj
 0001:000428e0       wcsncpy                    00000001800438e0 f   libucrt:wcsncpy.obj
 0001:00042928       _wcsicmp                   0000000180043928 f   libucrt:wcsicmp.obj
 0001:000429b0       _wcsicmp_l                 00000001800439b0 f   libucrt:wcsicmp.obj
 0001:00042ab0       strncmp                    0000000180043ab0 f   libucrt:strncmp.obj
 0001:00042b40       strcmp                     0000000180043b40 f   libucrt:strcmp.obj
 0001:00042ba8       isdigit                    0000000180043ba8 f i libucrt:_ctype.obj
 0001:00042c1c       isspace                    0000000180043c1c f i libucrt:_ctype.obj
 0001:00042ca0       strncpy                    0000000180043ca0 f   libucrt:strncpy.obj
 0001:00042e04       strpbrk                    0000000180043e04 f   libucrt:strpbrk.obj
 0001:0004361c       _pclose                    000000018004461c f   libucrt:popen.obj
 0001:000436f8       _wpopen                    00000001800446f8 f   libucrt:popen.obj
 0001:00043700       clearerr                   0000000180044700 f   libucrt:clearerr.obj
 0001:00043708       clearerr_s                 0000000180044708 f   libucrt:clearerr.obj
 0001:000437c0       __acrt_stdio_flush_nolock  00000001800447c0 f   libucrt:fflush.obj
 0001:00043838       _fflush_nolock             0000000180044838 f   libucrt:fflush.obj
 0001:00043884       _flushall                  0000000180044884 f   libucrt:fflush.obj
 0001:00043974       fflush                     0000000180044974 f   libucrt:fflush.obj
 0001:00043a94       fgets                      0000000180044a94 f   libucrt:fgets.obj
 0001:00043d10       fseek                      0000000180044d10 f   libucrt:fseek.obj
 0001:000441ec       _ftelli64_nolock           00000001800451ec f   libucrt:ftell.obj
 0001:000441f4       ftell                      00000001800451f4 f   libucrt:ftell.obj
 0001:000441fc       ??$?RV<lambda_5d4c3fee44080f75d5d9762853974fe0>@@AEAV<lambda_532e024f4337e6fc7ad266c2bef9f4ed>@@V<lambda_c87bdc10097eb2402edb8ba9bdf0697b>@@@?$__crt_seh_guarded_call@_K@@QEAA_K$$QEAV<lambda_5d4c3fee44080f75d5d9762853974fe0>@@AEAV<lambda_532e024f4337e6fc7ad266c2bef9f4ed>@@$$QEAV<lambda_c87bdc10097eb2402edb8ba9bdf0697b>@@@Z 00000001800451fc f i libucrt:fwrite.obj
 0001:000442a0       _fwrite_nolock             00000001800452a0 f   libucrt:fwrite.obj
 0001:0004443c       fwrite                     000000018004543c f   libucrt:fwrite.obj
 0001:000444c0       ??$?RV<lambda_7a5ef57ff966f610505f1d28a3d40618>@@AEAV<lambda_b721fa326cdb32351d23dfa67958c160>@@V<lambda_5e0fb27672408a07956fe59e48ccb2aa>@@@?$__crt_seh_guarded_call@H@@QEAAH$$QEAV<lambda_7a5ef57ff966f610505f1d28a3d40618>@@AEAV<lambda_b721fa326cdb32351d23dfa67958c160>@@$$QEAV<lambda_5e0fb27672408a07956fe59e48ccb2aa>@@@Z 00000001800454c0 f i libucrt:setvbuf.obj
 0001:000445f0       setvbuf                    00000001800455f0 f   libucrt:setvbuf.obj
 0001:00044a28       __acrt_stdio_free_tmpfile_name_buffers_nolock 0000000180045a28 f   libucrt:tmpfile.obj
 0001:00044a88       tmpfile                    0000000180045a88 f   libucrt:tmpfile.obj
 0001:00044aac       ??$?RV<lambda_c01e8233c1997d6cc4b8f1fd672e07e5>@@AEAV<lambda_3a6204444a8bad05601fdaf7664f6f17>@@V<lambda_b6ae1896c9cebd71befa8310523e5efb>@@@?$__crt_seh_guarded_call@H@@QEAAH$$QEAV<lambda_c01e8233c1997d6cc4b8f1fd672e07e5>@@AEAV<lambda_3a6204444a8bad05601fdaf7664f6f17>@@$$QEAV<lambda_b6ae1896c9cebd71befa8310523e5efb>@@@Z 0000000180045aac f i libucrt:input.obj
 0001:00044aec       ??$is_overflow_condition@_K@__crt_strtox@@YA_NI_K@Z 0000000180045aec f i libucrt:input.obj
 0001:00044b24       ??$make_input_adapter_character_source@V?$stream_input_adapter@D@__crt_stdio_input@@@__crt_strtox@@YA?AV?$input_adapter_character_source@V?$stream_input_adapter@D@__crt_stdio_input@@@0@QEAV?$stream_input_adapter@D@__crt_stdio_input@@_KQEA_N@Z 0000000180045b24 f i libucrt:input.obj
 0001:00044b44       ??$parse_floating_point@V?$input_adapter_character_source@V?$stream_input_adapter@D@__crt_stdio_input@@@__crt_strtox@@M@__crt_strtox@@YA?AW4SLD_STATUS@@QEAU__crt_locale_pointers@@V?$input_adapter_character_source@V?$stream_input_adapter@D@__crt_stdio_input@@@0@QEAM@Z 0000000180045b44 f i libucrt:input.obj
 0001:00044bec       ??$parse_floating_point@V?$input_adapter_character_source@V?$stream_input_adapter@D@__crt_stdio_input@@@__crt_strtox@@N@__crt_strtox@@YA?AW4SLD_STATUS@@QEAU__crt_locale_pointers@@V?$input_adapter_character_source@V?$stream_input_adapter@D@__crt_stdio_input@@@0@QEAN@Z 0000000180045bec f i libucrt:input.obj
 0001:00044c94       ??$parse_floating_point_from_source@V?$input_adapter_character_source@V?$stream_input_adapter@D@__crt_stdio_input@@@__crt_strtox@@@__crt_strtox@@YA?AW4floating_point_parse_result@0@QEAU__crt_locale_pointers@@AEAV?$input_adapter_character_source@V?$stream_input_adapter@D@__crt_stdio_input@@@0@AEAUfloating_point_string@0@@Z 0000000180045c94 f i libucrt:input.obj
 0001:00045460       ??$parse_floating_point_possible_infinity@DV?$input_adapter_character_source@V?$stream_input_adapter@D@__crt_stdio_input@@@__crt_strtox@@_K@__crt_strtox@@YA?AW4floating_point_parse_result@0@AEADAEAV?$input_adapter_character_source@V?$stream_input_adapter@D@__crt_stdio_input@@@0@_K@Z 0000000180046460 f i libucrt:input.obj
 0001:00045628       ??$parse_floating_point_possible_nan@DV?$input_adapter_character_source@V?$stream_input_adapter@D@__crt_stdio_input@@@__crt_strtox@@_K@__crt_strtox@@YA?AW4floating_point_parse_result@0@AEADAEAV?$input_adapter_character_source@V?$stream_input_adapter@D@__crt_stdio_input@@@0@_K@Z 0000000180046628 f i libucrt:input.obj
 0001:000458a0       ??$parse_floating_point_possible_nan_is_ind@DV?$input_adapter_character_source@V?$stream_input_adapter@D@__crt_stdio_input@@@__crt_strtox@@@__crt_strtox@@YA_NAEADAEAV?$input_adapter_character_source@V?$stream_input_adapter@D@__crt_stdio_input@@@0@@Z 00000001800468a0 f i libucrt:input.obj
 0001:00045934       ??$parse_floating_point_possible_nan_is_snan@DV?$input_adapter_character_source@V?$stream_input_adapter@D@__crt_stdio_input@@@__crt_strtox@@@__crt_strtox@@YA_NAEADAEAV?$input_adapter_character_source@V?$stream_input_adapter@D@__crt_stdio_input@@@0@@Z 0000000180046934 f i libucrt:input.obj
 0001:000459c8       ??$parse_floating_point_write_result@M@__crt_strtox@@YA?AW4SLD_STATUS@@W4floating_point_parse_result@0@AEBUfloating_point_string@0@QEAM@Z 00000001800469c8 f i libucrt:input.obj
 0001:00045ae0       ??$parse_floating_point_write_result@N@__crt_strtox@@YA?AW4SLD_STATUS@@W4floating_point_parse_result@0@AEBUfloating_point_string@0@QEAN@Z 0000000180046ae0 f i libucrt:input.obj
 0001:00045c08       ??$parse_integer@_KV?$input_adapter_character_source@V?$stream_input_adapter@D@__crt_stdio_input@@@__crt_strtox@@@__crt_strtox@@YA_KQEAU__crt_locale_pointers@@V?$input_adapter_character_source@V?$stream_input_adapter@D@__crt_stdio_input@@@0@H_N@Z 0000000180046c08 f i libucrt:input.obj
 0001:000460a8       ??$process_floating_point_specifier_t@M@?$input_processor@DV?$stream_input_adapter@D@__crt_stdio_input@@@__crt_stdio_input@@AEAA_NXZ 00000001800470a8 f i libucrt:input.obj
 0001:00046148       ??$process_floating_point_specifier_t@N@?$input_processor@DV?$stream_input_adapter@D@__crt_stdio_input@@@__crt_stdio_input@@AEAA_NXZ 0000000180047148 f i libucrt:input.obj
 0001:000461ec       ??$process_string_specifier_tchar@D@?$input_processor@DV?$stream_input_adapter@D@__crt_stdio_input@@@__crt_stdio_input@@AEAA_NW4conversion_mode@1@D@Z 00000001800471ec f i libucrt:input.obj
 0001:0004639c       ??$process_string_specifier_tchar@_W@?$input_processor@DV?$stream_input_adapter@D@__crt_stdio_input@@@__crt_stdio_input@@AEAA_NW4conversion_mode@1@_W@Z 000000018004739c f i libucrt:input.obj
 0001:00046584       ??$skip_whitespace@Vstream_input_adapter@__crt_stdio_input@@D@__crt_stdio_input@@YAHAEAV?$stream_input_adapter@D@0@QEAU__crt_locale_pointers@@@Z 0000000180047584 f i libucrt:input.obj
 0001:00046774       ?advance@?$format_string_parser@D@__crt_stdio_input@@QEAA_NXZ 0000000180047774 f i libucrt:input.obj
 0001:00046944       ?as_double@floating_point_value@__crt_strtox@@QEBAAEANXZ 0000000180047944 f i libucrt:input.obj
 0001:00046980       ?as_float@floating_point_value@__crt_strtox@@QEBAAEAMXZ 0000000180047980 f i libucrt:input.obj
 0001:000469bc       ?assemble_floating_point_value@__crt_strtox@@YA?AW4SLD_STATUS@@_KH_N1AEBVfloating_point_value@1@@Z 00000001800479bc f i libucrt:input.obj
 0001:00046d70       ?assemble_floating_point_value_from_big_integer@__crt_strtox@@YA?AW4SLD_STATUS@@AEBUbig_integer@1@I_N1AEBVfloating_point_value@1@@Z 0000000180047d70 f i libucrt:input.obj
 0001:00046efc       ?convert_decimal_string_to_floating_type_common@__crt_strtox@@YA?AW4SLD_STATUS@@AEBUfloating_point_string@1@AEBVfloating_point_value@1@@Z 0000000180047efc f i libucrt:input.obj
 0001:00048cc0       ?convert_hexadecimal_string_to_floating_type_common@__crt_strtox@@YA?AW4SLD_STATUS@@AEBUfloating_point_string@1@AEBVfloating_point_value@1@@Z 0000000180049cc0 f i libucrt:input.obj
 0001:00048d70       ?divide@__crt_strtox@@YA_KAEAUbig_integer@1@AEBU21@@Z 0000000180049d70 f i libucrt:input.obj
 0001:00049240       ?length@?$format_string_parser@D@__crt_stdio_input@@QEBA_KXZ 000000018004a240 f i libucrt:input.obj
 0001:000492dc       ?process@?$input_processor@DV?$stream_input_adapter@D@__crt_stdio_input@@@__crt_stdio_input@@QEAAHXZ 000000018004a2dc f i libucrt:input.obj
 0001:000493b8       ?process_conversion_specifier@?$input_processor@DV?$stream_input_adapter@D@__crt_stdio_input@@@__crt_stdio_input@@AEAA_NXZ 000000018004a3b8 f i libucrt:input.obj
 0001:000494d8       ?process_floating_point_specifier@?$input_processor@DV?$stream_input_adapter@D@__crt_stdio_input@@@__crt_stdio_input@@AEAA_NXZ 000000018004a4d8 f i libucrt:input.obj
 0001:0004953c       ?process_integer_specifier@?$input_processor@DV?$stream_input_adapter@D@__crt_stdio_input@@@__crt_stdio_input@@AEAA_NI_N@Z 000000018004a53c f i libucrt:input.obj
 0001:000495e0       ?process_literal_character_tchar@?$input_processor@DV?$stream_input_adapter@D@__crt_stdio_input@@@__crt_stdio_input@@AEAA_ND@Z 000000018004a5e0 f i libucrt:input.obj
 0001:00049658       ?process_state@?$input_processor@DV?$stream_input_adapter@D@__crt_stdio_input@@@__crt_stdio_input@@AEAA_NXZ 000000018004a658 f i libucrt:input.obj
 0001:000496fc       ?process_string_specifier@?$input_processor@DV?$stream_input_adapter@D@__crt_stdio_input@@@__crt_stdio_input@@AEAA_NW4conversion_mode@2@@Z 000000018004a6fc f i libucrt:input.obj
 0001:0004977c       ?scan_conversion_specifier@?$format_string_parser@D@__crt_stdio_input@@AEAA_NXZ 000000018004a77c f i libucrt:input.obj
 0001:00049938       ?scan_optional_field_width@?$format_string_parser@D@__crt_stdio_input@@AEAA_NXZ 000000018004a938 f i libucrt:input.obj
 0001:000499e0       ?scan_optional_length_modifier@?$format_string_parser@D@__crt_stdio_input@@AEAAXXZ 000000018004a9e0 f i libucrt:input.obj
 0001:00049b0c       ?scan_scanset_range@?$format_string_parser@D@__crt_stdio_input@@AEAA_NXZ 000000018004ab0c f i libucrt:input.obj
 0001:00049ca0       ?write_character@?$input_processor@DV?$stream_input_adapter@D@__crt_stdio_input@@@__crt_stdio_input@@AEAA_NQEFA_W_KAEAPEFA_WAEA_KD@Z 000000018004aca0 f i libucrt:input.obj
 0001:00049d38       ?write_integer@?$input_processor@DV?$stream_input_adapter@D@__crt_stdio_input@@@__crt_stdio_input@@AEAA_N_K_N@Z 000000018004ad38 f i libucrt:input.obj
 0001:00049db8       __stdio_common_vfscanf     000000018004adb8 f   libucrt:input.obj
 0001:0004a0d4       _wdupenv_s                 000000018004b0d4 f   libucrt:getenv.obj
 0001:0004a0f4       _wgetenv                   000000018004b0f4 f   libucrt:getenv.obj
 0001:0004a0fc       _wsystem                   000000018004b0fc f   libucrt:system.obj
 0001:0004a238       wcscmp                     000000018004b238 f   libucrt:wcscmp.obj
 0001:0004a270       _initterm                  000000018004b270 f   libucrt:initterm.obj
 0001:0004a2e8       _initterm_e                000000018004b2e8 f   libucrt:initterm.obj
 0001:0004a334       _seh_filter_dll            000000018004b334 f   libucrt:exception_filter.obj
 0001:0004a348       _seh_filter_exe            000000018004b348 f   libucrt:exception_filter.obj
 0001:0004a708       __acrt_initialize_thread_local_exit_callback 000000018004b708 f   libucrt:exit.obj
 0001:0004a710       _cexit                     000000018004b710 f   libucrt:exit.obj
 0001:0004a720       _exit                      000000018004b720 f   libucrt:exit.obj
 0001:0004a72c       _is_c_termination_complete 000000018004b72c f   libucrt:exit.obj
 0001:0004ab7c       __dcrt_get_or_create_wide_environment_nolock 000000018004bb7c f   libucrt:environment_initialization.obj
 0001:0004ab84       __dcrt_uninitialize_environments_nolock 000000018004bb84 f   libucrt:environment_initialization.obj
 0001:0004abbc       _initialize_narrow_environment 000000018004bbbc f   libucrt:environment_initialization.obj
 0001:0004abc4       ??$?RV<lambda_b8c45f8f788dd370798f47cfe8ac3a86>@@AEAV<lambda_4e60a939b0d047cfe11ddc22648dfba9>@@V<lambda_332c3edc96d0294ec56c57d38c1cdfd5>@@@?$__crt_seh_guarded_call@H@@QEAAH$$QEAV<lambda_b8c45f8f788dd370798f47cfe8ac3a86>@@AEAV<lambda_4e60a939b0d047cfe11ddc22648dfba9>@@$$QEAV<lambda_332c3edc96d0294ec56c57d38c1cdfd5>@@@Z 000000018004bbc4 f i libucrt:onexit.obj
 0001:0004ac00       ??$?RV<lambda_e24bbb7b643b32fcea6fa61b31d4c984>@@AEAV<lambda_275893d493268fdec8709772e3fcec0e>@@V<lambda_9d71df4d7cf3f480f8d633942495c3b0>@@@?$__crt_seh_guarded_call@H@@QEAAH$$QEAV<lambda_e24bbb7b643b32fcea6fa61b31d4c984>@@AEAV<lambda_275893d493268fdec8709772e3fcec0e>@@$$QEAV<lambda_9d71df4d7cf3f480f8d633942495c3b0>@@@Z 000000018004bc00 f i libucrt:onexit.obj
 0001:0004af7c       _crt_atexit                000000018004bf7c f   libucrt:onexit.obj
 0001:0004af8c       _execute_onexit_table      000000018004bf8c f   libucrt:onexit.obj
 0001:0004afc8       _initialize_onexit_table   000000018004bfc8 f   libucrt:onexit.obj
 0001:0004b008       _register_onexit_function  000000018004c008 f   libucrt:onexit.obj
 0001:0004b098       __acrt_uninitialize_command_line 000000018004c098 f   libucrt:argv_data.obj
 0001:0004b188       __acrt_initialize          000000018004c188 f   libucrt:initialization.obj
 0001:0004b19c       __acrt_thread_attach       000000018004c19c f   libucrt:initialization.obj
 0001:0004b1b0       __acrt_thread_detach       000000018004c1b0 f   libucrt:initialization.obj
 0001:0004b1c0       __acrt_uninitialize        000000018004c1c0 f   libucrt:initialization.obj
 0001:0004b1d4       __acrt_uninitialize_critical 000000018004c1d4 f   libucrt:initialization.obj
 0001:0004b1e4       terminate                  000000018004c1e4 f   libucrt:terminate.obj
 0001:0004b434       _strupr                    000000018004c434 f   libucrt:strupr.obj
 0001:0004b434       strupr                     000000018004c434 f   libucrt:strupr.obj
 0001:0004b490       _strupr_s_l                000000018004c490 f   libucrt:strupr.obj
 0001:0004b4dc       _free_base                 000000018004c4dc f   libucrt:free_base.obj
 0001:0004b51c       _malloc_base               000000018004c51c f   libucrt:malloc_base.obj
 0001:0004b57c       strcpy_s                   000000018004c57c f   libucrt:strcpy_s.obj
 0001:0004b5dc       abort                      000000018004c5dc f   libucrt:abort.obj
 0001:0004b634       _calloc_base               000000018004c634 f   libucrt:calloc_base.obj
 0001:0004b6ac       ??$is_overflow_condition@K@__crt_strtox@@YA_NIK@Z 000000018004c6ac f i libucrt:atox.obj
 0001:0004b6d8       ??$parse_integer@KV?$c_string_character_source@D@__crt_strtox@@@__crt_strtox@@YAKQEAU__crt_locale_pointers@@V?$c_string_character_source@D@0@H_N@Z 000000018004c6d8 f i libucrt:atox.obj
 0001:0004b9ec       ??$parse_integer@KV?$c_string_character_source@_W@__crt_strtox@@@__crt_strtox@@YAKQEAU__crt_locale_pointers@@V?$c_string_character_source@_W@0@H_N@Z 000000018004c9ec f i libucrt:atox.obj
 0001:0004c0c0       ??$parse_integer@_KV?$c_string_character_source@D@__crt_strtox@@@__crt_strtox@@YA_KQEAU__crt_locale_pointers@@V?$c_string_character_source@D@0@H_N@Z 000000018004d0c0 f i libucrt:atox.obj
 0001:0004c3f4       __acrt_call_reportfault    000000018004d3f4 f   libucrt:invalid_parameter.obj
 0001:0004c550       __acrt_initialize_invalid_parameter_handler 000000018004d550 f   libucrt:invalid_parameter.obj
 0001:0004c558       _invalid_parameter         000000018004d558 f   libucrt:invalid_parameter.obj
 0001:0004c600       _invalid_parameter_noinfo  000000018004d600 f   libucrt:invalid_parameter.obj
 0001:0004c620       _invoke_watson             000000018004d620 f   libucrt:invalid_parameter.obj
 0001:0004c6b8       _tolower_l                 000000018004d6b8 f   libucrt:tolower_toupper.obj
 0001:0004c7f8       tolower                    000000018004d7f8 f   libucrt:tolower_toupper.obj
 0001:0004c824       ??$make_c_string_character_source@_WPEAPEA_W@__crt_strtox@@YA?AV?$c_string_character_source@_W@0@QEB_WQEAPEA_W@Z 000000018004d824 f i libucrt:strtox.obj
 0001:0004c824       ??$make_c_string_character_source@DPEAPEAD@__crt_strtox@@YA?AV?$c_string_character_source@D@0@QEBDQEAPEAD@Z 000000018004d824 f i libucrt:strtox.obj
 0001:0004c838       strtol                     000000018004d838 f   libucrt:strtox.obj
 0001:0004c868       strtoull                   000000018004d868 f   libucrt:strtox.obj
 0001:0004c898       wcstol                     000000018004d898 f   libucrt:strtox.obj
 0001:0004c8c8       _mbtowc_l                  000000018004d8c8 f   libucrt:mbtowc.obj
 0001:0004ca10       mbtowc                     000000018004da10 f   libucrt:mbtowc.obj
 0001:0004ca18       _wctomb_s_l                000000018004da18 f   libucrt:wctomb.obj
 0001:0004cb9c       wctomb_s                   000000018004db9c f   libucrt:wctomb.obj
 0001:0004cbb0       strnlen                    000000018004dbb0 f   libucrt:strnlen.obj
 0001:0004cd0c       wcsnlen                    000000018004dd0c f   libucrt:strnlen.obj
 0001:0004cefc       ??$?RV<lambda_46352004c1216016012b18bd6f87e700>@@AEAV<lambda_3bd07e1a1191394380780325891bf33f>@@V<lambda_334532d3f185bcaa59b5be82d7d22bff>@@@?$__crt_seh_guarded_call@X@@QEAAX$$QEAV<lambda_46352004c1216016012b18bd6f87e700>@@AEAV<lambda_3bd07e1a1191394380780325891bf33f>@@$$QEAV<lambda_334532d3f185bcaa59b5be82d7d22bff>@@@Z 000000018004defc f i libucrt:per_thread_data.obj
 0001:0004cf5c       ??$?RV<lambda_5e887d1dcbef67a5eb4283622ba103bf>@@AEAV<lambda_4466841279450cc726390878d4a41900>@@V<lambda_341c25c0346d94847f1f3c463c57e077>@@@?$__crt_seh_guarded_call@X@@QEAAX$$QEAV<lambda_5e887d1dcbef67a5eb4283622ba103bf>@@AEAV<lambda_4466841279450cc726390878d4a41900>@@$$QEAV<lambda_341c25c0346d94847f1f3c463c57e077>@@@Z 000000018004df5c f i libucrt:per_thread_data.obj
 0001:0004cfa4       ??$?RV<lambda_72d1df2b273a38828b1ce30cbf4cdab5>@@AEAV<lambda_876a65b173b8412d3a47c70a915b0cf4>@@V<lambda_41932305e351933ebe8f8be3ed8bb5dc>@@@?$__crt_seh_guarded_call@X@@QEAAX$$QEAV<lambda_72d1df2b273a38828b1ce30cbf4cdab5>@@AEAV<lambda_876a65b173b8412d3a47c70a915b0cf4>@@$$QEAV<lambda_41932305e351933ebe8f8be3ed8bb5dc>@@@Z 000000018004dfa4 f i libucrt:per_thread_data.obj
 0001:0004cfe4       ??$?RV<lambda_fb3a7dec4e47f37f22dae91bb15c9095>@@AEAV<lambda_698284760c8add0bfb0756c19673e34b>@@V<lambda_dfb8eca1e75fef3034a8fb18dd509707>@@@?$__crt_seh_guarded_call@X@@QEAAX$$QEAV<lambda_fb3a7dec4e47f37f22dae91bb15c9095>@@AEAV<lambda_698284760c8add0bfb0756c19673e34b>@@$$QEAV<lambda_dfb8eca1e75fef3034a8fb18dd509707>@@@Z 000000018004dfe4 f i libucrt:per_thread_data.obj
 0001:0004d274       __acrt_freeptd             000000018004e274 f   libucrt:per_thread_data.obj
 0001:0004d2b8       __acrt_getptd              000000018004e2b8 f   libucrt:per_thread_data.obj
 0001:0004d34c       __acrt_getptd_noexit       000000018004e34c f   libucrt:per_thread_data.obj
 0001:0004d3ec       __acrt_initialize_ptd      000000018004e3ec f   libucrt:per_thread_data.obj
 0001:0004d428       __acrt_uninitialize_ptd    000000018004e428 f   libucrt:per_thread_data.obj
 0001:0004d44c       __acrt_update_locale_info  000000018004e44c f   libucrt:locale_update.obj
 0001:0004d480       __acrt_update_multibyte_info 000000018004e480 f   libucrt:locale_update.obj
 0001:0004d4b4       ?__acrt_fp_classify@@YA?AW4__acrt_fp_class@@AEBN@Z 000000018004e4b4 f i libucrt:cvt.obj
 0001:0004deec       __acrt_fp_format           000000018004eeec f   libucrt:cvt.obj
 0001:0004e130       _fileno                    000000018004f130 f   libucrt:fileno.obj
 0001:0004e158       _fputc_nolock              000000018004f158 f   libucrt:fputc.obj
 0001:0004e170       _get_printf_count_output   000000018004f170 f   libucrt:printf_count_output.obj
 0001:0004e188       __acrt_stdio_begin_temporary_buffering_nolock 000000018004f188 f   libucrt:_sftbuf.obj
 0001:0004e258       __acrt_stdio_end_temporary_buffering_nolock 000000018004f258 f   libucrt:_sftbuf.obj
 0001:0004e294       __acrt_set_locale_changed  000000018004f294 f   libucrt:wsetlocale.obj
 0001:0004e2a0       __acrt_uninitialize_locale 000000018004f2a0 f   libucrt:wsetlocale.obj
 0001:0004e4d0       __acrt_initialize_lowio    000000018004f4d0 f   libucrt:ioinit.obj
 0001:0004e50c       __acrt_uninitialize_lowio  000000018004f50c f   libucrt:ioinit.obj
 0001:0004e54c       wcscpy_s                   000000018004f54c f   libucrt:wcscpy_s.obj
 0001:0004e5b4       ?__acrt_stdio_allocate_stream@@YA?AV__crt_stdio_stream@@XZ 000000018004f5b4 f   libucrt:stream.obj
 0001:0004e610       ?__acrt_stdio_free_stream@@YAXV__crt_stdio_stream@@@Z 000000018004f610 f   libucrt:stream.obj
 0001:0004e740       ??$__acrt_stdio_parse_mode@_W@@YA?AU__acrt_stdio_stream_mode@@QEB_W@Z 000000018004f740 f i libucrt:openfile.obj
 0001:0004ea04       _wopenfile                 000000018004fa04 f   libucrt:openfile.obj
 0001:0004eaa0       ??$?RV<lambda_bfedae4ebbf01fab1bb6dcc6a9e276e0>@@AEAV<lambda_2fe9b910cf3cbf4a0ab98a02ba45b3ec>@@V<lambda_237c231691f317818eb88cc1d5d642d6>@@@?$__crt_seh_guarded_call@H@@QEAAH$$QEAV<lambda_bfedae4ebbf01fab1bb6dcc6a9e276e0>@@AEAV<lambda_2fe9b910cf3cbf4a0ab98a02ba45b3ec>@@$$QEAV<lambda_237c231691f317818eb88cc1d5d642d6>@@@Z 000000018004faa0 f i libucrt:close.obj
 0001:0004eb14       _close                     000000018004fb14 f   libucrt:close.obj
 0001:0004ebb8       _close_nolock              000000018004fbb8 f   libucrt:close.obj
 0001:0004ec74       __acrt_stdio_free_buffer_nolock 000000018004fc74 f   libucrt:_freebuf.obj
 0001:0004ecd0       _get_fpsr                  000000018004fcd0 f   libucrt:fpsr.obj
 0001:0004ece0       _set_fpsr                  000000018004fce0 f   libucrt:fpsr.obj
 0001:0004ecea       _fclrf                     000000018004fcea f   libucrt:fpsr.obj
 0001:0004ecfe       _frnd                      000000018004fcfe f   libucrt:fpsr.obj
 0001:0004ed20       __sys_errlist              000000018004fd20 f   libucrt:syserr.obj
 0001:0004ed28       __sys_nerr                 000000018004fd28 f   libucrt:syserr.obj
 0001:0004ed30       strncpy_s                  000000018004fd30 f   libucrt:strncpy_s.obj
 0001:0004efa4       __acrt_AreFileApisANSI     000000018004ffa4 f   libucrt:winapi_thunks.obj
 0001:0004eff0       __acrt_CompareStringEx     000000018004fff0 f   libucrt:winapi_thunks.obj
 0001:0004f0e0       __acrt_FlsAlloc            00000001800500e0 f   libucrt:winapi_thunks.obj
 0001:0004f138       __acrt_FlsFree             0000000180050138 f   libucrt:winapi_thunks.obj
 0001:0004f190       __acrt_FlsGetValue         0000000180050190 f   libucrt:winapi_thunks.obj
 0001:0004f1e8       __acrt_FlsSetValue         00000001800501e8 f   libucrt:winapi_thunks.obj
 0001:0004f250       __acrt_InitializeCriticalSectionEx 0000000180050250 f   libucrt:winapi_thunks.obj
 0001:0004f2c8       __acrt_LCMapStringEx       00000001800502c8 f   libucrt:winapi_thunks.obj
 0001:0004f3b8       __acrt_LocaleNameToLCID    00000001800503b8 f   libucrt:winapi_thunks.obj
 0001:0004f420       __acrt_initialize_winapi_thunks 0000000180050420 f   libucrt:winapi_thunks.obj
 0001:0004f458       __acrt_is_packaged_app     0000000180050458 f   libucrt:winapi_thunks.obj
 0001:0004f4e0       __acrt_uninitialize_winapi_thunks 00000001800504e0 f   libucrt:winapi_thunks.obj
 0001:0004f524       _fcloseall                 0000000180050524 f   libucrt:closeall.obj
 0001:0004fb08       _read                      0000000180050b08 f   libucrt:read.obj
 0001:0004fc20       _read_nolock               0000000180050c20 f   libucrt:read.obj
 0001:00050230       __acrt_stdio_refill_and_read_narrow_nolock 0000000180051230 f   libucrt:_filbuf.obj
 0001:000505dc       _lseek                     00000001800515dc f   libucrt:lseek.obj
 0001:000505e4       _lseeki64                  00000001800515e4 f   libucrt:lseek.obj
 0001:000505ec       _lseeki64_nolock           00000001800515ec f   libucrt:lseek.obj
 0001:000505f4       __acrt_stdio_allocate_buffer_nolock 00000001800515f4 f   libucrt:_getbuf.obj
 0001:00050658       __pctype_func              0000000180051658 f   libucrt:ctype.obj
 0001:00050688       _towlower_l                0000000180051688 f   libucrt:towlower.obj
 0001:0005074c       _isctype_l                 000000018005174c f   libucrt:isctype.obj
 0001:0005085c       _recalloc                  000000018005185c f   libucrt:recalloc.obj
 0001:00050864       _recalloc_base             0000000180051864 f   libucrt:recalloc.obj
 0001:000508fc       wcscat_s                   00000001800518fc f   libucrt:wcscat_s.obj
 0001:0005097c       _cwait                     000000018005197c f   libucrt:wait.obj
 0001:00050a34       __acrt_wgetpath            0000000180051a34 f   libucrt:getpath.obj
 0001:00050b14       __acrt_initialize_locks    0000000180051b14 f   libucrt:locks.obj
 0001:00050b5c       __acrt_lock                0000000180051b5c f   libucrt:locks.obj
 0001:00050b78       __acrt_uninitialize_locks  0000000180051b78 f   libucrt:locks.obj
 0001:00050bb0       __acrt_unlock              0000000180051bb0 f   libucrt:locks.obj
 0001:00050bcc       _waccess_s                 0000000180051bcc f   libucrt:waccess.obj
 0001:00050c78       _pipe                      0000000180051c78 f   libucrt:pipe.obj
 0001:00051018       _wfdopen                   0000000180052018 f   libucrt:fdopen.obj
 0001:00051020       ??$?RV<lambda_b521505b218e5242e90febf6bfebc422>@@AEAV<lambda_6978c1fb23f02e42e1d9e99668cc68aa>@@V<lambda_314360699dd331753a4119843814e9a7>@@@?$__crt_seh_guarded_call@H@@QEAAH$$QEAV<lambda_b521505b218e5242e90febf6bfebc422>@@AEAV<lambda_6978c1fb23f02e42e1d9e99668cc68aa>@@$$QEAV<lambda_314360699dd331753a4119843814e9a7>@@@Z 0000000180052020 f i libucrt:commit.obj
 0001:000510ac       _commit                    00000001800520ac f   libucrt:commit.obj
 0001:000516e0       _write                     00000001800526e0 f   libucrt:write.obj
 0001:000517cc       _write_nolock              00000001800527cc f   libucrt:write.obj
 0001:00051bb4       __acrt_stdio_flush_and_write_narrow_nolock 0000000180052bb4 f   libucrt:_flsbuf.obj
 0001:00051dac       _ui64toa_s                 0000000180052dac f   libucrt:xtoa.obj
 0001:00051dc0       _strdup                    0000000180052dc0 f   libucrt:strdup.obj
 0001:00051e38       __acrt_GetTempPathA        0000000180052e38 f   libucrt:gettemppath.obj
 0001:00052604       _sopen_nolock              0000000180053604 f   libucrt:open.obj
 0001:00052694       _sopen_s                   0000000180053694 f   libucrt:open.obj
 0001:000526c8       _wsopen_nolock             00000001800536c8 f   libucrt:open.obj
 0001:00052ab8       _wsopen_s                  0000000180053ab8 f   libucrt:open.obj
 0001:00052aec       __acrt_uninitialize_tmpfile 0000000180053aec f   libucrt:rmtmp.obj
 0001:00052b00       _rmtmp                     0000000180053b00 f   libucrt:rmtmp.obj
 0001:00052b94       fegetround                 0000000180053b94 f   libucrt:fegetround.obj
 0001:00052ba8       calloc                     0000000180053ba8 f   libucrt:calloc.obj
 0001:00052bb0       _wcsnicoll                 0000000180053bb0 f   libucrt:wcsnicol.obj
 0001:00052c44       _wcsnicoll_l               0000000180053c44 f   libucrt:wcsnicol.obj
 0001:00052d78       ??$?RV<lambda_fb01e4b6cb0b58be62120d2a518119ce>@@AEAV<lambda_45edfab556fcff821d8a41c06e3d46c0>@@V<lambda_8a9bf702b7f902ca2f9107a173e0fbe3>@@@?$__crt_seh_guarded_call@_N@@QEAA_N$$QEAV<lambda_fb01e4b6cb0b58be62120d2a518119ce>@@AEAV<lambda_45edfab556fcff821d8a41c06e3d46c0>@@$$QEAV<lambda_8a9bf702b7f902ca2f9107a173e0fbe3>@@@Z 0000000180053d78 f i libucrt:spawnv.obj
 0001:00053478       _wspawnve                  0000000180054478 f   libucrt:spawnv.obj
 0001:000537c0       _wspawnvpe                 00000001800547c0 f   libucrt:spawnvp.obj
 0001:000537c8       ??$?RV<lambda_99476a1ad63dd22509b5d3e65b0ffc95>@@AEAV<lambda_ad1ced32f4ac17aa236e5ef05d6b3b7c>@@V<lambda_f7424dd8d45958661754dc4f2697e9c3>@@@?$__crt_seh_guarded_call@X@@QEAAX$$QEAV<lambda_99476a1ad63dd22509b5d3e65b0ffc95>@@AEAV<lambda_ad1ced32f4ac17aa236e5ef05d6b3b7c>@@$$QEAV<lambda_f7424dd8d45958661754dc4f2697e9c3>@@@Z 00000001800547c8 f i libucrt:mbctype.obj
 0001:00053ec4       __acrt_initialize_multibyte 0000000180054ec4 f   libucrt:mbctype.obj
 0001:00053eec       __acrt_update_thread_multibyte_data 0000000180054eec f   libucrt:mbctype.obj
 0001:00053fac       _setmbcp_nolock            0000000180054fac f   libucrt:mbctype.obj
 0001:00054254       __dcrt_get_narrow_environment_from_os 0000000180055254 f   libucrt:get_environment_from_os.obj
 0001:00054358       __dcrt_get_wide_environment_from_os 0000000180055358 f   libucrt:get_environment_from_os.obj
 0001:000547d4       __dcrt_set_variable_in_wide_environment_nolock 00000001800557d4 f   libucrt:setenv.obj
 0001:000547dc       __acrt_initialize_heap     00000001800557dc f   libucrt:heap_handle.obj
 0001:000547f8       __acrt_uninitialize_heap   00000001800557f8 f   libucrt:heap_handle.obj
 0001:00054804       __acrt_initialize_command_line 0000000180055804 f   libucrt:argv_data.obj
 0001:0005482c       __acrt_execute_initializers 000000018005582c f   libucrt:shared_initialization.obj
 0001:000548c0       __acrt_execute_uninitializers 00000001800558c0 f   libucrt:shared_initialization.obj
 0001:00054910       __acrt_initialize_new_handler 0000000180055910 f   libucrt:new_handler.obj
 0001:00054918       _callnewh                  0000000180055918 f   libucrt:new_handler.obj
 0001:00054958       _query_new_handler         0000000180055958 f   libucrt:new_handler.obj
 0001:0005498c       ??$?RV<lambda_c36588078e9f5dfd39652860aa6b3aaf>@@AEAV<lambda_ec61778202f4f5fc7e7711acc23c3bca>@@V<lambda_dc9d2797ccde5d239b4a0efae8ebd7db>@@@?$__crt_seh_guarded_call@P6AXH@Z@@QEAAP6AXH@Z$$QEAV<lambda_c36588078e9f5dfd39652860aa6b3aaf>@@AEAV<lambda_ec61778202f4f5fc7e7711acc23c3bca>@@$$QEAV<lambda_dc9d2797ccde5d239b4a0efae8ebd7db>@@@Z 000000018005598c f i libucrt:signal.obj
 0001:000549d4       __acrt_get_sigabrt_handler 00000001800559d4 f   libucrt:signal.obj
 0001:00054a04       __acrt_initialize_signal_handlers 0000000180055a04 f   libucrt:signal.obj
 0001:00054a24       raise                      0000000180055a24 f   libucrt:signal.obj
 0001:00054cc0       __acrt_has_user_matherr    0000000180055cc0 f   libucrt:matherr.obj
 0001:00054ce0       __acrt_initialize_user_matherr 0000000180055ce0 f   libucrt:matherr.obj
 0001:00054ce8       __acrt_invoke_user_matherr 0000000180055ce8 f   libucrt:matherr.obj
 0001:0005508c       __acrt_LCMapStringA        000000018005608c f   libucrt:lcmapstringa.obj
 0001:00055124       _query_new_mode            0000000180056124 f   libucrt:new_mode.obj
 0001:0005512c       _isleadbyte_l              000000018005612c f i libucrt:_wctype.obj
 0001:0005516c       __acrt_add_locale_ref      000000018005616c f   libucrt:locale_refcounting.obj
 0001:000551f8       __acrt_free_locale         00000001800561f8 f   libucrt:locale_refcounting.obj
 0001:00055370       __acrt_locale_add_lc_time_reference 0000000180056370 f   libucrt:locale_refcounting.obj
 0001:00055398       __acrt_locale_free_lc_time_if_unreferenced 0000000180056398 f   libucrt:locale_refcounting.obj
 0001:000553d0       __acrt_locale_release_lc_time_reference 00000001800563d0 f   libucrt:locale_refcounting.obj
 0001:000553f8       __acrt_release_locale_ref  00000001800563f8 f   libucrt:locale_refcounting.obj
 0001:000554a0       __acrt_update_thread_locale_data 00000001800564a0 f   libucrt:locale_refcounting.obj
 0001:00055510       _updatetlocinfoEx_nolock   0000000180056510 f   libucrt:locale_refcounting.obj
 0001:00055578       __acrt_fp_strflt_to_string 0000000180056578 f   libucrt:_fptostr.obj
 0001:00055638       __acrt_fltout              0000000180056638 f   libucrt:cfout.obj
 0001:000569a4       _isatty                    00000001800579a4 f   libucrt:isatty.obj
 0001:00056a04       __acrt_locale_free_monetary 0000000180057a04 f   libucrt:initmon.obj
 0001:00056b10       __acrt_locale_free_numeric 0000000180057b10 f   libucrt:initnum.obj
 0001:00056bd4       __acrt_locale_free_time    0000000180057bd4 f   libucrt:inittime.obj
 0001:00056cdc       wcsncmp                    0000000180057cdc f   libucrt:wcsncmp.obj
 0001:00056d08       __acrt_GetStringTypeA      0000000180057d08 f   libucrt:getstringtypea.obj
 0001:00056ebc       __acrt_lowio_create_handle_array 0000000180057ebc f   libucrt:osfinfo.obj
 0001:00056f54       __acrt_lowio_destroy_handle_array 0000000180057f54 f   libucrt:osfinfo.obj
 0001:00056fa4       __acrt_lowio_ensure_fh_exists 0000000180057fa4 f   libucrt:osfinfo.obj
 0001:0005705c       __acrt_lowio_lock_fh       000000018005805c f   libucrt:osfinfo.obj
 0001:00057080       __acrt_lowio_set_os_handle 0000000180058080 f   libucrt:osfinfo.obj
 0001:00057140       __acrt_lowio_unlock_fh     0000000180058140 f   libucrt:osfinfo.obj
 0001:00057164       _alloc_osfhnd              0000000180058164 f   libucrt:osfinfo.obj
 0001:00057294       _free_osfhnd               0000000180058294 f   libucrt:osfinfo.obj
 0001:00057350       _get_osfhandle             0000000180058350 f   libucrt:osfinfo.obj
 0001:000573c8       _wcsnicmp                  00000001800583c8 f   libucrt:wcsnicmp.obj
 0001:00057464       _wcsnicmp_l                0000000180058464 f   libucrt:wcsnicmp.obj
 0001:00057644       __acrt_DownlevelLocaleNameToLCID 0000000180058644 f   libucrt:lcidtoname_downlevel.obj
 0001:00057678       __acrt_LCMapStringW        0000000180058678 f   libucrt:lcmapstringw.obj
 0001:00057700       _msize                     0000000180058700 f   libucrt:msize.obj
 0001:0005773c       _realloc_base              000000018005873c f   libucrt:realloc_base.obj
 0001:000577c0       __acrt_copy_path_to_wide_string 00000001800587c0 f   libucrt:string_utilities.obj
 0001:000578b8       _get_fmode                 00000001800588b8 f   libucrt:setmode.obj
 0001:000578e8       _setmode_nolock            00000001800588e8 f   libucrt:setmode.obj
 0001:000579c8       _putwch_nolock             00000001800589c8 f   libucrt:putwch.obj
 0001:00057a24       _chsize_nolock             0000000180058a24 f   libucrt:chsize.obj
 0001:00057ba0       _getfpcontrolword          0000000180058ba0 f   libucrt:_fenvutils.obj
 0001:00057bb8       _getfpstatusword           0000000180058bb8 f   libucrt:_fenvutils.obj
 0001:00057bcc       _setfpcontrolword          0000000180058bcc f   libucrt:_fenvutils.obj
 0001:00057bd8       _setfpstatusword           0000000180058bd8 f   libucrt:_fenvutils.obj
 0001:00057c28       __acrt_CompareStringW      0000000180058c28 f   libucrt:comparestringw.obj
 0001:00058044       __acrt_pack_wide_command_line_and_environment 0000000180059044 f   libucrt:cenvarg.obj
 0001:000581d0       __strncnt                  00000001800591d0 f   libucrt:strncnt.obj
 0001:000581e8       fegetenv                   00000001800591e8 f   libucrt:fegetenv.obj
 0001:00058208       fesetenv                   0000000180059208 f   libucrt:fesetenv.obj
 0001:00058254       feholdexcept               0000000180059254 f   libucrt:feholdexcept.obj
 0001:000582a4       ceil                       00000001800592a4 f   libucrt:ceil.obj
 0001:00058370       log10                      0000000180059370 f   libucrt:log10.obj
 0001:0005891c       _query_app_type            000000018005991c f   libucrt:report_runtime_error.obj
 0001:00058924       __dcrt_lowio_initialize_console_output 0000000180059924 f   libucrt:initcon.obj
 0001:00058960       __dcrt_terminate_console_output 0000000180059960 f   libucrt:initcon.obj
 0001:00058aa4       _handle_error              0000000180059aa4 f   libucrt:libm_error.obj
 0001:00058bcc       _handle_nan                0000000180059bcc f   libucrt:libm_error.obj
 0001:00058bf0       __acrt_initialize_fma3     0000000180059bf0 f   libucrt:fma3_available.obj
 0001:00058c60       _log10_special             0000000180059c60 f   libucrt:log_special.obj
 0001:00058d18       _raise_exc                 0000000180059d18 f   libucrt:fpexcept.obj
 0001:00058d40       _raise_exc_ex              0000000180059d40 f   libucrt:fpexcept.obj
 0001:00059048       _set_errno_from_matherr    000000018005a048 f   libucrt:fpexcept.obj
 0001:00059078       _clrfp                     000000018005a078 f   libucrt:fpctrl.obj
 0001:00059098       _ctrlfp                    000000018005a098 f   libucrt:fpctrl.obj
 0001:00059114       _set_statfp                000000018005a114 f   libucrt:fpctrl.obj
 0001:00059134       _statfp                    000000018005a134 f   libucrt:fpctrl.obj
 0001:00059146       IsProcessorFeaturePresent  000000018005a146 f   kernel32:KERNEL32.dll
 0001:0005914c       RtlUnwindEx                000000018005a14c f   kernel32:KERNEL32.dll
 0001:00059152       SystemFunction036          000000018005a152 f   advapi32:ADVAPI32.dll
 0001:00059158       __GSHandlerCheck           000000018005a158 f   LIBCMT:_gshandler_.obj
 0001:00059178       __GSHandlerCheckCommon     000000018005a178 f   LIBCMT:_gshandler_.obj
 0001:000591f0       __security_check_cookie    000000018005a1f0 f   LIBCMT:_amdsecgs_.obj
 0001:00059220       _FindPESection             000000018005a220 f   LIBCMT:pesect.obj
 0001:00059270       _IsNonwritableInCurrentImage 000000018005a270 f   LIBCMT:pesect.obj
 0001:000592c0       _ValidateImageBase         000000018005a2c0 f   LIBCMT:pesect.obj
 0001:000592f0       __raise_securityfailure    000000018005a2f0 f   LIBCMT:gs_report.obj
 0001:00059324       __report_gsfailure         000000018005a324 f   LIBCMT:gs_report.obj
 0001:000593f8       __report_rangecheckfailure 000000018005a3f8 f   LIBCMT:gs_report.obj
 0001:0005940c       __report_securityfailure   000000018005a40c f   LIBCMT:gs_report.obj
 0001:0005958c       __GSHandlerCheck_SEH       000000018005a58c f   LIBCMT:_gshandlerseh_.obj
 0001:00059640       _guard_dispatch_icall_nop  000000018005a640 f   LIBCMT:_guard_dispatch_.obj
 0002:00000000       Keys                       000000018005f000     flags.obj
 0002:000015a0       VirtualKeyStrings          00000001800605a0     service.obj
 0002:00008b1c       _fltused                   0000000180067b1c     LIBCMT:fltused.obj
 0002:00008b20       __scrt_native_dllmain_reason 0000000180067b20     LIBCMT:utility.obj
 0002:00008b28       __isa_available            0000000180067b28     LIBCMT:_cpu_disp_.obj
 0002:00008b2c       __isa_enabled              0000000180067b2c     LIBCMT:_cpu_disp_.obj
 0002:00008b30       __memcpy_nt_iters          0000000180067b30     LIBCMT:_cpu_disp_.obj
 0002:00008b38       __security_cookie          0000000180067b38     LIBCMT:gs_cookie.obj
 0002:00008b40       __security_cookie_complement 0000000180067b40     LIBCMT:gs_cookie.obj
 0002:00008bb0       _iob                       0000000180067bb0     libucrt:_file.obj
 0002:00008cc0       __abort_behavior           0000000180067cc0     libucrt:abort.obj
 0002:00008cd0       __acrt_initial_locale_data 0000000180067cd0     libucrt:nlsdata.obj
 0002:00008e28       __acrt_initial_locale_pointers 0000000180067e28     libucrt:nlsdata.obj
 0002:00008e38       __acrt_wide_c_locale_string 0000000180067e38     libucrt:nlsdata.obj
 0002:00008e40       __badioinfo                0000000180067e40     libucrt:ioinit.obj
 0002:00008e80       _lookuptrailbytes          0000000180067e80     libucrt:read.obj
 0002:00008f80       _pwctype                   0000000180067f80     libucrt:ctype.obj
 0002:00008f90       __acrt_initial_multibyte_data 0000000180067f90     libucrt:mbctype.obj
 0002:000091b8       __acrt_current_multibyte_data 00000001800681b8     libucrt:mbctype.obj
 0002:000092c0       _mbctype                   00000001800682c0     libucrt:mbctype.obj
 0002:000093d0       _mbcasemap                 00000001800683d0     libucrt:mbctype.obj
 0002:000094d0       __globallocalestatus       00000001800684d0     libucrt:glstatus.obj
 0002:000094e0       __acrt_lconv_c             00000001800684e0     libucrt:localeconv.obj
 0002:00009578       __acrt_lconv_static_decimal 0000000180068578     libucrt:localeconv.obj
 0002:0000957c       __acrt_lconv_static_W_decimal 000000018006857c     libucrt:localeconv.obj
 0002:00009580       __dcrt_lowio_console_output_handle 0000000180068580     libucrt:initcon.obj
 0002:000095c0       __scrt_current_native_startup_state 00000001800685c0     LIBCMT:utility.obj
 0002:000095c8       __scrt_native_startup_lock 00000001800685c8     LIBCMT:utility.obj
 0002:00009610       ?__type_info_root_node@@3U__type_info_node@@A 0000000180068610     LIBCMT:tncleanup.obj
 0002:00009620       __scrt_debugger_hook_flag  0000000180068620     LIBCMT:utility_desktop.obj
 0002:00009624       __favor                    0000000180068624     LIBCMT:_cpu_disp_.obj
 0002:00009748       __pPurecall                0000000180068748     libvcruntime:purevirt_data.obj
 0002:00009750       ?pArgList@UnDecorator@@0PEAVReplicator@@EA 0000000180068750     libvcruntime:undname.obj
 0002:00009758       ?pZNameList@UnDecorator@@0PEAVReplicator@@EA 0000000180068758     libvcruntime:undname.obj
 0002:00009760       ?pTemplateArgList@UnDecorator@@0PEAVReplicator@@EA 0000000180068760     libvcruntime:undname.obj
 0002:00009768       ?gName@UnDecorator@@0PEBDEB 0000000180068768     libvcruntime:undname.obj
 0002:00009770       ?name@UnDecorator@@0PEBDEB 0000000180068770     libvcruntime:undname.obj
 0002:00009778       ?outputString@UnDecorator@@0PEADEA 0000000180068778     libvcruntime:undname.obj
 0002:00009780       ?maxStringLength@UnDecorator@@0HA 0000000180068780     libvcruntime:undname.obj
 0002:00009784       ?disableFlags@UnDecorator@@0KA 0000000180068784     libvcruntime:undname.obj
 0002:00009788       ?fExplicitTemplateParams@UnDecorator@@0_NA 0000000180068788     libvcruntime:undname.obj
 0002:00009789       ?fGetTemplateArgumentList@UnDecorator@@0_NA 0000000180068789     libvcruntime:undname.obj
 0002:00009790       ?m_pGetParameter@UnDecorator@@0P6APEADJ@ZEA 0000000180068790     libvcruntime:undname.obj
 0002:000097c0       _nstream                   00000001800687c0     libucrt:_file.obj
 0002:000097c8       __piob                     00000001800687c8     libucrt:_file.obj
 0002:000097d0       _cflush                    00000001800687d0     libucrt:_file.obj
 0002:00009830       _environ_table             0000000180068830     libucrt:environment_initialization.obj
 0002:00009838       _wenviron_table            0000000180068838     libucrt:environment_initialization.obj
 0002:00009840       __dcrt_initial_wide_environment 0000000180068840     libucrt:environment_initialization.obj
 0002:00009848       __dcrt_initial_narrow_environment 0000000180068848     libucrt:environment_initialization.obj
 0002:00009850       __acrt_atexit_table        0000000180068850     libucrt:onexit.obj
 0002:00009868       __acrt_at_quick_exit_table 0000000180068868     libucrt:onexit.obj
 0002:00009890       __acrt_stdout_buffer       0000000180068890     libucrt:_sftbuf.obj
 0002:00009898       __acrt_stderr_buffer       0000000180068898     libucrt:_sftbuf.obj
 0002:000098a0       __acrt_locale_changed_data 00000001800688a0     libucrt:wsetlocale.obj
 0002:000098a8       __acrt_current_locale_data 00000001800688a8     libucrt:nlsdata.obj
 0002:000098b0       __pioinfo                  00000001800688b0     libucrt:ioinit.obj
 0002:00009cb0       _nhandle                   0000000180068cb0     libucrt:ioinit.obj
 0002:0000a07c       _commode                   000000018006907c     libucrt:ncommode.obj
 0002:0000a080       __mbcodepage               0000000180069080     libucrt:mbctype.obj
 0002:0000a084       __ismbcodepage             0000000180069084     libucrt:mbctype.obj
 0002:0000a088       __mbulinfo                 0000000180069088     libucrt:mbctype.obj
 0002:0000a098       __mblocalename             0000000180069098     libucrt:mbctype.obj
 0002:0000a0a8       __acrt_heap                00000001800690a8     libucrt:heap_handle.obj
 0002:0000a0b0       __argv                     00000001800690b0     libucrt:argv_data.obj
 0002:0000a0b8       __wargv                    00000001800690b8     libucrt:argv_data.obj
 0002:0000a0c0       _acmdln                    00000001800690c0     libucrt:argv_data.obj
 0002:0000a0c8       _wcmdln                    00000001800690c8     libucrt:argv_data.obj
 0002:0000a104       __acrt_lconv_static_null   0000000180069104     libucrt:localeconv.obj
 0002:0000a108       __acrt_lconv_static_W_null 0000000180069108     libucrt:localeconv.obj
 0002:0000a10c       _umaskval                  000000018006910c     libucrt:umask.obj
 0002:0000a114       _fmode                     0000000180069114     libucrt:txtmode.obj
 0002:0000a118       __fma3_is_available        0000000180069118     libucrt:fma3_available.obj
 0002:0000a11c       __use_fma3_lib             000000018006911c     libucrt:fma3_available.obj
 0002:0000a690       EnumCP                     0000000180069690     <common>
 0002:0000a6a0       ?_OptionsStorage@?1??__local_stdio_scanf_options@@9@9 00000001800696a0     <common>
 0002:0000a6a8       ?_OptionsStorage@?1??__local_stdio_printf_options@@9@9 00000001800696a8     <common>
 0002:0000a6b0       __scrt_ucrt_dll_is_in_use  00000001800696b0     <common>
 0002:0000a6b8       __dyn_tls_init_callback    00000001800696b8     <common>
 0002:0000a6c0       _pDestructExceptionObject  00000001800696c0     <common>
 0004:00000000       __imp_SystemFunction036    000000018006e000     advapi32:ADVAPI32.dll
 0004:00000008       __imp_RegEnumValueW        000000018006e008     advapi32:ADVAPI32.dll
 0004:00000010       __imp_RegEnumKeyExW        000000018006e010     advapi32:ADVAPI32.dll
 0004:00000018       __imp_RegDeleteValueW      000000018006e018     advapi32:ADVAPI32.dll
 0004:00000020       __imp_RegDeleteKeyW        000000018006e020     advapi32:ADVAPI32.dll
 0004:00000028       __imp_RegSetValueExW       000000018006e028     advapi32:ADVAPI32.dll
 0004:00000030       __imp_RegQueryValueExW     000000018006e030     advapi32:ADVAPI32.dll
 0004:00000038       __imp_RegOpenKeyExW        000000018006e038     advapi32:ADVAPI32.dll
 0004:00000040       __imp_RegCreateKeyExW      000000018006e040     advapi32:ADVAPI32.dll
 0004:00000048       __imp_RegCloseKey          000000018006e048     advapi32:ADVAPI32.dll
 0004:00000050       \177ADVAPI32_NULL_THUNK_DATA 000000018006e050     advapi32:ADVAPI32.dll
 0004:00000058       __imp_GetModuleFileNameW   000000018006e058     kernel32:KERNEL32.dll
 0004:00000060       __imp_LoadLibraryW         000000018006e060     kernel32:KERNEL32.dll
 0004:00000068       __imp_SetCurrentDirectoryW 000000018006e068     kernel32:KERNEL32.dll
 0004:00000070       __imp_GetCurrentDirectoryW 000000018006e070     kernel32:KERNEL32.dll
 0004:00000078       __imp_SearchPathW          000000018006e078     kernel32:KERNEL32.dll
 0004:00000080       __imp_GetDriveTypeW        000000018006e080     kernel32:KERNEL32.dll
 0004:00000088       __imp_GetLogicalDriveStringsW 000000018006e088     kernel32:KERNEL32.dll
 0004:00000090       __imp_SetFileAttributesW   000000018006e090     kernel32:KERNEL32.dll
 0004:00000098       __imp_OutputDebugStringW   000000018006e098     kernel32:KERNEL32.dll
 0004:000000a0       __imp_GetLastError         000000018006e0a0     kernel32:KERNEL32.dll
 0004:000000a8       __imp_GlobalMemoryStatusEx 000000018006e0a8     kernel32:KERNEL32.dll
 0004:000000b0       __imp_FormatMessageW       000000018006e0b0     kernel32:KERNEL32.dll
 0004:000000b8       __imp_MultiByteToWideChar  000000018006e0b8     kernel32:KERNEL32.dll
 0004:000000c0       __imp_WideCharToMultiByte  000000018006e0c0     kernel32:KERNEL32.dll
 0004:000000c8       __imp_GetACP               000000018006e0c8     kernel32:KERNEL32.dll
 0004:000000d0       __imp_GetOEMCP             000000018006e0d0     kernel32:KERNEL32.dll
 0004:000000d8       __imp_FreeLibrary          000000018006e0d8     kernel32:KERNEL32.dll
 0004:000000e0       __imp_EnumSystemCodePagesW 000000018006e0e0     kernel32:KERNEL32.dll
 0004:000000e8       __imp_SetEnvironmentVariableW 000000018006e0e8     kernel32:KERNEL32.dll
 0004:000000f0       __imp_CreateDirectoryW     000000018006e0f0     kernel32:KERNEL32.dll
 0004:000000f8       __imp_DeleteFileW          000000018006e0f8     kernel32:KERNEL32.dll
 0004:00000100       __imp_FileTimeToLocalFileTime 000000018006e100     kernel32:KERNEL32.dll
 0004:00000108       __imp_FindClose            000000018006e108     kernel32:KERNEL32.dll
 0004:00000110       __imp_FindFirstFileW       000000018006e110     kernel32:KERNEL32.dll
 0004:00000118       __imp_RemoveDirectoryW     000000018006e118     kernel32:KERNEL32.dll
 0004:00000120       __imp_CopyFileW            000000018006e120     kernel32:KERNEL32.dll
 0004:00000128       __imp_MoveFileExW          000000018006e128     kernel32:KERNEL32.dll
 0004:00000130       __imp_FileTimeToSystemTime 000000018006e130     kernel32:KERNEL32.dll
 0004:00000138       __imp_SystemTimeToFileTime 000000018006e138     kernel32:KERNEL32.dll
 0004:00000140       __imp_CompareStringW       000000018006e140     kernel32:KERNEL32.dll
 0004:00000148       __imp_PeekConsoleInputW    000000018006e148     kernel32:KERNEL32.dll
 0004:00000150       __imp_ReadConsoleInputW    000000018006e150     kernel32:KERNEL32.dll
 0004:00000158       __imp_GetConsoleScreenBufferInfo 000000018006e158     kernel32:KERNEL32.dll
 0004:00000160       __imp_GetProcAddress       000000018006e160     kernel32:KERNEL32.dll
 0004:00000168       __imp_GetModuleHandleA     000000018006e168     kernel32:KERNEL32.dll
 0004:00000170       __imp_GetSystemTimeAsFileTime 000000018006e170     kernel32:KERNEL32.dll
 0004:00000178       __imp_CreateThread         000000018006e178     kernel32:KERNEL32.dll
 0004:00000180       __imp_SwitchToThread       000000018006e180     kernel32:KERNEL32.dll
 0004:00000188       __imp_Sleep                000000018006e188     kernel32:KERNEL32.dll
 0004:00000190       __imp_GetFileAttributesW   000000018006e190     kernel32:KERNEL32.dll
 0004:00000198       __imp_GetEnvironmentVariableW 000000018006e198     kernel32:KERNEL32.dll
 0004:000001a0       __imp_GetCPInfoExW         000000018006e1a0     kernel32:KERNEL32.dll
 0004:000001a8       __imp_RaiseException       000000018006e1a8     kernel32:KERNEL32.dll
 0004:000001b0       __imp_SetEndOfFile         000000018006e1b0     kernel32:KERNEL32.dll
 0004:000001b8       __imp_WriteConsoleW        000000018006e1b8     kernel32:KERNEL32.dll
 0004:000001c0       __imp_HeapReAlloc          000000018006e1c0     kernel32:KERNEL32.dll
 0004:000001c8       __imp_HeapSize             000000018006e1c8     kernel32:KERNEL32.dll
 0004:000001d0       __imp_SetStdHandle         000000018006e1d0     kernel32:KERNEL32.dll
 0004:000001d8       __imp_GetCommandLineW      000000018006e1d8     kernel32:KERNEL32.dll
 0004:000001e0       __imp_GetCommandLineA      000000018006e1e0     kernel32:KERNEL32.dll
 0004:000001e8       __imp_GetProcessHeap       000000018006e1e8     kernel32:KERNEL32.dll
 0004:000001f0       __imp_FreeEnvironmentStringsW 000000018006e1f0     kernel32:KERNEL32.dll
 0004:000001f8       __imp_GetEnvironmentStringsW 000000018006e1f8     kernel32:KERNEL32.dll
 0004:00000200       __imp_GetCPInfo            000000018006e200     kernel32:KERNEL32.dll
 0004:00000208       __imp_IsValidCodePage      000000018006e208     kernel32:KERNEL32.dll
 0004:00000210       __imp_CreateFileW          000000018006e210     kernel32:KERNEL32.dll
 0004:00000218       __imp_GetConsoleCP         000000018006e218     kernel32:KERNEL32.dll
 0004:00000220       __imp_WriteFile            000000018006e220     kernel32:KERNEL32.dll
 0004:00000228       __imp_FlushFileBuffers     000000018006e228     kernel32:KERNEL32.dll
 0004:00000230       __imp_CreatePipe           000000018006e230     kernel32:KERNEL32.dll
 0004:00000238       __imp_GetFileAttributesExW 000000018006e238     kernel32:KERNEL32.dll
 0004:00000240       __imp_GetExitCodeProcess   000000018006e240     kernel32:KERNEL32.dll
 0004:00000248       __imp_WaitForSingleObject  000000018006e248     kernel32:KERNEL32.dll
 0004:00000250       __imp_SetFilePointerEx     000000018006e250     kernel32:KERNEL32.dll
 0004:00000258       __imp_ReadConsoleW         000000018006e258     kernel32:KERNEL32.dll
 0004:00000260       __imp_GetConsoleMode       000000018006e260     kernel32:KERNEL32.dll
 0004:00000268       __imp_LCMapStringW         000000018006e268     kernel32:KERNEL32.dll
 0004:00000270       __imp_GetFileType          000000018006e270     kernel32:KERNEL32.dll
 0004:00000278       __imp_HeapAlloc            000000018006e278     kernel32:KERNEL32.dll
 0004:00000280       __imp_HeapFree             000000018006e280     kernel32:KERNEL32.dll
 0004:00000288       __imp_GetModuleHandleExW   000000018006e288     kernel32:KERNEL32.dll
 0004:00000290       __imp_TerminateProcess     000000018006e290     kernel32:KERNEL32.dll
 0004:00000298       __imp_ExitProcess          000000018006e298     kernel32:KERNEL32.dll
 0004:000002a0       __imp_GetTempPathW         000000018006e2a0     kernel32:KERNEL32.dll
 0004:000002a8       __imp_ReadFile             000000018006e2a8     kernel32:KERNEL32.dll
 0004:000002b0       __imp_CreateProcessW       000000018006e2b0     kernel32:KERNEL32.dll
 0004:000002b8       __imp_GetCurrentProcess    000000018006e2b8     kernel32:KERNEL32.dll
 0004:000002c0       __imp_DuplicateHandle      000000018006e2c0     kernel32:KERNEL32.dll
 0004:000002c8       __imp_CloseHandle          000000018006e2c8     kernel32:KERNEL32.dll
 0004:000002d0       __imp_GetStringTypeW       000000018006e2d0     kernel32:KERNEL32.dll
 0004:000002d8       __imp_DeleteCriticalSection 000000018006e2d8     kernel32:KERNEL32.dll
 0004:000002e0       __imp_LeaveCriticalSection 000000018006e2e0     kernel32:KERNEL32.dll
 0004:000002e8       __imp_EnterCriticalSection 000000018006e2e8     kernel32:KERNEL32.dll
 0004:000002f0       __imp_SetLastError         000000018006e2f0     kernel32:KERNEL32.dll
 0004:000002f8       __imp_LoadLibraryExW       000000018006e2f8     kernel32:KERNEL32.dll
 0004:00000300       __imp_TlsFree              000000018006e300     kernel32:KERNEL32.dll
 0004:00000308       __imp_TlsSetValue          000000018006e308     kernel32:KERNEL32.dll
 0004:00000310       __imp_TlsGetValue          000000018006e310     kernel32:KERNEL32.dll
 0004:00000318       __imp_TlsAlloc             000000018006e318     kernel32:KERNEL32.dll
 0004:00000320       __imp_InitializeCriticalSectionAndSpinCount 000000018006e320     kernel32:KERNEL32.dll
 0004:00000328       __imp_GetStdHandle         000000018006e328     kernel32:KERNEL32.dll
 0004:00000330       __imp_InterlockedFlushSList 000000018006e330     kernel32:KERNEL32.dll
 0004:00000338       __imp_RtlUnwindEx          000000018006e338     kernel32:KERNEL32.dll
 0004:00000340       __imp_GetModuleHandleW     000000018006e340     kernel32:KERNEL32.dll
 0004:00000348       __imp_IsProcessorFeaturePresent 000000018006e348     kernel32:KERNEL32.dll
 0004:00000350       __imp_GetStartupInfoW      000000018006e350     kernel32:KERNEL32.dll
 0004:00000358       __imp_SetUnhandledExceptionFilter 000000018006e358     kernel32:KERNEL32.dll
 0004:00000360       __imp_UnhandledExceptionFilter 000000018006e360     kernel32:KERNEL32.dll
 0004:00000368       __imp_IsDebuggerPresent    000000018006e368     kernel32:KERNEL32.dll
 0004:00000370       __imp_RtlVirtualUnwind     000000018006e370     kernel32:KERNEL32.dll
 0004:00000378       __imp_RtlLookupFunctionEntry 000000018006e378     kernel32:KERNEL32.dll
 0004:00000380       __imp_RtlCaptureContext    000000018006e380     kernel32:KERNEL32.dll
 0004:00000388       __imp_InitializeSListHead  000000018006e388     kernel32:KERNEL32.dll
 0004:00000390       __imp_GetCurrentThreadId   000000018006e390     kernel32:KERNEL32.dll
 0004:00000398       __imp_GetCurrentProcessId  000000018006e398     kernel32:KERNEL32.dll
 0004:000003a0       __imp_QueryPerformanceCounter 000000018006e3a0     kernel32:KERNEL32.dll
 0004:000003a8       \177KERNEL32_NULL_THUNK_DATA 000000018006e3a8     kernel32:KERNEL32.dll
 0004:000003b0       __imp_RpcStringFreeA       000000018006e3b0     rpcrt4:RPCRT4.dll
 0004:000003b8       __imp_UuidCreate           000000018006e3b8     rpcrt4:RPCRT4.dll
 0004:000003c0       __imp_UuidToStringA        000000018006e3c0     rpcrt4:RPCRT4.dll
 0004:000003c8       __imp_UuidFromStringA      000000018006e3c8     rpcrt4:RPCRT4.dll
 0004:000003d0       \177RPCRT4_NULL_THUNK_DATA 000000018006e3d0     rpcrt4:RPCRT4.dll
 0004:000003d8       __imp_ShellExecuteW        000000018006e3d8     shell32:SHELL32.dll
 0004:000003e0       __imp_SHGetFolderPathW     000000018006e3e0     shell32:SHELL32.dll
 0004:000003e8       \177SHELL32_NULL_THUNK_DATA 000000018006e3e8     shell32:SHELL32.dll
 0004:000003f0       __imp_lua_tocfunction      000000018006e3f0     lua51:lua51.dll
 0004:000003f8       __imp_luaL_checkoption     000000018006e3f8     lua51:lua51.dll
 0004:00000400       __imp_lua_iscfunction      000000018006e400     lua51:lua51.dll
 0004:00000408       __imp_luaL_gsub            000000018006e408     lua51:lua51.dll
 0004:00000410       __imp_luaL_findtable       000000018006e410     lua51:lua51.dll
 0004:00000418       __imp_lua_isuserdata       000000018006e418     lua51:lua51.dll
 0004:00000420       __imp_luaL_prepbuffer      000000018006e420     lua51:lua51.dll
 0004:00000428       __imp_luaL_checkstack      000000018006e428     lua51:lua51.dll
 0004:00000430       __imp_lua_dump             000000018006e430     lua51:lua51.dll
 0004:00000438       __imp_lua_typename         000000018006e438     lua51:lua51.dll
 0004:00000440       __imp_luaL_checkany        000000018006e440     lua51:lua51.dll
 0004:00000448       __imp_lua_setallocf        000000018006e448     lua51:lua51.dll
 0004:00000450       __imp_lua_getallocf        000000018006e450     lua51:lua51.dll
 0004:00000458       __imp_lua_next             000000018006e458     lua51:lua51.dll
 0004:00000460       __imp_lua_setfenv          000000018006e460     lua51:lua51.dll
 0004:00000468       __imp_lua_rawset           000000018006e468     lua51:lua51.dll
 0004:00000470       __imp_lua_settable         000000018006e470     lua51:lua51.dll
 0004:00000478       __imp_lua_getfenv          000000018006e478     lua51:lua51.dll
 0004:00000480       __imp_lua_rawget           000000018006e480     lua51:lua51.dll
 0004:00000488       __imp_luaopen_debug        000000018006e488     lua51:lua51.dll
 0004:00000490       __imp_luaopen_math         000000018006e490     lua51:lua51.dll
 0004:00000498       __imp_luaopen_string       000000018006e498     lua51:lua51.dll
 0004:000004a0       __imp_luaopen_os           000000018006e4a0     lua51:lua51.dll
 0004:000004a8       __imp_luaopen_table        000000018006e4a8     lua51:lua51.dll
 0004:000004b0       __imp_luaopen_base         000000018006e4b0     lua51:lua51.dll
 0004:000004b8       __imp_luaL_checktype       000000018006e4b8     lua51:lua51.dll
 0004:000004c0       __imp_lua_getinfo          000000018006e4c0     lua51:lua51.dll
 0004:000004c8       __imp_luaL_addvalue        000000018006e4c8     lua51:lua51.dll
 0004:000004d0       __imp_luaL_error           000000018006e4d0     lua51:lua51.dll
 0004:000004d8       __imp_luaL_checkudata      000000018006e4d8     lua51:lua51.dll
 0004:000004e0       __imp_luaL_optinteger      000000018006e4e0     lua51:lua51.dll
 0004:000004e8       __imp_luaL_optlstring      000000018006e4e8     lua51:lua51.dll
 0004:000004f0       __imp_luaL_checklstring    000000018006e4f0     lua51:lua51.dll
 0004:000004f8       __imp_lua_checkstack       000000018006e4f8     lua51:lua51.dll
 0004:00000500       __imp_lua_replace          000000018006e500     lua51:lua51.dll
 0004:00000508       __imp_luaL_pushresult      000000018006e508     lua51:lua51.dll
 0004:00000510       __imp_luaL_addlstring      000000018006e510     lua51:lua51.dll
 0004:00000518       __imp_luaL_buffinit        000000018006e518     lua51:lua51.dll
 0004:00000520       __imp_luaL_optnumber       000000018006e520     lua51:lua51.dll
 0004:00000528       __imp_lua_error            000000018006e528     lua51:lua51.dll
 0004:00000530       __imp_lua_load             000000018006e530     lua51:lua51.dll
 0004:00000538       __imp_lua_pushfstring      000000018006e538     lua51:lua51.dll
 0004:00000540       __imp_luaL_loadstring      000000018006e540     lua51:lua51.dll
 0004:00000548       __imp_luaL_unref           000000018006e548     lua51:lua51.dll
 0004:00000550       __imp_luaL_ref             000000018006e550     lua51:lua51.dll
 0004:00000558       __imp_lua_gc               000000018006e558     lua51:lua51.dll
 0004:00000560       __imp_lua_pcall            000000018006e560     lua51:lua51.dll
 0004:00000568       __imp_lua_call             000000018006e568     lua51:lua51.dll
 0004:00000570       __imp_lua_rawseti          000000018006e570     lua51:lua51.dll
 0004:00000578       __imp_lua_setfield         000000018006e578     lua51:lua51.dll
 0004:00000580       __imp_lua_createtable      000000018006e580     lua51:lua51.dll
 0004:00000588       __imp_lua_rawgeti          000000018006e588     lua51:lua51.dll
 0004:00000590       __imp_lua_gettable         000000018006e590     lua51:lua51.dll
 0004:00000598       __imp_lua_pushlightuserdata 000000018006e598     lua51:lua51.dll
 0004:000005a0       __imp_lua_pushcclosure     000000018006e5a0     lua51:lua51.dll
 0004:000005a8       __imp_lua_pushlstring      000000018006e5a8     lua51:lua51.dll
 0004:000005b0       __imp_lua_pushinteger      000000018006e5b0     lua51:lua51.dll
 0004:000005b8       __imp_lua_objlen           000000018006e5b8     lua51:lua51.dll
 0004:000005c0       __imp_lua_toboolean        000000018006e5c0     lua51:lua51.dll
 0004:000005c8       __imp_lua_tointeger        000000018006e5c8     lua51:lua51.dll
 0004:000005d0       __imp_lua_isstring         000000018006e5d0     lua51:lua51.dll
 0004:000005d8       __imp_lua_isnumber         000000018006e5d8     lua51:lua51.dll
 0004:000005e0       __imp_lua_insert           000000018006e5e0     lua51:lua51.dll
 0004:000005e8       __imp_lua_remove           000000018006e5e8     lua51:lua51.dll
 0004:000005f0       __imp_lua_pushvalue        000000018006e5f0     lua51:lua51.dll
 0004:000005f8       __imp_luaL_newmetatable    000000018006e5f8     lua51:lua51.dll
 0004:00000600       __imp_luaL_checkinteger    000000018006e600     lua51:lua51.dll
 0004:00000608       __imp_luaL_argerror        000000018006e608     lua51:lua51.dll
 0004:00000610       __imp_luaL_register        000000018006e610     lua51:lua51.dll
 0004:00000618       __imp_lua_setmetatable     000000018006e618     lua51:lua51.dll
 0004:00000620       __imp_lua_getmetatable     000000018006e620     lua51:lua51.dll
 0004:00000628       __imp_lua_newuserdata      000000018006e628     lua51:lua51.dll
 0004:00000630       __imp_lua_getfield         000000018006e630     lua51:lua51.dll
 0004:00000638       __imp_lua_pushboolean      000000018006e638     lua51:lua51.dll
 0004:00000640       __imp_lua_pushstring       000000018006e640     lua51:lua51.dll
 0004:00000648       __imp_lua_pushnumber       000000018006e648     lua51:lua51.dll
 0004:00000650       __imp_lua_pushnil          000000018006e650     lua51:lua51.dll
 0004:00000658       __imp_lua_touserdata       000000018006e658     lua51:lua51.dll
 0004:00000660       __imp_lua_tolstring        000000018006e660     lua51:lua51.dll
 0004:00000668       __imp_lua_tonumber         000000018006e668     lua51:lua51.dll
 0004:00000670       __imp_lua_rawequal         000000018006e670     lua51:lua51.dll
 0004:00000678       __imp_lua_type             000000018006e678     lua51:lua51.dll
 0004:00000680       __imp_lua_settop           000000018006e680     lua51:lua51.dll
 0004:00000688       __imp_lua_gettop           000000018006e688     lua51:lua51.dll
 0004:00000690       __imp_luaL_checknumber     000000018006e690     lua51:lua51.dll
 0004:00000698       __imp_lua_concat           000000018006e698     lua51:lua51.dll
 0004:000006a0       __imp_luaL_typerror        000000018006e6a0     lua51:lua51.dll
 0004:000006a8       __imp_lua_getstack         000000018006e6a8     lua51:lua51.dll
 0004:000006b0       \177lua51_NULL_THUNK_DATA  000000018006e6b0     lua51:lua51.dll
 0004:000006b8       __IMPORT_DESCRIPTOR_KERNEL32 000000018006e6b8     kernel32:KERNEL32.dll
 0004:000006cc       __IMPORT_DESCRIPTOR_ADVAPI32 000000018006e6cc     advapi32:ADVAPI32.dll
 0004:000006e0       __IMPORT_DESCRIPTOR_SHELL32 000000018006e6e0     shell32:SHELL32.dll
 0004:000006f4       __IMPORT_DESCRIPTOR_lua51  000000018006e6f4     lua51:lua51.dll
 0004:00000708       __IMPORT_DESCRIPTOR_RPCRT4 000000018006e708     rpcrt4:RPCRT4.dll
 0004:0000071c       __NULL_IMPORT_DESCRIPTOR   000000018006e71c     kernel32:KERNEL32.dll

 entry point at        0001:0003c260

 Static symbols

 0001:00000090       funcs                      0000000180001090     bit64.obj
 0001:000001b0       metamethods                00000001800011b0     bit64.obj
 0001:00000370       ECF_TABMARKCURRENT         0000000180001370     exported.obj
 0001:00000378       ECF_AUTODELETE             0000000180001378     exported.obj
 0001:00000380       FIB_ENABLEEMPTY            0000000180001380     exported.obj
 0001:00000388       FIB_PASSWORD               0000000180001388     exported.obj
 0001:00000390       FIB_EXPANDENV              0000000180001390     exported.obj
 0001:00000398       FIB_NOUSELASTHISTORY       0000000180001398     exported.obj
 0001:000003a0       PCIF_FROMMAIN              00000001800013a0     exported.obj
 0001:000003a8       FIB_BUTTONS                00000001800013a8     exported.obj
 0001:000003b0       FIB_NOAMPERSAND            00000001800013b0     exported.obj
 0001:000003b8       PCIF_NONE                  00000001800013b8     exported.obj
 0001:000003c0       FIB_EDITPATH               00000001800013c0     exported.obj
 0001:000003c8       FIB_EDITPATHEXEC           00000001800013c8     exported.obj
 0001:000003d0       FIB_NONE                   00000001800013d0     exported.obj
 0001:000003d8       LIF_SELECTED               00000001800013d8     exported.obj
 0001:000003e0       LIF_CHECKED                00000001800013e0     exported.obj
 0001:000003e8       LIF_SEPARATOR              00000001800013e8     exported.obj
 0001:000003f0       LIF_DISABLE                00000001800013f0     exported.obj
 0001:000003f8       LIF_GRAYED                 00000001800013f8     exported.obj
 0001:00000400       LIF_HIDDEN                 0000000180001400     exported.obj
 0001:00000408       LIF_DELETEUSERDATA         0000000180001408     exported.obj
 0001:00000410       LIF_NONE                   0000000180001410     exported.obj
 0001:00000418       FPF_LOADED                 0000000180001418     exported.obj
 0001:00000420       LIFIND_EXACTMATCH          0000000180001420     exported.obj
 0001:00000428       FPF_ANSI                   0000000180001428     exported.obj
 0001:00000430       LIFIND_NONE                0000000180001430     exported.obj
 0001:00000438       FPF_NONE                   0000000180001438     exported.obj
 0001:00000440       LINFO_SHOWNOBOX            0000000180001440     exported.obj
 0001:00000448       LINFO_AUTOHIGHLIGHT        0000000180001448     exported.obj
 0001:00000450       LINFO_REVERSEHIGHLIGHT     0000000180001450     exported.obj
 0001:00000458       LINFO_WRAPMODE             0000000180001458     exported.obj
 0001:00000460       LINFO_SHOWAMPERSAND        0000000180001460     exported.obj
 0001:00000468       LINFO_NONE                 0000000180001468     exported.obj
 0001:00000470       FarGuid                    0000000180001470     exported.obj
 0001:00000480       FDLG_WARNING               0000000180001480     exported.obj
 0001:00000488       FDLG_SMALLDIALOG           0000000180001488     exported.obj
 0001:00000490       FDLG_NODRAWSHADOW          0000000180001490     exported.obj
 0001:00000498       FDLG_NODRAWPANEL           0000000180001498     exported.obj
 0001:000004a0       FDLG_KEEPCONSOLETITLE      00000001800014a0     exported.obj
 0001:000004a8       FDLG_NONE                  00000001800014a8     exported.obj
 0001:000004b0       MIF_SELECTED               00000001800014b0     exported.obj
 0001:000004b8       MIF_CHECKED                00000001800014b8     exported.obj
 0001:000004c0       MIF_SEPARATOR              00000001800014c0     exported.obj
 0001:000004c8       MIF_DISABLE                00000001800014c8     exported.obj
 0001:000004d0       MIF_GRAYED                 00000001800014d0     exported.obj
 0001:000004d8       MIF_HIDDEN                 00000001800014d8     exported.obj
 0001:000004e0       MIF_NONE                   00000001800014e0     exported.obj
 0001:000004e8       FMENU_SHOWAMPERSAND        00000001800014e8     exported.obj
 0001:000004f0       FMENU_WRAPMODE             00000001800014f0     exported.obj
 0001:000004f8       FMENU_AUTOHIGHLIGHT        00000001800014f8     exported.obj
 0001:00000500       FMENU_REVERSEAUTOHIGHLIGHT 0000000180001500     exported.obj
 0001:00000508       FMENU_CHANGECONSOLETITLE   0000000180001508     exported.obj
 0001:00000510       FMENU_NONE                 0000000180001510     exported.obj
 0001:00000518       PPIF_SELECTED              0000000180001518     exported.obj
 0001:00000520       PPIF_PROCESSDESCR          0000000180001520     exported.obj
 0001:00000528       PPIF_NONE                  0000000180001528     exported.obj
 0001:00000530       PFLAGS_SHOWHIDDEN          0000000180001530     exported.obj
 0001:00000538       PFLAGS_HIGHLIGHT           0000000180001538     exported.obj
 0001:00000540       PFLAGS_REVERSESORTORDER    0000000180001540     exported.obj
 0001:00000548       PFLAGS_USESORTGROUPS       0000000180001548     exported.obj
 0001:00000550       PFLAGS_SELECTEDFIRST       0000000180001550     exported.obj
 0001:00000558       PFLAGS_REALNAMES           0000000180001558     exported.obj
 0001:00000560       PFLAGS_NUMERICSORT         0000000180001560     exported.obj
 0001:00000568       PFLAGS_PANELLEFT           0000000180001568     exported.obj
 0001:00000570       PFLAGS_DIRECTORIESFIRST    0000000180001570     exported.obj
 0001:00000578       PFLAGS_USECRC32            0000000180001578     exported.obj
 0001:00000580       PFLAGS_CASESENSITIVESORT   0000000180001580     exported.obj
 0001:00000588       PFLAGS_PLUGIN              0000000180001588     exported.obj
 0001:00000590       PFLAGS_VISIBLE             0000000180001590     exported.obj
 0001:00000598       PFLAGS_FOCUS               0000000180001598     exported.obj
 0001:000005a0       PFLAGS_ALTERNATIVENAMES    00000001800015a0     exported.obj
 0001:000005a8       PFLAGS_SHORTCUT            00000001800015a8     exported.obj
 0001:000005b0       PFLAGS_NONE                00000001800015b0     exported.obj
 0001:000005b8       PN_CMPNAME                 00000001800015b8     exported.obj
 0001:000005c0       PN_CMPNAMELIST             00000001800015c0     exported.obj
 0001:000005c8       PN_GENERATENAME            00000001800015c8     exported.obj
 0001:000005d0       PN_CHECKMASK               00000001800015d0     exported.obj
 0001:000005d8       PN_SKIPPATH                00000001800015d8     exported.obj
 0001:000005e0       PN_SHOWERRORMESSAGE        00000001800015e0     exported.obj
 0001:000005e8       XLAT_SWITCHKEYBLAYOUT      00000001800015e8     exported.obj
 0001:000005f0       XLAT_SWITCHKEYBBEEP        00000001800015f0     exported.obj
 0001:000005f8       XLAT_USEKEYBLAYOUTNAME     00000001800015f8     exported.obj
 0001:00000600       XLAT_CONVERTALLCMDLINE     0000000180001600     exported.obj
 0001:00000608       XLAT_NONE                  0000000180001608     exported.obj
 0001:00000610       FRS_RETUPDIR               0000000180001610     exported.obj
 0001:00000618       FRS_RECUR                  0000000180001618     exported.obj
 0001:00000620       FRS_SCANSYMLINK            0000000180001620     exported.obj
 0001:00000628       VF_NONMODAL                0000000180001628     exported.obj
 0001:00000630       VF_DELETEONCLOSE           0000000180001630     exported.obj
 0001:00000638       VF_ENABLE_F6               0000000180001638     exported.obj
 0001:00000640       VF_DISABLEHISTORY          0000000180001640     exported.obj
 0001:00000648       VF_IMMEDIATERETURN         0000000180001648     exported.obj
 0001:00000650       VF_DELETEONLYFILEONCLOSE   0000000180001650     exported.obj
 0001:00000658       VF_NONE                    0000000180001658     exported.obj
 0001:00000660       EF_NONMODAL                0000000180001660     exported.obj
 0001:00000668       EF_CREATENEW               0000000180001668     exported.obj
 0001:00000670       EF_ENABLE_F6               0000000180001670     exported.obj
 0001:00000678       EF_DISABLEHISTORY          0000000180001678     exported.obj
 0001:00000680       EF_DELETEONCLOSE           0000000180001680     exported.obj
 0001:00000688       EF_IMMEDIATERETURN         0000000180001688     exported.obj
 0001:00000690       EF_DELETEONLYFILEONCLOSE   0000000180001690     exported.obj
 0001:00000698       EF_LOCKED                  0000000180001698     exported.obj
 0001:000006a0       MLF_SHOWERRMSG             00000001800016a0     exported.obj
 0001:000006a8       EF_DISABLESAVEPOS          00000001800016a8     exported.obj
 0001:000006b0       MLF_DONOTUPDATEPANEL       00000001800016b0     exported.obj
 0001:000006b8       EF_OPENMODE_MASK           00000001800016b8     exported.obj
 0001:000006c0       EF_OPENMODE_QUERY          00000001800016c0     exported.obj
 0001:000006c8       MLF_HOLDTARGET             00000001800016c8     exported.obj
 0001:000006d0       EF_OPENMODE_NEWIFOPEN      00000001800016d0     exported.obj
 0001:000006d8       MLF_NONE                   00000001800016d8     exported.obj
 0001:000006e0       EF_OPENMODE_USEEXISTING    00000001800016e0     exported.obj
 0001:000006e8       EF_OPENMODE_BREAKIFOPEN    00000001800016e8     exported.obj
 0001:000006f0       EF_OPENMODE_RELOADIFOPEN   00000001800016f0     exported.obj
 0001:000006f8       EN_NONE                    00000001800016f8     exported.obj
 0001:00000700       FFFS_COMMAS                0000000180001700     exported.obj
 0001:00000708       FHELP_NOSHOWERROR          0000000180001708     exported.obj
 0001:00000710       FFFS_FLOATSIZE             0000000180001710     exported.obj
 0001:00000718       FHELP_SELFHELP             0000000180001718     exported.obj
 0001:00000720       FFFS_SHOWBYTESINDEX        0000000180001720     exported.obj
 0001:00000728       FFFS_ECONOMIC              0000000180001728     exported.obj
 0001:00000730       FHELP_FARHELP              0000000180001730     exported.obj
 0001:00000738       FHELP_CUSTOMFILE           0000000180001738     exported.obj
 0001:00000740       FFFS_THOUSAND              0000000180001740     exported.obj
 0001:00000760       FHELP_CUSTOMPATH           0000000180001760     exported.obj
 0001:00000780       FFFS_MINSIZEINDEX          0000000180001780     exported.obj
 0001:000007a0       FFFS_MINSIZEINDEX_MASK     00000001800017a0     exported.obj
 0001:000007a8       FHELP_GUID                 00000001800017a8     exported.obj
 0001:000007b0       FHELP_USECONTENTS          00000001800017b0     exported.obj
 0001:000007c0       FHELP_NONE                 00000001800017c0     exported.obj
 0001:000007c8       KMFLAGS_SILENTCHECK        00000001800017c8     exported.obj
 0001:000007d0       KMFLAGS_NOSENDKEYSTOPLUGINS 00000001800017d0     exported.obj
 0001:000007d8       KMFLAGS_ENABLEOUTPUT       00000001800017d8     exported.obj
 0001:000007e0       KMFLAGS_LANGMASK           00000001800017e0     exported.obj
 0001:000007e8       KMFLAGS_LUA                00000001800017e8     exported.obj
 0001:000007f0       KMFLAGS_MOONSCRIPT         00000001800017f0     exported.obj
 0001:000007f8       KMFLAGS_NONE               00000001800017f8     exported.obj
 0001:00000800       PDF_DIALOGEVENTDRAWENABLE  0000000180001800     exported.obj
 0001:00000808       PDF_PROCESSINGERROR        0000000180001808     exported.obj
 0001:00000810       AKMFLAGS_NONE              0000000180001810     exported.obj
 0001:00000818       FSETCLR_REDRAW             0000000180001818     exported.obj
 0001:00000820       FSETCLR_NONE               0000000180001820     exported.obj
 0001:00000828       PF_PRELOAD                 0000000180001828     exported.obj
 0001:00000830       PF_DISABLEPANELS           0000000180001830     exported.obj
 0001:00000838       PF_EDITOR                  0000000180001838     exported.obj
 0001:00000840       PF_VIEWER                  0000000180001840     exported.obj
 0001:00000848       PF_FULLCMDLINE             0000000180001848     exported.obj
 0001:00000850       PF_DIALOG                  0000000180001850     exported.obj
 0001:00000858       PF_NONE                    0000000180001858     exported.obj
 0001:00000860       WIF_MODIFIED               0000000180001860     exported.obj
 0001:00000868       WIF_CURRENT                0000000180001868     exported.obj
 0001:00000870       WIF_MODAL                  0000000180001870     exported.obj
 0001:00000878       VOPT_SAVEFILEPOSITION      0000000180001878     exported.obj
 0001:00000880       VOPT_AUTODETECTCODEPAGE    0000000180001880     exported.obj
 0001:00000888       VOPT_NONE                  0000000180001888     exported.obj
 0001:00000890       VSMFL_REDRAW               0000000180001890     exported.obj
 0001:00000898       IPLFLAGS_SEPARATOR         0000000180001898     exported.obj
 0001:000008a0       VSP_NOREDRAW               00000001800018a0     exported.obj
 0001:000008a8       VSP_PERCENT                00000001800018a8     exported.obj
 0001:000008b0       PMFLAGS_FULLSCREEN         00000001800018b0     exported.obj
 0001:000008b8       VSP_RELATIVE               00000001800018b8     exported.obj
 0001:000008c0       VSP_NORETNEWPOS            00000001800018c0     exported.obj
 0001:000008c8       PMFLAGS_DETAILEDSTATUS     00000001800018c8     exported.obj
 0001:000008d0       PMFLAGS_ALIGNEXTENSIONS    00000001800018d0     exported.obj
 0001:000008d8       PMFLAGS_CASECONVERSION     00000001800018d8     exported.obj
 0001:000008e0       VMF_WRAP                   00000001800018e0     exported.obj
 0001:000008e8       VMF_WORDWRAP               00000001800018e8     exported.obj
 0001:000008f0       OPIF_DISABLEFILTER         00000001800018f0     exported.obj
 0001:000008f8       OPIF_DISABLESORTGROUPS     00000001800018f8     exported.obj
 0001:00000900       OPIF_DISABLEHIGHLIGHTING   0000000180001900     exported.obj
 0001:00000908       OPIF_ADDDOTS               0000000180001908     exported.obj
 0001:00000910       OPIF_RAWSELECTION          0000000180001910     exported.obj
 0001:00000918       OPIF_REALNAMES             0000000180001918     exported.obj
 0001:00000920       OPIF_SHOWNAMESONLY         0000000180001920     exported.obj
 0001:00000928       OPIF_SHOWRIGHTALIGNNAMES   0000000180001928     exported.obj
 0001:00000930       OPIF_SHOWPRESERVECASE      0000000180001930     exported.obj
 0001:00000938       OPIF_COMPAREFATTIME        0000000180001938     exported.obj
 0001:00000940       OPIF_EXTERNALGET           0000000180001940     exported.obj
 0001:00000948       OPIF_EXTERNALPUT           0000000180001948     exported.obj
 0001:00000950       FCF_FG_4BIT                0000000180001950     exported.obj
 0001:00000958       FCF_BG_4BIT                0000000180001958     exported.obj
 0001:00000960       OPIF_EXTERNALDELETE        0000000180001960     exported.obj
 0001:00000968       FCF_4BITMASK               0000000180001968     exported.obj
 0001:00000970       OPIF_EXTERNALMKDIR         0000000180001970     exported.obj
 0001:00000978       FCF_RAWATTR_MASK           0000000180001978     exported.obj
 0001:00000980       OPIF_USEATTRHIGHLIGHTING   0000000180001980     exported.obj
 0001:00000988       FCF_EXTENDEDFLAGS          0000000180001988     exported.obj
 0001:00000990       OPIF_USECRC32              0000000180001990     exported.obj
 0001:00000998       FCF_FG_BOLD                0000000180001998     exported.obj
 0001:000009a0       OPIF_USEFREESIZE           00000001800019a0     exported.obj
 0001:000009a8       FCF_FG_ITALIC              00000001800019a8     exported.obj
 0001:000009b0       OPIF_SHORTCUT              00000001800019b0     exported.obj
 0001:000009b8       OPIF_NONE                  00000001800019b8     exported.obj
 0001:000009c0       FCF_FG_UNDERLINE           00000001800019c0     exported.obj
 0001:000009c8       FCF_STYLEMASK              00000001800019c8     exported.obj
 0001:000009d0       FCF_NONE                   00000001800019d0     exported.obj
 0001:000009d8       OPM_SILENT                 00000001800019d8     exported.obj
 0001:000009e0       OPM_FIND                   00000001800019e0     exported.obj
 0001:000009e8       OPM_VIEW                   00000001800019e8     exported.obj
 0001:000009f0       OPM_EDIT                   00000001800019f0     exported.obj
 0001:000009f8       OPM_TOPLEVEL               00000001800019f8     exported.obj
 0001:00000a00       OPM_DESCR                  0000000180001a00     exported.obj
 0001:00000a08       OPM_QUICKVIEW              0000000180001a08     exported.obj
 0001:00000a10       OPM_PGDN                   0000000180001a10     exported.obj
 0001:00000a18       CDF_NONE                   0000000180001a18     exported.obj
 0001:00000a20       OPM_COMMANDS               0000000180001a20     exported.obj
 0001:00000a28       OPM_NONE                   0000000180001a28     exported.obj
 0001:00000a30       FMSG_WARNING               0000000180001a30     exported.obj
 0001:00000a38       FMSG_ERRORTYPE             0000000180001a38     exported.obj
 0001:00000a40       FMSG_KEEPBACKGROUND        0000000180001a40     exported.obj
 0001:00000a48       FMSG_LEFTALIGN             0000000180001a48     exported.obj
 0001:00000a50       FMSG_ALLINONE              0000000180001a50     exported.obj
 0001:00000a58       FMSG_MB_OK                 0000000180001a58     exported.obj
 0001:00000a60       FMSG_MB_OKCANCEL           0000000180001a60     exported.obj
 0001:00000a68       FMSG_MB_ABORTRETRYIGNORE   0000000180001a68     exported.obj
 0001:00000a70       FMSG_MB_YESNO              0000000180001a70     exported.obj
 0001:00000a78       FMSG_MB_YESNOCANCEL        0000000180001a78     exported.obj
 0001:00000a80       FMSG_MB_RETRYCANCEL        0000000180001a80     exported.obj
 0001:00000a88       FMSG_NONE                  0000000180001a88     exported.obj
 0001:00000a90       FOSF_ACTIVE                0000000180001a90     exported.obj
 0001:00000a98       FOSF_NONE                  0000000180001a98     exported.obj
 0001:00000aa0       DIF_BOXCOLOR               0000000180001aa0     exported.obj
 0001:00000aa8       DIF_GROUP                  0000000180001aa8     exported.obj
 0001:00000ab0       DIF_LEFTTEXT               0000000180001ab0     exported.obj
 0001:00000ab8       DIF_MOVESELECT             0000000180001ab8     exported.obj
 0001:00000ac0       DIF_SHOWAMPERSAND          0000000180001ac0     exported.obj
 0001:00000ac8       DIF_CENTERGROUP            0000000180001ac8     exported.obj
 0001:00000ad0       DIF_NOBRACKETS             0000000180001ad0     exported.obj
 0001:00000ad8       DIF_MANUALADDHISTORY       0000000180001ad8     exported.obj
 0001:00000ae0       DIF_SEPARATOR              0000000180001ae0     exported.obj
 0001:00000ae8       DIF_SEPARATOR2             0000000180001ae8     exported.obj
 0001:00000af0       DIF_EDITOR                 0000000180001af0     exported.obj
 0001:00000af8       DIF_LISTNOAMPERSAND        0000000180001af8     exported.obj
 0001:00000b00       DIF_LISTNOBOX              0000000180001b00     exported.obj
 0001:00000b08       DIF_HISTORY                0000000180001b08     exported.obj
 0001:00000b10       DIF_BTNNOCLOSE             0000000180001b10     exported.obj
 0001:00000b18       DIF_CENTERTEXT             0000000180001b18     exported.obj
 0001:00000b20       DIF_SEPARATORUSER          0000000180001b20     exported.obj
 0001:00000b28       DIF_SETSHIELD              0000000180001b28     exported.obj
 0001:00000b30       DIF_EDITEXPAND             0000000180001b30     exported.obj
 0001:00000b38       DIF_DROPDOWNLIST           0000000180001b38     exported.obj
 0001:00000b40       DIF_USELASTHISTORY         0000000180001b40     exported.obj
 0001:00000b48       DIF_MASKEDIT               0000000180001b48     exported.obj
 0001:00000b50       DIF_LISTTRACKMOUSE         0000000180001b50     exported.obj
 0001:00000b58       DIF_LISTTRACKMOUSEINFOCUS  0000000180001b58     exported.obj
 0001:00000b60       DIF_SELECTONENTRY          0000000180001b60     exported.obj
 0001:00000b68       DIF_3STATE                 0000000180001b68     exported.obj
 0001:00000b70       DIF_EDITPATH               0000000180001b70     exported.obj
 0001:00000b78       DIF_LISTWRAPMODE           0000000180001b78     exported.obj
 0001:00000b80       DIF_NOAUTOCOMPLETE         0000000180001b80     exported.obj
 0001:00000b88       DIF_LISTAUTOHIGHLIGHT      0000000180001b88     exported.obj
 0001:00000b90       DIF_LISTNOCLOSE            0000000180001b90     exported.obj
 0001:00000b98       DIF_EDITPATHEXEC           0000000180001b98     exported.obj
 0001:00000ba0       DIF_HIDDEN                 0000000180001ba0     exported.obj
 0001:00000ba8       DIF_READONLY               0000000180001ba8     exported.obj
 0001:00000bb0       DIF_NOFOCUS                0000000180001bb0     exported.obj
 0001:00000bb8       DIF_DISABLE                0000000180001bb8     exported.obj
 0001:00000bc0       DIF_DEFAULTBUTTON          0000000180001bc0     exported.obj
 0001:00000bc8       DIF_FOCUS                  0000000180001bc8     exported.obj
 0001:00000bd0       DIF_RIGHTTEXT              0000000180001bd0     exported.obj
 0001:00000bd8       DIF_WORDWRAP               0000000180001bd8     exported.obj
 0001:00000be0       DIF_NONE                   0000000180001be0     exported.obj
 0001:00000be8       ECF_TABMARKFIRST           0000000180001be8     exported.obj
 0001:000014f0       FFFS_COMMAS                00000001800024f0     flags.obj
 0001:000014f8       FHELP_NOSHOWERROR          00000001800024f8     flags.obj
 0001:00001500       FFFS_FLOATSIZE             0000000180002500     flags.obj
 0001:00001508       FHELP_SELFHELP             0000000180002508     flags.obj
 0001:00001510       FFFS_SHOWBYTESINDEX        0000000180002510     flags.obj
 0001:00001518       FFFS_ECONOMIC              0000000180002518     flags.obj
 0001:00001520       FHELP_FARHELP              0000000180002520     flags.obj
 0001:00001528       FHELP_CUSTOMFILE           0000000180002528     flags.obj
 0001:00001530       FFFS_THOUSAND              0000000180002530     flags.obj
 0001:00001538       FHELP_CUSTOMPATH           0000000180002538     flags.obj
 0001:00001540       FFFS_MINSIZEINDEX          0000000180002540     flags.obj
 0001:00001548       FFFS_MINSIZEINDEX_MASK     0000000180002548     flags.obj
 0001:00001550       FHELP_GUID                 0000000180002550     flags.obj
 0001:00001558       FHELP_USECONTENTS          0000000180002558     flags.obj
 0001:00001560       FHELP_NONE                 0000000180002560     flags.obj
 0001:00001568       KMFLAGS_SILENTCHECK        0000000180002568     flags.obj
 0001:00001570       KMFLAGS_NOSENDKEYSTOPLUGINS 0000000180002570     flags.obj
 0001:00001578       KMFLAGS_ENABLEOUTPUT       0000000180002578     flags.obj
 0001:00001580       KMFLAGS_LANGMASK           0000000180002580     flags.obj
 0001:00001588       KMFLAGS_LUA                0000000180002588     flags.obj
 0001:00001590       KMFLAGS_MOONSCRIPT         0000000180002590     flags.obj
 0001:00001598       KMFLAGS_NONE               0000000180002598     flags.obj
 0001:000015a0       AKMFLAGS_NONE              00000001800025a0     flags.obj
 0001:000015a8       FSETCLR_REDRAW             00000001800025a8     flags.obj
 0001:000015b0       FSETCLR_NONE               00000001800025b0     flags.obj
 0001:000015b8       PF_PRELOAD                 00000001800025b8     flags.obj
 0001:000015c0       PF_DISABLEPANELS           00000001800025c0     flags.obj
 0001:000015c8       PF_EDITOR                  00000001800025c8     flags.obj
 0001:000015d0       PF_VIEWER                  00000001800025d0     flags.obj
 0001:000015d8       PF_FULLCMDLINE             00000001800025d8     flags.obj
 0001:000015e0       PF_DIALOG                  00000001800025e0     flags.obj
 0001:000015e8       PF_NONE                    00000001800025e8     flags.obj
 0001:000015f0       WIF_MODIFIED               00000001800025f0     flags.obj
 0001:000015f8       WIF_CURRENT                00000001800025f8     flags.obj
 0001:00001600       WIF_MODAL                  0000000180002600     flags.obj
 0001:00001608       VOPT_SAVEFILEPOSITION      0000000180002608     flags.obj
 0001:00001610       VOPT_AUTODETECTCODEPAGE    0000000180002610     flags.obj
 0001:00001618       VOPT_NONE                  0000000180002618     flags.obj
 0001:00001620       VSMFL_REDRAW               0000000180002620     flags.obj
 0001:00001628       IPLFLAGS_SEPARATOR         0000000180002628     flags.obj
 0001:00001630       VSP_NOREDRAW               0000000180002630     flags.obj
 0001:00001638       VSP_PERCENT                0000000180002638     flags.obj
 0001:00001640       PMFLAGS_FULLSCREEN         0000000180002640     flags.obj
 0001:00001648       VSP_RELATIVE               0000000180002648     flags.obj
 0001:00001650       VSP_NORETNEWPOS            0000000180002650     flags.obj
 0001:00001658       PMFLAGS_DETAILEDSTATUS     0000000180002658     flags.obj
 0001:00001660       PMFLAGS_ALIGNEXTENSIONS    0000000180002660     flags.obj
 0001:00001668       PMFLAGS_CASECONVERSION     0000000180002668     flags.obj
 0001:00001670       VMF_WRAP                   0000000180002670     flags.obj
 0001:00001678       VMF_WORDWRAP               0000000180002678     flags.obj
 0001:00001680       OPIF_DISABLEFILTER         0000000180002680     flags.obj
 0001:00001688       OPIF_DISABLESORTGROUPS     0000000180002688     flags.obj
 0001:00001690       OPIF_DISABLEHIGHLIGHTING   0000000180002690     flags.obj
 0001:00001698       OPIF_ADDDOTS               0000000180002698     flags.obj
 0001:000016a0       OPIF_RAWSELECTION          00000001800026a0     flags.obj
 0001:000016a8       OPIF_REALNAMES             00000001800026a8     flags.obj
 0001:000016b0       OPIF_SHOWNAMESONLY         00000001800026b0     flags.obj
 0001:000016b8       OPIF_SHOWRIGHTALIGNNAMES   00000001800026b8     flags.obj
 0001:000016c0       OPIF_SHOWPRESERVECASE      00000001800026c0     flags.obj
 0001:000016c8       OPIF_COMPAREFATTIME        00000001800026c8     flags.obj
 0001:000016d0       OPIF_EXTERNALGET           00000001800026d0     flags.obj
 0001:000016d8       OPIF_EXTERNALPUT           00000001800026d8     flags.obj
 0001:000016e0       FCF_FG_4BIT                00000001800026e0     flags.obj
 0001:000016e8       FCF_BG_4BIT                00000001800026e8     flags.obj
 0001:000016f0       OPIF_EXTERNALDELETE        00000001800026f0     flags.obj
 0001:000016f8       FCF_4BITMASK               00000001800026f8     flags.obj
 0001:00001700       OPIF_EXTERNALMKDIR         0000000180002700     flags.obj
 0001:00001708       FCF_RAWATTR_MASK           0000000180002708     flags.obj
 0001:00001710       OPIF_USEATTRHIGHLIGHTING   0000000180002710     flags.obj
 0001:00001718       FCF_EXTENDEDFLAGS          0000000180002718     flags.obj
 0001:00001720       OPIF_USECRC32              0000000180002720     flags.obj
 0001:00001728       FCF_FG_BOLD                0000000180002728     flags.obj
 0001:00001730       OPIF_USEFREESIZE           0000000180002730     flags.obj
 0001:00001738       FCF_FG_ITALIC              0000000180002738     flags.obj
 0001:00001740       OPIF_SHORTCUT              0000000180002740     flags.obj
 0001:00001748       OPIF_NONE                  0000000180002748     flags.obj
 0001:00001750       FCF_FG_UNDERLINE           0000000180002750     flags.obj
 0001:00001758       FCF_STYLEMASK              0000000180002758     flags.obj
 0001:00001760       FCF_NONE                   0000000180002760     flags.obj
 0001:00001768       OPM_SILENT                 0000000180002768     flags.obj
 0001:00001770       OPM_FIND                   0000000180002770     flags.obj
 0001:00001778       OPM_VIEW                   0000000180002778     flags.obj
 0001:00001780       OPM_EDIT                   0000000180002780     flags.obj
 0001:00001788       OPM_TOPLEVEL               0000000180002788     flags.obj
 0001:00001790       OPM_DESCR                  0000000180002790     flags.obj
 0001:00001798       OPM_QUICKVIEW              0000000180002798     flags.obj
 0001:000017a0       OPM_PGDN                   00000001800027a0     flags.obj
 0001:000017a8       CDF_NONE                   00000001800027a8     flags.obj
 0001:000017b0       OPM_COMMANDS               00000001800027b0     flags.obj
 0001:000017b8       OPM_NONE                   00000001800027b8     flags.obj
 0001:000017c0       FMSG_WARNING               00000001800027c0     flags.obj
 0001:000017c8       FMSG_ERRORTYPE             00000001800027c8     flags.obj
 0001:000017d0       FMSG_KEEPBACKGROUND        00000001800027d0     flags.obj
 0001:000017d8       FMSG_LEFTALIGN             00000001800027d8     flags.obj
 0001:000017e0       FMSG_ALLINONE              00000001800027e0     flags.obj
 0001:000017e8       FMSG_MB_OK                 00000001800027e8     flags.obj
 0001:000017f0       FMSG_MB_OKCANCEL           00000001800027f0     flags.obj
 0001:000017f8       FMSG_MB_ABORTRETRYIGNORE   00000001800027f8     flags.obj
 0001:00001800       FMSG_MB_YESNO              0000000180002800     flags.obj
 0001:00001808       FMSG_MB_YESNOCANCEL        0000000180002808     flags.obj
 0001:00001810       FMSG_MB_RETRYCANCEL        0000000180002810     flags.obj
 0001:00001818       FMSG_NONE                  0000000180002818     flags.obj
 0001:00002db8       FOSF_ACTIVE                0000000180003db8     flags.obj
 0001:00002dc0       FOSF_NONE                  0000000180003dc0     flags.obj
 0001:00002dc8       DIF_BOXCOLOR               0000000180003dc8     flags.obj
 0001:00002dd0       DIF_GROUP                  0000000180003dd0     flags.obj
 0001:00002dd8       DIF_LEFTTEXT               0000000180003dd8     flags.obj
 0001:00002de0       DIF_MOVESELECT             0000000180003de0     flags.obj
 0001:00002de8       DIF_SHOWAMPERSAND          0000000180003de8     flags.obj
 0001:00002df0       DIF_CENTERGROUP            0000000180003df0     flags.obj
 0001:00002df8       DIF_NOBRACKETS             0000000180003df8     flags.obj
 0001:00002e00       DIF_MANUALADDHISTORY       0000000180003e00     flags.obj
 0001:00002e08       DIF_SEPARATOR              0000000180003e08     flags.obj
 0001:00002e10       DIF_SEPARATOR2             0000000180003e10     flags.obj
 0001:00002e18       DIF_EDITOR                 0000000180003e18     flags.obj
 0001:00002e20       DIF_LISTNOAMPERSAND        0000000180003e20     flags.obj
 0001:00002e28       DIF_LISTNOBOX              0000000180003e28     flags.obj
 0001:00002e30       DIF_HISTORY                0000000180003e30     flags.obj
 0001:00002e38       DIF_BTNNOCLOSE             0000000180003e38     flags.obj
 0001:00002e40       DIF_CENTERTEXT             0000000180003e40     flags.obj
 0001:00002e48       DIF_SEPARATORUSER          0000000180003e48     flags.obj
 0001:00002e50       DIF_SETSHIELD              0000000180003e50     flags.obj
 0001:00002e58       DIF_EDITEXPAND             0000000180003e58     flags.obj
 0001:00002e60       DIF_DROPDOWNLIST           0000000180003e60     flags.obj
 0001:00002e68       DIF_USELASTHISTORY         0000000180003e68     flags.obj
 0001:00002e70       DIF_MASKEDIT               0000000180003e70     flags.obj
 0001:00002e78       DIF_LISTTRACKMOUSE         0000000180003e78     flags.obj
 0001:00002e80       DIF_LISTTRACKMOUSEINFOCUS  0000000180003e80     flags.obj
 0001:00002e88       DIF_SELECTONENTRY          0000000180003e88     flags.obj
 0001:00002e90       DIF_3STATE                 0000000180003e90     flags.obj
 0001:00002e98       DIF_EDITPATH               0000000180003e98     flags.obj
 0001:00002ea0       DIF_LISTWRAPMODE           0000000180003ea0     flags.obj
 0001:00002ea8       DIF_NOAUTOCOMPLETE         0000000180003ea8     flags.obj
 0001:00002eb0       DIF_LISTAUTOHIGHLIGHT      0000000180003eb0     flags.obj
 0001:00002eb8       DIF_LISTNOCLOSE            0000000180003eb8     flags.obj
 0001:00002ec0       DIF_EDITPATHEXEC           0000000180003ec0     flags.obj
 0001:00002ec8       DIF_HIDDEN                 0000000180003ec8     flags.obj
 0001:00002ed0       DIF_READONLY               0000000180003ed0     flags.obj
 0001:00002ed8       DIF_NOFOCUS                0000000180003ed8     flags.obj
 0001:00002ee0       DIF_DISABLE                0000000180003ee0     flags.obj
 0001:00002ee8       DIF_DEFAULTBUTTON          0000000180003ee8     flags.obj
 0001:00002ef0       DIF_FOCUS                  0000000180003ef0     flags.obj
 0001:00002ef8       DIF_RIGHTTEXT              0000000180003ef8     flags.obj
 0001:00002f00       DIF_WORDWRAP               0000000180003f00     flags.obj
 0001:00002f08       DIF_NONE                   0000000180003f08     flags.obj
 0001:00002f10       ECF_TABMARKFIRST           0000000180003f10     flags.obj
 0001:00002f18       ECF_TABMARKCURRENT         0000000180003f18     flags.obj
 0001:00002f20       ECF_AUTODELETE             0000000180003f20     flags.obj
 0001:00002f28       FIB_ENABLEEMPTY            0000000180003f28     flags.obj
 0001:00002f30       FIB_PASSWORD               0000000180003f30     flags.obj
 0001:00002f38       FIB_EXPANDENV              0000000180003f38     flags.obj
 0001:00002f40       FIB_NOUSELASTHISTORY       0000000180003f40     flags.obj
 0001:00002f48       PCIF_FROMMAIN              0000000180003f48     flags.obj
 0001:00002f50       FIB_BUTTONS                0000000180003f50     flags.obj
 0001:00002f58       FIB_NOAMPERSAND            0000000180003f58     flags.obj
 0001:00002f60       PCIF_NONE                  0000000180003f60     flags.obj
 0001:00002f68       FIB_EDITPATH               0000000180003f68     flags.obj
 0001:00002f70       FIB_EDITPATHEXEC           0000000180003f70     flags.obj
 0001:00002f78       FIB_NONE                   0000000180003f78     flags.obj
 0001:00002f80       LIF_SELECTED               0000000180003f80     flags.obj
 0001:00002f88       LIF_CHECKED                0000000180003f88     flags.obj
 0001:00002f90       LIF_SEPARATOR              0000000180003f90     flags.obj
 0001:00002f98       LIF_DISABLE                0000000180003f98     flags.obj
 0001:00002fa0       LIF_GRAYED                 0000000180003fa0     flags.obj
 0001:00002fa8       LIF_HIDDEN                 0000000180003fa8     flags.obj
 0001:00002fb0       LIF_DELETEUSERDATA         0000000180003fb0     flags.obj
 0001:00002fb8       LIF_NONE                   0000000180003fb8     flags.obj
 0001:00002fc0       FPF_LOADED                 0000000180003fc0     flags.obj
 0001:00002fc8       LIFIND_EXACTMATCH          0000000180003fc8     flags.obj
 0001:00002fd0       FPF_ANSI                   0000000180003fd0     flags.obj
 0001:00002fd8       LIFIND_NONE                0000000180003fd8     flags.obj
 0001:00002fe0       FPF_NONE                   0000000180003fe0     flags.obj
 0001:00002fe8       LINFO_SHOWNOBOX            0000000180003fe8     flags.obj
 0001:00002ff0       LINFO_AUTOHIGHLIGHT        0000000180003ff0     flags.obj
 0001:00002ff8       LINFO_REVERSEHIGHLIGHT     0000000180003ff8     flags.obj
 0001:00003000       LINFO_WRAPMODE             0000000180004000     flags.obj
 0001:00003008       LINFO_SHOWAMPERSAND        0000000180004008     flags.obj
 0001:00003010       LINFO_NONE                 0000000180004010     flags.obj
 0001:00003018       FarGuid                    0000000180004018     flags.obj
 0001:00003028       FDLG_WARNING               0000000180004028     flags.obj
 0001:00003030       FDLG_SMALLDIALOG           0000000180004030     flags.obj
 0001:00003038       FDLG_NODRAWSHADOW          0000000180004038     flags.obj
 0001:00003040       FDLG_NODRAWPANEL           0000000180004040     flags.obj
 0001:00003048       FDLG_KEEPCONSOLETITLE      0000000180004048     flags.obj
 0001:00003050       FDLG_NONE                  0000000180004050     flags.obj
 0001:00003058       MIF_SELECTED               0000000180004058     flags.obj
 0001:00003060       MIF_CHECKED                0000000180004060     flags.obj
 0001:00003068       MIF_SEPARATOR              0000000180004068     flags.obj
 0001:00003070       MIF_DISABLE                0000000180004070     flags.obj
 0001:00003078       MIF_GRAYED                 0000000180004078     flags.obj
 0001:00003080       MIF_HIDDEN                 0000000180004080     flags.obj
 0001:00003088       MIF_NONE                   0000000180004088     flags.obj
 0001:00003090       FMENU_SHOWAMPERSAND        0000000180004090     flags.obj
 0001:00003098       FMENU_WRAPMODE             0000000180004098     flags.obj
 0001:000030a0       FMENU_AUTOHIGHLIGHT        00000001800040a0     flags.obj
 0001:000030a8       FMENU_REVERSEAUTOHIGHLIGHT 00000001800040a8     flags.obj
 0001:000030b0       FMENU_CHANGECONSOLETITLE   00000001800040b0     flags.obj
 0001:000030b8       FMENU_NONE                 00000001800040b8     flags.obj
 0001:000030c0       PPIF_SELECTED              00000001800040c0     flags.obj
 0001:000030c8       PPIF_PROCESSDESCR          00000001800040c8     flags.obj
 0001:000030d0       PPIF_NONE                  00000001800040d0     flags.obj
 0001:000030d8       PFLAGS_SHOWHIDDEN          00000001800040d8     flags.obj
 0001:000030e0       PFLAGS_HIGHLIGHT           00000001800040e0     flags.obj
 0001:000030e8       PFLAGS_REVERSESORTORDER    00000001800040e8     flags.obj
 0001:000030f0       PFLAGS_USESORTGROUPS       00000001800040f0     flags.obj
 0001:000030f8       PFLAGS_SELECTEDFIRST       00000001800040f8     flags.obj
 0001:00003100       PFLAGS_REALNAMES           0000000180004100     flags.obj
 0001:00003108       PFLAGS_NUMERICSORT         0000000180004108     flags.obj
 0001:00003110       PFLAGS_PANELLEFT           0000000180004110     flags.obj
 0001:00003118       PFLAGS_DIRECTORIESFIRST    0000000180004118     flags.obj
 0001:00003120       PFLAGS_USECRC32            0000000180004120     flags.obj
 0001:00003128       PFLAGS_CASESENSITIVESORT   0000000180004128     flags.obj
 0001:00003130       PFLAGS_PLUGIN              0000000180004130     flags.obj
 0001:00003138       PFLAGS_VISIBLE             0000000180004138     flags.obj
 0001:00003140       PFLAGS_FOCUS               0000000180004140     flags.obj
 0001:00003148       PFLAGS_ALTERNATIVENAMES    0000000180004148     flags.obj
 0001:00003150       PFLAGS_SHORTCUT            0000000180004150     flags.obj
 0001:00003158       PFLAGS_NONE                0000000180004158     flags.obj
 0001:00003160       PN_CMPNAME                 0000000180004160     flags.obj
 0001:00003168       PN_CMPNAMELIST             0000000180004168     flags.obj
 0001:00003170       PN_GENERATENAME            0000000180004170     flags.obj
 0001:00003178       PN_CHECKMASK               0000000180004178     flags.obj
 0001:00003180       PN_SKIPPATH                0000000180004180     flags.obj
 0001:00003188       PN_SHOWERRORMESSAGE        0000000180004188     flags.obj
 0001:00003190       XLAT_SWITCHKEYBLAYOUT      0000000180004190     flags.obj
 0001:00003198       XLAT_SWITCHKEYBBEEP        0000000180004198     flags.obj
 0001:000031a0       XLAT_USEKEYBLAYOUTNAME     00000001800041a0     flags.obj
 0001:000031a8       XLAT_CONVERTALLCMDLINE     00000001800041a8     flags.obj
 0001:000031b0       XLAT_NONE                  00000001800041b0     flags.obj
 0001:000031b8       FRS_RETUPDIR               00000001800041b8     flags.obj
 0001:000031c0       FRS_RECUR                  00000001800041c0     flags.obj
 0001:000031c8       FRS_SCANSYMLINK            00000001800041c8     flags.obj
 0001:000031d0       VF_NONMODAL                00000001800041d0     flags.obj
 0001:000031d8       VF_DELETEONCLOSE           00000001800041d8     flags.obj
 0001:000031e0       VF_ENABLE_F6               00000001800041e0     flags.obj
 0001:000031e8       VF_DISABLEHISTORY          00000001800041e8     flags.obj
 0001:000031f0       VF_IMMEDIATERETURN         00000001800041f0     flags.obj
 0001:000031f8       VF_DELETEONLYFILEONCLOSE   00000001800041f8     flags.obj
 0001:00003200       VF_NONE                    0000000180004200     flags.obj
 0001:00003208       EF_NONMODAL                0000000180004208     flags.obj
 0001:00003210       EF_CREATENEW               0000000180004210     flags.obj
 0001:00003218       EF_ENABLE_F6               0000000180004218     flags.obj
 0001:00003220       EF_DISABLEHISTORY          0000000180004220     flags.obj
 0001:00003228       EF_DELETEONCLOSE           0000000180004228     flags.obj
 0001:00003230       EF_IMMEDIATERETURN         0000000180004230     flags.obj
 0001:00003238       EF_DELETEONLYFILEONCLOSE   0000000180004238     flags.obj
 0001:00003240       EF_LOCKED                  0000000180004240     flags.obj
 0001:00003248       MLF_SHOWERRMSG             0000000180004248     flags.obj
 0001:00003250       EF_DISABLESAVEPOS          0000000180004250     flags.obj
 0001:00003258       MLF_DONOTUPDATEPANEL       0000000180004258     flags.obj
 0001:00003260       EF_OPENMODE_MASK           0000000180004260     flags.obj
 0001:00003268       EF_OPENMODE_QUERY          0000000180004268     flags.obj
 0001:00003270       MLF_HOLDTARGET             0000000180004270     flags.obj
 0001:00003278       EF_OPENMODE_NEWIFOPEN      0000000180004278     flags.obj
 0001:00003280       MLF_NONE                   0000000180004280     flags.obj
 0001:00003288       EF_OPENMODE_USEEXISTING    0000000180004288     flags.obj
 0001:00003290       EF_OPENMODE_BREAKIFOPEN    0000000180004290     flags.obj
 0001:00003298       EF_OPENMODE_RELOADIFOPEN   0000000180004298     flags.obj
 0001:000032a0       EN_NONE                    00000001800042a0     flags.obj
 0001:00006420       colors                     0000000180007420     keysandcolors.obj
 0001:00007380       guids                      0000000180008380     keysandcolors.obj
 0001:00008650       PN_CMPNAME                 0000000180009650     lflua.obj
 0001:00008658       PN_CMPNAMELIST             0000000180009658     lflua.obj
 0001:00008660       PN_GENERATENAME            0000000180009660     lflua.obj
 0001:00008668       PN_CHECKMASK               0000000180009668     lflua.obj
 0001:00008670       PN_SKIPPATH                0000000180009670     lflua.obj
 0001:00008678       PN_SHOWERRORMESSAGE        0000000180009678     lflua.obj
 0001:00008680       XLAT_SWITCHKEYBLAYOUT      0000000180009680     lflua.obj
 0001:00008688       XLAT_SWITCHKEYBBEEP        0000000180009688     lflua.obj
 0001:00008690       XLAT_USEKEYBLAYOUTNAME     0000000180009690     lflua.obj
 0001:00008698       XLAT_CONVERTALLCMDLINE     0000000180009698     lflua.obj
 0001:000086a0       XLAT_NONE                  00000001800096a0     lflua.obj
 0001:000086a8       FRS_RETUPDIR               00000001800096a8     lflua.obj
 0001:000086b0       FRS_RECUR                  00000001800096b0     lflua.obj
 0001:000086b8       FRS_SCANSYMLINK            00000001800096b8     lflua.obj
 0001:000086c0       VF_NONMODAL                00000001800096c0     lflua.obj
 0001:000086c8       VF_DELETEONCLOSE           00000001800096c8     lflua.obj
 0001:000086d0       VF_ENABLE_F6               00000001800096d0     lflua.obj
 0001:000086d8       VF_DISABLEHISTORY          00000001800096d8     lflua.obj
 0001:000086e0       VF_IMMEDIATERETURN         00000001800096e0     lflua.obj
 0001:000086e8       VF_DELETEONLYFILEONCLOSE   00000001800096e8     lflua.obj
 0001:000086f0       VF_NONE                    00000001800096f0     lflua.obj
 0001:000086f8       EF_NONMODAL                00000001800096f8     lflua.obj
 0001:00008700       EF_CREATENEW               0000000180009700     lflua.obj
 0001:00008708       EF_ENABLE_F6               0000000180009708     lflua.obj
 0001:00008710       EF_DISABLEHISTORY          0000000180009710     lflua.obj
 0001:00008718       EF_DELETEONCLOSE           0000000180009718     lflua.obj
 0001:00008720       EF_IMMEDIATERETURN         0000000180009720     lflua.obj
 0001:00008728       EF_DELETEONLYFILEONCLOSE   0000000180009728     lflua.obj
 0001:00008730       EF_LOCKED                  0000000180009730     lflua.obj
 0001:00008738       MLF_SHOWERRMSG             0000000180009738     lflua.obj
 0001:00008740       EF_DISABLESAVEPOS          0000000180009740     lflua.obj
 0001:00008748       MLF_DONOTUPDATEPANEL       0000000180009748     lflua.obj
 0001:00008750       EF_OPENMODE_MASK           0000000180009750     lflua.obj
 0001:00008758       EF_OPENMODE_QUERY          0000000180009758     lflua.obj
 0001:00008760       MLF_HOLDTARGET             0000000180009760     lflua.obj
 0001:00008768       EF_OPENMODE_NEWIFOPEN      0000000180009768     lflua.obj
 0001:00008770       MLF_NONE                   0000000180009770     lflua.obj
 0001:00008778       EF_OPENMODE_USEEXISTING    0000000180009778     lflua.obj
 0001:00008780       EF_OPENMODE_BREAKIFOPEN    0000000180009780     lflua.obj
 0001:00008788       EF_OPENMODE_RELOADIFOPEN   0000000180009788     lflua.obj
 0001:00008790       EN_NONE                    0000000180009790     lflua.obj
 0001:00008798       FFFS_COMMAS                0000000180009798     lflua.obj
 0001:000087a0       FHELP_NOSHOWERROR          00000001800097a0     lflua.obj
 0001:000087a8       FFFS_FLOATSIZE             00000001800097a8     lflua.obj
 0001:000087b0       FHELP_SELFHELP             00000001800097b0     lflua.obj
 0001:000087b8       FFFS_SHOWBYTESINDEX        00000001800097b8     lflua.obj
 0001:000087c0       FFFS_ECONOMIC              00000001800097c0     lflua.obj
 0001:000087c8       FHELP_FARHELP              00000001800097c8     lflua.obj
 0001:000087d0       FHELP_CUSTOMFILE           00000001800097d0     lflua.obj
 0001:000087d8       FFFS_THOUSAND              00000001800097d8     lflua.obj
 0001:000087e0       FHELP_CUSTOMPATH           00000001800097e0     lflua.obj
 0001:000087e8       FFFS_MINSIZEINDEX          00000001800097e8     lflua.obj
 0001:000087f0       FFFS_MINSIZEINDEX_MASK     00000001800097f0     lflua.obj
 0001:000087f8       FHELP_GUID                 00000001800097f8     lflua.obj
 0001:00008800       FHELP_USECONTENTS          0000000180009800     lflua.obj
 0001:00008808       FHELP_NONE                 0000000180009808     lflua.obj
 0001:00008810       KMFLAGS_SILENTCHECK        0000000180009810     lflua.obj
 0001:00008818       KMFLAGS_NOSENDKEYSTOPLUGINS 0000000180009818     lflua.obj
 0001:00008820       KMFLAGS_ENABLEOUTPUT       0000000180009820     lflua.obj
 0001:00008828       KMFLAGS_LANGMASK           0000000180009828     lflua.obj
 0001:00008830       KMFLAGS_LUA                0000000180009830     lflua.obj
 0001:00008838       KMFLAGS_MOONSCRIPT         0000000180009838     lflua.obj
 0001:00008840       KMFLAGS_NONE               0000000180009840     lflua.obj
 0001:00008848       AKMFLAGS_NONE              0000000180009848     lflua.obj
 0001:00008850       FSETCLR_REDRAW             0000000180009850     lflua.obj
 0001:00008858       FSETCLR_NONE               0000000180009858     lflua.obj
 0001:00008860       PF_PRELOAD                 0000000180009860     lflua.obj
 0001:00008868       PF_DISABLEPANELS           0000000180009868     lflua.obj
 0001:00008870       PF_EDITOR                  0000000180009870     lflua.obj
 0001:00008878       PF_VIEWER                  0000000180009878     lflua.obj
 0001:00008880       PF_FULLCMDLINE             0000000180009880     lflua.obj
 0001:00008888       PF_DIALOG                  0000000180009888     lflua.obj
 0001:00008890       PF_NONE                    0000000180009890     lflua.obj
 0001:00008898       WIF_MODIFIED               0000000180009898     lflua.obj
 0001:000088a0       WIF_CURRENT                00000001800098a0     lflua.obj
 0001:000088a8       WIF_MODAL                  00000001800098a8     lflua.obj
 0001:000088b0       VOPT_SAVEFILEPOSITION      00000001800098b0     lflua.obj
 0001:000088b8       VOPT_AUTODETECTCODEPAGE    00000001800098b8     lflua.obj
 0001:000088c0       VOPT_NONE                  00000001800098c0     lflua.obj
 0001:000088c8       VSMFL_REDRAW               00000001800098c8     lflua.obj
 0001:000088d0       IPLFLAGS_SEPARATOR         00000001800098d0     lflua.obj
 0001:000088d8       VSP_NOREDRAW               00000001800098d8     lflua.obj
 0001:000088e0       VSP_PERCENT                00000001800098e0     lflua.obj
 0001:000088e8       PMFLAGS_FULLSCREEN         00000001800098e8     lflua.obj
 0001:000088f0       VSP_RELATIVE               00000001800098f0     lflua.obj
 0001:000088f8       VSP_NORETNEWPOS            00000001800098f8     lflua.obj
 0001:00008900       PMFLAGS_DETAILEDSTATUS     0000000180009900     lflua.obj
 0001:00008908       PMFLAGS_ALIGNEXTENSIONS    0000000180009908     lflua.obj
 0001:00008910       PMFLAGS_CASECONVERSION     0000000180009910     lflua.obj
 0001:00008918       VMF_WRAP                   0000000180009918     lflua.obj
 0001:00008920       VMF_WORDWRAP               0000000180009920     lflua.obj
 0001:00008928       OPIF_DISABLEFILTER         0000000180009928     lflua.obj
 0001:00008930       OPIF_DISABLESORTGROUPS     0000000180009930     lflua.obj
 0001:00008938       OPIF_DISABLEHIGHLIGHTING   0000000180009938     lflua.obj
 0001:00008940       OPIF_ADDDOTS               0000000180009940     lflua.obj
 0001:00008948       OPIF_RAWSELECTION          0000000180009948     lflua.obj
 0001:00008950       OPIF_REALNAMES             0000000180009950     lflua.obj
 0001:00008958       OPIF_SHOWNAMESONLY         0000000180009958     lflua.obj
 0001:00008960       OPIF_SHOWRIGHTALIGNNAMES   0000000180009960     lflua.obj
 0001:00008968       OPIF_SHOWPRESERVECASE      0000000180009968     lflua.obj
 0001:00008970       OPIF_COMPAREFATTIME        0000000180009970     lflua.obj
 0001:00008978       OPIF_EXTERNALGET           0000000180009978     lflua.obj
 0001:00008980       OPIF_EXTERNALPUT           0000000180009980     lflua.obj
 0001:00008988       FCF_FG_4BIT                0000000180009988     lflua.obj
 0001:00008990       FCF_BG_4BIT                0000000180009990     lflua.obj
 0001:00008998       OPIF_EXTERNALDELETE        0000000180009998     lflua.obj
 0001:000089a0       FCF_4BITMASK               00000001800099a0     lflua.obj
 0001:000089a8       OPIF_EXTERNALMKDIR         00000001800099a8     lflua.obj
 0001:000089b0       FCF_RAWATTR_MASK           00000001800099b0     lflua.obj
 0001:000089b8       OPIF_USEATTRHIGHLIGHTING   00000001800099b8     lflua.obj
 0001:000089c0       FCF_EXTENDEDFLAGS          00000001800099c0     lflua.obj
 0001:000089c8       OPIF_USECRC32              00000001800099c8     lflua.obj
 0001:000089d0       FCF_FG_BOLD                00000001800099d0     lflua.obj
 0001:000089d8       OPIF_USEFREESIZE           00000001800099d8     lflua.obj
 0001:000089e0       FCF_FG_ITALIC              00000001800099e0     lflua.obj
 0001:000089e8       OPIF_SHORTCUT              00000001800099e8     lflua.obj
 0001:000089f0       OPIF_NONE                  00000001800099f0     lflua.obj
 0001:000089f8       FCF_FG_UNDERLINE           00000001800099f8     lflua.obj
 0001:00008a00       FCF_STYLEMASK              0000000180009a00     lflua.obj
 0001:00008a08       FCF_NONE                   0000000180009a08     lflua.obj
 0001:00008a10       OPM_SILENT                 0000000180009a10     lflua.obj
 0001:00008a18       OPM_FIND                   0000000180009a18     lflua.obj
 0001:00008a20       OPM_VIEW                   0000000180009a20     lflua.obj
 0001:00008a28       OPM_EDIT                   0000000180009a28     lflua.obj
 0001:00008a30       OPM_TOPLEVEL               0000000180009a30     lflua.obj
 0001:00008a38       OPM_DESCR                  0000000180009a38     lflua.obj
 0001:00008a40       OPM_QUICKVIEW              0000000180009a40     lflua.obj
 0001:00008a48       OPM_PGDN                   0000000180009a48     lflua.obj
 0001:00008a50       CDF_NONE                   0000000180009a50     lflua.obj
 0001:00008a58       OPM_COMMANDS               0000000180009a58     lflua.obj
 0001:00008a60       OPM_NONE                   0000000180009a60     lflua.obj
 0001:00008a68       FMSG_WARNING               0000000180009a68     lflua.obj
 0001:00008a70       FMSG_ERRORTYPE             0000000180009a70     lflua.obj
 0001:00008a78       FMSG_KEEPBACKGROUND        0000000180009a78     lflua.obj
 0001:00008a80       FMSG_LEFTALIGN             0000000180009a80     lflua.obj
 0001:00008a88       FMSG_ALLINONE              0000000180009a88     lflua.obj
 0001:00008a90       FMSG_MB_OK                 0000000180009a90     lflua.obj
 0001:00008a98       FMSG_MB_OKCANCEL           0000000180009a98     lflua.obj
 0001:00008aa0       FMSG_MB_ABORTRETRYIGNORE   0000000180009aa0     lflua.obj
 0001:00008aa8       FMSG_MB_YESNO              0000000180009aa8     lflua.obj
 0001:00008ab0       FMSG_MB_YESNOCANCEL        0000000180009ab0     lflua.obj
 0001:00008ab8       FMSG_MB_RETRYCANCEL        0000000180009ab8     lflua.obj
 0001:00008ac0       FMSG_NONE                  0000000180009ac0     lflua.obj
 0001:00008ac8       FOSF_ACTIVE                0000000180009ac8     lflua.obj
 0001:00008ad0       FOSF_NONE                  0000000180009ad0     lflua.obj
 0001:00008ad8       DIF_BOXCOLOR               0000000180009ad8     lflua.obj
 0001:00008ae0       DIF_GROUP                  0000000180009ae0     lflua.obj
 0001:00008ae8       DIF_LEFTTEXT               0000000180009ae8     lflua.obj
 0001:00008af0       DIF_MOVESELECT             0000000180009af0     lflua.obj
 0001:00008af8       DIF_SHOWAMPERSAND          0000000180009af8     lflua.obj
 0001:00008b00       DIF_CENTERGROUP            0000000180009b00     lflua.obj
 0001:00008b08       DIF_NOBRACKETS             0000000180009b08     lflua.obj
 0001:00008b10       DIF_MANUALADDHISTORY       0000000180009b10     lflua.obj
 0001:00008b18       DIF_SEPARATOR              0000000180009b18     lflua.obj
 0001:00008b20       DIF_SEPARATOR2             0000000180009b20     lflua.obj
 0001:00008b28       DIF_EDITOR                 0000000180009b28     lflua.obj
 0001:00008b30       DIF_LISTNOAMPERSAND        0000000180009b30     lflua.obj
 0001:00008b38       DIF_LISTNOBOX              0000000180009b38     lflua.obj
 0001:00008b40       DIF_HISTORY                0000000180009b40     lflua.obj
 0001:00008b48       DIF_BTNNOCLOSE             0000000180009b48     lflua.obj
 0001:00008b50       DIF_CENTERTEXT             0000000180009b50     lflua.obj
 0001:00008b58       DIF_SEPARATORUSER          0000000180009b58     lflua.obj
 0001:00008b60       DIF_SETSHIELD              0000000180009b60     lflua.obj
 0001:00008b68       DIF_EDITEXPAND             0000000180009b68     lflua.obj
 0001:00008b70       DIF_DROPDOWNLIST           0000000180009b70     lflua.obj
 0001:00008b78       DIF_USELASTHISTORY         0000000180009b78     lflua.obj
 0001:00008b80       DIF_MASKEDIT               0000000180009b80     lflua.obj
 0001:00008b88       DIF_LISTTRACKMOUSE         0000000180009b88     lflua.obj
 0001:00008b90       DIF_LISTTRACKMOUSEINFOCUS  0000000180009b90     lflua.obj
 0001:00008b98       DIF_SELECTONENTRY          0000000180009b98     lflua.obj
 0001:00008ba0       DIF_3STATE                 0000000180009ba0     lflua.obj
 0001:00008ba8       DIF_EDITPATH               0000000180009ba8     lflua.obj
 0001:00008bb0       DIF_LISTWRAPMODE           0000000180009bb0     lflua.obj
 0001:00008bb8       DIF_NOAUTOCOMPLETE         0000000180009bb8     lflua.obj
 0001:00008bc0       DIF_LISTAUTOHIGHLIGHT      0000000180009bc0     lflua.obj
 0001:00008bc8       DIF_LISTNOCLOSE            0000000180009bc8     lflua.obj
 0001:00008bd0       DIF_EDITPATHEXEC           0000000180009bd0     lflua.obj
 0001:00008bd8       DIF_HIDDEN                 0000000180009bd8     lflua.obj
 0001:00008be0       DIF_READONLY               0000000180009be0     lflua.obj
 0001:00008be8       DIF_NOFOCUS                0000000180009be8     lflua.obj
 0001:00008bf0       DIF_DISABLE                0000000180009bf0     lflua.obj
 0001:00008bf8       DIF_DEFAULTBUTTON          0000000180009bf8     lflua.obj
 0001:00008c00       DIF_FOCUS                  0000000180009c00     lflua.obj
 0001:00008c08       DIF_RIGHTTEXT              0000000180009c08     lflua.obj
 0001:00008c10       DIF_WORDWRAP               0000000180009c10     lflua.obj
 0001:00008c18       DIF_NONE                   0000000180009c18     lflua.obj
 0001:00008c20       ECF_TABMARKFIRST           0000000180009c20     lflua.obj
 0001:00008c28       ECF_TABMARKCURRENT         0000000180009c28     lflua.obj
 0001:00008c30       ECF_AUTODELETE             0000000180009c30     lflua.obj
 0001:00008c38       FIB_ENABLEEMPTY            0000000180009c38     lflua.obj
 0001:00008c40       FIB_PASSWORD               0000000180009c40     lflua.obj
 0001:00008c48       FIB_EXPANDENV              0000000180009c48     lflua.obj
 0001:00008c50       FIB_NOUSELASTHISTORY       0000000180009c50     lflua.obj
 0001:00008c58       PCIF_FROMMAIN              0000000180009c58     lflua.obj
 0001:00008c60       FIB_BUTTONS                0000000180009c60     lflua.obj
 0001:00008c68       FIB_NOAMPERSAND            0000000180009c68     lflua.obj
 0001:00008c70       PCIF_NONE                  0000000180009c70     lflua.obj
 0001:00008c78       FIB_EDITPATH               0000000180009c78     lflua.obj
 0001:00008c80       FIB_EDITPATHEXEC           0000000180009c80     lflua.obj
 0001:00008c88       FIB_NONE                   0000000180009c88     lflua.obj
 0001:00008c90       LIF_SELECTED               0000000180009c90     lflua.obj
 0001:00008c98       LIF_CHECKED                0000000180009c98     lflua.obj
 0001:00008ca0       LIF_SEPARATOR              0000000180009ca0     lflua.obj
 0001:00008ca8       LIF_DISABLE                0000000180009ca8     lflua.obj
 0001:00008cb0       LIF_GRAYED                 0000000180009cb0     lflua.obj
 0001:00008cb8       LIF_HIDDEN                 0000000180009cb8     lflua.obj
 0001:00008cc0       LIF_DELETEUSERDATA         0000000180009cc0     lflua.obj
 0001:00008cc8       LIF_NONE                   0000000180009cc8     lflua.obj
 0001:00008cd0       FPF_LOADED                 0000000180009cd0     lflua.obj
 0001:00008cd8       LIFIND_EXACTMATCH          0000000180009cd8     lflua.obj
 0001:00008ce0       FPF_ANSI                   0000000180009ce0     lflua.obj
 0001:00008ce8       LIFIND_NONE                0000000180009ce8     lflua.obj
 0001:00008cf0       FPF_NONE                   0000000180009cf0     lflua.obj
 0001:00008cf8       LINFO_SHOWNOBOX            0000000180009cf8     lflua.obj
 0001:00008d00       LINFO_AUTOHIGHLIGHT        0000000180009d00     lflua.obj
 0001:00008d08       LINFO_REVERSEHIGHLIGHT     0000000180009d08     lflua.obj
 0001:00008d10       LINFO_WRAPMODE             0000000180009d10     lflua.obj
 0001:00008d18       LINFO_SHOWAMPERSAND        0000000180009d18     lflua.obj
 0001:00008d20       LINFO_NONE                 0000000180009d20     lflua.obj
 0001:00008d28       FarGuid                    0000000180009d28     lflua.obj
 0001:00008d38       FDLG_WARNING               0000000180009d38     lflua.obj
 0001:00008d40       FDLG_SMALLDIALOG           0000000180009d40     lflua.obj
 0001:00008d48       FDLG_NODRAWSHADOW          0000000180009d48     lflua.obj
 0001:00008d50       FDLG_NODRAWPANEL           0000000180009d50     lflua.obj
 0001:00008d58       FDLG_KEEPCONSOLETITLE      0000000180009d58     lflua.obj
 0001:00008d60       FDLG_NONE                  0000000180009d60     lflua.obj
 0001:00008d68       PDF_DIALOGEVENTDRAWENABLE  0000000180009d68     lflua.obj
 0001:00008d70       PDF_PROCESSINGERROR        0000000180009d70     lflua.obj
 0001:00008d78       MIF_SELECTED               0000000180009d78     lflua.obj
 0001:00008d80       MIF_CHECKED                0000000180009d80     lflua.obj
 0001:00008d88       MIF_SEPARATOR              0000000180009d88     lflua.obj
 0001:00008d90       MIF_DISABLE                0000000180009d90     lflua.obj
 0001:00008d98       MIF_GRAYED                 0000000180009d98     lflua.obj
 0001:00008da0       MIF_HIDDEN                 0000000180009da0     lflua.obj
 0001:00008da8       MIF_NONE                   0000000180009da8     lflua.obj
 0001:00008db0       FMENU_SHOWAMPERSAND        0000000180009db0     lflua.obj
 0001:00008db8       FMENU_WRAPMODE             0000000180009db8     lflua.obj
 0001:00008dc0       FMENU_AUTOHIGHLIGHT        0000000180009dc0     lflua.obj
 0001:00008dc8       FMENU_REVERSEAUTOHIGHLIGHT 0000000180009dc8     lflua.obj
 0001:00008dd0       FMENU_CHANGECONSOLETITLE   0000000180009dd0     lflua.obj
 0001:00008dd8       FMENU_NONE                 0000000180009dd8     lflua.obj
 0001:00008de0       PPIF_SELECTED              0000000180009de0     lflua.obj
 0001:00008de8       PPIF_PROCESSDESCR          0000000180009de8     lflua.obj
 0001:00008df0       PPIF_NONE                  0000000180009df0     lflua.obj
 0001:00008df8       PFLAGS_SHOWHIDDEN          0000000180009df8     lflua.obj
 0001:00008e00       PFLAGS_HIGHLIGHT           0000000180009e00     lflua.obj
 0001:00008e08       PFLAGS_REVERSESORTORDER    0000000180009e08     lflua.obj
 0001:00008e10       PFLAGS_USESORTGROUPS       0000000180009e10     lflua.obj
 0001:00008e18       PFLAGS_SELECTEDFIRST       0000000180009e18     lflua.obj
 0001:00008e20       PFLAGS_REALNAMES           0000000180009e20     lflua.obj
 0001:00008e28       PFLAGS_NUMERICSORT         0000000180009e28     lflua.obj
 0001:00008e30       PFLAGS_PANELLEFT           0000000180009e30     lflua.obj
 0001:00008e38       PFLAGS_DIRECTORIESFIRST    0000000180009e38     lflua.obj
 0001:00008e40       PFLAGS_USECRC32            0000000180009e40     lflua.obj
 0001:00008e48       PFLAGS_CASESENSITIVESORT   0000000180009e48     lflua.obj
 0001:00008e50       PFLAGS_PLUGIN              0000000180009e50     lflua.obj
 0001:00008e58       PFLAGS_VISIBLE             0000000180009e58     lflua.obj
 0001:00008e60       PFLAGS_FOCUS               0000000180009e60     lflua.obj
 0001:00008e68       PFLAGS_ALTERNATIVENAMES    0000000180009e68     lflua.obj
 0001:00008e70       PFLAGS_SHORTCUT            0000000180009e70     lflua.obj
 0001:00008e78       PFLAGS_NONE                0000000180009e78     lflua.obj
 0001:00008ed0       FIB_ENABLEEMPTY            0000000180009ed0     lregex.obj
 0001:00008ed8       FIB_PASSWORD               0000000180009ed8     lregex.obj
 0001:00008ee0       FIB_EXPANDENV              0000000180009ee0     lregex.obj
 0001:00008ee8       FIB_NOUSELASTHISTORY       0000000180009ee8     lregex.obj
 0001:00008ef0       PCIF_FROMMAIN              0000000180009ef0     lregex.obj
 0001:00008ef8       FIB_BUTTONS                0000000180009ef8     lregex.obj
 0001:00008f00       FIB_NOAMPERSAND            0000000180009f00     lregex.obj
 0001:00008f08       PCIF_NONE                  0000000180009f08     lregex.obj
 0001:00008f10       FIB_EDITPATH               0000000180009f10     lregex.obj
 0001:00008f18       FIB_EDITPATHEXEC           0000000180009f18     lregex.obj
 0001:00008f20       FIB_NONE                   0000000180009f20     lregex.obj
 0001:00008f28       LIF_SELECTED               0000000180009f28     lregex.obj
 0001:00008f30       LIF_CHECKED                0000000180009f30     lregex.obj
 0001:00008f38       LIF_SEPARATOR              0000000180009f38     lregex.obj
 0001:00008f40       LIF_DISABLE                0000000180009f40     lregex.obj
 0001:00008f48       LIF_GRAYED                 0000000180009f48     lregex.obj
 0001:00008f50       LIF_HIDDEN                 0000000180009f50     lregex.obj
 0001:00008f58       LIF_DELETEUSERDATA         0000000180009f58     lregex.obj
 0001:00008f60       LIF_NONE                   0000000180009f60     lregex.obj
 0001:00008f68       FPF_LOADED                 0000000180009f68     lregex.obj
 0001:00008f70       LIFIND_EXACTMATCH          0000000180009f70     lregex.obj
 0001:00008f78       FPF_ANSI                   0000000180009f78     lregex.obj
 0001:00008f80       LIFIND_NONE                0000000180009f80     lregex.obj
 0001:00008f88       FPF_NONE                   0000000180009f88     lregex.obj
 0001:00008f90       LINFO_SHOWNOBOX            0000000180009f90     lregex.obj
 0001:00008f98       LINFO_AUTOHIGHLIGHT        0000000180009f98     lregex.obj
 0001:00008fa0       LINFO_REVERSEHIGHLIGHT     0000000180009fa0     lregex.obj
 0001:00008fa8       LINFO_WRAPMODE             0000000180009fa8     lregex.obj
 0001:00008fb0       LINFO_SHOWAMPERSAND        0000000180009fb0     lregex.obj
 0001:00008fb8       LINFO_NONE                 0000000180009fb8     lregex.obj
 0001:00008fc0       FarGuid                    0000000180009fc0     lregex.obj
 0001:00008fd0       FDLG_WARNING               0000000180009fd0     lregex.obj
 0001:00008fd8       FDLG_SMALLDIALOG           0000000180009fd8     lregex.obj
 0001:00008fe0       FDLG_NODRAWSHADOW          0000000180009fe0     lregex.obj
 0001:00008fe8       FDLG_NODRAWPANEL           0000000180009fe8     lregex.obj
 0001:00008ff0       FDLG_KEEPCONSOLETITLE      0000000180009ff0     lregex.obj
 0001:00008ff8       FDLG_NONE                  0000000180009ff8     lregex.obj
 0001:00009000       MIF_SELECTED               000000018000a000     lregex.obj
 0001:00009008       MIF_CHECKED                000000018000a008     lregex.obj
 0001:00009010       MIF_SEPARATOR              000000018000a010     lregex.obj
 0001:00009018       MIF_DISABLE                000000018000a018     lregex.obj
 0001:00009020       MIF_GRAYED                 000000018000a020     lregex.obj
 0001:00009028       MIF_HIDDEN                 000000018000a028     lregex.obj
 0001:00009030       MIF_NONE                   000000018000a030     lregex.obj
 0001:00009038       FMENU_SHOWAMPERSAND        000000018000a038     lregex.obj
 0001:00009040       FMENU_WRAPMODE             000000018000a040     lregex.obj
 0001:00009048       FMENU_AUTOHIGHLIGHT        000000018000a048     lregex.obj
 0001:00009050       FMENU_REVERSEAUTOHIGHLIGHT 000000018000a050     lregex.obj
 0001:00009058       FMENU_CHANGECONSOLETITLE   000000018000a058     lregex.obj
 0001:00009060       FMENU_NONE                 000000018000a060     lregex.obj
 0001:00009068       PPIF_SELECTED              000000018000a068     lregex.obj
 0001:00009070       PPIF_PROCESSDESCR          000000018000a070     lregex.obj
 0001:00009078       PPIF_NONE                  000000018000a078     lregex.obj
 0001:00009080       PFLAGS_SHOWHIDDEN          000000018000a080     lregex.obj
 0001:00009088       PFLAGS_HIGHLIGHT           000000018000a088     lregex.obj
 0001:00009090       PFLAGS_REVERSESORTORDER    000000018000a090     lregex.obj
 0001:00009098       PFLAGS_USESORTGROUPS       000000018000a098     lregex.obj
 0001:000090a0       PFLAGS_SELECTEDFIRST       000000018000a0a0     lregex.obj
 0001:000090a8       PFLAGS_REALNAMES           000000018000a0a8     lregex.obj
 0001:000090b0       PFLAGS_NUMERICSORT         000000018000a0b0     lregex.obj
 0001:000090b8       PFLAGS_PANELLEFT           000000018000a0b8     lregex.obj
 0001:000090c0       PFLAGS_DIRECTORIESFIRST    000000018000a0c0     lregex.obj
 0001:000090c8       PFLAGS_USECRC32            000000018000a0c8     lregex.obj
 0001:000090d0       PFLAGS_CASESENSITIVESORT   000000018000a0d0     lregex.obj
 0001:000090d8       PFLAGS_PLUGIN              000000018000a0d8     lregex.obj
 0001:000090e0       PFLAGS_VISIBLE             000000018000a0e0     lregex.obj
 0001:000090e8       PFLAGS_FOCUS               000000018000a0e8     lregex.obj
 0001:000090f0       PFLAGS_ALTERNATIVENAMES    000000018000a0f0     lregex.obj
 0001:000090f8       PFLAGS_SHORTCUT            000000018000a0f8     lregex.obj
 0001:00009100       PFLAGS_NONE                000000018000a100     lregex.obj
 0001:00009108       PN_CMPNAME                 000000018000a108     lregex.obj
 0001:00009110       PN_CMPNAMELIST             000000018000a110     lregex.obj
 0001:00009118       PN_GENERATENAME            000000018000a118     lregex.obj
 0001:00009120       PN_CHECKMASK               000000018000a120     lregex.obj
 0001:00009128       PN_SKIPPATH                000000018000a128     lregex.obj
 0001:00009130       PN_SHOWERRORMESSAGE        000000018000a130     lregex.obj
 0001:00009138       XLAT_SWITCHKEYBLAYOUT      000000018000a138     lregex.obj
 0001:00009140       XLAT_SWITCHKEYBBEEP        000000018000a140     lregex.obj
 0001:00009148       XLAT_USEKEYBLAYOUTNAME     000000018000a148     lregex.obj
 0001:00009150       XLAT_CONVERTALLCMDLINE     000000018000a150     lregex.obj
 0001:00009158       XLAT_NONE                  000000018000a158     lregex.obj
 0001:00009160       FRS_RETUPDIR               000000018000a160     lregex.obj
 0001:00009168       FRS_RECUR                  000000018000a168     lregex.obj
 0001:00009170       FRS_SCANSYMLINK            000000018000a170     lregex.obj
 0001:00009178       VF_NONMODAL                000000018000a178     lregex.obj
 0001:00009180       VF_DELETEONCLOSE           000000018000a180     lregex.obj
 0001:00009188       VF_ENABLE_F6               000000018000a188     lregex.obj
 0001:00009190       VF_DISABLEHISTORY          000000018000a190     lregex.obj
 0001:00009198       VF_IMMEDIATERETURN         000000018000a198     lregex.obj
 0001:000091a0       VF_DELETEONLYFILEONCLOSE   000000018000a1a0     lregex.obj
 0001:000091a8       VF_NONE                    000000018000a1a8     lregex.obj
 0001:000091b0       EF_NONMODAL                000000018000a1b0     lregex.obj
 0001:000091b8       EF_CREATENEW               000000018000a1b8     lregex.obj
 0001:000091c0       EF_ENABLE_F6               000000018000a1c0     lregex.obj
 0001:000091c8       EF_DISABLEHISTORY          000000018000a1c8     lregex.obj
 0001:000091d0       EF_DELETEONCLOSE           000000018000a1d0     lregex.obj
 0001:000091d8       EF_IMMEDIATERETURN         000000018000a1d8     lregex.obj
 0001:000091e0       EF_DELETEONLYFILEONCLOSE   000000018000a1e0     lregex.obj
 0001:000091e8       EF_LOCKED                  000000018000a1e8     lregex.obj
 0001:000091f0       MLF_SHOWERRMSG             000000018000a1f0     lregex.obj
 0001:000091f8       EF_DISABLESAVEPOS          000000018000a1f8     lregex.obj
 0001:00009200       MLF_DONOTUPDATEPANEL       000000018000a200     lregex.obj
 0001:00009208       EF_OPENMODE_MASK           000000018000a208     lregex.obj
 0001:00009210       EF_OPENMODE_QUERY          000000018000a210     lregex.obj
 0001:00009218       MLF_HOLDTARGET             000000018000a218     lregex.obj
 0001:00009220       EF_OPENMODE_NEWIFOPEN      000000018000a220     lregex.obj
 0001:00009228       MLF_NONE                   000000018000a228     lregex.obj
 0001:00009230       EF_OPENMODE_USEEXISTING    000000018000a230     lregex.obj
 0001:00009238       EF_OPENMODE_BREAKIFOPEN    000000018000a238     lregex.obj
 0001:00009240       EF_OPENMODE_RELOADIFOPEN   000000018000a240     lregex.obj
 0001:00009248       EN_NONE                    000000018000a248     lregex.obj
 0001:00009250       FFFS_COMMAS                000000018000a250     lregex.obj
 0001:00009258       FHELP_NOSHOWERROR          000000018000a258     lregex.obj
 0001:00009260       FFFS_FLOATSIZE             000000018000a260     lregex.obj
 0001:00009268       FHELP_SELFHELP             000000018000a268     lregex.obj
 0001:00009270       FFFS_SHOWBYTESINDEX        000000018000a270     lregex.obj
 0001:00009278       FFFS_ECONOMIC              000000018000a278     lregex.obj
 0001:00009280       FHELP_FARHELP              000000018000a280     lregex.obj
 0001:00009288       FHELP_CUSTOMFILE           000000018000a288     lregex.obj
 0001:00009290       FFFS_THOUSAND              000000018000a290     lregex.obj
 0001:00009298       FHELP_CUSTOMPATH           000000018000a298     lregex.obj
 0001:000092a0       FFFS_MINSIZEINDEX          000000018000a2a0     lregex.obj
 0001:000092a8       FFFS_MINSIZEINDEX_MASK     000000018000a2a8     lregex.obj
 0001:000092b0       FHELP_GUID                 000000018000a2b0     lregex.obj
 0001:000092b8       FHELP_USECONTENTS          000000018000a2b8     lregex.obj
 0001:000092c0       FHELP_NONE                 000000018000a2c0     lregex.obj
 0001:000092c8       KMFLAGS_SILENTCHECK        000000018000a2c8     lregex.obj
 0001:000092d0       KMFLAGS_NOSENDKEYSTOPLUGINS 000000018000a2d0     lregex.obj
 0001:000092d8       KMFLAGS_ENABLEOUTPUT       000000018000a2d8     lregex.obj
 0001:000092e0       KMFLAGS_LANGMASK           000000018000a2e0     lregex.obj
 0001:000092e8       KMFLAGS_LUA                000000018000a2e8     lregex.obj
 0001:000092f0       KMFLAGS_MOONSCRIPT         000000018000a2f0     lregex.obj
 0001:000092f8       KMFLAGS_NONE               000000018000a2f8     lregex.obj
 0001:000093a0       PDF_DIALOGEVENTDRAWENABLE  000000018000a3a0     lregex.obj
 0001:000093a8       PDF_PROCESSINGERROR        000000018000a3a8     lregex.obj
 0001:00009450       AKMFLAGS_NONE              000000018000a450     lregex.obj
 0001:00009458       FSETCLR_REDRAW             000000018000a458     lregex.obj
 0001:00009460       FSETCLR_NONE               000000018000a460     lregex.obj
 0001:00009468       PF_PRELOAD                 000000018000a468     lregex.obj
 0001:00009470       PF_DISABLEPANELS           000000018000a470     lregex.obj
 0001:00009478       PF_EDITOR                  000000018000a478     lregex.obj
 0001:00009480       PF_VIEWER                  000000018000a480     lregex.obj
 0001:00009488       PF_FULLCMDLINE             000000018000a488     lregex.obj
 0001:00009490       PF_DIALOG                  000000018000a490     lregex.obj
 0001:00009498       PF_NONE                    000000018000a498     lregex.obj
 0001:000094a0       WIF_MODIFIED               000000018000a4a0     lregex.obj
 0001:000094a8       WIF_CURRENT                000000018000a4a8     lregex.obj
 0001:000094b0       WIF_MODAL                  000000018000a4b0     lregex.obj
 0001:000094b8       VOPT_SAVEFILEPOSITION      000000018000a4b8     lregex.obj
 0001:000094c0       VOPT_AUTODETECTCODEPAGE    000000018000a4c0     lregex.obj
 0001:000094c8       VOPT_NONE                  000000018000a4c8     lregex.obj
 0001:000094d0       VSMFL_REDRAW               000000018000a4d0     lregex.obj
 0001:000094d8       IPLFLAGS_SEPARATOR         000000018000a4d8     lregex.obj
 0001:000094e0       VSP_NOREDRAW               000000018000a4e0     lregex.obj
 0001:000094e8       VSP_PERCENT                000000018000a4e8     lregex.obj
 0001:000094f0       PMFLAGS_FULLSCREEN         000000018000a4f0     lregex.obj
 0001:000094f8       VSP_RELATIVE               000000018000a4f8     lregex.obj
 0001:00009500       VSP_NORETNEWPOS            000000018000a500     lregex.obj
 0001:00009508       PMFLAGS_DETAILEDSTATUS     000000018000a508     lregex.obj
 0001:00009510       PMFLAGS_ALIGNEXTENSIONS    000000018000a510     lregex.obj
 0001:00009518       PMFLAGS_CASECONVERSION     000000018000a518     lregex.obj
 0001:00009520       VMF_WRAP                   000000018000a520     lregex.obj
 0001:00009528       VMF_WORDWRAP               000000018000a528     lregex.obj
 0001:00009530       OPIF_DISABLEFILTER         000000018000a530     lregex.obj
 0001:00009538       OPIF_DISABLESORTGROUPS     000000018000a538     lregex.obj
 0001:00009540       OPIF_DISABLEHIGHLIGHTING   000000018000a540     lregex.obj
 0001:00009548       OPIF_ADDDOTS               000000018000a548     lregex.obj
 0001:00009550       OPIF_RAWSELECTION          000000018000a550     lregex.obj
 0001:00009558       OPIF_REALNAMES             000000018000a558     lregex.obj
 0001:00009560       OPIF_SHOWNAMESONLY         000000018000a560     lregex.obj
 0001:00009568       OPIF_SHOWRIGHTALIGNNAMES   000000018000a568     lregex.obj
 0001:00009570       OPIF_SHOWPRESERVECASE      000000018000a570     lregex.obj
 0001:00009578       OPIF_COMPAREFATTIME        000000018000a578     lregex.obj
 0001:00009580       OPIF_EXTERNALGET           000000018000a580     lregex.obj
 0001:00009588       OPIF_EXTERNALPUT           000000018000a588     lregex.obj
 0001:00009590       FCF_FG_4BIT                000000018000a590     lregex.obj
 0001:00009598       FCF_BG_4BIT                000000018000a598     lregex.obj
 0001:000095a0       OPIF_EXTERNALDELETE        000000018000a5a0     lregex.obj
 0001:000095a8       FCF_4BITMASK               000000018000a5a8     lregex.obj
 0001:000095b0       OPIF_EXTERNALMKDIR         000000018000a5b0     lregex.obj
 0001:000095b8       FCF_RAWATTR_MASK           000000018000a5b8     lregex.obj
 0001:000095c0       OPIF_USEATTRHIGHLIGHTING   000000018000a5c0     lregex.obj
 0001:000095c8       FCF_EXTENDEDFLAGS          000000018000a5c8     lregex.obj
 0001:000095d0       OPIF_USECRC32              000000018000a5d0     lregex.obj
 0001:000095d8       FCF_FG_BOLD                000000018000a5d8     lregex.obj
 0001:000095e0       OPIF_USEFREESIZE           000000018000a5e0     lregex.obj
 0001:000095e8       FCF_FG_ITALIC              000000018000a5e8     lregex.obj
 0001:000095f0       OPIF_SHORTCUT              000000018000a5f0     lregex.obj
 0001:000095f8       OPIF_NONE                  000000018000a5f8     lregex.obj
 0001:00009600       FCF_FG_UNDERLINE           000000018000a600     lregex.obj
 0001:00009608       FCF_STYLEMASK              000000018000a608     lregex.obj
 0001:00009610       FCF_NONE                   000000018000a610     lregex.obj
 0001:00009618       OPM_SILENT                 000000018000a618     lregex.obj
 0001:00009620       OPM_FIND                   000000018000a620     lregex.obj
 0001:00009628       OPM_VIEW                   000000018000a628     lregex.obj
 0001:00009630       OPM_EDIT                   000000018000a630     lregex.obj
 0001:00009638       OPM_TOPLEVEL               000000018000a638     lregex.obj
 0001:00009640       OPM_DESCR                  000000018000a640     lregex.obj
 0001:00009648       OPM_QUICKVIEW              000000018000a648     lregex.obj
 0001:00009650       OPM_PGDN                   000000018000a650     lregex.obj
 0001:00009658       CDF_NONE                   000000018000a658     lregex.obj
 0001:00009660       OPM_COMMANDS               000000018000a660     lregex.obj
 0001:00009668       OPM_NONE                   000000018000a668     lregex.obj
 0001:00009670       FMSG_WARNING               000000018000a670     lregex.obj
 0001:00009678       FMSG_ERRORTYPE             000000018000a678     lregex.obj
 0001:00009680       FMSG_KEEPBACKGROUND        000000018000a680     lregex.obj
 0001:00009688       FMSG_LEFTALIGN             000000018000a688     lregex.obj
 0001:00009690       FMSG_ALLINONE              000000018000a690     lregex.obj
 0001:00009698       FMSG_MB_OK                 000000018000a698     lregex.obj
 0001:000096a0       FMSG_MB_OKCANCEL           000000018000a6a0     lregex.obj
 0001:000096a8       FMSG_MB_ABORTRETRYIGNORE   000000018000a6a8     lregex.obj
 0001:000096b0       FMSG_MB_YESNO              000000018000a6b0     lregex.obj
 0001:000096b8       FMSG_MB_YESNOCANCEL        000000018000a6b8     lregex.obj
 0001:000096c0       FMSG_MB_RETRYCANCEL        000000018000a6c0     lregex.obj
 0001:000096c8       FMSG_NONE                  000000018000a6c8     lregex.obj
 0001:000096d0       FOSF_ACTIVE                000000018000a6d0     lregex.obj
 0001:000096d8       FOSF_NONE                  000000018000a6d8     lregex.obj
 0001:000096e0       DIF_BOXCOLOR               000000018000a6e0     lregex.obj
 0001:000096e8       DIF_GROUP                  000000018000a6e8     lregex.obj
 0001:000096f0       DIF_LEFTTEXT               000000018000a6f0     lregex.obj
 0001:000096f8       DIF_MOVESELECT             000000018000a6f8     lregex.obj
 0001:00009700       DIF_SHOWAMPERSAND          000000018000a700     lregex.obj
 0001:00009708       DIF_CENTERGROUP            000000018000a708     lregex.obj
 0001:00009710       DIF_NOBRACKETS             000000018000a710     lregex.obj
 0001:00009718       DIF_MANUALADDHISTORY       000000018000a718     lregex.obj
 0001:00009720       DIF_SEPARATOR              000000018000a720     lregex.obj
 0001:00009728       DIF_SEPARATOR2             000000018000a728     lregex.obj
 0001:00009730       DIF_EDITOR                 000000018000a730     lregex.obj
 0001:00009738       DIF_LISTNOAMPERSAND        000000018000a738     lregex.obj
 0001:00009740       DIF_LISTNOBOX              000000018000a740     lregex.obj
 0001:00009748       DIF_HISTORY                000000018000a748     lregex.obj
 0001:00009750       DIF_BTNNOCLOSE             000000018000a750     lregex.obj
 0001:00009758       DIF_CENTERTEXT             000000018000a758     lregex.obj
 0001:00009760       DIF_SEPARATORUSER          000000018000a760     lregex.obj
 0001:00009768       DIF_SETSHIELD              000000018000a768     lregex.obj
 0001:00009770       DIF_EDITEXPAND             000000018000a770     lregex.obj
 0001:00009778       DIF_DROPDOWNLIST           000000018000a778     lregex.obj
 0001:00009780       DIF_USELASTHISTORY         000000018000a780     lregex.obj
 0001:00009788       DIF_MASKEDIT               000000018000a788     lregex.obj
 0001:00009790       DIF_LISTTRACKMOUSE         000000018000a790     lregex.obj
 0001:00009798       DIF_LISTTRACKMOUSEINFOCUS  000000018000a798     lregex.obj
 0001:000097a0       DIF_SELECTONENTRY          000000018000a7a0     lregex.obj
 0001:000097a8       DIF_3STATE                 000000018000a7a8     lregex.obj
 0001:000097b0       DIF_EDITPATH               000000018000a7b0     lregex.obj
 0001:000097b8       DIF_LISTWRAPMODE           000000018000a7b8     lregex.obj
 0001:000097c0       DIF_NOAUTOCOMPLETE         000000018000a7c0     lregex.obj
 0001:000097c8       DIF_LISTAUTOHIGHLIGHT      000000018000a7c8     lregex.obj
 0001:000097d0       DIF_LISTNOCLOSE            000000018000a7d0     lregex.obj
 0001:000097d8       DIF_EDITPATHEXEC           000000018000a7d8     lregex.obj
 0001:000097e0       DIF_HIDDEN                 000000018000a7e0     lregex.obj
 0001:000097e8       DIF_READONLY               000000018000a7e8     lregex.obj
 0001:000097f0       DIF_NOFOCUS                000000018000a7f0     lregex.obj
 0001:000097f8       DIF_DISABLE                000000018000a7f8     lregex.obj
 0001:00009800       DIF_DEFAULTBUTTON          000000018000a800     lregex.obj
 0001:00009808       DIF_FOCUS                  000000018000a808     lregex.obj
 0001:00009810       DIF_RIGHTTEXT              000000018000a810     lregex.obj
 0001:00009818       DIF_WORDWRAP               000000018000a818     lregex.obj
 0001:00009820       DIF_NONE                   000000018000a820     lregex.obj
 0001:00009828       ECF_TABMARKFIRST           000000018000a828     lregex.obj
 0001:00009830       ECF_TABMARKCURRENT         000000018000a830     lregex.obj
 0001:00009838       ECF_AUTODELETE             000000018000a838     lregex.obj
 0001:000099c0       FIB_ENABLEEMPTY            000000018000a9c0     luamacro.obj
 0001:000099c8       FIB_PASSWORD               000000018000a9c8     luamacro.obj
 0001:000099d0       FIB_EXPANDENV              000000018000a9d0     luamacro.obj
 0001:000099d8       FIB_NOUSELASTHISTORY       000000018000a9d8     luamacro.obj
 0001:000099e0       PCIF_FROMMAIN              000000018000a9e0     luamacro.obj
 0001:000099e8       FIB_BUTTONS                000000018000a9e8     luamacro.obj
 0001:000099f0       FIB_NOAMPERSAND            000000018000a9f0     luamacro.obj
 0001:000099f8       PCIF_NONE                  000000018000a9f8     luamacro.obj
 0001:00009a00       FIB_EDITPATH               000000018000aa00     luamacro.obj
 0001:00009a08       FIB_EDITPATHEXEC           000000018000aa08     luamacro.obj
 0001:00009a10       FIB_NONE                   000000018000aa10     luamacro.obj
 0001:00009a18       LIF_SELECTED               000000018000aa18     luamacro.obj
 0001:00009a20       LIF_CHECKED                000000018000aa20     luamacro.obj
 0001:00009a28       LIF_SEPARATOR              000000018000aa28     luamacro.obj
 0001:00009a30       LIF_DISABLE                000000018000aa30     luamacro.obj
 0001:00009a38       LIF_GRAYED                 000000018000aa38     luamacro.obj
 0001:00009a40       LIF_HIDDEN                 000000018000aa40     luamacro.obj
 0001:00009a48       LIF_DELETEUSERDATA         000000018000aa48     luamacro.obj
 0001:00009a50       LIF_NONE                   000000018000aa50     luamacro.obj
 0001:00009a58       FPF_LOADED                 000000018000aa58     luamacro.obj
 0001:00009a60       LIFIND_EXACTMATCH          000000018000aa60     luamacro.obj
 0001:00009a68       FPF_ANSI                   000000018000aa68     luamacro.obj
 0001:00009a70       LIFIND_NONE                000000018000aa70     luamacro.obj
 0001:00009a78       FPF_NONE                   000000018000aa78     luamacro.obj
 0001:00009a80       LINFO_SHOWNOBOX            000000018000aa80     luamacro.obj
 0001:00009a88       LINFO_AUTOHIGHLIGHT        000000018000aa88     luamacro.obj
 0001:00009a90       LINFO_REVERSEHIGHLIGHT     000000018000aa90     luamacro.obj
 0001:00009a98       LINFO_WRAPMODE             000000018000aa98     luamacro.obj
 0001:00009aa0       LINFO_SHOWAMPERSAND        000000018000aaa0     luamacro.obj
 0001:00009aa8       LINFO_NONE                 000000018000aaa8     luamacro.obj
 0001:00009ab0       FarGuid                    000000018000aab0     luamacro.obj
 0001:00009ac0       FDLG_WARNING               000000018000aac0     luamacro.obj
 0001:00009ac8       FDLG_SMALLDIALOG           000000018000aac8     luamacro.obj
 0001:00009ad0       FDLG_NODRAWSHADOW          000000018000aad0     luamacro.obj
 0001:00009ad8       FDLG_NODRAWPANEL           000000018000aad8     luamacro.obj
 0001:00009ae0       FDLG_KEEPCONSOLETITLE      000000018000aae0     luamacro.obj
 0001:00009ae8       FDLG_NONE                  000000018000aae8     luamacro.obj
 0001:00009af0       MIF_SELECTED               000000018000aaf0     luamacro.obj
 0001:00009af8       MIF_CHECKED                000000018000aaf8     luamacro.obj
 0001:00009b00       MIF_SEPARATOR              000000018000ab00     luamacro.obj
 0001:00009b08       MIF_DISABLE                000000018000ab08     luamacro.obj
 0001:00009b10       MIF_GRAYED                 000000018000ab10     luamacro.obj
 0001:00009b18       MIF_HIDDEN                 000000018000ab18     luamacro.obj
 0001:00009b20       MIF_NONE                   000000018000ab20     luamacro.obj
 0001:00009b28       FMENU_SHOWAMPERSAND        000000018000ab28     luamacro.obj
 0001:00009b30       FMENU_WRAPMODE             000000018000ab30     luamacro.obj
 0001:00009b38       FMENU_AUTOHIGHLIGHT        000000018000ab38     luamacro.obj
 0001:00009b40       FMENU_REVERSEAUTOHIGHLIGHT 000000018000ab40     luamacro.obj
 0001:00009b48       FMENU_CHANGECONSOLETITLE   000000018000ab48     luamacro.obj
 0001:00009b50       FMENU_NONE                 000000018000ab50     luamacro.obj
 0001:00009b58       PPIF_SELECTED              000000018000ab58     luamacro.obj
 0001:00009b60       PPIF_PROCESSDESCR          000000018000ab60     luamacro.obj
 0001:00009b68       PPIF_NONE                  000000018000ab68     luamacro.obj
 0001:00009b70       LuamacroGuid               000000018000ab70     luamacro.obj
 0001:00009b80       PFLAGS_SHOWHIDDEN          000000018000ab80     luamacro.obj
 0001:00009b88       PFLAGS_HIGHLIGHT           000000018000ab88     luamacro.obj
 0001:00009b90       PFLAGS_REVERSESORTORDER    000000018000ab90     luamacro.obj
 0001:00009b98       PFLAGS_USESORTGROUPS       000000018000ab98     luamacro.obj
 0001:00009ba0       PFLAGS_SELECTEDFIRST       000000018000aba0     luamacro.obj
 0001:00009ba8       PFLAGS_REALNAMES           000000018000aba8     luamacro.obj
 0001:00009bb0       PFLAGS_NUMERICSORT         000000018000abb0     luamacro.obj
 0001:00009bb8       PFLAGS_PANELLEFT           000000018000abb8     luamacro.obj
 0001:00009bc0       PFLAGS_DIRECTORIESFIRST    000000018000abc0     luamacro.obj
 0001:00009bc8       PFLAGS_USECRC32            000000018000abc8     luamacro.obj
 0001:00009bd0       PFLAGS_CASESENSITIVESORT   000000018000abd0     luamacro.obj
 0001:00009bd8       PFLAGS_PLUGIN              000000018000abd8     luamacro.obj
 0001:00009be0       PFLAGS_VISIBLE             000000018000abe0     luamacro.obj
 0001:00009be8       PFLAGS_FOCUS               000000018000abe8     luamacro.obj
 0001:00009bf0       PFLAGS_ALTERNATIVENAMES    000000018000abf0     luamacro.obj
 0001:00009bf8       PFLAGS_SHORTCUT            000000018000abf8     luamacro.obj
 0001:00009c00       PFLAGS_NONE                000000018000ac00     luamacro.obj
 0001:00009c08       PN_CMPNAME                 000000018000ac08     luamacro.obj
 0001:00009c10       PN_CMPNAMELIST             000000018000ac10     luamacro.obj
 0001:00009c18       PN_GENERATENAME            000000018000ac18     luamacro.obj
 0001:00009c20       PN_CHECKMASK               000000018000ac20     luamacro.obj
 0001:00009c28       PN_SKIPPATH                000000018000ac28     luamacro.obj
 0001:00009c30       PN_SHOWERRORMESSAGE        000000018000ac30     luamacro.obj
 0001:00009c38       XLAT_SWITCHKEYBLAYOUT      000000018000ac38     luamacro.obj
 0001:00009c40       XLAT_SWITCHKEYBBEEP        000000018000ac40     luamacro.obj
 0001:00009c48       XLAT_USEKEYBLAYOUTNAME     000000018000ac48     luamacro.obj
 0001:00009c50       XLAT_CONVERTALLCMDLINE     000000018000ac50     luamacro.obj
 0001:00009c58       XLAT_NONE                  000000018000ac58     luamacro.obj
 0001:00009c60       FRS_RETUPDIR               000000018000ac60     luamacro.obj
 0001:00009c68       FRS_RECUR                  000000018000ac68     luamacro.obj
 0001:00009c70       FRS_SCANSYMLINK            000000018000ac70     luamacro.obj
 0001:00009c78       VF_NONMODAL                000000018000ac78     luamacro.obj
 0001:00009c80       VF_DELETEONCLOSE           000000018000ac80     luamacro.obj
 0001:00009c88       VF_ENABLE_F6               000000018000ac88     luamacro.obj
 0001:00009c90       VF_DISABLEHISTORY          000000018000ac90     luamacro.obj
 0001:00009c98       VF_IMMEDIATERETURN         000000018000ac98     luamacro.obj
 0001:00009ca0       VF_DELETEONLYFILEONCLOSE   000000018000aca0     luamacro.obj
 0001:00009ca8       VF_NONE                    000000018000aca8     luamacro.obj
 0001:00009cb0       EF_NONMODAL                000000018000acb0     luamacro.obj
 0001:00009cb8       EF_CREATENEW               000000018000acb8     luamacro.obj
 0001:00009cc0       EF_ENABLE_F6               000000018000acc0     luamacro.obj
 0001:00009cc8       EF_DISABLEHISTORY          000000018000acc8     luamacro.obj
 0001:00009cd0       EF_DELETEONCLOSE           000000018000acd0     luamacro.obj
 0001:00009cd8       EF_IMMEDIATERETURN         000000018000acd8     luamacro.obj
 0001:00009ce0       EF_DELETEONLYFILEONCLOSE   000000018000ace0     luamacro.obj
 0001:00009ce8       EF_LOCKED                  000000018000ace8     luamacro.obj
 0001:00009cf0       MLF_SHOWERRMSG             000000018000acf0     luamacro.obj
 0001:00009cf8       EF_DISABLESAVEPOS          000000018000acf8     luamacro.obj
 0001:00009d00       MLF_DONOTUPDATEPANEL       000000018000ad00     luamacro.obj
 0001:00009d08       EF_OPENMODE_MASK           000000018000ad08     luamacro.obj
 0001:00009d10       EF_OPENMODE_QUERY          000000018000ad10     luamacro.obj
 0001:00009d18       MLF_HOLDTARGET             000000018000ad18     luamacro.obj
 0001:00009d20       EF_OPENMODE_NEWIFOPEN      000000018000ad20     luamacro.obj
 0001:00009d28       MLF_NONE                   000000018000ad28     luamacro.obj
 0001:00009d30       EF_OPENMODE_USEEXISTING    000000018000ad30     luamacro.obj
 0001:00009d38       EF_OPENMODE_BREAKIFOPEN    000000018000ad38     luamacro.obj
 0001:00009d40       EF_OPENMODE_RELOADIFOPEN   000000018000ad40     luamacro.obj
 0001:00009d48       EN_NONE                    000000018000ad48     luamacro.obj
 0001:00009d50       FFFS_COMMAS                000000018000ad50     luamacro.obj
 0001:00009d58       FHELP_NOSHOWERROR          000000018000ad58     luamacro.obj
 0001:00009d60       FFFS_FLOATSIZE             000000018000ad60     luamacro.obj
 0001:00009d68       FHELP_SELFHELP             000000018000ad68     luamacro.obj
 0001:00009d70       FFFS_SHOWBYTESINDEX        000000018000ad70     luamacro.obj
 0001:00009d78       FFFS_ECONOMIC              000000018000ad78     luamacro.obj
 0001:00009d80       FHELP_FARHELP              000000018000ad80     luamacro.obj
 0001:00009d88       FHELP_CUSTOMFILE           000000018000ad88     luamacro.obj
 0001:00009d90       FFFS_THOUSAND              000000018000ad90     luamacro.obj
 0001:00009d98       FHELP_CUSTOMPATH           000000018000ad98     luamacro.obj
 0001:00009da0       FFFS_MINSIZEINDEX          000000018000ada0     luamacro.obj
 0001:00009da8       FFFS_MINSIZEINDEX_MASK     000000018000ada8     luamacro.obj
 0001:00009db0       FHELP_GUID                 000000018000adb0     luamacro.obj
 0001:00009db8       FHELP_USECONTENTS          000000018000adb8     luamacro.obj
 0001:00009dc0       FHELP_NONE                 000000018000adc0     luamacro.obj
 0001:00009dc8       KMFLAGS_SILENTCHECK        000000018000adc8     luamacro.obj
 0001:00009dd0       KMFLAGS_NOSENDKEYSTOPLUGINS 000000018000add0     luamacro.obj
 0001:00009dd8       KMFLAGS_ENABLEOUTPUT       000000018000add8     luamacro.obj
 0001:00009de0       KMFLAGS_LANGMASK           000000018000ade0     luamacro.obj
 0001:00009de8       KMFLAGS_LUA                000000018000ade8     luamacro.obj
 0001:00009df0       KMFLAGS_MOONSCRIPT         000000018000adf0     luamacro.obj
 0001:00009df8       KMFLAGS_NONE               000000018000adf8     luamacro.obj
 0001:00009e00       PDF_DIALOGEVENTDRAWENABLE  000000018000ae00     luamacro.obj
 0001:00009e08       PDF_PROCESSINGERROR        000000018000ae08     luamacro.obj
 0001:00009e10       AKMFLAGS_NONE              000000018000ae10     luamacro.obj
 0001:00009e18       FSETCLR_REDRAW             000000018000ae18     luamacro.obj
 0001:00009e20       FSETCLR_NONE               000000018000ae20     luamacro.obj
 0001:00009e28       PF_PRELOAD                 000000018000ae28     luamacro.obj
 0001:00009e30       PF_DISABLEPANELS           000000018000ae30     luamacro.obj
 0001:00009e38       PF_EDITOR                  000000018000ae38     luamacro.obj
 0001:00009e40       PF_VIEWER                  000000018000ae40     luamacro.obj
 0001:00009e48       PF_FULLCMDLINE             000000018000ae48     luamacro.obj
 0001:00009e50       PF_DIALOG                  000000018000ae50     luamacro.obj
 0001:00009e58       PF_NONE                    000000018000ae58     luamacro.obj
 0001:00009e60       WIF_MODIFIED               000000018000ae60     luamacro.obj
 0001:00009e68       WIF_CURRENT                000000018000ae68     luamacro.obj
 0001:00009e70       WIF_MODAL                  000000018000ae70     luamacro.obj
 0001:00009e78       VOPT_SAVEFILEPOSITION      000000018000ae78     luamacro.obj
 0001:00009e80       VOPT_AUTODETECTCODEPAGE    000000018000ae80     luamacro.obj
 0001:00009e88       VOPT_NONE                  000000018000ae88     luamacro.obj
 0001:00009e90       VSMFL_REDRAW               000000018000ae90     luamacro.obj
 0001:00009e98       IPLFLAGS_SEPARATOR         000000018000ae98     luamacro.obj
 0001:00009ea0       VSP_NOREDRAW               000000018000aea0     luamacro.obj
 0001:00009ea8       VSP_PERCENT                000000018000aea8     luamacro.obj
 0001:00009eb0       PMFLAGS_FULLSCREEN         000000018000aeb0     luamacro.obj
 0001:00009eb8       VSP_RELATIVE               000000018000aeb8     luamacro.obj
 0001:00009ec0       VSP_NORETNEWPOS            000000018000aec0     luamacro.obj
 0001:00009ec8       PMFLAGS_DETAILEDSTATUS     000000018000aec8     luamacro.obj
 0001:00009ed0       PMFLAGS_ALIGNEXTENSIONS    000000018000aed0     luamacro.obj
 0001:00009ed8       PMFLAGS_CASECONVERSION     000000018000aed8     luamacro.obj
 0001:00009ee0       VMF_WRAP                   000000018000aee0     luamacro.obj
 0001:00009ee8       VMF_WORDWRAP               000000018000aee8     luamacro.obj
 0001:00009ef0       OPIF_DISABLEFILTER         000000018000aef0     luamacro.obj
 0001:00009ef8       OPIF_DISABLESORTGROUPS     000000018000aef8     luamacro.obj
 0001:00009f00       OPIF_DISABLEHIGHLIGHTING   000000018000af00     luamacro.obj
 0001:00009f08       OPIF_ADDDOTS               000000018000af08     luamacro.obj
 0001:00009f10       OPIF_RAWSELECTION          000000018000af10     luamacro.obj
 0001:00009f18       OPIF_REALNAMES             000000018000af18     luamacro.obj
 0001:00009f20       OPIF_SHOWNAMESONLY         000000018000af20     luamacro.obj
 0001:00009f28       OPIF_SHOWRIGHTALIGNNAMES   000000018000af28     luamacro.obj
 0001:00009f30       OPIF_SHOWPRESERVECASE      000000018000af30     luamacro.obj
 0001:00009f38       OPIF_COMPAREFATTIME        000000018000af38     luamacro.obj
 0001:00009f40       OPIF_EXTERNALGET           000000018000af40     luamacro.obj
 0001:00009f48       OPIF_EXTERNALPUT           000000018000af48     luamacro.obj
 0001:00009f50       FCF_FG_4BIT                000000018000af50     luamacro.obj
 0001:00009f58       FCF_BG_4BIT                000000018000af58     luamacro.obj
 0001:00009f60       OPIF_EXTERNALDELETE        000000018000af60     luamacro.obj
 0001:00009f68       FCF_4BITMASK               000000018000af68     luamacro.obj
 0001:00009f70       OPIF_EXTERNALMKDIR         000000018000af70     luamacro.obj
 0001:00009f78       FCF_RAWATTR_MASK           000000018000af78     luamacro.obj
 0001:00009f80       OPIF_USEATTRHIGHLIGHTING   000000018000af80     luamacro.obj
 0001:00009f88       FCF_EXTENDEDFLAGS          000000018000af88     luamacro.obj
 0001:00009f90       OPIF_USECRC32              000000018000af90     luamacro.obj
 0001:00009f98       FCF_FG_BOLD                000000018000af98     luamacro.obj
 0001:00009fa0       OPIF_USEFREESIZE           000000018000afa0     luamacro.obj
 0001:00009fa8       FCF_FG_ITALIC              000000018000afa8     luamacro.obj
 0001:00009fb0       OPIF_SHORTCUT              000000018000afb0     luamacro.obj
 0001:00009fb8       OPIF_NONE                  000000018000afb8     luamacro.obj
 0001:00009fc0       FCF_FG_UNDERLINE           000000018000afc0     luamacro.obj
 0001:00009fc8       FCF_STYLEMASK              000000018000afc8     luamacro.obj
 0001:00009fd0       FCF_NONE                   000000018000afd0     luamacro.obj
 0001:00009fd8       OPM_SILENT                 000000018000afd8     luamacro.obj
 0001:00009fe0       OPM_FIND                   000000018000afe0     luamacro.obj
 0001:00009fe8       OPM_VIEW                   000000018000afe8     luamacro.obj
 0001:00009ff0       OPM_EDIT                   000000018000aff0     luamacro.obj
 0001:00009ff8       OPM_TOPLEVEL               000000018000aff8     luamacro.obj
 0001:0000a000       OPM_DESCR                  000000018000b000     luamacro.obj
 0001:0000a008       OPM_QUICKVIEW              000000018000b008     luamacro.obj
 0001:0000a010       OPM_PGDN                   000000018000b010     luamacro.obj
 0001:0000a018       CDF_NONE                   000000018000b018     luamacro.obj
 0001:0000a020       OPM_COMMANDS               000000018000b020     luamacro.obj
 0001:0000a028       OPM_NONE                   000000018000b028     luamacro.obj
 0001:0000a030       FMSG_WARNING               000000018000b030     luamacro.obj
 0001:0000a038       FMSG_ERRORTYPE             000000018000b038     luamacro.obj
 0001:0000a040       FMSG_KEEPBACKGROUND        000000018000b040     luamacro.obj
 0001:0000a048       FMSG_LEFTALIGN             000000018000b048     luamacro.obj
 0001:0000a050       FMSG_ALLINONE              000000018000b050     luamacro.obj
 0001:0000a058       FMSG_MB_OK                 000000018000b058     luamacro.obj
 0001:0000a060       FMSG_MB_OKCANCEL           000000018000b060     luamacro.obj
 0001:0000a068       FMSG_MB_ABORTRETRYIGNORE   000000018000b068     luamacro.obj
 0001:0000a070       FMSG_MB_YESNO              000000018000b070     luamacro.obj
 0001:0000a078       FMSG_MB_YESNOCANCEL        000000018000b078     luamacro.obj
 0001:0000a080       FMSG_MB_RETRYCANCEL        000000018000b080     luamacro.obj
 0001:0000a088       FMSG_NONE                  000000018000b088     luamacro.obj
 0001:0000a090       FOSF_ACTIVE                000000018000b090     luamacro.obj
 0001:0000a098       FOSF_NONE                  000000018000b098     luamacro.obj
 0001:0000a0a0       DIF_BOXCOLOR               000000018000b0a0     luamacro.obj
 0001:0000a0a8       DIF_GROUP                  000000018000b0a8     luamacro.obj
 0001:0000a0b0       DIF_LEFTTEXT               000000018000b0b0     luamacro.obj
 0001:0000a0b8       DIF_MOVESELECT             000000018000b0b8     luamacro.obj
 0001:0000a0c0       DIF_SHOWAMPERSAND          000000018000b0c0     luamacro.obj
 0001:0000a0c8       DIF_CENTERGROUP            000000018000b0c8     luamacro.obj
 0001:0000a0d0       DIF_NOBRACKETS             000000018000b0d0     luamacro.obj
 0001:0000a0d8       DIF_MANUALADDHISTORY       000000018000b0d8     luamacro.obj
 0001:0000a0e0       DIF_SEPARATOR              000000018000b0e0     luamacro.obj
 0001:0000a0e8       DIF_SEPARATOR2             000000018000b0e8     luamacro.obj
 0001:0000a0f0       DIF_EDITOR                 000000018000b0f0     luamacro.obj
 0001:0000a0f8       DIF_LISTNOAMPERSAND        000000018000b0f8     luamacro.obj
 0001:0000a100       DIF_LISTNOBOX              000000018000b100     luamacro.obj
 0001:0000a108       DIF_HISTORY                000000018000b108     luamacro.obj
 0001:0000a110       DIF_BTNNOCLOSE             000000018000b110     luamacro.obj
 0001:0000a118       DIF_CENTERTEXT             000000018000b118     luamacro.obj
 0001:0000a120       DIF_SEPARATORUSER          000000018000b120     luamacro.obj
 0001:0000a128       DIF_SETSHIELD              000000018000b128     luamacro.obj
 0001:0000a130       DIF_EDITEXPAND             000000018000b130     luamacro.obj
 0001:0000a138       DIF_DROPDOWNLIST           000000018000b138     luamacro.obj
 0001:0000a140       DIF_USELASTHISTORY         000000018000b140     luamacro.obj
 0001:0000a148       DIF_MASKEDIT               000000018000b148     luamacro.obj
 0001:0000a150       DIF_LISTTRACKMOUSE         000000018000b150     luamacro.obj
 0001:0000a158       DIF_LISTTRACKMOUSEINFOCUS  000000018000b158     luamacro.obj
 0001:0000a160       DIF_SELECTONENTRY          000000018000b160     luamacro.obj
 0001:0000a168       DIF_3STATE                 000000018000b168     luamacro.obj
 0001:0000a170       DIF_EDITPATH               000000018000b170     luamacro.obj
 0001:0000a178       DIF_LISTWRAPMODE           000000018000b178     luamacro.obj
 0001:0000a180       DIF_NOAUTOCOMPLETE         000000018000b180     luamacro.obj
 0001:0000a188       DIF_LISTAUTOHIGHLIGHT      000000018000b188     luamacro.obj
 0001:0000a190       DIF_LISTNOCLOSE            000000018000b190     luamacro.obj
 0001:0000a198       DIF_EDITPATHEXEC           000000018000b198     luamacro.obj
 0001:0000a1a0       DIF_HIDDEN                 000000018000b1a0     luamacro.obj
 0001:0000a1a8       DIF_READONLY               000000018000b1a8     luamacro.obj
 0001:0000a1b0       DIF_NOFOCUS                000000018000b1b0     luamacro.obj
 0001:0000a1b8       DIF_DISABLE                000000018000b1b8     luamacro.obj
 0001:0000a1c0       DIF_DEFAULTBUTTON          000000018000b1c0     luamacro.obj
 0001:0000a1c8       DIF_FOCUS                  000000018000b1c8     luamacro.obj
 0001:0000a1d0       DIF_RIGHTTEXT              000000018000b1d0     luamacro.obj
 0001:0000a1d8       DIF_WORDWRAP               000000018000b1d8     luamacro.obj
 0001:0000a1e0       DIF_NONE                   000000018000b1e0     luamacro.obj
 0001:0000a1e8       ECF_TABMARKFIRST           000000018000b1e8     luamacro.obj
 0001:0000a1f0       ECF_TABMARKCURRENT         000000018000b1f0     luamacro.obj
 0001:0000a1f8       ECF_AUTODELETE             000000018000b1f8     luamacro.obj
 0001:0000a2d0       PN_CMPNAME                 000000018000b2d0     lusercontrol.obj
 0001:0000a2d8       PN_CMPNAMELIST             000000018000b2d8     lusercontrol.obj
 0001:0000a2e0       PN_GENERATENAME            000000018000b2e0     lusercontrol.obj
 0001:0000a2e8       PN_CHECKMASK               000000018000b2e8     lusercontrol.obj
 0001:0000a2f0       PN_SKIPPATH                000000018000b2f0     lusercontrol.obj
 0001:0000a2f8       PN_SHOWERRORMESSAGE        000000018000b2f8     lusercontrol.obj
 0001:0000a300       XLAT_SWITCHKEYBLAYOUT      000000018000b300     lusercontrol.obj
 0001:0000a308       XLAT_SWITCHKEYBBEEP        000000018000b308     lusercontrol.obj
 0001:0000a310       XLAT_USEKEYBLAYOUTNAME     000000018000b310     lusercontrol.obj
 0001:0000a318       XLAT_CONVERTALLCMDLINE     000000018000b318     lusercontrol.obj
 0001:0000a320       XLAT_NONE                  000000018000b320     lusercontrol.obj
 0001:0000a328       FRS_RETUPDIR               000000018000b328     lusercontrol.obj
 0001:0000a3a0       FRS_RECUR                  000000018000b3a0     lusercontrol.obj
 0001:0000a3a8       FRS_SCANSYMLINK            000000018000b3a8     lusercontrol.obj
 0001:0000a3b0       VF_NONMODAL                000000018000b3b0     lusercontrol.obj
 0001:0000a3b8       VF_DELETEONCLOSE           000000018000b3b8     lusercontrol.obj
 0001:0000a3c0       VF_ENABLE_F6               000000018000b3c0     lusercontrol.obj
 0001:0000a3c8       VF_DISABLEHISTORY          000000018000b3c8     lusercontrol.obj
 0001:0000a3d0       VF_IMMEDIATERETURN         000000018000b3d0     lusercontrol.obj
 0001:0000a3d8       VF_DELETEONLYFILEONCLOSE   000000018000b3d8     lusercontrol.obj
 0001:0000a3e0       VF_NONE                    000000018000b3e0     lusercontrol.obj
 0001:0000a3e8       EF_NONMODAL                000000018000b3e8     lusercontrol.obj
 0001:0000a3f0       EF_CREATENEW               000000018000b3f0     lusercontrol.obj
 0001:0000a3f8       EF_ENABLE_F6               000000018000b3f8     lusercontrol.obj
 0001:0000a400       EF_DISABLEHISTORY          000000018000b400     lusercontrol.obj
 0001:0000a408       EF_DELETEONCLOSE           000000018000b408     lusercontrol.obj
 0001:0000a410       EF_IMMEDIATERETURN         000000018000b410     lusercontrol.obj
 0001:0000a418       EF_DELETEONLYFILEONCLOSE   000000018000b418     lusercontrol.obj
 0001:0000a420       EF_LOCKED                  000000018000b420     lusercontrol.obj
 0001:0000a428       MLF_SHOWERRMSG             000000018000b428     lusercontrol.obj
 0001:0000a430       EF_DISABLESAVEPOS          000000018000b430     lusercontrol.obj
 0001:0000a438       MLF_DONOTUPDATEPANEL       000000018000b438     lusercontrol.obj
 0001:0000a440       EF_OPENMODE_MASK           000000018000b440     lusercontrol.obj
 0001:0000a448       EF_OPENMODE_QUERY          000000018000b448     lusercontrol.obj
 0001:0000a450       MLF_HOLDTARGET             000000018000b450     lusercontrol.obj
 0001:0000a458       EF_OPENMODE_NEWIFOPEN      000000018000b458     lusercontrol.obj
 0001:0000a460       MLF_NONE                   000000018000b460     lusercontrol.obj
 0001:0000a468       EF_OPENMODE_USEEXISTING    000000018000b468     lusercontrol.obj
 0001:0000a470       EF_OPENMODE_BREAKIFOPEN    000000018000b470     lusercontrol.obj
 0001:0000a478       EF_OPENMODE_RELOADIFOPEN   000000018000b478     lusercontrol.obj
 0001:0000a480       EN_NONE                    000000018000b480     lusercontrol.obj
 0001:0000a488       FFFS_COMMAS                000000018000b488     lusercontrol.obj
 0001:0000a490       FHELP_NOSHOWERROR          000000018000b490     lusercontrol.obj
 0001:0000a498       FFFS_FLOATSIZE             000000018000b498     lusercontrol.obj
 0001:0000a4a0       FHELP_SELFHELP             000000018000b4a0     lusercontrol.obj
 0001:0000a4a8       FFFS_SHOWBYTESINDEX        000000018000b4a8     lusercontrol.obj
 0001:0000a4b0       FFFS_ECONOMIC              000000018000b4b0     lusercontrol.obj
 0001:0000a4b8       FHELP_FARHELP              000000018000b4b8     lusercontrol.obj
 0001:0000a4c0       FHELP_CUSTOMFILE           000000018000b4c0     lusercontrol.obj
 0001:0000a4c8       FFFS_THOUSAND              000000018000b4c8     lusercontrol.obj
 0001:0000a4d0       FHELP_CUSTOMPATH           000000018000b4d0     lusercontrol.obj
 0001:0000a4d8       FFFS_MINSIZEINDEX          000000018000b4d8     lusercontrol.obj
 0001:0000a4e0       FFFS_MINSIZEINDEX_MASK     000000018000b4e0     lusercontrol.obj
 0001:0000a4e8       FHELP_GUID                 000000018000b4e8     lusercontrol.obj
 0001:0000a4f0       FHELP_USECONTENTS          000000018000b4f0     lusercontrol.obj
 0001:0000a4f8       FHELP_NONE                 000000018000b4f8     lusercontrol.obj
 0001:0000a500       KMFLAGS_SILENTCHECK        000000018000b500     lusercontrol.obj
 0001:0000a508       KMFLAGS_NOSENDKEYSTOPLUGINS 000000018000b508     lusercontrol.obj
 0001:0000a510       KMFLAGS_ENABLEOUTPUT       000000018000b510     lusercontrol.obj
 0001:0000a518       KMFLAGS_LANGMASK           000000018000b518     lusercontrol.obj
 0001:0000a520       KMFLAGS_LUA                000000018000b520     lusercontrol.obj
 0001:0000a528       KMFLAGS_MOONSCRIPT         000000018000b528     lusercontrol.obj
 0001:0000a530       KMFLAGS_NONE               000000018000b530     lusercontrol.obj
 0001:0000a538       AKMFLAGS_NONE              000000018000b538     lusercontrol.obj
 0001:0000a540       FSETCLR_REDRAW             000000018000b540     lusercontrol.obj
 0001:0000a548       FSETCLR_NONE               000000018000b548     lusercontrol.obj
 0001:0000a550       PF_PRELOAD                 000000018000b550     lusercontrol.obj
 0001:0000a558       PF_DISABLEPANELS           000000018000b558     lusercontrol.obj
 0001:0000a560       PF_EDITOR                  000000018000b560     lusercontrol.obj
 0001:0000a568       PF_VIEWER                  000000018000b568     lusercontrol.obj
 0001:0000a570       PF_FULLCMDLINE             000000018000b570     lusercontrol.obj
 0001:0000a578       PF_DIALOG                  000000018000b578     lusercontrol.obj
 0001:0000a580       PF_NONE                    000000018000b580     lusercontrol.obj
 0001:0000a588       WIF_MODIFIED               000000018000b588     lusercontrol.obj
 0001:0000a590       WIF_CURRENT                000000018000b590     lusercontrol.obj
 0001:0000a598       WIF_MODAL                  000000018000b598     lusercontrol.obj
 0001:0000a5a0       VOPT_SAVEFILEPOSITION      000000018000b5a0     lusercontrol.obj
 0001:0000a5a8       VOPT_AUTODETECTCODEPAGE    000000018000b5a8     lusercontrol.obj
 0001:0000a5b0       VOPT_NONE                  000000018000b5b0     lusercontrol.obj
 0001:0000a5b8       VSMFL_REDRAW               000000018000b5b8     lusercontrol.obj
 0001:0000a5c0       IPLFLAGS_SEPARATOR         000000018000b5c0     lusercontrol.obj
 0001:0000a5c8       VSP_NOREDRAW               000000018000b5c8     lusercontrol.obj
 0001:0000a5d0       VSP_PERCENT                000000018000b5d0     lusercontrol.obj
 0001:0000a5d8       PMFLAGS_FULLSCREEN         000000018000b5d8     lusercontrol.obj
 0001:0000a5e0       VSP_RELATIVE               000000018000b5e0     lusercontrol.obj
 0001:0000a5e8       VSP_NORETNEWPOS            000000018000b5e8     lusercontrol.obj
 0001:0000a5f0       PMFLAGS_DETAILEDSTATUS     000000018000b5f0     lusercontrol.obj
 0001:0000a5f8       PMFLAGS_ALIGNEXTENSIONS    000000018000b5f8     lusercontrol.obj
 0001:0000a600       PMFLAGS_CASECONVERSION     000000018000b600     lusercontrol.obj
 0001:0000a608       VMF_WRAP                   000000018000b608     lusercontrol.obj
 0001:0000a610       VMF_WORDWRAP               000000018000b610     lusercontrol.obj
 0001:0000a618       OPIF_DISABLEFILTER         000000018000b618     lusercontrol.obj
 0001:0000a620       OPIF_DISABLESORTGROUPS     000000018000b620     lusercontrol.obj
 0001:0000a628       OPIF_DISABLEHIGHLIGHTING   000000018000b628     lusercontrol.obj
 0001:0000a630       OPIF_ADDDOTS               000000018000b630     lusercontrol.obj
 0001:0000a638       OPIF_RAWSELECTION          000000018000b638     lusercontrol.obj
 0001:0000a640       OPIF_REALNAMES             000000018000b640     lusercontrol.obj
 0001:0000a648       OPIF_SHOWNAMESONLY         000000018000b648     lusercontrol.obj
 0001:0000a650       OPIF_SHOWRIGHTALIGNNAMES   000000018000b650     lusercontrol.obj
 0001:0000a658       OPIF_SHOWPRESERVECASE      000000018000b658     lusercontrol.obj
 0001:0000a660       OPIF_COMPAREFATTIME        000000018000b660     lusercontrol.obj
 0001:0000a668       OPIF_EXTERNALGET           000000018000b668     lusercontrol.obj
 0001:0000a670       OPIF_EXTERNALPUT           000000018000b670     lusercontrol.obj
 0001:0000a678       FCF_FG_4BIT                000000018000b678     lusercontrol.obj
 0001:0000a680       FCF_BG_4BIT                000000018000b680     lusercontrol.obj
 0001:0000a688       OPIF_EXTERNALDELETE        000000018000b688     lusercontrol.obj
 0001:0000a690       FCF_4BITMASK               000000018000b690     lusercontrol.obj
 0001:0000a698       OPIF_EXTERNALMKDIR         000000018000b698     lusercontrol.obj
 0001:0000a6a0       FCF_RAWATTR_MASK           000000018000b6a0     lusercontrol.obj
 0001:0000a6a8       OPIF_USEATTRHIGHLIGHTING   000000018000b6a8     lusercontrol.obj
 0001:0000a6b0       FCF_EXTENDEDFLAGS          000000018000b6b0     lusercontrol.obj
 0001:0000a6b8       OPIF_USECRC32              000000018000b6b8     lusercontrol.obj
 0001:0000a6c0       FCF_FG_BOLD                000000018000b6c0     lusercontrol.obj
 0001:0000a6c8       OPIF_USEFREESIZE           000000018000b6c8     lusercontrol.obj
 0001:0000a6d0       FCF_FG_ITALIC              000000018000b6d0     lusercontrol.obj
 0001:0000a6d8       OPIF_SHORTCUT              000000018000b6d8     lusercontrol.obj
 0001:0000a6e0       OPIF_NONE                  000000018000b6e0     lusercontrol.obj
 0001:0000a6e8       FCF_FG_UNDERLINE           000000018000b6e8     lusercontrol.obj
 0001:0000a6f0       FCF_STYLEMASK              000000018000b6f0     lusercontrol.obj
 0001:0000a6f8       FCF_NONE                   000000018000b6f8     lusercontrol.obj
 0001:0000a700       OPM_SILENT                 000000018000b700     lusercontrol.obj
 0001:0000a708       OPM_FIND                   000000018000b708     lusercontrol.obj
 0001:0000a710       OPM_VIEW                   000000018000b710     lusercontrol.obj
 0001:0000a718       OPM_EDIT                   000000018000b718     lusercontrol.obj
 0001:0000a720       OPM_TOPLEVEL               000000018000b720     lusercontrol.obj
 0001:0000a728       OPM_DESCR                  000000018000b728     lusercontrol.obj
 0001:0000a730       OPM_QUICKVIEW              000000018000b730     lusercontrol.obj
 0001:0000a738       OPM_PGDN                   000000018000b738     lusercontrol.obj
 0001:0000a740       CDF_NONE                   000000018000b740     lusercontrol.obj
 0001:0000a748       OPM_COMMANDS               000000018000b748     lusercontrol.obj
 0001:0000a750       OPM_NONE                   000000018000b750     lusercontrol.obj
 0001:0000a758       FMSG_WARNING               000000018000b758     lusercontrol.obj
 0001:0000a760       FMSG_ERRORTYPE             000000018000b760     lusercontrol.obj
 0001:0000a768       FMSG_KEEPBACKGROUND        000000018000b768     lusercontrol.obj
 0001:0000a770       FMSG_LEFTALIGN             000000018000b770     lusercontrol.obj
 0001:0000a778       FMSG_ALLINONE              000000018000b778     lusercontrol.obj
 0001:0000a780       FMSG_MB_OK                 000000018000b780     lusercontrol.obj
 0001:0000a788       FMSG_MB_OKCANCEL           000000018000b788     lusercontrol.obj
 0001:0000a790       FMSG_MB_ABORTRETRYIGNORE   000000018000b790     lusercontrol.obj
 0001:0000a798       FMSG_MB_YESNO              000000018000b798     lusercontrol.obj
 0001:0000a7a0       FMSG_MB_YESNOCANCEL        000000018000b7a0     lusercontrol.obj
 0001:0000a7a8       FMSG_MB_RETRYCANCEL        000000018000b7a8     lusercontrol.obj
 0001:0000a7b0       FMSG_NONE                  000000018000b7b0     lusercontrol.obj
 0001:0000a7b8       FOSF_ACTIVE                000000018000b7b8     lusercontrol.obj
 0001:0000a7c0       FOSF_NONE                  000000018000b7c0     lusercontrol.obj
 0001:0000a7c8       DIF_BOXCOLOR               000000018000b7c8     lusercontrol.obj
 0001:0000a7d0       DIF_GROUP                  000000018000b7d0     lusercontrol.obj
 0001:0000a7d8       DIF_LEFTTEXT               000000018000b7d8     lusercontrol.obj
 0001:0000a7e0       DIF_MOVESELECT             000000018000b7e0     lusercontrol.obj
 0001:0000a7e8       DIF_SHOWAMPERSAND          000000018000b7e8     lusercontrol.obj
 0001:0000a7f0       DIF_CENTERGROUP            000000018000b7f0     lusercontrol.obj
 0001:0000a7f8       DIF_NOBRACKETS             000000018000b7f8     lusercontrol.obj
 0001:0000a800       DIF_MANUALADDHISTORY       000000018000b800     lusercontrol.obj
 0001:0000a808       DIF_SEPARATOR              000000018000b808     lusercontrol.obj
 0001:0000a810       DIF_SEPARATOR2             000000018000b810     lusercontrol.obj
 0001:0000a818       DIF_EDITOR                 000000018000b818     lusercontrol.obj
 0001:0000a820       DIF_LISTNOAMPERSAND        000000018000b820     lusercontrol.obj
 0001:0000a828       DIF_LISTNOBOX              000000018000b828     lusercontrol.obj
 0001:0000a830       DIF_HISTORY                000000018000b830     lusercontrol.obj
 0001:0000a838       DIF_BTNNOCLOSE             000000018000b838     lusercontrol.obj
 0001:0000a840       DIF_CENTERTEXT             000000018000b840     lusercontrol.obj
 0001:0000a848       DIF_SEPARATORUSER          000000018000b848     lusercontrol.obj
 0001:0000a850       DIF_SETSHIELD              000000018000b850     lusercontrol.obj
 0001:0000a858       DIF_EDITEXPAND             000000018000b858     lusercontrol.obj
 0001:0000a860       DIF_DROPDOWNLIST           000000018000b860     lusercontrol.obj
 0001:0000a868       DIF_USELASTHISTORY         000000018000b868     lusercontrol.obj
 0001:0000a870       DIF_MASKEDIT               000000018000b870     lusercontrol.obj
 0001:0000a878       DIF_LISTTRACKMOUSE         000000018000b878     lusercontrol.obj
 0001:0000a880       DIF_LISTTRACKMOUSEINFOCUS  000000018000b880     lusercontrol.obj
 0001:0000a888       DIF_SELECTONENTRY          000000018000b888     lusercontrol.obj
 0001:0000a890       DIF_3STATE                 000000018000b890     lusercontrol.obj
 0001:0000a898       DIF_EDITPATH               000000018000b898     lusercontrol.obj
 0001:0000a8a0       DIF_LISTWRAPMODE           000000018000b8a0     lusercontrol.obj
 0001:0000a8a8       DIF_NOAUTOCOMPLETE         000000018000b8a8     lusercontrol.obj
 0001:0000a8b0       DIF_LISTAUTOHIGHLIGHT      000000018000b8b0     lusercontrol.obj
 0001:0000a8b8       DIF_LISTNOCLOSE            000000018000b8b8     lusercontrol.obj
 0001:0000a8c0       DIF_EDITPATHEXEC           000000018000b8c0     lusercontrol.obj
 0001:0000a8c8       DIF_HIDDEN                 000000018000b8c8     lusercontrol.obj
 0001:0000a8d0       DIF_READONLY               000000018000b8d0     lusercontrol.obj
 0001:0000a8d8       DIF_NOFOCUS                000000018000b8d8     lusercontrol.obj
 0001:0000a8e0       DIF_DISABLE                000000018000b8e0     lusercontrol.obj
 0001:0000a8e8       DIF_DEFAULTBUTTON          000000018000b8e8     lusercontrol.obj
 0001:0000a8f0       DIF_FOCUS                  000000018000b8f0     lusercontrol.obj
 0001:0000a8f8       DIF_RIGHTTEXT              000000018000b8f8     lusercontrol.obj
 0001:0000a900       DIF_WORDWRAP               000000018000b900     lusercontrol.obj
 0001:0000a908       DIF_NONE                   000000018000b908     lusercontrol.obj
 0001:0000a910       ECF_TABMARKFIRST           000000018000b910     lusercontrol.obj
 0001:0000a918       ECF_TABMARKCURRENT         000000018000b918     lusercontrol.obj
 0001:0000a920       ECF_AUTODELETE             000000018000b920     lusercontrol.obj
 0001:0000a928       FIB_ENABLEEMPTY            000000018000b928     lusercontrol.obj
 0001:0000a930       FIB_PASSWORD               000000018000b930     lusercontrol.obj
 0001:0000a938       FIB_EXPANDENV              000000018000b938     lusercontrol.obj
 0001:0000a940       FIB_NOUSELASTHISTORY       000000018000b940     lusercontrol.obj
 0001:0000a948       PCIF_FROMMAIN              000000018000b948     lusercontrol.obj
 0001:0000a950       FIB_BUTTONS                000000018000b950     lusercontrol.obj
 0001:0000a958       FIB_NOAMPERSAND            000000018000b958     lusercontrol.obj
 0001:0000a960       PCIF_NONE                  000000018000b960     lusercontrol.obj
 0001:0000a968       FIB_EDITPATH               000000018000b968     lusercontrol.obj
 0001:0000a970       FIB_EDITPATHEXEC           000000018000b970     lusercontrol.obj
 0001:0000a978       FIB_NONE                   000000018000b978     lusercontrol.obj
 0001:0000a980       LIF_SELECTED               000000018000b980     lusercontrol.obj
 0001:0000a988       LIF_CHECKED                000000018000b988     lusercontrol.obj
 0001:0000a990       LIF_SEPARATOR              000000018000b990     lusercontrol.obj
 0001:0000a998       LIF_DISABLE                000000018000b998     lusercontrol.obj
 0001:0000a9a0       LIF_GRAYED                 000000018000b9a0     lusercontrol.obj
 0001:0000a9a8       LIF_HIDDEN                 000000018000b9a8     lusercontrol.obj
 0001:0000a9b0       LIF_DELETEUSERDATA         000000018000b9b0     lusercontrol.obj
 0001:0000a9b8       LIF_NONE                   000000018000b9b8     lusercontrol.obj
 0001:0000a9c0       FPF_LOADED                 000000018000b9c0     lusercontrol.obj
 0001:0000a9c8       LIFIND_EXACTMATCH          000000018000b9c8     lusercontrol.obj
 0001:0000a9d0       FPF_ANSI                   000000018000b9d0     lusercontrol.obj
 0001:0000a9d8       LIFIND_NONE                000000018000b9d8     lusercontrol.obj
 0001:0000a9e0       FPF_NONE                   000000018000b9e0     lusercontrol.obj
 0001:0000a9e8       LINFO_SHOWNOBOX            000000018000b9e8     lusercontrol.obj
 0001:0000a9f0       LINFO_AUTOHIGHLIGHT        000000018000b9f0     lusercontrol.obj
 0001:0000a9f8       LINFO_REVERSEHIGHLIGHT     000000018000b9f8     lusercontrol.obj
 0001:0000aa00       LINFO_WRAPMODE             000000018000ba00     lusercontrol.obj
 0001:0000aa08       LINFO_SHOWAMPERSAND        000000018000ba08     lusercontrol.obj
 0001:0000aa10       LINFO_NONE                 000000018000ba10     lusercontrol.obj
 0001:0000aa18       FarGuid                    000000018000ba18     lusercontrol.obj
 0001:0000aa28       FDLG_WARNING               000000018000ba28     lusercontrol.obj
 0001:0000aa30       FDLG_SMALLDIALOG           000000018000ba30     lusercontrol.obj
 0001:0000aa38       FDLG_NODRAWSHADOW          000000018000ba38     lusercontrol.obj
 0001:0000aa40       FDLG_NODRAWPANEL           000000018000ba40     lusercontrol.obj
 0001:0000aa48       FDLG_KEEPCONSOLETITLE      000000018000ba48     lusercontrol.obj
 0001:0000aa50       FDLG_NONE                  000000018000ba50     lusercontrol.obj
 0001:0000aa58       MIF_SELECTED               000000018000ba58     lusercontrol.obj
 0001:0000aa60       MIF_CHECKED                000000018000ba60     lusercontrol.obj
 0001:0000aa68       MIF_SEPARATOR              000000018000ba68     lusercontrol.obj
 0001:0000aa70       MIF_DISABLE                000000018000ba70     lusercontrol.obj
 0001:0000aa78       MIF_GRAYED                 000000018000ba78     lusercontrol.obj
 0001:0000aa80       MIF_HIDDEN                 000000018000ba80     lusercontrol.obj
 0001:0000aa88       MIF_NONE                   000000018000ba88     lusercontrol.obj
 0001:0000aa90       FMENU_SHOWAMPERSAND        000000018000ba90     lusercontrol.obj
 0001:0000aa98       FMENU_WRAPMODE             000000018000ba98     lusercontrol.obj
 0001:0000aaa0       FMENU_AUTOHIGHLIGHT        000000018000baa0     lusercontrol.obj
 0001:0000aaa8       FMENU_REVERSEAUTOHIGHLIGHT 000000018000baa8     lusercontrol.obj
 0001:0000aab0       FMENU_CHANGECONSOLETITLE   000000018000bab0     lusercontrol.obj
 0001:0000aab8       FMENU_NONE                 000000018000bab8     lusercontrol.obj
 0001:0000aac0       PPIF_SELECTED              000000018000bac0     lusercontrol.obj
 0001:0000aac8       PPIF_PROCESSDESCR          000000018000bac8     lusercontrol.obj
 0001:0000aad0       PPIF_NONE                  000000018000bad0     lusercontrol.obj
 0001:0000aad8       PFLAGS_SHOWHIDDEN          000000018000bad8     lusercontrol.obj
 0001:0000aae0       PFLAGS_HIGHLIGHT           000000018000bae0     lusercontrol.obj
 0001:0000aae8       PFLAGS_REVERSESORTORDER    000000018000bae8     lusercontrol.obj
 0001:0000aaf0       PFLAGS_USESORTGROUPS       000000018000baf0     lusercontrol.obj
 0001:0000aaf8       PFLAGS_SELECTEDFIRST       000000018000baf8     lusercontrol.obj
 0001:0000ab00       PFLAGS_REALNAMES           000000018000bb00     lusercontrol.obj
 0001:0000ab08       PFLAGS_NUMERICSORT         000000018000bb08     lusercontrol.obj
 0001:0000ab10       PFLAGS_PANELLEFT           000000018000bb10     lusercontrol.obj
 0001:0000ab18       PFLAGS_DIRECTORIESFIRST    000000018000bb18     lusercontrol.obj
 0001:0000ab20       PFLAGS_USECRC32            000000018000bb20     lusercontrol.obj
 0001:0000ab28       PFLAGS_CASESENSITIVESORT   000000018000bb28     lusercontrol.obj
 0001:0000ab30       PFLAGS_PLUGIN              000000018000bb30     lusercontrol.obj
 0001:0000ab38       PFLAGS_VISIBLE             000000018000bb38     lusercontrol.obj
 0001:0000ab40       PFLAGS_FOCUS               000000018000bb40     lusercontrol.obj
 0001:0000ab48       PFLAGS_ALTERNATIVENAMES    000000018000bb48     lusercontrol.obj
 0001:0000ab50       PFLAGS_SHORTCUT            000000018000bb50     lusercontrol.obj
 0001:0000ab58       PFLAGS_NONE                000000018000bb58     lusercontrol.obj
 0001:0000ac00       FIB_ENABLEEMPTY            000000018000bc00     service.obj
 0001:0000ac08       FIB_PASSWORD               000000018000bc08     service.obj
 0001:0000ac10       FIB_EXPANDENV              000000018000bc10     service.obj
 0001:0000ac18       FIB_NOUSELASTHISTORY       000000018000bc18     service.obj
 0001:0000ac20       PCIF_FROMMAIN              000000018000bc20     service.obj
 0001:0000ac28       FIB_BUTTONS                000000018000bc28     service.obj
 0001:0000ac30       FIB_NOAMPERSAND            000000018000bc30     service.obj
 0001:0000ac38       PCIF_NONE                  000000018000bc38     service.obj
 0001:0000ac40       FIB_EDITPATH               000000018000bc40     service.obj
 0001:0000ac48       FIB_EDITPATHEXEC           000000018000bc48     service.obj
 0001:0000ac50       FIB_NONE                   000000018000bc50     service.obj
 0001:0000ac58       LIF_SELECTED               000000018000bc58     service.obj
 0001:0000ac60       LIF_CHECKED                000000018000bc60     service.obj
 0001:0000ac68       LIF_SEPARATOR              000000018000bc68     service.obj
 0001:0000ac70       LIF_DISABLE                000000018000bc70     service.obj
 0001:0000ac78       LIF_GRAYED                 000000018000bc78     service.obj
 0001:0000ac80       LIF_HIDDEN                 000000018000bc80     service.obj
 0001:0000ac88       LIF_DELETEUSERDATA         000000018000bc88     service.obj
 0001:0000ac90       LIF_NONE                   000000018000bc90     service.obj
 0001:0000ac98       FPF_LOADED                 000000018000bc98     service.obj
 0001:0000aca0       LIFIND_EXACTMATCH          000000018000bca0     service.obj
 0001:0000aca8       FPF_ANSI                   000000018000bca8     service.obj
 0001:0000acb0       LIFIND_NONE                000000018000bcb0     service.obj
 0001:0000acb8       FPF_NONE                   000000018000bcb8     service.obj
 0001:0000acc0       LINFO_SHOWNOBOX            000000018000bcc0     service.obj
 0001:0000acc8       LINFO_AUTOHIGHLIGHT        000000018000bcc8     service.obj
 0001:0000acd0       LINFO_REVERSEHIGHLIGHT     000000018000bcd0     service.obj
 0001:0000acd8       LINFO_WRAPMODE             000000018000bcd8     service.obj
 0001:0000ace0       LINFO_SHOWAMPERSAND        000000018000bce0     service.obj
 0001:0000ace8       LINFO_NONE                 000000018000bce8     service.obj
 0001:0000acf0       FarGuid                    000000018000bcf0     service.obj
 0001:0000ad00       FDLG_WARNING               000000018000bd00     service.obj
 0001:0000ad08       FDLG_SMALLDIALOG           000000018000bd08     service.obj
 0001:0000ad10       ?FarGuid@?1??far_CreateSettings@@9@9 000000018000bd10     service.obj
 0001:0000ad20       FDLG_NODRAWSHADOW          000000018000bd20     service.obj
 0001:0000ad28       FDLG_NODRAWPANEL           000000018000bd28     service.obj
 0001:0000ad30       FDLG_KEEPCONSOLETITLE      000000018000bd30     service.obj
 0001:0000ad38       FDLG_NONE                  000000018000bd38     service.obj
 0001:0000ad40       MIF_SELECTED               000000018000bd40     service.obj
 0001:0000ad48       MIF_CHECKED                000000018000bd48     service.obj
 0001:0000ad50       MIF_SEPARATOR              000000018000bd50     service.obj
 0001:0000ad58       MIF_DISABLE                000000018000bd58     service.obj
 0001:0000ad60       MIF_GRAYED                 000000018000bd60     service.obj
 0001:0000ad68       MIF_HIDDEN                 000000018000bd68     service.obj
 0001:0000ad70       MIF_NONE                   000000018000bd70     service.obj
 0001:0000ad78       FMENU_SHOWAMPERSAND        000000018000bd78     service.obj
 0001:0000ad80       FMENU_WRAPMODE             000000018000bd80     service.obj
 0001:0000ad88       FMENU_AUTOHIGHLIGHT        000000018000bd88     service.obj
 0001:0000ad90       FMENU_REVERSEAUTOHIGHLIGHT 000000018000bd90     service.obj
 0001:0000ad98       FMENU_CHANGECONSOLETITLE   000000018000bd98     service.obj
 0001:0000ada0       FMENU_NONE                 000000018000bda0     service.obj
 0001:0000ada8       ?C@?3??far_InputRecordToName@@9@9 000000018000bda8     service.obj
 0001:0000adb0       ?A@?3??far_InputRecordToName@@9@9 000000018000bdb0     service.obj
 0001:0000adb8       ?S@?3??far_InputRecordToName@@9@9 000000018000bdb8     service.obj
 0001:0000adc0       PPIF_SELECTED              000000018000bdc0     service.obj
 0001:0000adc8       PPIF_PROCESSDESCR          000000018000bdc8     service.obj
 0001:0000add0       PPIF_NONE                  000000018000bdd0     service.obj
 0001:0000add8       PFLAGS_SHOWHIDDEN          000000018000bdd8     service.obj
 0001:0000ade0       PFLAGS_HIGHLIGHT           000000018000bde0     service.obj
 0001:0000ade8       PFLAGS_REVERSESORTORDER    000000018000bde8     service.obj
 0001:0000adf0       PFLAGS_USESORTGROUPS       000000018000bdf0     service.obj
 0001:0000adf8       PFLAGS_SELECTEDFIRST       000000018000bdf8     service.obj
 0001:0000ae00       PFLAGS_REALNAMES           000000018000be00     service.obj
 0001:0000ae08       PFLAGS_NUMERICSORT         000000018000be08     service.obj
 0001:0000ae60       PFLAGS_PANELLEFT           000000018000be60     service.obj
 0001:0000ae68       PFLAGS_DIRECTORIESFIRST    000000018000be68     service.obj
 0001:0000ae70       PFLAGS_USECRC32            000000018000be70     service.obj
 0001:0000ae78       PFLAGS_CASESENSITIVESORT   000000018000be78     service.obj
 0001:0000ae80       PFLAGS_PLUGIN              000000018000be80     service.obj
 0001:0000ae88       PFLAGS_VISIBLE             000000018000be88     service.obj
 0001:0000ae90       PFLAGS_FOCUS               000000018000be90     service.obj
 0001:0000ae98       PFLAGS_ALTERNATIVENAMES    000000018000be98     service.obj
 0001:0000af10       PFLAGS_SHORTCUT            000000018000bf10     service.obj
 0001:0000af18       PFLAGS_NONE                000000018000bf18     service.obj
 0001:0000b570       PN_CMPNAME                 000000018000c570     service.obj
 0001:0000b578       PN_CMPNAMELIST             000000018000c578     service.obj
 0001:0000b580       PN_GENERATENAME            000000018000c580     service.obj
 0001:0000b588       PN_CHECKMASK               000000018000c588     service.obj
 0001:0000b590       PN_SKIPPATH                000000018000c590     service.obj
 0001:0000b598       PN_SHOWERRORMESSAGE        000000018000c598     service.obj
 0001:0000b5a0       XLAT_SWITCHKEYBLAYOUT      000000018000c5a0     service.obj
 0001:0000b5a8       XLAT_SWITCHKEYBBEEP        000000018000c5a8     service.obj
 0001:0000ba30       XLAT_USEKEYBLAYOUTNAME     000000018000ca30     service.obj
 0001:0000ba38       XLAT_CONVERTALLCMDLINE     000000018000ca38     service.obj
 0001:0000ba40       XLAT_NONE                  000000018000ca40     service.obj
 0001:0000ba48       FRS_RETUPDIR               000000018000ca48     service.obj
 0001:0000ba50       FRS_RECUR                  000000018000ca50     service.obj
 0001:0000ba58       FRS_SCANSYMLINK            000000018000ca58     service.obj
 0001:0000ba60       VF_NONMODAL                000000018000ca60     service.obj
 0001:0000ba68       VF_DELETEONCLOSE           000000018000ca68     service.obj
 0001:0000ba70       VF_ENABLE_F6               000000018000ca70     service.obj
 0001:0000ba78       VF_DISABLEHISTORY          000000018000ca78     service.obj
 0001:0000ba80       VF_IMMEDIATERETURN         000000018000ca80     service.obj
 0001:0000ba88       VF_DELETEONLYFILEONCLOSE   000000018000ca88     service.obj
 0001:0000ba90       VF_NONE                    000000018000ca90     service.obj
 0001:0000ba98       EF_NONMODAL                000000018000ca98     service.obj
 0001:0000baa0       EF_CREATENEW               000000018000caa0     service.obj
 0001:0000baa8       EF_ENABLE_F6               000000018000caa8     service.obj
 0001:0000bab0       EF_DISABLEHISTORY          000000018000cab0     service.obj
 0001:0000bab8       EF_DELETEONCLOSE           000000018000cab8     service.obj
 0001:0000bac0       EF_IMMEDIATERETURN         000000018000cac0     service.obj
 0001:0000bac8       EF_DELETEONLYFILEONCLOSE   000000018000cac8     service.obj
 0001:0000bad0       EF_LOCKED                  000000018000cad0     service.obj
 0001:0000bad8       MLF_SHOWERRMSG             000000018000cad8     service.obj
 0001:0000bae0       EF_DISABLESAVEPOS          000000018000cae0     service.obj
 0001:0000bae8       MLF_DONOTUPDATEPANEL       000000018000cae8     service.obj
 0001:0000baf0       EF_OPENMODE_MASK           000000018000caf0     service.obj
 0001:0000baf8       EF_OPENMODE_QUERY          000000018000caf8     service.obj
 0001:0000bb00       MLF_HOLDTARGET             000000018000cb00     service.obj
 0001:0000bb08       EF_OPENMODE_NEWIFOPEN      000000018000cb08     service.obj
 0001:0000bb10       MLF_NONE                   000000018000cb10     service.obj
 0001:0000bb18       EF_OPENMODE_USEEXISTING    000000018000cb18     service.obj
 0001:0000bd50       EF_OPENMODE_BREAKIFOPEN    000000018000cd50     service.obj
 0001:0000bd58       EF_OPENMODE_RELOADIFOPEN   000000018000cd58     service.obj
 0001:0000bd60       EN_NONE                    000000018000cd60     service.obj
 0001:0000bd68       FFFS_COMMAS                000000018000cd68     service.obj
 0001:0000bd70       FHELP_NOSHOWERROR          000000018000cd70     service.obj
 0001:0000bd78       FFFS_FLOATSIZE             000000018000cd78     service.obj
 0001:0000bd80       FHELP_SELFHELP             000000018000cd80     service.obj
 0001:0000bd88       FFFS_SHOWBYTESINDEX        000000018000cd88     service.obj
 0001:0000bd90       FFFS_ECONOMIC              000000018000cd90     service.obj
 0001:0000bd98       FHELP_FARHELP              000000018000cd98     service.obj
 0001:0000bdb0       FHELP_CUSTOMFILE           000000018000cdb0     service.obj
 0001:0000bdc8       FFFS_THOUSAND              000000018000cdc8     service.obj
 0001:0000bdd0       FHELP_CUSTOMPATH           000000018000cdd0     service.obj
 0001:0000bde8       FFFS_MINSIZEINDEX          000000018000cde8     service.obj
 0001:0000bdf0       FFFS_MINSIZEINDEX_MASK     000000018000cdf0     service.obj
 0001:0000bdf8       FHELP_GUID                 000000018000cdf8     service.obj
 0001:0000be10       FHELP_USECONTENTS          000000018000ce10     service.obj
 0001:0000be40       lualibs                    000000018000ce40     service.obj
 0001:0000bf00       FHELP_NONE                 000000018000cf00     service.obj
 0001:0000bf58       KMFLAGS_SILENTCHECK        000000018000cf58     service.obj
 0001:0000bf60       KMFLAGS_NOSENDKEYSTOPLUGINS 000000018000cf60     service.obj
 0001:0000bf68       KMFLAGS_ENABLEOUTPUT       000000018000cf68     service.obj
 0001:0000bf70       KMFLAGS_LANGMASK           000000018000cf70     service.obj
 0001:0000bf78       KMFLAGS_LUA                000000018000cf78     service.obj
 0001:0000bf80       KMFLAGS_MOONSCRIPT         000000018000cf80     service.obj
 0001:0000bf88       KMFLAGS_NONE               000000018000cf88     service.obj
 0001:0000bf90       PDF_DIALOGEVENTDRAWENABLE  000000018000cf90     service.obj
 0001:0000bf98       PDF_PROCESSINGERROR        000000018000cf98     service.obj
 0001:0000c060       AKMFLAGS_NONE              000000018000d060     service.obj
 0001:0000c068       FSETCLR_REDRAW             000000018000d068     service.obj
 0001:0000c070       FSETCLR_NONE               000000018000d070     service.obj
 0001:0000c078       PF_PRELOAD                 000000018000d078     service.obj
 0001:0000c080       PF_DISABLEPANELS           000000018000d080     service.obj
 0001:0000c088       PF_EDITOR                  000000018000d088     service.obj
 0001:0000c090       PF_VIEWER                  000000018000d090     service.obj
 0001:0000c098       PF_FULLCMDLINE             000000018000d098     service.obj
 0001:0000c0a0       PF_DIALOG                  000000018000d0a0     service.obj
 0001:0000c0a8       PF_NONE                    000000018000d0a8     service.obj
 0001:0000c0b0       WIF_MODIFIED               000000018000d0b0     service.obj
 0001:0000c0b8       WIF_CURRENT                000000018000d0b8     service.obj
 0001:0000c0c0       WIF_MODAL                  000000018000d0c0     service.obj
 0001:0000c0c8       VOPT_SAVEFILEPOSITION      000000018000d0c8     service.obj
 0001:0000c0d0       VOPT_AUTODETECTCODEPAGE    000000018000d0d0     service.obj
 0001:0000c0d8       VOPT_NONE                  000000018000d0d8     service.obj
 0001:0000c0e0       VSMFL_REDRAW               000000018000d0e0     service.obj
 0001:0000c0e8       IPLFLAGS_SEPARATOR         000000018000d0e8     service.obj
 0001:0000c0f0       VSP_NOREDRAW               000000018000d0f0     service.obj
 0001:0000c0f8       VSP_PERCENT                000000018000d0f8     service.obj
 0001:0000c100       PMFLAGS_FULLSCREEN         000000018000d100     service.obj
 0001:0000c108       VSP_RELATIVE               000000018000d108     service.obj
 0001:0000c110       VSP_NORETNEWPOS            000000018000d110     service.obj
 0001:0000c118       PMFLAGS_DETAILEDSTATUS     000000018000d118     service.obj
 0001:0000c120       PMFLAGS_ALIGNEXTENSIONS    000000018000d120     service.obj
 0001:0000c128       PMFLAGS_CASECONVERSION     000000018000d128     service.obj
 0001:0000c130       VMF_WRAP                   000000018000d130     service.obj
 0001:0000c138       VMF_WORDWRAP               000000018000d138     service.obj
 0001:0000c140       OPIF_DISABLEFILTER         000000018000d140     service.obj
 0001:0000c148       OPIF_DISABLESORTGROUPS     000000018000d148     service.obj
 0001:0000c150       OPIF_DISABLEHIGHLIGHTING   000000018000d150     service.obj
 0001:0000c158       OPIF_ADDDOTS               000000018000d158     service.obj
 0001:0000c160       OPIF_RAWSELECTION          000000018000d160     service.obj
 0001:0000c168       OPIF_REALNAMES             000000018000d168     service.obj
 0001:0000c170       OPIF_SHOWNAMESONLY         000000018000d170     service.obj
 0001:0000c178       OPIF_SHOWRIGHTALIGNNAMES   000000018000d178     service.obj
 0001:0000c180       OPIF_SHOWPRESERVECASE      000000018000d180     service.obj
 0001:0000c188       OPIF_COMPAREFATTIME        000000018000d188     service.obj
 0001:0000c190       OPIF_EXTERNALGET           000000018000d190     service.obj
 0001:0000c198       OPIF_EXTERNALPUT           000000018000d198     service.obj
 0001:0000c1a0       FCF_FG_4BIT                000000018000d1a0     service.obj
 0001:0000c1a8       FCF_BG_4BIT                000000018000d1a8     service.obj
 0001:0000c1b0       OPIF_EXTERNALDELETE        000000018000d1b0     service.obj
 0001:0000c1b8       FCF_4BITMASK               000000018000d1b8     service.obj
 0001:0000c1c0       OPIF_EXTERNALMKDIR         000000018000d1c0     service.obj
 0001:0000c1c8       FCF_RAWATTR_MASK           000000018000d1c8     service.obj
 0001:0000c1d0       OPIF_USEATTRHIGHLIGHTING   000000018000d1d0     service.obj
 0001:0000c1d8       FCF_EXTENDEDFLAGS          000000018000d1d8     service.obj
 0001:0000c1e0       OPIF_USECRC32              000000018000d1e0     service.obj
 0001:0000c1e8       FCF_FG_BOLD                000000018000d1e8     service.obj
 0001:0000c1f0       OPIF_USEFREESIZE           000000018000d1f0     service.obj
 0001:0000c1f8       FCF_FG_ITALIC              000000018000d1f8     service.obj
 0001:0000c200       OPIF_SHORTCUT              000000018000d200     service.obj
 0001:0000c208       OPIF_NONE                  000000018000d208     service.obj
 0001:0000c210       FCF_FG_UNDERLINE           000000018000d210     service.obj
 0001:0000c218       FCF_STYLEMASK              000000018000d218     service.obj
 0001:0000c220       FCF_NONE                   000000018000d220     service.obj
 0001:0000c228       OPM_SILENT                 000000018000d228     service.obj
 0001:0000c230       OPM_FIND                   000000018000d230     service.obj
 0001:0000c238       OPM_VIEW                   000000018000d238     service.obj
 0001:0000c240       OPM_EDIT                   000000018000d240     service.obj
 0001:0000c248       OPM_TOPLEVEL               000000018000d248     service.obj
 0001:0000c250       OPM_DESCR                  000000018000d250     service.obj
 0001:0000c258       OPM_QUICKVIEW              000000018000d258     service.obj
 0001:0000c260       OPM_PGDN                   000000018000d260     service.obj
 0001:0000c268       CDF_NONE                   000000018000d268     service.obj
 0001:0000c270       OPM_COMMANDS               000000018000d270     service.obj
 0001:0000c278       OPM_NONE                   000000018000d278     service.obj
 0001:0000c280       ?key@?3??far_Menu@@9@9     000000018000d280     service.obj
 0001:0000c288       FMSG_WARNING               000000018000d288     service.obj
 0001:0000c290       FMSG_ERRORTYPE             000000018000d290     service.obj
 0001:0000c298       FMSG_KEEPBACKGROUND        000000018000d298     service.obj
 0001:0000c2a0       FMSG_LEFTALIGN             000000018000d2a0     service.obj
 0001:0000c2a8       FMSG_ALLINONE              000000018000d2a8     service.obj
 0001:0000c2b0       FMSG_MB_OK                 000000018000d2b0     service.obj
 0001:0000c2b8       FMSG_MB_OKCANCEL           000000018000d2b8     service.obj
 0001:0000c2c0       FMSG_MB_ABORTRETRYIGNORE   000000018000d2c0     service.obj
 0001:0000c2c8       FMSG_MB_YESNO              000000018000d2c8     service.obj
 0001:0000c2d0       FMSG_MB_YESNOCANCEL        000000018000d2d0     service.obj
 0001:0000c2d8       FMSG_MB_RETRYCANCEL        000000018000d2d8     service.obj
 0001:0000c2e0       FMSG_NONE                  000000018000d2e0     service.obj
 0001:0000c2e8       FOSF_ACTIVE                000000018000d2e8     service.obj
 0001:0000c2f0       FOSF_NONE                  000000018000d2f0     service.obj
 0001:0000c2f8       DIF_BOXCOLOR               000000018000d2f8     service.obj
 0001:0000c300       DIF_GROUP                  000000018000d300     service.obj
 0001:0000c308       DIF_LEFTTEXT               000000018000d308     service.obj
 0001:0000c310       DIF_MOVESELECT             000000018000d310     service.obj
 0001:0000c318       DIF_SHOWAMPERSAND          000000018000d318     service.obj
 0001:0000c320       DIF_CENTERGROUP            000000018000d320     service.obj
 0001:0000c328       DIF_NOBRACKETS             000000018000d328     service.obj
 0001:0000c330       DIF_MANUALADDHISTORY       000000018000d330     service.obj
 0001:0000c338       DIF_SEPARATOR              000000018000d338     service.obj
 0001:0000c340       DIF_SEPARATOR2             000000018000d340     service.obj
 0001:0000c348       DIF_EDITOR                 000000018000d348     service.obj
 0001:0000c350       DIF_LISTNOAMPERSAND        000000018000d350     service.obj
 0001:0000c358       DIF_LISTNOBOX              000000018000d358     service.obj
 0001:0000c360       DIF_HISTORY                000000018000d360     service.obj
 0001:0000c368       DIF_BTNNOCLOSE             000000018000d368     service.obj
 0001:0000c370       DIF_CENTERTEXT             000000018000d370     service.obj
 0001:0000c378       DIF_SEPARATORUSER          000000018000d378     service.obj
 0001:0000c380       DIF_SETSHIELD              000000018000d380     service.obj
 0001:0000c388       DIF_EDITEXPAND             000000018000d388     service.obj
 0001:0000c390       DIF_DROPDOWNLIST           000000018000d390     service.obj
 0001:0000c398       DIF_USELASTHISTORY         000000018000d398     service.obj
 0001:0000c3a0       DIF_MASKEDIT               000000018000d3a0     service.obj
 0001:0000c3a8       DIF_LISTTRACKMOUSE         000000018000d3a8     service.obj
 0001:0000c3b0       DIF_LISTTRACKMOUSEINFOCUS  000000018000d3b0     service.obj
 0001:0000c3b8       DIF_SELECTONENTRY          000000018000d3b8     service.obj
 0001:0000c3c0       DIF_3STATE                 000000018000d3c0     service.obj
 0001:0000c3c8       DIF_EDITPATH               000000018000d3c8     service.obj
 0001:0000c3d0       DIF_LISTWRAPMODE           000000018000d3d0     service.obj
 0001:0000c3d8       DIF_NOAUTOCOMPLETE         000000018000d3d8     service.obj
 0001:0000c3e0       DIF_LISTAUTOHIGHLIGHT      000000018000d3e0     service.obj
 0001:0000c3e8       DIF_LISTNOCLOSE            000000018000d3e8     service.obj
 0001:0000c3f0       DIF_EDITPATHEXEC           000000018000d3f0     service.obj
 0001:0000c3f8       DIF_HIDDEN                 000000018000d3f8     service.obj
 0001:0000c400       DIF_READONLY               000000018000d400     service.obj
 0001:0000c408       DIF_NOFOCUS                000000018000d408     service.obj
 0001:0000c410       DIF_DISABLE                000000018000d410     service.obj
 0001:0000c418       DIF_DEFAULTBUTTON          000000018000d418     service.obj
 0001:0000c420       DIF_FOCUS                  000000018000d420     service.obj
 0001:0000c428       DIF_RIGHTTEXT              000000018000d428     service.obj
 0001:0000c430       DIF_WORDWRAP               000000018000d430     service.obj
 0001:0000c438       DIF_NONE                   000000018000d438     service.obj
 0001:0000c440       ECF_TABMARKFIRST           000000018000d440     service.obj
 0001:0000c448       ECF_TABMARKCURRENT         000000018000d448     service.obj
 0001:0000c450       ECF_AUTODELETE             000000018000d450     service.obj
 0001:0000e180       uniclib                    000000018000f180     slnunico.obj
 0001:0000e560       fnames                     000000018000f560     uliolib51.obj
 0001:0000e570       ?mode@?1??f_seek@@9@9      000000018000f570     uliolib51.obj
 0001:0000e580       ?modenames@?1??f_seek@@9@9 000000018000f580     uliolib51.obj
 0001:0000e5a0       ?mode@?1??f_setvbuf@@9@9   000000018000f5a0     uliolib51.obj
 0001:0000e5b0       ?modenames@?1??f_setvbuf@@9@9 000000018000f5b0     uliolib51.obj
 0001:0000e5d0       iolib                      000000018000f5d0     uliolib51.obj
 0001:0000e690       flib                       000000018000f690     uliolib51.obj
 0001:0000e908       sentinel_                  000000018000f908     uloadlib51.obj
 0001:0000e910       pk_funcs                   000000018000f910     uloadlib51.obj
 0001:0000e940       ll_funcs                   000000018000f940     uloadlib51.obj
 0001:0000e970       loaders                    000000018000f970     uloadlib51.obj
 0001:0000f220       PN_CMPNAME                 0000000180010220     util.obj
 0001:0000f228       PN_CMPNAMELIST             0000000180010228     util.obj
 0001:0000f230       PN_GENERATENAME            0000000180010230     util.obj
 0001:0000f238       PN_CHECKMASK               0000000180010238     util.obj
 0001:0000f240       PN_SKIPPATH                0000000180010240     util.obj
 0001:0000f248       PN_SHOWERRORMESSAGE        0000000180010248     util.obj
 0001:0000f250       XLAT_SWITCHKEYBLAYOUT      0000000180010250     util.obj
 0001:0000f258       XLAT_SWITCHKEYBBEEP        0000000180010258     util.obj
 0001:0000f260       XLAT_USEKEYBLAYOUTNAME     0000000180010260     util.obj
 0001:0000f268       XLAT_CONVERTALLCMDLINE     0000000180010268     util.obj
 0001:0000f270       XLAT_NONE                  0000000180010270     util.obj
 0001:0000f278       FRS_RETUPDIR               0000000180010278     util.obj
 0001:0000f280       FRS_RECUR                  0000000180010280     util.obj
 0001:0000f288       FRS_SCANSYMLINK            0000000180010288     util.obj
 0001:0000f290       VF_NONMODAL                0000000180010290     util.obj
 0001:0000f298       VF_DELETEONCLOSE           0000000180010298     util.obj
 0001:0000f2a0       VF_ENABLE_F6               00000001800102a0     util.obj
 0001:0000f2a8       VF_DISABLEHISTORY          00000001800102a8     util.obj
 0001:0000f2b0       VF_IMMEDIATERETURN         00000001800102b0     util.obj
 0001:0000f2b8       VF_DELETEONLYFILEONCLOSE   00000001800102b8     util.obj
 0001:0000f2c0       VF_NONE                    00000001800102c0     util.obj
 0001:0000f2c8       EF_NONMODAL                00000001800102c8     util.obj
 0001:0000f2d0       EF_CREATENEW               00000001800102d0     util.obj
 0001:0000f2d8       EF_ENABLE_F6               00000001800102d8     util.obj
 0001:0000f2e0       EF_DISABLEHISTORY          00000001800102e0     util.obj
 0001:0000f2e8       EF_DELETEONCLOSE           00000001800102e8     util.obj
 0001:0000f2f0       EF_IMMEDIATERETURN         00000001800102f0     util.obj
 0001:0000f2f8       EF_DELETEONLYFILEONCLOSE   00000001800102f8     util.obj
 0001:0000f300       EF_LOCKED                  0000000180010300     util.obj
 0001:0000f308       MLF_SHOWERRMSG             0000000180010308     util.obj
 0001:0000f310       EF_DISABLESAVEPOS          0000000180010310     util.obj
 0001:0000f318       MLF_DONOTUPDATEPANEL       0000000180010318     util.obj
 0001:0000f320       EF_OPENMODE_MASK           0000000180010320     util.obj
 0001:0000f328       EF_OPENMODE_QUERY          0000000180010328     util.obj
 0001:0000f330       MLF_HOLDTARGET             0000000180010330     util.obj
 0001:0000f338       EF_OPENMODE_NEWIFOPEN      0000000180010338     util.obj
 0001:0000f340       MLF_NONE                   0000000180010340     util.obj
 0001:0000f348       EF_OPENMODE_USEEXISTING    0000000180010348     util.obj
 0001:0000f350       EF_OPENMODE_BREAKIFOPEN    0000000180010350     util.obj
 0001:0000f358       EF_OPENMODE_RELOADIFOPEN   0000000180010358     util.obj
 0001:0000f360       EN_NONE                    0000000180010360     util.obj
 0001:0000f368       FFFS_COMMAS                0000000180010368     util.obj
 0001:0000f370       FHELP_NOSHOWERROR          0000000180010370     util.obj
 0001:0000f378       FFFS_FLOATSIZE             0000000180010378     util.obj
 0001:0000f380       FHELP_SELFHELP             0000000180010380     util.obj
 0001:0000f388       FFFS_SHOWBYTESINDEX        0000000180010388     util.obj
 0001:0000f390       FFFS_ECONOMIC              0000000180010390     util.obj
 0001:0000f398       FHELP_FARHELP              0000000180010398     util.obj
 0001:0000f3a0       FHELP_CUSTOMFILE           00000001800103a0     util.obj
 0001:0000f3a8       FFFS_THOUSAND              00000001800103a8     util.obj
 0001:0000f3b0       FHELP_CUSTOMPATH           00000001800103b0     util.obj
 0001:0000f3b8       FFFS_MINSIZEINDEX          00000001800103b8     util.obj
 0001:0000f3c0       FFFS_MINSIZEINDEX_MASK     00000001800103c0     util.obj
 0001:0000f3c8       FHELP_GUID                 00000001800103c8     util.obj
 0001:0000f3d0       FHELP_USECONTENTS          00000001800103d0     util.obj
 0001:0000f3d8       FHELP_NONE                 00000001800103d8     util.obj
 0001:0000f3e0       KMFLAGS_SILENTCHECK        00000001800103e0     util.obj
 0001:0000f3e8       KMFLAGS_NOSENDKEYSTOPLUGINS 00000001800103e8     util.obj
 0001:0000f3f0       KMFLAGS_ENABLEOUTPUT       00000001800103f0     util.obj
 0001:0000f3f8       KMFLAGS_LANGMASK           00000001800103f8     util.obj
 0001:0000f400       KMFLAGS_LUA                0000000180010400     util.obj
 0001:0000f408       KMFLAGS_MOONSCRIPT         0000000180010408     util.obj
 0001:0000f410       KMFLAGS_NONE               0000000180010410     util.obj
 0001:0000f418       AKMFLAGS_NONE              0000000180010418     util.obj
 0001:0000f420       FSETCLR_REDRAW             0000000180010420     util.obj
 0001:0000f428       FSETCLR_NONE               0000000180010428     util.obj
 0001:0000f430       PF_PRELOAD                 0000000180010430     util.obj
 0001:0000f438       PF_DISABLEPANELS           0000000180010438     util.obj
 0001:0000f440       PF_EDITOR                  0000000180010440     util.obj
 0001:0000f448       PF_VIEWER                  0000000180010448     util.obj
 0001:0000f450       PF_FULLCMDLINE             0000000180010450     util.obj
 0001:0000f458       PF_DIALOG                  0000000180010458     util.obj
 0001:0000f460       PF_NONE                    0000000180010460     util.obj
 0001:0000f468       WIF_MODIFIED               0000000180010468     util.obj
 0001:0000f470       WIF_CURRENT                0000000180010470     util.obj
 0001:0000f478       WIF_MODAL                  0000000180010478     util.obj
 0001:0000f480       VOPT_SAVEFILEPOSITION      0000000180010480     util.obj
 0001:0000f488       VOPT_AUTODETECTCODEPAGE    0000000180010488     util.obj
 0001:0000f490       VOPT_NONE                  0000000180010490     util.obj
 0001:0000f498       VSMFL_REDRAW               0000000180010498     util.obj
 0001:0000f4a0       IPLFLAGS_SEPARATOR         00000001800104a0     util.obj
 0001:0000f4a8       VSP_NOREDRAW               00000001800104a8     util.obj
 0001:0000f4b0       VSP_PERCENT                00000001800104b0     util.obj
 0001:0000f4b8       PMFLAGS_FULLSCREEN         00000001800104b8     util.obj
 0001:0000f4c0       VSP_RELATIVE               00000001800104c0     util.obj
 0001:0000f4c8       VSP_NORETNEWPOS            00000001800104c8     util.obj
 0001:0000f4d0       PMFLAGS_DETAILEDSTATUS     00000001800104d0     util.obj
 0001:0000f4d8       PMFLAGS_ALIGNEXTENSIONS    00000001800104d8     util.obj
 0001:0000f4e0       PMFLAGS_CASECONVERSION     00000001800104e0     util.obj
 0001:0000f4e8       VMF_WRAP                   00000001800104e8     util.obj
 0001:0000f4f0       VMF_WORDWRAP               00000001800104f0     util.obj
 0001:0000f4f8       OPIF_DISABLEFILTER         00000001800104f8     util.obj
 0001:0000f500       OPIF_DISABLESORTGROUPS     0000000180010500     util.obj
 0001:0000f508       OPIF_DISABLEHIGHLIGHTING   0000000180010508     util.obj
 0001:0000f510       OPIF_ADDDOTS               0000000180010510     util.obj
 0001:0000f518       OPIF_RAWSELECTION          0000000180010518     util.obj
 0001:0000f520       OPIF_REALNAMES             0000000180010520     util.obj
 0001:0000f528       OPIF_SHOWNAMESONLY         0000000180010528     util.obj
 0001:0000f530       OPIF_SHOWRIGHTALIGNNAMES   0000000180010530     util.obj
 0001:0000f538       OPIF_SHOWPRESERVECASE      0000000180010538     util.obj
 0001:0000f540       OPIF_COMPAREFATTIME        0000000180010540     util.obj
 0001:0000f548       OPIF_EXTERNALGET           0000000180010548     util.obj
 0001:0000f550       OPIF_EXTERNALPUT           0000000180010550     util.obj
 0001:0000f558       FCF_FG_4BIT                0000000180010558     util.obj
 0001:0000f560       FCF_BG_4BIT                0000000180010560     util.obj
 0001:0000f568       OPIF_EXTERNALDELETE        0000000180010568     util.obj
 0001:0000f570       FCF_4BITMASK               0000000180010570     util.obj
 0001:0000f578       OPIF_EXTERNALMKDIR         0000000180010578     util.obj
 0001:0000f580       FCF_RAWATTR_MASK           0000000180010580     util.obj
 0001:0000f588       OPIF_USEATTRHIGHLIGHTING   0000000180010588     util.obj
 0001:0000f590       FCF_EXTENDEDFLAGS          0000000180010590     util.obj
 0001:0000f598       OPIF_USECRC32              0000000180010598     util.obj
 0001:0000f5a0       FCF_FG_BOLD                00000001800105a0     util.obj
 0001:0000f5a8       OPIF_USEFREESIZE           00000001800105a8     util.obj
 0001:0000f5b0       FCF_FG_ITALIC              00000001800105b0     util.obj
 0001:0000f5b8       OPIF_SHORTCUT              00000001800105b8     util.obj
 0001:0000f5c0       OPIF_NONE                  00000001800105c0     util.obj
 0001:0000f5c8       FCF_FG_UNDERLINE           00000001800105c8     util.obj
 0001:0000f5d0       FCF_STYLEMASK              00000001800105d0     util.obj
 0001:0000f5d8       FCF_NONE                   00000001800105d8     util.obj
 0001:0000f5e0       OPM_SILENT                 00000001800105e0     util.obj
 0001:0000f5e8       OPM_FIND                   00000001800105e8     util.obj
 0001:0000f5f0       OPM_VIEW                   00000001800105f0     util.obj
 0001:0000f5f8       OPM_EDIT                   00000001800105f8     util.obj
 0001:0000f600       OPM_TOPLEVEL               0000000180010600     util.obj
 0001:0000f608       OPM_DESCR                  0000000180010608     util.obj
 0001:0000f610       OPM_QUICKVIEW              0000000180010610     util.obj
 0001:0000f618       OPM_PGDN                   0000000180010618     util.obj
 0001:0000f620       CDF_NONE                   0000000180010620     util.obj
 0001:0000f628       OPM_COMMANDS               0000000180010628     util.obj
 0001:0000f630       OPM_NONE                   0000000180010630     util.obj
 0001:0000f638       FMSG_WARNING               0000000180010638     util.obj
 0001:0000f640       FMSG_ERRORTYPE             0000000180010640     util.obj
 0001:0000f648       FMSG_KEEPBACKGROUND        0000000180010648     util.obj
 0001:0000f650       FMSG_LEFTALIGN             0000000180010650     util.obj
 0001:0000f658       FMSG_ALLINONE              0000000180010658     util.obj
 0001:0000f660       FMSG_MB_OK                 0000000180010660     util.obj
 0001:0000f668       FMSG_MB_OKCANCEL           0000000180010668     util.obj
 0001:0000f670       FMSG_MB_ABORTRETRYIGNORE   0000000180010670     util.obj
 0001:0000f678       FMSG_MB_YESNO              0000000180010678     util.obj
 0001:0000f680       FMSG_MB_YESNOCANCEL        0000000180010680     util.obj
 0001:0000f688       FMSG_MB_RETRYCANCEL        0000000180010688     util.obj
 0001:0000f690       FMSG_NONE                  0000000180010690     util.obj
 0001:0000f698       FOSF_ACTIVE                0000000180010698     util.obj
 0001:0000f6a0       FOSF_NONE                  00000001800106a0     util.obj
 0001:0000f6a8       DIF_BOXCOLOR               00000001800106a8     util.obj
 0001:0000f6b0       DIF_GROUP                  00000001800106b0     util.obj
 0001:0000f6b8       DIF_LEFTTEXT               00000001800106b8     util.obj
 0001:0000f6c0       DIF_MOVESELECT             00000001800106c0     util.obj
 0001:0000f6c8       DIF_SHOWAMPERSAND          00000001800106c8     util.obj
 0001:0000f6d0       DIF_CENTERGROUP            00000001800106d0     util.obj
 0001:0000f6d8       DIF_NOBRACKETS             00000001800106d8     util.obj
 0001:0000f6e0       DIF_MANUALADDHISTORY       00000001800106e0     util.obj
 0001:0000f6e8       DIF_SEPARATOR              00000001800106e8     util.obj
 0001:0000f6f0       DIF_SEPARATOR2             00000001800106f0     util.obj
 0001:0000f6f8       DIF_EDITOR                 00000001800106f8     util.obj
 0001:0000f700       DIF_LISTNOAMPERSAND        0000000180010700     util.obj
 0001:0000f708       DIF_LISTNOBOX              0000000180010708     util.obj
 0001:0000f710       DIF_HISTORY                0000000180010710     util.obj
 0001:0000f718       DIF_BTNNOCLOSE             0000000180010718     util.obj
 0001:0000f720       DIF_CENTERTEXT             0000000180010720     util.obj
 0001:0000f728       DIF_SEPARATORUSER          0000000180010728     util.obj
 0001:0000f730       DIF_SETSHIELD              0000000180010730     util.obj
 0001:0000f738       DIF_EDITEXPAND             0000000180010738     util.obj
 0001:0000f740       DIF_DROPDOWNLIST           0000000180010740     util.obj
 0001:0000f748       DIF_USELASTHISTORY         0000000180010748     util.obj
 0001:0000f750       DIF_MASKEDIT               0000000180010750     util.obj
 0001:0000f758       DIF_LISTTRACKMOUSE         0000000180010758     util.obj
 0001:0000f760       DIF_LISTTRACKMOUSEINFOCUS  0000000180010760     util.obj
 0001:0000f768       DIF_SELECTONENTRY          0000000180010768     util.obj
 0001:0000f770       DIF_3STATE                 0000000180010770     util.obj
 0001:0000f778       DIF_EDITPATH               0000000180010778     util.obj
 0001:0000f780       DIF_LISTWRAPMODE           0000000180010780     util.obj
 0001:0000f788       DIF_NOAUTOCOMPLETE         0000000180010788     util.obj
 0001:0000f790       DIF_LISTAUTOHIGHLIGHT      0000000180010790     util.obj
 0001:0000f798       DIF_LISTNOCLOSE            0000000180010798     util.obj
 0001:0000f7a0       DIF_EDITPATHEXEC           00000001800107a0     util.obj
 0001:0000f7a8       DIF_HIDDEN                 00000001800107a8     util.obj
 0001:0000f7b0       DIF_READONLY               00000001800107b0     util.obj
 0001:0000f7b8       DIF_NOFOCUS                00000001800107b8     util.obj
 0001:0000f7c0       DIF_DISABLE                00000001800107c0     util.obj
 0001:0000f7c8       DIF_DEFAULTBUTTON          00000001800107c8     util.obj
 0001:0000f7d0       DIF_FOCUS                  00000001800107d0     util.obj
 0001:0000f7d8       DIF_RIGHTTEXT              00000001800107d8     util.obj
 0001:0000f7e0       DIF_WORDWRAP               00000001800107e0     util.obj
 0001:0000f7e8       DIF_NONE                   00000001800107e8     util.obj
 0001:0000f7f0       ECF_TABMARKFIRST           00000001800107f0     util.obj
 0001:0000f7f8       ECF_TABMARKCURRENT         00000001800107f8     util.obj
 0001:0000f800       ECF_AUTODELETE             0000000180010800     util.obj
 0001:0000f808       FIB_ENABLEEMPTY            0000000180010808     util.obj
 0001:0000f810       FIB_PASSWORD               0000000180010810     util.obj
 0001:0000f818       FIB_EXPANDENV              0000000180010818     util.obj
 0001:0000f820       FIB_NOUSELASTHISTORY       0000000180010820     util.obj
 0001:0000f828       PCIF_FROMMAIN              0000000180010828     util.obj
 0001:0000f830       FIB_BUTTONS                0000000180010830     util.obj
 0001:0000f838       FIB_NOAMPERSAND            0000000180010838     util.obj
 0001:0000f840       PCIF_NONE                  0000000180010840     util.obj
 0001:0000f848       FIB_EDITPATH               0000000180010848     util.obj
 0001:0000f850       FIB_EDITPATHEXEC           0000000180010850     util.obj
 0001:0000f858       FIB_NONE                   0000000180010858     util.obj
 0001:0000f860       LIF_SELECTED               0000000180010860     util.obj
 0001:0000f868       LIF_CHECKED                0000000180010868     util.obj
 0001:0000f870       LIF_SEPARATOR              0000000180010870     util.obj
 0001:0000f878       LIF_DISABLE                0000000180010878     util.obj
 0001:0000f880       LIF_GRAYED                 0000000180010880     util.obj
 0001:0000f888       LIF_HIDDEN                 0000000180010888     util.obj
 0001:0000f890       LIF_DELETEUSERDATA         0000000180010890     util.obj
 0001:0000f898       LIF_NONE                   0000000180010898     util.obj
 0001:0000f8a0       FPF_LOADED                 00000001800108a0     util.obj
 0001:0000f8a8       LIFIND_EXACTMATCH          00000001800108a8     util.obj
 0001:0000f8b0       FPF_ANSI                   00000001800108b0     util.obj
 0001:0000f8b8       LIFIND_NONE                00000001800108b8     util.obj
 0001:0000f8c0       FPF_NONE                   00000001800108c0     util.obj
 0001:0000f8c8       LINFO_SHOWNOBOX            00000001800108c8     util.obj
 0001:0000f8d0       LINFO_AUTOHIGHLIGHT        00000001800108d0     util.obj
 0001:0000f8d8       LINFO_REVERSEHIGHLIGHT     00000001800108d8     util.obj
 0001:0000f8e0       LINFO_WRAPMODE             00000001800108e0     util.obj
 0001:0000f8e8       LINFO_SHOWAMPERSAND        00000001800108e8     util.obj
 0001:0000f8f0       LINFO_NONE                 00000001800108f0     util.obj
 0001:0000f8f8       FarGuid                    00000001800108f8     util.obj
 0001:0000f908       FDLG_WARNING               0000000180010908     util.obj
 0001:0000f910       FDLG_SMALLDIALOG           0000000180010910     util.obj
 0001:0000f918       FDLG_NODRAWSHADOW          0000000180010918     util.obj
 0001:0000f920       FDLG_NODRAWPANEL           0000000180010920     util.obj
 0001:0000f928       FDLG_KEEPCONSOLETITLE      0000000180010928     util.obj
 0001:0000f930       FDLG_NONE                  0000000180010930     util.obj
 0001:0000f938       MIF_SELECTED               0000000180010938     util.obj
 0001:0000f940       MIF_CHECKED                0000000180010940     util.obj
 0001:0000f948       MIF_SEPARATOR              0000000180010948     util.obj
 0001:0000f950       MIF_DISABLE                0000000180010950     util.obj
 0001:0000f958       MIF_GRAYED                 0000000180010958     util.obj
 0001:0000f960       MIF_HIDDEN                 0000000180010960     util.obj
 0001:0000f968       MIF_NONE                   0000000180010968     util.obj
 0001:0000f970       FMENU_SHOWAMPERSAND        0000000180010970     util.obj
 0001:0000f978       FMENU_WRAPMODE             0000000180010978     util.obj
 0001:0000f980       FMENU_AUTOHIGHLIGHT        0000000180010980     util.obj
 0001:0000f988       FMENU_REVERSEAUTOHIGHLIGHT 0000000180010988     util.obj
 0001:0000f990       FMENU_CHANGECONSOLETITLE   0000000180010990     util.obj
 0001:0000f998       FMENU_NONE                 0000000180010998     util.obj
 0001:0000f9a0       PPIF_SELECTED              00000001800109a0     util.obj
 0001:0000f9a8       PPIF_PROCESSDESCR          00000001800109a8     util.obj
 0001:0000f9b0       PPIF_NONE                  00000001800109b0     util.obj
 0001:0000f9b8       PFLAGS_SHOWHIDDEN          00000001800109b8     util.obj
 0001:0000f9c0       PFLAGS_HIGHLIGHT           00000001800109c0     util.obj
 0001:0000f9c8       PFLAGS_REVERSESORTORDER    00000001800109c8     util.obj
 0001:0000f9d0       PFLAGS_USESORTGROUPS       00000001800109d0     util.obj
 0001:0000f9d8       PFLAGS_SELECTEDFIRST       00000001800109d8     util.obj
 0001:0000f9e0       PFLAGS_REALNAMES           00000001800109e0     util.obj
 0001:0000f9e8       PFLAGS_NUMERICSORT         00000001800109e8     util.obj
 0001:0000f9f0       PFLAGS_PANELLEFT           00000001800109f0     util.obj
 0001:0000f9f8       PFLAGS_DIRECTORIESFIRST    00000001800109f8     util.obj
 0001:0000fa00       PFLAGS_USECRC32            0000000180010a00     util.obj
 0001:0000fa08       PFLAGS_CASESENSITIVESORT   0000000180010a08     util.obj
 0001:0000fa10       PFLAGS_PLUGIN              0000000180010a10     util.obj
 0001:0000fa18       PFLAGS_VISIBLE             0000000180010a18     util.obj
 0001:0000fa20       PFLAGS_FOCUS               0000000180010a20     util.obj
 0001:0000fa28       PFLAGS_ALTERNATIVENAMES    0000000180010a28     util.obj
 0001:0000fa30       PFLAGS_SHORTCUT            0000000180010a30     util.obj
 0001:0000fa38       PFLAGS_NONE                0000000180010a38     util.obj
 0001:0000fad0       DIF_SEPARATORUSER          0000000180010ad0     win.obj
 0001:0000fad8       DIF_SETSHIELD              0000000180010ad8     win.obj
 0001:0000fae0       DIF_EDITEXPAND             0000000180010ae0     win.obj
 0001:0000fae8       DIF_DROPDOWNLIST           0000000180010ae8     win.obj
 0001:0000faf0       DIF_USELASTHISTORY         0000000180010af0     win.obj
 0001:0000faf8       DIF_MASKEDIT               0000000180010af8     win.obj
 0001:0000fb00       DIF_LISTTRACKMOUSE         0000000180010b00     win.obj
 0001:0000fb08       DIF_LISTTRACKMOUSEINFOCUS  0000000180010b08     win.obj
 0001:0000fb10       DIF_SELECTONENTRY          0000000180010b10     win.obj
 0001:0000fb18       DIF_3STATE                 0000000180010b18     win.obj
 0001:0000fb20       DIF_EDITPATH               0000000180010b20     win.obj
 0001:0000fb28       DIF_LISTWRAPMODE           0000000180010b28     win.obj
 0001:0000fb30       DIF_NOAUTOCOMPLETE         0000000180010b30     win.obj
 0001:0000fb38       DIF_LISTAUTOHIGHLIGHT      0000000180010b38     win.obj
 0001:0000fb40       DIF_LISTNOCLOSE            0000000180010b40     win.obj
 0001:0000fb48       DIF_EDITPATHEXEC           0000000180010b48     win.obj
 0001:0000fb50       DIF_HIDDEN                 0000000180010b50     win.obj
 0001:0000fb58       DIF_READONLY               0000000180010b58     win.obj
 0001:0000fb60       DIF_NOFOCUS                0000000180010b60     win.obj
 0001:0000fb68       DIF_DISABLE                0000000180010b68     win.obj
 0001:0000fb70       DIF_DEFAULTBUTTON          0000000180010b70     win.obj
 0001:0000fb78       DIF_FOCUS                  0000000180010b78     win.obj
 0001:0000fb80       DIF_RIGHTTEXT              0000000180010b80     win.obj
 0001:0000fb88       DIF_WORDWRAP               0000000180010b88     win.obj
 0001:0000fb90       DIF_NONE                   0000000180010b90     win.obj
 0001:0000fb98       ECF_TABMARKFIRST           0000000180010b98     win.obj
 0001:0000fba0       ECF_TABMARKCURRENT         0000000180010ba0     win.obj
 0001:0000fba8       ECF_AUTODELETE             0000000180010ba8     win.obj
 0001:0000fbb0       FIB_ENABLEEMPTY            0000000180010bb0     win.obj
 0001:0000fbb8       FIB_PASSWORD               0000000180010bb8     win.obj
 0001:0000fbc0       FIB_EXPANDENV              0000000180010bc0     win.obj
 0001:0000fbc8       FIB_NOUSELASTHISTORY       0000000180010bc8     win.obj
 0001:0000fbd0       PCIF_FROMMAIN              0000000180010bd0     win.obj
 0001:0000fbd8       FIB_BUTTONS                0000000180010bd8     win.obj
 0001:0000fbe0       FIB_NOAMPERSAND            0000000180010be0     win.obj
 0001:0000fbe8       PCIF_NONE                  0000000180010be8     win.obj
 0001:0000fbf0       FIB_EDITPATH               0000000180010bf0     win.obj
 0001:0000fbf8       FIB_EDITPATHEXEC           0000000180010bf8     win.obj
 0001:0000fc00       FIB_NONE                   0000000180010c00     win.obj
 0001:0000fc08       LIF_SELECTED               0000000180010c08     win.obj
 0001:0000fc10       LIF_CHECKED                0000000180010c10     win.obj
 0001:0000fc18       LIF_SEPARATOR              0000000180010c18     win.obj
 0001:0000fc20       LIF_DISABLE                0000000180010c20     win.obj
 0001:0000fc28       LIF_GRAYED                 0000000180010c28     win.obj
 0001:0000fc30       LIF_HIDDEN                 0000000180010c30     win.obj
 0001:0000fc38       LIF_DELETEUSERDATA         0000000180010c38     win.obj
 0001:0000fc40       LIF_NONE                   0000000180010c40     win.obj
 0001:0000fc48       FPF_LOADED                 0000000180010c48     win.obj
 0001:0000fc50       LIFIND_EXACTMATCH          0000000180010c50     win.obj
 0001:0000fc58       FPF_ANSI                   0000000180010c58     win.obj
 0001:0000fc60       LIFIND_NONE                0000000180010c60     win.obj
 0001:0000fc68       FPF_NONE                   0000000180010c68     win.obj
 0001:0000fc70       LINFO_SHOWNOBOX            0000000180010c70     win.obj
 0001:0000fc78       LINFO_AUTOHIGHLIGHT        0000000180010c78     win.obj
 0001:0000fc80       LINFO_REVERSEHIGHLIGHT     0000000180010c80     win.obj
 0001:0000fc88       LINFO_WRAPMODE             0000000180010c88     win.obj
 0001:0000fc90       LINFO_SHOWAMPERSAND        0000000180010c90     win.obj
 0001:0000fc98       LINFO_NONE                 0000000180010c98     win.obj
 0001:0000fca0       FarGuid                    0000000180010ca0     win.obj
 0001:0000fcb0       FDLG_WARNING               0000000180010cb0     win.obj
 0001:0000fcb8       FDLG_SMALLDIALOG           0000000180010cb8     win.obj
 0001:0000fcc0       FDLG_NODRAWSHADOW          0000000180010cc0     win.obj
 0001:0000fcc8       FDLG_NODRAWPANEL           0000000180010cc8     win.obj
 0001:0000fcd0       FDLG_KEEPCONSOLETITLE      0000000180010cd0     win.obj
 0001:0000fcd8       FDLG_NONE                  0000000180010cd8     win.obj
 0001:0000fce0       MIF_SELECTED               0000000180010ce0     win.obj
 0001:0000fce8       MIF_CHECKED                0000000180010ce8     win.obj
 0001:0000fcf0       MIF_SEPARATOR              0000000180010cf0     win.obj
 0001:0000fcf8       MIF_DISABLE                0000000180010cf8     win.obj
 0001:0000fd00       MIF_GRAYED                 0000000180010d00     win.obj
 0001:0000fd08       MIF_HIDDEN                 0000000180010d08     win.obj
 0001:0000fd10       MIF_NONE                   0000000180010d10     win.obj
 0001:0000fd18       FMENU_SHOWAMPERSAND        0000000180010d18     win.obj
 0001:0000fd20       FMENU_WRAPMODE             0000000180010d20     win.obj
 0001:0000fd28       FMENU_AUTOHIGHLIGHT        0000000180010d28     win.obj
 0001:0000fd30       FMENU_REVERSEAUTOHIGHLIGHT 0000000180010d30     win.obj
 0001:0000fd38       FMENU_CHANGECONSOLETITLE   0000000180010d38     win.obj
 0001:0000fd40       FMENU_NONE                 0000000180010d40     win.obj
 0001:0000fd48       PPIF_SELECTED              0000000180010d48     win.obj
 0001:0000fd50       PPIF_PROCESSDESCR          0000000180010d50     win.obj
 0001:0000fd58       PPIF_NONE                  0000000180010d58     win.obj
 0001:0000fd60       PFLAGS_SHOWHIDDEN          0000000180010d60     win.obj
 0001:0000fd68       PFLAGS_HIGHLIGHT           0000000180010d68     win.obj
 0001:0000fd70       PFLAGS_REVERSESORTORDER    0000000180010d70     win.obj
 0001:0000fd78       PFLAGS_USESORTGROUPS       0000000180010d78     win.obj
 0001:0000fd80       PFLAGS_SELECTEDFIRST       0000000180010d80     win.obj
 0001:0000fd88       PFLAGS_REALNAMES           0000000180010d88     win.obj
 0001:0000fd90       PFLAGS_NUMERICSORT         0000000180010d90     win.obj
 0001:0000fd98       PFLAGS_PANELLEFT           0000000180010d98     win.obj
 0001:0000fda0       PFLAGS_DIRECTORIESFIRST    0000000180010da0     win.obj
 0001:0000fda8       PFLAGS_USECRC32            0000000180010da8     win.obj
 0001:0000fdb0       PFLAGS_CASESENSITIVESORT   0000000180010db0     win.obj
 0001:0000fdb8       PFLAGS_PLUGIN              0000000180010db8     win.obj
 0001:0000fdc0       PFLAGS_VISIBLE             0000000180010dc0     win.obj
 0001:0000fdc8       PFLAGS_FOCUS               0000000180010dc8     win.obj
 0001:0000fdd0       PFLAGS_ALTERNATIVENAMES    0000000180010dd0     win.obj
 0001:0000fdd8       PFLAGS_SHORTCUT            0000000180010dd8     win.obj
 0001:0000fde0       PFLAGS_NONE                0000000180010de0     win.obj
 0001:0000fde8       PN_CMPNAME                 0000000180010de8     win.obj
 0001:0000fdf0       PN_CMPNAMELIST             0000000180010df0     win.obj
 0001:0000fdf8       PN_GENERATENAME            0000000180010df8     win.obj
 0001:0000fe00       PN_CHECKMASK               0000000180010e00     win.obj
 0001:0000fe08       PN_SKIPPATH                0000000180010e08     win.obj
 0001:0000fe10       PN_SHOWERRORMESSAGE        0000000180010e10     win.obj
 0001:0000fe18       XLAT_SWITCHKEYBLAYOUT      0000000180010e18     win.obj
 0001:0000fe20       XLAT_SWITCHKEYBBEEP        0000000180010e20     win.obj
 0001:0000fe28       XLAT_USEKEYBLAYOUTNAME     0000000180010e28     win.obj
 0001:0000fe30       XLAT_CONVERTALLCMDLINE     0000000180010e30     win.obj
 0001:0000fe38       XLAT_NONE                  0000000180010e38     win.obj
 0001:0000fe40       FRS_RETUPDIR               0000000180010e40     win.obj
 0001:0000fe48       FRS_RECUR                  0000000180010e48     win.obj
 0001:0000fe50       FRS_SCANSYMLINK            0000000180010e50     win.obj
 0001:0000fe58       VF_NONMODAL                0000000180010e58     win.obj
 0001:0000fe60       VF_DELETEONCLOSE           0000000180010e60     win.obj
 0001:0000fe68       VF_ENABLE_F6               0000000180010e68     win.obj
 0001:0000fe70       VF_DISABLEHISTORY          0000000180010e70     win.obj
 0001:0000fe78       VF_IMMEDIATERETURN         0000000180010e78     win.obj
 0001:0000fe80       VF_DELETEONLYFILEONCLOSE   0000000180010e80     win.obj
 0001:0000fe88       VF_NONE                    0000000180010e88     win.obj
 0001:0000fe90       EF_NONMODAL                0000000180010e90     win.obj
 0001:0000fe98       EF_CREATENEW               0000000180010e98     win.obj
 0001:0000fea0       EF_ENABLE_F6               0000000180010ea0     win.obj
 0001:0000fea8       EF_DISABLEHISTORY          0000000180010ea8     win.obj
 0001:0000feb0       EF_DELETEONCLOSE           0000000180010eb0     win.obj
 0001:0000feb8       EF_IMMEDIATERETURN         0000000180010eb8     win.obj
 0001:0000fec0       EF_DELETEONLYFILEONCLOSE   0000000180010ec0     win.obj
 0001:0000fec8       EF_LOCKED                  0000000180010ec8     win.obj
 0001:0000fed0       MLF_SHOWERRMSG             0000000180010ed0     win.obj
 0001:0000fed8       EF_DISABLESAVEPOS          0000000180010ed8     win.obj
 0001:0000fee0       MLF_DONOTUPDATEPANEL       0000000180010ee0     win.obj
 0001:0000fee8       EF_OPENMODE_MASK           0000000180010ee8     win.obj
 0001:0000fef0       EF_OPENMODE_QUERY          0000000180010ef0     win.obj
 0001:0000fef8       MLF_HOLDTARGET             0000000180010ef8     win.obj
 0001:0000ff00       EF_OPENMODE_NEWIFOPEN      0000000180010f00     win.obj
 0001:0000ff08       MLF_NONE                   0000000180010f08     win.obj
 0001:0000ff10       EF_OPENMODE_USEEXISTING    0000000180010f10     win.obj
 0001:0000ff18       EF_OPENMODE_BREAKIFOPEN    0000000180010f18     win.obj
 0001:0000ff20       EF_OPENMODE_RELOADIFOPEN   0000000180010f20     win.obj
 0001:0000ff28       EN_NONE                    0000000180010f28     win.obj
 0001:0000ff30       FFFS_COMMAS                0000000180010f30     win.obj
 0001:0000ff38       FHELP_NOSHOWERROR          0000000180010f38     win.obj
 0001:0000ff40       FFFS_FLOATSIZE             0000000180010f40     win.obj
 0001:0000ff48       FHELP_SELFHELP             0000000180010f48     win.obj
 0001:0000ff50       FFFS_SHOWBYTESINDEX        0000000180010f50     win.obj
 0001:0000ff58       FFFS_ECONOMIC              0000000180010f58     win.obj
 0001:0000ff60       FHELP_FARHELP              0000000180010f60     win.obj
 0001:0000ff68       FHELP_CUSTOMFILE           0000000180010f68     win.obj
 0001:0000ff70       FFFS_THOUSAND              0000000180010f70     win.obj
 0001:0000ff78       FHELP_CUSTOMPATH           0000000180010f78     win.obj
 0001:0000ff80       FFFS_MINSIZEINDEX          0000000180010f80     win.obj
 0001:0000ff88       FFFS_MINSIZEINDEX_MASK     0000000180010f88     win.obj
 0001:0000ff90       FHELP_GUID                 0000000180010f90     win.obj
 0001:0000ff98       FHELP_USECONTENTS          0000000180010f98     win.obj
 0001:00010140       FHELP_NONE                 0000000180011140     win.obj
 0001:00010148       KMFLAGS_SILENTCHECK        0000000180011148     win.obj
 0001:00010150       KMFLAGS_NOSENDKEYSTOPLUGINS 0000000180011150     win.obj
 0001:00010158       KMFLAGS_ENABLEOUTPUT       0000000180011158     win.obj
 0001:00010160       KMFLAGS_LANGMASK           0000000180011160     win.obj
 0001:00010168       KMFLAGS_LUA                0000000180011168     win.obj
 0001:00010170       KMFLAGS_MOONSCRIPT         0000000180011170     win.obj
 0001:00010178       KMFLAGS_NONE               0000000180011178     win.obj
 0001:00010180       AKMFLAGS_NONE              0000000180011180     win.obj
 0001:00010188       FSETCLR_REDRAW             0000000180011188     win.obj
 0001:00010190       FSETCLR_NONE               0000000180011190     win.obj
 0001:00010198       PF_PRELOAD                 0000000180011198     win.obj
 0001:000101a0       PF_DISABLEPANELS           00000001800111a0     win.obj
 0001:000101a8       PF_EDITOR                  00000001800111a8     win.obj
 0001:000101b0       PF_VIEWER                  00000001800111b0     win.obj
 0001:000101b8       PF_FULLCMDLINE             00000001800111b8     win.obj
 0001:000101c0       PF_DIALOG                  00000001800111c0     win.obj
 0001:000101c8       PF_NONE                    00000001800111c8     win.obj
 0001:000101d0       WIF_MODIFIED               00000001800111d0     win.obj
 0001:000101d8       WIF_CURRENT                00000001800111d8     win.obj
 0001:000101e0       WIF_MODAL                  00000001800111e0     win.obj
 0001:000101e8       VOPT_SAVEFILEPOSITION      00000001800111e8     win.obj
 0001:000101f0       VOPT_AUTODETECTCODEPAGE    00000001800111f0     win.obj
 0001:000101f8       VOPT_NONE                  00000001800111f8     win.obj
 0001:00010200       VSMFL_REDRAW               0000000180011200     win.obj
 0001:00010208       IPLFLAGS_SEPARATOR         0000000180011208     win.obj
 0001:00010210       VSP_NOREDRAW               0000000180011210     win.obj
 0001:00010218       VSP_PERCENT                0000000180011218     win.obj
 0001:00010220       PMFLAGS_FULLSCREEN         0000000180011220     win.obj
 0001:00010228       VSP_RELATIVE               0000000180011228     win.obj
 0001:00010230       VSP_NORETNEWPOS            0000000180011230     win.obj
 0001:00010238       PMFLAGS_DETAILEDSTATUS     0000000180011238     win.obj
 0001:00010240       PMFLAGS_ALIGNEXTENSIONS    0000000180011240     win.obj
 0001:00010248       PMFLAGS_CASECONVERSION     0000000180011248     win.obj
 0001:00010250       VMF_WRAP                   0000000180011250     win.obj
 0001:00010258       VMF_WORDWRAP               0000000180011258     win.obj
 0001:00010260       OPIF_DISABLEFILTER         0000000180011260     win.obj
 0001:00010268       OPIF_DISABLESORTGROUPS     0000000180011268     win.obj
 0001:00010270       OPIF_DISABLEHIGHLIGHTING   0000000180011270     win.obj
 0001:00010278       OPIF_ADDDOTS               0000000180011278     win.obj
 0001:00010280       OPIF_RAWSELECTION          0000000180011280     win.obj
 0001:00010288       OPIF_REALNAMES             0000000180011288     win.obj
 0001:00010290       OPIF_SHOWNAMESONLY         0000000180011290     win.obj
 0001:00010298       OPIF_SHOWRIGHTALIGNNAMES   0000000180011298     win.obj
 0001:000102a0       OPIF_SHOWPRESERVECASE      00000001800112a0     win.obj
 0001:000102a8       OPIF_COMPAREFATTIME        00000001800112a8     win.obj
 0001:000102b0       OPIF_EXTERNALGET           00000001800112b0     win.obj
 0001:000102b8       OPIF_EXTERNALPUT           00000001800112b8     win.obj
 0001:000102c0       FCF_FG_4BIT                00000001800112c0     win.obj
 0001:000102c8       FCF_BG_4BIT                00000001800112c8     win.obj
 0001:000102d0       OPIF_EXTERNALDELETE        00000001800112d0     win.obj
 0001:000102d8       FCF_4BITMASK               00000001800112d8     win.obj
 0001:000102e0       OPIF_EXTERNALMKDIR         00000001800112e0     win.obj
 0001:000102e8       FCF_RAWATTR_MASK           00000001800112e8     win.obj
 0001:000102f0       OPIF_USEATTRHIGHLIGHTING   00000001800112f0     win.obj
 0001:000102f8       FCF_EXTENDEDFLAGS          00000001800112f8     win.obj
 0001:00010300       OPIF_USECRC32              0000000180011300     win.obj
 0001:00010308       FCF_FG_BOLD                0000000180011308     win.obj
 0001:00010310       OPIF_USEFREESIZE           0000000180011310     win.obj
 0001:00010318       FCF_FG_ITALIC              0000000180011318     win.obj
 0001:00010320       OPIF_SHORTCUT              0000000180011320     win.obj
 0001:00010328       OPIF_NONE                  0000000180011328     win.obj
 0001:00010330       FCF_FG_UNDERLINE           0000000180011330     win.obj
 0001:00010338       FCF_STYLEMASK              0000000180011338     win.obj
 0001:00010340       FCF_NONE                   0000000180011340     win.obj
 0001:00010348       OPM_SILENT                 0000000180011348     win.obj
 0001:00010350       OPM_FIND                   0000000180011350     win.obj
 0001:00010358       OPM_VIEW                   0000000180011358     win.obj
 0001:00010360       OPM_EDIT                   0000000180011360     win.obj
 0001:00010368       OPM_TOPLEVEL               0000000180011368     win.obj
 0001:00010370       OPM_DESCR                  0000000180011370     win.obj
 0001:00010378       OPM_QUICKVIEW              0000000180011378     win.obj
 0001:00010380       OPM_PGDN                   0000000180011380     win.obj
 0001:00010388       CDF_NONE                   0000000180011388     win.obj
 0001:00010390       OPM_COMMANDS               0000000180011390     win.obj
 0001:00010398       OPM_NONE                   0000000180011398     win.obj
 0001:000103a0       FMSG_WARNING               00000001800113a0     win.obj
 0001:000103a8       FMSG_ERRORTYPE             00000001800113a8     win.obj
 0001:000103b0       FMSG_KEEPBACKGROUND        00000001800113b0     win.obj
 0001:000103b8       FMSG_LEFTALIGN             00000001800113b8     win.obj
 0001:000103c0       FMSG_ALLINONE              00000001800113c0     win.obj
 0001:000103c8       FMSG_MB_OK                 00000001800113c8     win.obj
 0001:000103d0       FMSG_MB_OKCANCEL           00000001800113d0     win.obj
 0001:000103d8       FMSG_MB_ABORTRETRYIGNORE   00000001800113d8     win.obj
 0001:000103e0       FMSG_MB_YESNO              00000001800113e0     win.obj
 0001:000103e8       FMSG_MB_YESNOCANCEL        00000001800113e8     win.obj
 0001:000103f0       FMSG_MB_RETRYCANCEL        00000001800113f0     win.obj
 0001:000103f8       FMSG_NONE                  00000001800113f8     win.obj
 0001:00010400       FOSF_ACTIVE                0000000180011400     win.obj
 0001:00010408       FOSF_NONE                  0000000180011408     win.obj
 0001:00010410       DIF_BOXCOLOR               0000000180011410     win.obj
 0001:00010418       DIF_GROUP                  0000000180011418     win.obj
 0001:00010420       DIF_LEFTTEXT               0000000180011420     win.obj
 0001:00010428       DIF_MOVESELECT             0000000180011428     win.obj
 0001:00010430       DIF_SHOWAMPERSAND          0000000180011430     win.obj
 0001:00010438       DIF_CENTERGROUP            0000000180011438     win.obj
 0001:00010440       DIF_NOBRACKETS             0000000180011440     win.obj
 0001:00010448       DIF_MANUALADDHISTORY       0000000180011448     win.obj
 0001:00010450       DIF_SEPARATOR              0000000180011450     win.obj
 0001:00010458       DIF_SEPARATOR2             0000000180011458     win.obj
 0001:00010460       DIF_EDITOR                 0000000180011460     win.obj
 0001:00010468       DIF_LISTNOAMPERSAND        0000000180011468     win.obj
 0001:00010470       DIF_LISTNOBOX              0000000180011470     win.obj
 0001:00010478       DIF_HISTORY                0000000180011478     win.obj
 0001:00010480       DIF_BTNNOCLOSE             0000000180011480     win.obj
 0001:00010488       DIF_CENTERTEXT             0000000180011488     win.obj
 0001:00010860       ?module_names@?A0x61ce2399@@3QBQEB_WB 0000000180011860     libvcruntime:winapi_downlevel.obj
 0001:0001092c       ?candidate_modules@?1??try_get_EventRegister@@YAP6AKPEBU_GUID@@P6AX0KE_K1PEAU_EVENT_FILTER_DESCRIPTOR@@PEAX@Z3PEA_K@ZXZ@4QBW4module_id@?A0x61ce2399@@B 000000018001192c     libvcruntime:winapi_downlevel.obj
 0001:00010940       ?candidate_modules@?1??try_get_EventSetInformation@@YAP6AK_KW4_EVENT_INFO_CLASS@@PEAXK@ZXZ@4QBW4module_id@?A0x61ce2399@@B 0000000180011940     libvcruntime:winapi_downlevel.obj
 0001:0001095c       ?candidate_modules@?1??try_get_EventUnregister@@YAP6AK_K@ZXZ@4QBW4module_id@?A0x61ce2399@@B 000000018001195c     libvcruntime:winapi_downlevel.obj
 0001:00010970       ?candidate_modules@?1??try_get_EventWriteTransfer@@YAP6AK_KPEBU_EVENT_DESCRIPTOR@@PEBU_GUID@@2KPEAU_EVENT_DATA_DESCRIPTOR@@@ZXZ@4QBW4module_id@?A0x61ce2399@@B 0000000180011970     libvcruntime:winapi_downlevel.obj
 0001:00010990       ?candidate_modules@?1??try_get_FlsAlloc@@YAP6AKP6AXPEAX@Z@ZXZ@4QBW4module_id@?A0x61ce2399@@B 0000000180011990     libvcruntime:winapi_downlevel.obj
 0001:000109a8       ?candidate_modules@?1??try_get_FlsFree@@YAP6AHK@ZXZ@4QBW4module_id@?A0x61ce2399@@B 00000001800119a8     libvcruntime:winapi_downlevel.obj
 0001:000109b8       ?candidate_modules@?1??try_get_FlsGetValue@@YAP6APEAXK@ZXZ@4QBW4module_id@?A0x61ce2399@@B 00000001800119b8     libvcruntime:winapi_downlevel.obj
 0001:000109d0       ?candidate_modules@?1??try_get_FlsSetValue@@YAP6AHKPEAX@ZXZ@4QBW4module_id@?A0x61ce2399@@B 00000001800119d0     libvcruntime:winapi_downlevel.obj
 0001:000109e8       ?candidate_modules@?1??try_get_InitializeCriticalSectionEx@@YAP6AHPEAU_RTL_CRITICAL_SECTION@@KK@ZXZ@4QBW4module_id@?A0x61ce2399@@B 00000001800119e8     libvcruntime:winapi_downlevel.obj
 0001:00010ed0       ?rttiTable@@3QBQEBDB       0000000180011ed0     libvcruntime:undname.obj
 0001:00010f00       ?tokenTable@@3QBQEBDB      0000000180011f00     libvcruntime:undname.obj
 0001:00010f70       ?nameTable@@3QBQEBDB       0000000180011f70     libvcruntime:undname.obj
 0001:00011410       errtable                   0000000180012410     libucrt:errno.obj
 0001:000115c0       ?default_cmd_exe@?8???$common_popen_nolock@_W@@YAPEAU_iobuf@@QEB_W0HAEAY01H@Z@4QB_WB 00000001800125c0     libucrt:popen.obj
 0001:000115d0       ?slash_c@?8???$common_popen_nolock@_W@@YAPEAU_iobuf@@QEB_W0HAEAY01H@Z@4QB_WB 00000001800125d0     libucrt:popen.obj
 0001:000115e0       ?comspec_name@?1???$get_comspec@_W@@YAPEB_WXZ@4QB_WB 00000001800125e0     libucrt:popen.obj
 0001:000115f0       ?backslash@?L@???$get_executable_path@_W@@YAPEB_WQEB_W@Z@4QB_WB 00000001800125f0     libucrt:popen.obj
 0001:000115f8       ?path_name@?1???$get_path@_W@@YAPEB_WXZ@4QB_WB 00000001800125f8     libucrt:popen.obj
 0001:00012200       ?comspec_name@?1???$common_system@_W@@YAHQEB_W@Z@4QB_WB 0000000180013200     libucrt:system.obj
 0001:00012210       ?cmd_exe@?1???$common_system@_W@@YAHQEB_W@Z@4QB_WB 0000000180013210     libucrt:system.obj
 0001:00012220       ?slash_c@?1???$common_system@_W@@YAHQEB_W@Z@4QB_WB 0000000180013220     libucrt:system.obj
 0001:00012330       __acrt_initializers        0000000180013330     libucrt:initialization.obj
 0001:00012b40       __real@433fffffffffffff    0000000180013b40     libucrt:fpsr.obj
 0001:00012b48       __real@c33fffffffffffff    0000000180013b48     libucrt:fpsr.obj
 0001:00013050       module_names               0000000180014050     libucrt:winapi_thunks.obj
 0001:00013580       ?candidate_modules@?1??try_get_AreFileApisANSI@@YAP6AHXZXZ@4QBW4module_id@?A0x63058377@@B 0000000180014580     libucrt:winapi_thunks.obj
 0001:00013598       ?candidate_modules@?1??try_get_CompareStringEx@@YAP6AHPEB_WK0H0HPEAU_nlsversioninfo@@PEAX_J@ZXZ@4QBW4module_id@?A0x63058377@@B 0000000180014598     libucrt:winapi_thunks.obj
 0001:000135b0       ?candidate_modules@?1??try_get_FlsAlloc@@YAP6AKP6AXPEAX@Z@ZXZ@4QBW4module_id@?A0x63058377@@B 00000001800145b0     libucrt:winapi_thunks.obj
 0001:000135b8       ?candidate_modules@?1??try_get_FlsFree@@YAP6AHK@ZXZ@4QBW4module_id@?A0x63058377@@B 00000001800145b8     libucrt:winapi_thunks.obj
 0001:000135c0       ?candidate_modules@?1??try_get_FlsGetValue@@YAP6APEAXK@ZXZ@4QBW4module_id@?A0x63058377@@B 00000001800145c0     libucrt:winapi_thunks.obj
 0001:000135c8       ?candidate_modules@?1??try_get_FlsSetValue@@YAP6AHKPEAX@ZXZ@4QBW4module_id@?A0x63058377@@B 00000001800145c8     libucrt:winapi_thunks.obj
 0001:000135d0       ?candidate_modules@?1??try_get_GetCurrentPackageId@@YAP6AJPEAIPEAE@ZXZ@4QBW4module_id@?A0x63058377@@B 00000001800145d0     libucrt:winapi_thunks.obj
 0001:000135f0       ?candidate_modules@?1??try_get_InitializeCriticalSectionEx@@YAP6AHPEAU_RTL_CRITICAL_SECTION@@KK@ZXZ@4QBW4module_id@?A0x63058377@@B 00000001800145f0     libucrt:winapi_thunks.obj
 0001:000135f8       ?candidate_modules@?1??try_get_LCMapStringEx@@YAP6AHPEB_WK0HPEA_WHPEAU_nlsversioninfo@@PEAX_J@ZXZ@4QBW4module_id@?A0x63058377@@B 00000001800145f8     libucrt:winapi_thunks.obj
 0001:00013610       ?candidate_modules@?1??try_get_LocaleNameToLCID@@YAP6AKPEB_WK@ZXZ@4QBW4module_id@?A0x63058377@@B 0000000180014610     libucrt:winapi_thunks.obj
 0001:00013e34       ?dot_slash@?CD@???$common_spawnv@_W@@YA_JHQEB_WQEBQEB_W1@Z@4QB_WB 0000000180014e34     libucrt:spawnv.obj
 0001:00013e40       ?extensions@?DB@???$common_spawnv@_W@@YA_JHQEB_WQEBQEB_W1@Z@4QAY04$$CB_WA 0000000180014e40     libucrt:spawnv.obj
 0001:00013e68       _mb_locale_names           0000000180014e68     libucrt:mbctype.obj
 0001:00013ef0       LcidToLocaleNameTable      0000000180014ef0     libucrt:lcidtoname_downlevel.obj
 0001:00015940       LocaleNameToIndexTable     0000000180016940     libucrt:lcidtoname_downlevel.obj
 0001:000171d4       ?equal_sign@?BP@???$construct_environment_block@_W@@YAHQEBQEB_WQEAPEA_W@Z@4QB_WB 00000001800181d4     libucrt:cenvarg.obj
 0001:000171e0       __real_ninf                00000001800181e0     libucrt:log10.obj
 0001:000171f0       __real_inf                 00000001800181f0     libucrt:log10.obj
 0001:00017200       __real_neg_qnan            0000000180018200     libucrt:log10.obj
 0001:00017210       __real_qnanbit             0000000180018210     libucrt:log10.obj
 0001:00017220       __int_1023                 0000000180018220     libucrt:log10.obj
 0001:00017230       __mask_001                 0000000180018230     libucrt:log10.obj
 0001:00017240       __mask_mant                0000000180018240     libucrt:log10.obj
 0001:00017250       __mask_mant_top8           0000000180018250     libucrt:log10.obj
 0001:00017260       __mask_mant9               0000000180018260     libucrt:log10.obj
 0001:00017270       __real_log10_e             0000000180018270     libucrt:log10.obj
 0001:00017280       __real_log10_e_lead        0000000180018280     libucrt:log10.obj
 0001:00017290       __real_log10_e_tail        0000000180018290     libucrt:log10.obj
 0001:000172a0       __real_log10_2_lead        00000001800182a0     libucrt:log10.obj
 0001:000172b0       __real_log10_2_tail        00000001800182b0     libucrt:log10.obj
 0001:000172c0       __real_two                 00000001800182c0     libucrt:log10.obj
 0001:000172d0       __real_one                 00000001800182d0     libucrt:log10.obj
 0001:000172e0       __real_half                00000001800182e0     libucrt:log10.obj
 0001:000172f0       __mask_100                 00000001800182f0     libucrt:log10.obj
 0001:00017300       __real_1_over_512          0000000180018300     libucrt:log10.obj
 0001:00017310       __real_1_over_2            0000000180018310     libucrt:log10.obj
 0001:00017320       __real_1_over_3            0000000180018320     libucrt:log10.obj
 0001:00017330       __real_1_over_4            0000000180018330     libucrt:log10.obj
 0001:00017340       __real_1_over_5            0000000180018340     libucrt:log10.obj
 0001:00017350       __real_1_over_6            0000000180018350     libucrt:log10.obj
 0001:00017360       __real_neg_1023            0000000180018360     libucrt:log10.obj
 0001:00017370       __mask_2045                0000000180018370     libucrt:log10.obj
 0001:00017380       __real_threshold           0000000180018380     libucrt:log10.obj
 0001:00017390       __real_near_one_lt         0000000180018390     libucrt:log10.obj
 0001:000173a0       __real_near_one_gt         00000001800183a0     libucrt:log10.obj
 0001:000173b0       __real_min_norm            00000001800183b0     libucrt:log10.obj
 0001:000173c0       __real_notsign             00000001800183c0     libucrt:log10.obj
 0001:000173d0       __real_ca1                 00000001800183d0     libucrt:log10.obj
 0001:000173e0       __real_ca2                 00000001800183e0     libucrt:log10.obj
 0001:000173f0       __real_ca3                 00000001800183f0     libucrt:log10.obj
 0001:00017400       __real_ca4                 0000000180018400     libucrt:log10.obj
 0001:00017410       __mask_lower               0000000180018410     libucrt:log10.obj
 0001:00017420       __flag_x_zero              0000000180018420     libucrt:log10.obj
 0001:00017424       __flag_x_neg               0000000180018424     libucrt:log10.obj
 0001:00017428       __flag_x_nan               0000000180018428     libucrt:log10.obj
 0001:00018c78       GS_ExceptionPointers       0000000180019c78     LIBCMT:gs_report.obj
 0001:00018d58       ?_TlgEvent@?3??__telemetry_main_invoke_trigger@@9@4U<unnamed-type-_TlgEvent>@?3??1@YAXQEAUHINSTANCE__@@@Z@B 0000000180019d58     libvcruntime:telemetry.obj
 0001:00018d94       ?_TlgEvent@?3??__telemetry_main_return_trigger@@9@4U<unnamed-type-_TlgEvent>@?3??1@YAXQEAUHINSTANCE__@@@Z@B 0000000180019d94     libvcruntime:telemetry.obj
 0001:00018dcf       ?_Tlg_Microsoft_CRTProviderProv_Meta@@3U<unnamed-type-_Tlg_Microsoft_CRTProviderProv_Meta>@@B 0000000180019dcf     libvcruntime:telemetry.obj
 0001:00019310       $$000000                   000000018001a310     chkstk.obj
 0001:00019380       band                       000000018001a380 f   bit64.obj
 0001:000195f0       bor                        000000018001a5f0 f   bit64.obj
 0001:00019860       bxor                       000000018001a860 f   bit64.obj
 0001:00019ad0       bnot                       000000018001aad0 f   bit64.obj
 0001:00019be0       lshift                     000000018001abe0 f   bit64.obj
 0001:00019cf0       rshift                     000000018001acf0 f   bit64.obj
 0001:00019e00       arshift                    000000018001ae00 f   bit64.obj
 0001:00019f10       f_new                      000000018001af10 f   bit64.obj
 0001:0001a120       f_tostring                 000000018001b120 f   bit64.obj
 0001:0001a230       f_type                     000000018001b230 f   bit64.obj
 0001:0001a2d0       f_add                      000000018001b2d0 f   bit64.obj
 0001:0001a540       f_sub                      000000018001b540 f   bit64.obj
 0001:0001a710       f_mul                      000000018001b710 f   bit64.obj
 0001:0001a980       f_div                      000000018001b980 f   bit64.obj
 0001:0001ab80       f_mod                      000000018001bb80 f   bit64.obj
 0001:0001ad50       f_unm                      000000018001bd50 f   bit64.obj
 0001:0001ae60       f_eq                       000000018001be60 f   bit64.obj
 0001:0001b040       f_lt                       000000018001c040 f   bit64.obj
 0001:0001b220       f_le                       000000018001c220 f   bit64.obj
 0001:0001b6c0       CheckReloadDefaultScript   000000018001c6c0 f   exported.obj
 0001:0001b8d0       FillFarMacroCall           000000018001c8d0 f   exported.obj
 0001:0001bb00       FillFarMacroCall_Callback  000000018001cb00 f   exported.obj
 0001:0001efe0       PushAnalyseInfo            000000018001ffe0 f   exported.obj
 0001:0001f190       RegisterObject             0000000180020190 f   exported.obj
 0001:0001f240       RunDefaultScript           0000000180020240 f   exported.obj
 0001:0001fd40       errfile                    0000000180020d40 f   lflua.obj
 0001:0001fdc0       getF                       0000000180020dc0 f   lflua.obj
 0001:000210d0       FL_PushParams              00000001800220d0 f   luamacro.obj
 0001:00021170       InitMPR                    0000000180022170 f   luamacro.obj
 0001:000211e0       MacroCallFarCallback       00000001800221e0 f   luamacro.obj
 0001:00021890       uc_tostring                0000000180022890 f   lusercontrol.obj
 0001:00021910       uc_index                   0000000180022910 f   lusercontrol.obj
 0001:000219d0       uc_newindex                00000001800229d0 f   lusercontrol.obj
 0001:00021ae0       uc_New                     0000000180022ae0 f   lusercontrol.obj
 0001:00021bd0       push_far_usercontrol       0000000180022bd0 f   lusercontrol.obj
 0001:00021eb0       far_FormatFileSize         0000000180022eb0 f   service.obj
 0001:00021fe0       dialog_rawhandle           0000000180022fe0 f   service.obj
 0001:00022030       far_FarClock               0000000180023030 f   service.obj
 0001:00022080       far_GetDlgItem             0000000180023080 f   service.obj
 0001:00022120       far_GetFileOwner           0000000180023120 f   service.obj
 0001:000221d0       far_SetDlgItem             00000001800231d0 f   service.obj
 0001:00022270       far_GetNumberOfLinks       0000000180023270 f   service.obj
 0001:000222d0       far_Message                00000001800232d0 f   service.obj
 0001:00022490       far_SubscribeDialogDrawEvents 0000000180023490 f   service.obj
 0001:000224b0       editor_Editor              00000001800234b0 f   service.obj
 0001:00022630       far_Timer                  0000000180023630 f   service.obj
 0001:00022800       viewer_Viewer              0000000180023800 f   service.obj
 0001:00022950       panel_CheckPanelsExist     0000000180023950 f   service.obj
 0001:000229b0       panel_ClosePanel           00000001800239b0 f   service.obj
 0001:00022a20       viewer_GetFileName         0000000180023a20 f   service.obj
 0001:00022af0       panel_GetPanelInfo         0000000180023af0 f   service.obj
 0001:00022d40       timer_Close                0000000180023d40 f   service.obj
 0001:00022d70       viewer_GetInfo             0000000180023d70 f   service.obj
 0001:00023030       timer_tostring             0000000180024030 f   service.obj
 0001:00023090       timer_index                0000000180024090 f   service.obj
 0001:00023210       viewer_Quit                0000000180024210 f   service.obj
 0001:00023270       viewer_Redraw              0000000180024270 f   service.obj
 0001:000232d0       viewer_Select              00000001800242d0 f   service.obj
 0001:00023380       timer_newindex             0000000180024380 f   service.obj
 0001:000234e0       panel_GetPanelItem         00000001800244e0 f   service.obj
 0001:000234f0       panel_GetSelectedPanelItem 00000001800244f0 f   service.obj
 0001:00023500       viewer_SetPosition         0000000180024500 f   service.obj
 0001:000236c0       panel_GetCurrentPanelItem  00000001800246c0 f   service.obj
 0001:000236d0       far_PluginStartupInfo      00000001800246d0 f   service.obj
 0001:000237a0       viewer_SetMode             00000001800247a0 f   service.obj
 0001:000238d0       far_CreateSettings         00000001800248d0 f   service.obj
 0001:00023aa0       panel_GetPanelFormat       0000000180024aa0 f   service.obj
 0001:00023ab0       panel_GetPanelHostFile     0000000180024ab0 f   service.obj
 0001:00023ac0       far_GetCurrentDirectory    0000000180024ac0 f   service.obj
 0001:00023b40       panel_GetColumnTypes       0000000180024b40 f   service.obj
 0001:00023b50       far_ShowHelp               0000000180024b50 f   service.obj
 0001:00023c10       panel_GetColumnWidths      0000000180024c10 f   service.obj
 0001:00023c20       panel_GetPanelPrefix       0000000180024c20 f   service.obj
 0001:00023c30       far_InputBox               0000000180024c30 f   service.obj
 0001:00023e10       panel_RedrawPanel          0000000180024e10 f   service.obj
 0001:00023f20       editor_GetFileName         0000000180024f20 f   service.obj
 0001:00023ff0       editor_GetInfo             0000000180024ff0 f   service.obj
 0001:00024360       far_GetMsg                 0000000180025360 f   service.obj
 0001:000243e0       Settings_set               00000001800253e0 f   service.obj
 0001:000245d0       panel_SetCaseSensitiveSort 00000001800255d0 f   service.obj
 0001:000245e0       panel_SetNumericSort       00000001800255e0 f   service.obj
 0001:000245f0       far_Text                   00000001800255f0 f   service.obj
 0001:000246a0       panel_SetSortOrder         00000001800256a0 f   service.obj
 0001:000246b0       panel_SetDirectoriesFirst  00000001800256b0 f   service.obj
 0001:000246c0       Settings_get               00000001800256c0 f   service.obj
 0001:00024820       panel_UpdatePanel          0000000180025820 f   service.obj
 0001:00024830       far_CopyToClipboard        0000000180025830 f   service.obj
 0001:00024920       panel_SetSortMode          0000000180025920 f   service.obj
 0001:00024930       panel_SetViewMode          0000000180025930 f   service.obj
 0001:00024940       panel_GetPanelDirectory    0000000180025940 f   service.obj
 0001:00024a90       far_PasteFromClipboard     0000000180025a90 f   service.obj
 0001:00024b70       Settings_delete            0000000180025b70 f   service.obj
 0001:00024c40       Settings_createsubkey      0000000180025c40 f   service.obj
 0001:00024d80       panel_SetPanelDirectory    0000000180025d80 f   service.obj
 0001:00024f60       far_InputRecordToName      0000000180025f60 f   service.obj
 0001:00025160       Settings_opensubkey        0000000180026160 f   service.obj
 0001:00025240       Settings_enum              0000000180026240 f   service.obj
 0001:00025560       panel_GetCmdLine           0000000180026560 f   service.obj
 0001:00025600       far_NameToInputRecord      0000000180026600 f   service.obj
 0001:00025680       editor_GetString           0000000180026680 f   service.obj
 0001:00025690       panel_SetCmdLine           0000000180026690 f   service.obj
 0001:00025710       editor_GetStringW          0000000180026710 f   service.obj
 0001:00025720       far_LStricmp               0000000180026720 f   service.obj
 0001:000257a0       panel_GetCmdLinePos        00000001800267a0 f   service.obj
 0001:00025820       far_LStrnicmp              0000000180026820 f   service.obj
 0001:000258c0       panel_SetCmdLinePos        00000001800268c0 f   service.obj
 0001:00025940       Settings_free              0000000180026940 f   service.obj
 0001:000259e0       far_ProcessName            00000001800269e0 f   service.obj
 0001:00025bf0       panel_InsertCmdLine        0000000180026bf0 f   service.obj
 0001:00025c70       editor_SetString           0000000180026c70 f   service.obj
 0001:00025c80       editor_SetStringW          0000000180026c80 f   service.obj
 0001:00025c90       panel_GetCmdLineSelection  0000000180026c90 f   service.obj
 0001:00025d40       far_FreeSettings           0000000180026d40 f   service.obj
 0001:00025de0       editor_InsertString        0000000180026de0 f   service.obj
 0001:00025e60       Settings_tostring          0000000180026e60 f   service.obj
 0001:00025ec0       editor_DeleteString        0000000180026ec0 f   service.obj
 0001:00025f20       panel_SetCmdLineSelection  0000000180026f20 f   service.obj
 0001:00025fe0       far_ColorDialog            0000000180026fe0 f   service.obj
 0001:00026130       far_GetReparsePointInfo    0000000180027130 f   service.obj
 0001:000261d0       far_LIsAlpha               00000001800271d0 f   service.obj
 0001:00026230       far_LIsAlphanum            0000000180027230 f   service.obj
 0001:00026290       editor_InsertText          0000000180027290 f   service.obj
 0001:00026310       far_LIsLower               0000000180027310 f   service.obj
 0001:00026370       editor_InsertTextW         0000000180027370 f   service.obj
 0001:00026380       editor_DeleteChar          0000000180027380 f   service.obj
 0001:000263f0       far_LIsUpper               00000001800273f0 f   service.obj
 0001:00026450       panel_SetSelection         0000000180027450 f   service.obj
 0001:00026460       panel_ClearSelection       0000000180027460 f   service.obj
 0001:00026470       editor_DeleteBlock         0000000180027470 f   service.obj
 0001:000264e0       panel_SetUserScreen        00000001800274e0 f   service.obj
 0001:00026540       editor_UndoRedo            0000000180027540 f   service.obj
 0001:00026600       panel_GetUserScreen        0000000180027600 f   service.obj
 0001:00026660       far_LLowerBuf              0000000180027660 f   service.obj
 0001:000266d0       far_LUpperBuf              00000001800276d0 f   service.obj
 0001:00026740       panel_IsActivePanel        0000000180027740 f   service.obj
 0001:000267a0       far_MkTemp                 00000001800277a0 f   service.obj
 0001:00026830       panel_SetActivePanel       0000000180027830 f   service.obj
 0001:000268d0       far_GetDirList             00000001800278d0 f   service.obj
 0001:00026c20       far_MkLink                 0000000180027c20 f   service.obj
 0001:00026d00       far_GetPathRoot            0000000180027d00 f   service.obj
 0001:00026da0       far_GetPluginDirList       0000000180027da0 f   service.obj
 0001:00026e40       far_RestoreScreen          0000000180027e40 f   service.obj
 0001:00026ed0       editor_SetKeyBar           0000000180027ed0 f   service.obj
 0001:00026ee0       far_SaveScreen             0000000180027ee0 f   service.obj
 0001:00026fc0       viewer_SetKeyBar           0000000180027fc0 f   service.obj
 0001:00026fd0       far_TruncPathStr           0000000180027fd0 f   service.obj
 0001:00026fe0       editor_SetParam            0000000180027fe0 f   service.obj
 0001:000271f0       far_TruncStr               00000001800281f0 f   service.obj
 0001:00027200       editor_SetPosition         0000000180028200 f   service.obj
 0001:00027330       far_RecursiveSearch        0000000180028330 f   service.obj
 0001:00027480       editor_Redraw              0000000180028480 f   service.obj
 0001:000274e0       editor_ExpandTabs          00000001800284e0 f   service.obj
 0001:00027560       far_ConvertPath            0000000180028560 f   service.obj
 0001:00027640       far_AdvControl             0000000180028640 f   service.obj
 0001:00027ec0       $LN82                      0000000180028ec0     service.obj
 0001:00027f40       editor_GetBookmarks        0000000180028f40 f   service.obj
 0001:00027f50       editor_GetSessionBookmarks 0000000180028f50 f   service.obj
 0001:00027f60       editor_AddSessionBookmark  0000000180028f60 f   service.obj
 0001:00027fd0       editor_ClearSessionBookmarks 0000000180028fd0 f   service.obj
 0001:00028040       editor_DeleteSessionBookmark 0000000180029040 f   service.obj
 0001:000280c0       editor_NextSessionBookmark 00000001800290c0 f   service.obj
 0001:00028130       editor_PrevSessionBookmark 0000000180029130 f   service.obj
 0001:000281a0       editor_SetTitle            00000001800291a0 f   service.obj
 0001:00028220       editor_GetTitle            0000000180029220 f   service.obj
 0001:000282d0       editor_Quit                00000001800292d0 f   service.obj
 0001:00028330       far_MacroLoadAll           0000000180029330 f   service.obj
 0001:00028400       editor_Select              0000000180029400 f   service.obj
 0001:00028530       far_MacroSaveAll           0000000180029530 f   service.obj
 0001:00028580       far_MacroGetState          0000000180029580 f   service.obj
 0001:000285d0       editor_GetSelection        00000001800295d0 f   service.obj
 0001:000289a0       far_MacroGetArea           00000001800299a0 f   service.obj
 0001:000289f0       far_MacroPost              00000001800299f0 f   service.obj
 0001:00028a00       far_MacroCheck             0000000180029a00 f   service.obj
 0001:00028a10       far_MacroGetLastError      0000000180029a10 f   service.obj
 0001:00028b10       far_SendDlgMessage         0000000180029b10 f   service.obj
 0001:00029d64       $LN160                     000000018002ad64     service.obj
 0001:00029d70       $LN159                     000000018002ad70     service.obj
 0001:00029db4       $LN158                     000000018002adb4     service.obj
 0001:00029e3c       $LN157                     000000018002ae3c     service.obj
 0001:00029e80       editor_TabToReal           000000018002ae80 f   service.obj
 0001:00029e90       editor_RealToTab           000000018002ae90 f   service.obj
 0001:00029ea0       far_MacroAdd               000000018002aea0 f   service.obj
 0001:0002a140       far_MacroDelete            000000018002b140 f   service.obj
 0001:0002a200       far_MacroExecute           000000018002b200 f   service.obj
 0001:0002a380       editor_AddColor            000000018002b380 f   service.obj
 0001:0002a560       editor_DelColor            000000018002b560 f   service.obj
 0001:0002a680       far_CPluginStartupInfo     000000018002b680 f   service.obj
 0001:0002a6b0       editor_GetColor            000000018002b6b0 f   service.obj
 0001:0002a8a0       far_MakeMenuItems          000000018002b8a0 f   service.obj
 0001:0002ac40       editor_SaveFile            000000018002bc40 f   service.obj
 0001:0002acf0       editor_ReadInput           000000018002bcf0 f   service.obj
 0001:0002ad70       far_Show                   000000018002bd70 f   service.obj
 0001:0002ae20       editor_ProcessInput        000000018002be20 f   service.obj
 0001:0002aeb0       far_CreateFileFilter       000000018002beb0 f   service.obj
 0001:0002af90       editor_SubscribeChangeEvent 000000018002bf90 f   service.obj
 0001:0002b020       far_Menu                   000000018002c020 f   service.obj
 0001:0002b900       filefilter_Free            000000018002c900 f   service.obj
 0001:0002b990       filefilter_gc              000000018002c990 f   service.obj
 0001:0002b9a0       filefilter_tostring        000000018002c9a0 f   service.obj
 0001:0002ba00       filefilter_OpenMenu        000000018002ca00 f   service.obj
 0001:0002ba90       filefilter_Starting        000000018002ca90 f   service.obj
 0001:0002bb20       filefilter_IsFileInFilter  000000018002cb20 f   service.obj
 0001:0002bbf0       far_LoadPlugin             000000018002cbf0 f   service.obj
 0001:0002bc00       far_ForcedLoadPlugin       000000018002cc00 f   service.obj
 0001:0002bc10       far_UnloadPlugin           000000018002cc10 f   service.obj
 0001:0002bc80       far_FindPlugin             000000018002cc80 f   service.obj
 0001:0002bd60       far_GetPluginInformation   000000018002cd60 f   service.obj
 0001:0002bff0       far_DialogInit             000000018002cff0 f   service.obj
 0001:0002c380       far_GetPlugins             000000018002d380 f   service.obj
 0001:0002c4a0       far_IsPluginLoaded         000000018002d4a0 f   service.obj
 0001:0002c5b0       far_DialogRun              000000018002d5b0 f   service.obj
 0001:0002c650       far_XLat                   000000018002d650 f   service.obj
 0001:0002c750       far_DialogFree             000000018002d750 f   service.obj
 0001:0002c7c0       dialog_tostring            000000018002d7c0 f   service.obj
 0001:0002c820       AddMacroData_gc            000000018002d820 f   service.obj
 0001:0002c830       ChangePanelSelection       000000018002d830 f   service.obj
 0001:0002ca80       CheckFlags                 000000018002da80 f   service.obj
 0001:0002cad0       CheckFlagsFromTable        000000018002dad0 f   service.obj
 0001:0002ce40       CustomAllocator            000000018002de40 f   service.obj
 0001:0002cf40       FillEditorSelect           000000018002df40 f   service.obj
 0001:0002d040       FillEditorSetPosition      000000018002e040 f   service.obj
 0001:0002d320       FillKeyBarTitles           000000018002e320 f   service.obj
 0001:0002d500       FrsUserFunc                000000018002e500 f   service.obj
 0001:0002d5f0       GetDialogItemType          000000018002e5f0 f   service.obj
 0001:0002daa0       GetItemFlags               000000018002eaa0 f   service.obj
 0001:0002db30       GetMouseEvent              000000018002eb30 f   service.obj
 0001:0002e8e0       MacroSendString            000000018002f8e0 f   service.obj
 0001:0002ecc0       OptInputRecord             000000018002fcc0 f   service.obj
 0001:0002f030       PushBookmarks              0000000180030030 f   service.obj
 0001:0002f280       $LN15                      0000000180030280     service.obj
 0001:0002f28c       $LN14                      000000018003028c     service.obj
 0001:0002f510       $LN32                      0000000180030510     service.obj
 0001:0002f51c       $LN31                      000000018003051c     service.obj
 0001:0002f534       $LN30                      0000000180030534     service.obj
 0001:0002f590       PushDlgItem                0000000180030590 f   service.obj
 0001:0002f6d0       PushDlgItemNum             00000001800306d0 f   service.obj
 0001:0002f9c0       PushList                   00000001800309c0 f   service.obj
 0001:0002ffd0       PushPluginHandle           0000000180030fd0 f   service.obj
 0001:00030120       PutPluginMenuItemToTable   0000000180031120 f   service.obj
 0001:00030240       PutVersionInfoToTable      0000000180031240 f   service.obj
 0001:000302e0       SetDlgItem                 00000001800312e0 f   service.obj
 0001:000303a0       SetFarDialogItem           00000001800313a0 f   service.obj
 0001:00030680       SetKeyBar                  0000000180031680 f   service.obj
 0001:000307d0       SetPanelBooleanProperty    00000001800317d0 f   service.obj
 0001:00030880       SetPanelIntegerProperty    0000000180031880 f   service.obj
 0001:00030a60       _EditorGetString           0000000180031a60 f   service.obj
 0001:00030cf0       _EditorInsertText          0000000180031cf0 f   service.obj
 0001:00030e00       _EditorSetString           0000000180031e00 f   service.obj
 0001:00030f40       _EditorTabConvert          0000000180031f40 f   service.obj
 0001:00031000       check_env_flag             0000000180032000 f   service.obj
 0001:000310e0       free_dialog                00000001800320e0 f   service.obj
 0001:00031140       get_env_flag               0000000180032140 f   service.obj
 0001:00031270       get_panel_item             0000000180032270 f   service.obj
 0001:00031380       get_string_info            0000000180032380 f   service.obj
 0001:00031470       luaopen_far                0000000180032470 f   service.obj
 0001:00031800       plugin_load                0000000180032800 f   service.obj
 0001:00031910       truncstring                0000000180032910 f   service.obj
 0001:00031a00       unic_find                  0000000180032a00 f   slnunico.obj
 0001:00031a10       unic_match                 0000000180032a10 f   slnunico.obj
 0001:00031a20       gmatch                     0000000180032a20 f   slnunico.obj
 0001:00031b00       gfind_nodef                0000000180032b00 f   slnunico.obj
 0001:00031b10       unic_gsub                  0000000180032b10 f   slnunico.obj
 0001:00031d70       str_format                 0000000180032d70 f   slnunico.obj
 0001:000320ec       $LN45                      00000001800330ec     slnunico.obj
 0001:00032108       $LN44                      0000000180033108     slnunico.obj
 0001:00032140       utf8_valid                 0000000180033140 f   slnunico.obj
 0001:00032250       unic_len                   0000000180033250 f   slnunico.obj
 0001:000322f0       unic_sub                   00000001800332f0 f   slnunico.obj
 0001:00032470       str_reverse                0000000180033470 f   slnunico.obj
 0001:000327b0       unic_lower                 00000001800337b0 f   slnunico.obj
 0001:00032950       unic_upper                 0000000180033950 f   slnunico.obj
 0001:00032af0       str_rep                    0000000180033af0 f   slnunico.obj
 0001:00032b80       unic_byte                  0000000180033b80 f   slnunico.obj
 0001:00032d40       unic_char                  0000000180033d40 f   slnunico.obj
 0001:00032e60       str_dump                   0000000180033e60 f   slnunico.obj
 0001:00032f40       add_s                      0000000180033f40 f   slnunico.obj
 0001:00033040       add_value                  0000000180034040 f   slnunico.obj
 0001:000331a0       addquoted                  00000001800341a0 f   slnunico.obj
 0001:000332c0       classend                   00000001800342c0 f   slnunico.obj
 0001:000333a0       end_capture                00000001800343a0 f   slnunico.obj
 0001:00033450       gmatch_aux                 0000000180034450 f   slnunico.obj
 0001:00033560       grab_one_utf8              0000000180034560 f   slnunico.obj
 0001:00033610       lmemfind                   0000000180034610 f   slnunico.obj
 0001:00033850       match                      0000000180034850 f   slnunico.obj
 0001:00033a40       match_capture              0000000180034a40 f   slnunico.obj
 0001:00033ae0       match_class                0000000180034ae0 f   slnunico.obj
 0001:00033c4c       $LN26                      0000000180034c4c     slnunico.obj
 0001:00033cc0       matchbalance               0000000180034cc0 f   slnunico.obj
 0001:00033d60       max_expand                 0000000180034d60 f   slnunico.obj
 0001:00034010       min_expand                 0000000180035010 f   slnunico.obj
 0001:000342e0       push_captures              00000001800352e0 f   slnunico.obj
 0001:000343f0       push_onecapture            00000001800353f0 f   slnunico.obj
 0001:000344b0       scanformat                 00000001800354b0 f   slnunico.obj
 0001:000345e0       singlematch                00000001800355e0 f   slnunico.obj
 0001:00034870       start_capture              0000000180035870 f   slnunico.obj
 0001:00034900       unic_find_aux              0000000180035900 f   slnunico.obj
 0001:00034be0       utf8_count                 0000000180035be0 f   slnunico.obj
 0001:00034cc0       utf8_deco                  0000000180035cc0 f   slnunico.obj
 0001:00034da0       utf8_enco                  0000000180035da0 f   slnunico.obj
 0001:00034eb0       utf8_graphext              0000000180035eb0 f   slnunico.obj
 0001:00035000       writer                     0000000180036000 f   slnunico.obj
 0001:00035020       io_type                    0000000180036020 f   uliolib51.obj
 0001:000350f0       io_close                   00000001800360f0 f   uliolib51.obj
 0001:00035180       io_gc                      0000000180036180 f   uliolib51.obj
 0001:000351e0       io_tostring                00000001800361e0 f   uliolib51.obj
 0001:00035240       io_open                    0000000180036240 f   uliolib51.obj
 0001:00035370       io_popen                   0000000180036370 f   uliolib51.obj
 0001:00035430       io_tmpfile                 0000000180036430 f   uliolib51.obj
 0001:000354e0       io_input                   00000001800364e0 f   uliolib51.obj
 0001:00035500       io_output                  0000000180036500 f   uliolib51.obj
 0001:00035520       f_lines                    0000000180036520 f   uliolib51.obj
 0001:00035590       io_lines                   0000000180036590 f   uliolib51.obj
 0001:00035690       io_read                    0000000180036690 f   uliolib51.obj
 0001:00035700       f_read                     0000000180036700 f   uliolib51.obj
 0001:00035760       io_write                   0000000180036760 f   uliolib51.obj
 0001:000357d0       f_write                    00000001800367d0 f   uliolib51.obj
 0001:00035830       f_seek                     0000000180036830 f   uliolib51.obj
 0001:00035930       f_setvbuf                  0000000180036930 f   uliolib51.obj
 0001:00035a20       io_flush                   0000000180036a20 f   uliolib51.obj
 0001:00035af0       f_flush                    0000000180036af0 f   uliolib51.obj
 0001:00035bc0       fileerror                  0000000180036bc0 f   uliolib51.obj
 0001:00035c90       g_iofile                   0000000180036c90 f   uliolib51.obj
 0001:00035d80       g_read                     0000000180036d80 f   uliolib51.obj
 0001:00035f80       g_write                    0000000180036f80 f   uliolib51.obj
 0001:00036090       io_fclose                  0000000180037090 f   uliolib51.obj
 0001:00036140       io_noclose                 0000000180037140 f   uliolib51.obj
 0001:00036170       io_pclose                  0000000180037170 f   uliolib51.obj
 0001:00036220       io_readline                0000000180037220 f   uliolib51.obj
 0001:00036620       newfile                    0000000180037620 f   uliolib51.obj
 0001:00036670       pushresult                 0000000180037670 f   uliolib51.obj
 0001:00036740       read_chars                 0000000180037740 f   uliolib51.obj
 0001:000367e0       read_line                  00000001800377e0 f   uliolib51.obj
 0001:000368d0       tofile                     00000001800378d0 f   uliolib51.obj
 0001:00036930       ll_loadlib                 0000000180037930 f   uloadlib51.obj
 0001:000369c0       loader_Lua                 00000001800379c0 f   uloadlib51.obj
 0001:00036a20       loader_C                   0000000180037a20 f   uloadlib51.obj
 0001:00036aa0       loader_Croot               0000000180037aa0 f   uloadlib51.obj
 0001:00036b70       loader_preload             0000000180037b70 f   uloadlib51.obj
 0001:00036c00       ll_require                 0000000180037c00 f   uloadlib51.obj
 0001:00036e40       ll_module                  0000000180037e40 f   uloadlib51.obj
 0001:00036fa0       ll_seeall                  0000000180037fa0 f   uloadlib51.obj
 0001:00037020       findfile                   0000000180038020 f   uloadlib51.obj
 0001:000371d0       gctm                       00000001800381d0 f   uloadlib51.obj
 0001:00037220       ll_loadfunc                0000000180038220 f   uloadlib51.obj
 0001:000372c0       ll_register                00000001800382c0 f   uloadlib51.obj
 0001:000373b0       loaderror                  00000001800383b0 f   uloadlib51.obj
 0001:00037710       mkfuncname                 0000000180038710 f   uloadlib51.obj
 0001:00037780       modinit                    0000000180038780 f   uloadlib51.obj
 0001:00037810       pushnexttemplate           0000000180038810 f   uloadlib51.obj
 0001:000378c0       setfenv                    00000001800388c0 f   uloadlib51.obj
 0001:00037950       setprogdir                 0000000180038950 f   uloadlib51.obj
 0001:000385c4       $LN12                      00000001800395c4     ustring.obj
 0001:00038f80       ustring_OutputDebugString  0000000180039f80 f   ustring.obj
 0001:000391b0       ustring_system             000000018003a1b0 f   ustring.obj
 0001:0003a3b0       win_GetEnv                 000000018003b3b0 f   win.obj
 0001:0003a470       win_SetEnv                 000000018003b470 f   win.obj
 0001:0003a4d0       win_SetRegKey              000000018003b4d0 f   win.obj
 0001:0003a700       win_GetRegKey              000000018003b700 f   win.obj
 0001:0003a8c0       win_DeleteRegKey           000000018003b8c0 f   win.obj
 0001:0003a920       win_DeleteRegValue         000000018003b920 f   win.obj
 0001:0003a9e0       win_EnumRegKey             000000018003b9e0 f   win.obj
 0001:0003ab10       win_EnumRegValue           000000018003bb10 f   win.obj
 0001:0003ac40       win_ExtractKey             000000018003bc40 f   win.obj
 0001:0003aca0       win_GetFileInfo            000000018003bca0 f   win.obj
 0001:0003ad10       win_GetSystemTimeAsFileTime 000000018003bd10 f   win.obj
 0001:0003ad40       win_FileTimeToSystemTime   000000018003bd40 f   win.obj
 0001:0003adb0       win_SystemTimeToFileTime   000000018003bdb0 f   win.obj
 0001:0003aed0       win_FileTimeToLocalFileTime 000000018003bed0 f   win.obj
 0001:0003af40       win_CompareString          000000018003bf40 f   win.obj
 0001:0003b0d0       win_wcscmp                 000000018003c0d0 f   win.obj
 0001:0003b150       win_GetVirtualKeys         000000018003c150 f   win.obj
 0001:0003b170       win_GetConsoleScreenBufferInfo 000000018003c170 f   win.obj
 0001:0003b2b0       win_CopyFile               000000018003c2b0 f   win.obj
 0001:0003b350       win_MoveFile               000000018003c350 f   win.obj
 0001:0003b460       win_DeleteFile             000000018003c460 f   win.obj
 0001:0003b4b0       win_CreateDir              000000018003c4b0 f   win.obj
 0001:0003b5d0       win_RemoveDir              000000018003c5d0 f   win.obj
 0001:0003b620       win_ShellExecute           000000018003c620 f   win.obj
 0001:0003b700       CheckHKey                  000000018003c700 f   win.obj
 0001:0003b840       ExtractKey                 000000018003c840 f   win.obj
 0001:0003b8e0       PushWinFindData            000000018003c8e0 f   win.obj
 0001:0003ba40       mkdir                      000000018003ca40 f   win.obj
 0001:0003bc30       pushSystemTime             000000018003cc30 f   win.obj
 0001:0003bf04       ?dllmain_crt_dispatch@@YAHQEAUHINSTANCE__@@KQEAX@Z 000000018003cf04 f   LIBCMT:dll_dllmain.obj
 0001:0003bf54       ?dllmain_crt_process_attach@@YAHQEAUHINSTANCE__@@QEAX@Z 000000018003cf54 f   LIBCMT:dll_dllmain.obj
 0001:0003c080       ?dllmain_crt_process_detach@@YAH_N@Z 000000018003d080 f   LIBCMT:dll_dllmain.obj
 0001:0003c104       ?dllmain_dispatch@@YAHQEAUHINSTANCE__@@KQEAX@Z 000000018003d104 f   LIBCMT:dll_dllmain.obj
 0001:0003c20c       ?dllmain_raw@@YAHQEAUHINSTANCE__@@KQEAX@Z 000000018003d20c f   LIBCMT:dll_dllmain.obj
 0001:0003cbd0       $$000000                   000000018003dbd0     libvcruntime:memcpy.obj
 0001:0003cc77       MoveSmall                  000000018003dc77     libvcruntime:memcpy.obj
 0001:0003d020       $$000000                   000000018003e020     libvcruntime:memset.obj
 0001:0003d10c       MsetTab                    000000018003e10c     libvcruntime:memset.obj
 0001:0003d510       $$000000                   000000018003e510     libvcruntime:memcmp.obj
 0001:0003d72c       _TlgDefineProvider_annotation__Tlg_Microsoft_CRTProviderProv 000000018003e72c f   libvcruntime:telemetry.obj
 0001:0003dc4c       ?try_get_function@@YAPEAXW4function_id@?A0x61ce2399@@QEBDQEBW4module_id@2@2@Z 000000018003ec4c f   libvcruntime:winapi_downlevel.obj
 0001:0003e260       $$000000                   000000018003f260     libvcruntime:_jmpuwind_.obj
 0001:0003ea68       ??R<lambda_0a64b6a4deda75c01876f29c44fc5eb3>@@QEBAHXZ 000000018003fa68 f   libucrt:output.obj
 0001:00041788       ??$common_fsopen@_W@@YAPEAU_iobuf@@QEB_W0H@Z 0000000180042788 f   libucrt:fopen.obj
 0001:00041a18       common_control87           0000000180042a18 f   libucrt:ieee.obj
 0001:00041fd4       ??$common_freopen@_W@@YAHQEAPEAU_iobuf@@QEB_W1V__crt_stdio_stream@@H@Z 0000000180042fd4 f   libucrt:freopen.obj
 0001:00042aa0       $$000000                   0000000180043aa0     libucrt:strncmp.obj
 0001:00042b30       $$000000                   0000000180043b30     libucrt:strcmp.obj
 0001:00042c90       $$000000                   0000000180043c90     libucrt:strncpy.obj
 0001:00042ea4       ??$common_popen@_W@@YAPEAU_iobuf@@QEB_W0@Z 0000000180043ea4 f   libucrt:popen.obj
 0001:0004307c       ??$common_popen_nolock@_W@@YAPEAU_iobuf@@QEB_W0HAEAY01H@Z 000000018004407c f   libucrt:popen.obj
 0001:000433d4       ??$get_executable_path@_W@@YAPEB_WQEB_W@Z 00000001800443d4 f   libucrt:popen.obj
 0001:00043584       ?idtab@@YAPEAUprocess_handle_pair@?A0x13a7efdb@@QEAU_iobuf@@@Z 0000000180044584 f   libucrt:popen.obj
 0001:00043890       common_flush_all           0000000180044890 f   libucrt:fflush.obj
 0001:000439b8       ??$common_fgets@D@@YAPEADQEADHV__crt_stdio_stream@@@Z 00000001800449b8 f   libucrt:fgets.obj
 0001:00043a9c       ?common_fseek@@YAHV__crt_stdio_stream@@_JH@Z 0000000180044a9c f   libucrt:fseek.obj
 0001:00043b08       ?common_fseek_binary_mode_read_only_fast_track_nolock@@YA_NV__crt_stdio_stream@@_JH@Z 0000000180044b08 f   libucrt:fseek.obj
 0001:00043c18       ?common_fseek_nolock@@YAHV__crt_stdio_stream@@_JH@Z 0000000180044c18 f   libucrt:fseek.obj
 0001:00043d18       ??$common_ftell@J@@YAJV__crt_stdio_stream@@@Z 0000000180044d18 f   libucrt:ftell.obj
 0001:00043d84       ??$common_ftell_nolock@_J@@YA_JV__crt_stdio_stream@@@Z 0000000180044d84 f   libucrt:ftell.obj
 0001:00043efc       ?common_ftell_read_mode_nolock@@YA_JV__crt_stdio_stream@@_J1@Z 0000000180044efc f   libucrt:ftell.obj
 0001:00044074       ?common_ftell_translated_utf8_nolock@@YA_JV__crt_stdio_stream@@_J@Z 0000000180045074 f   libucrt:ftell.obj
 0001:0004423c       ??R<lambda_532e024f4337e6fc7ad266c2bef9f4ed>@@QEBA_KXZ 000000018004523c f   libucrt:fwrite.obj
 0001:00044500       ??R<lambda_b721fa326cdb32351d23dfa67958c160>@@QEBAHXZ 0000000180045500 f   libucrt:setvbuf.obj
 0001:00044690       ??$generate_tmpfile_file_name@D@@YA_NQEAD_K@Z 0000000180045690 f   libucrt:tmpfile.obj
 0001:0004472c       ??$get_tmpfile_buffer_nolock@D@@YAPEADW4buffer_id@?A0xe462fda7@@@Z 000000018004572c f   libucrt:tmpfile.obj
 0001:00044770       ??$initialize_tmpfile_buffer_nolock@D@@YA_NW4buffer_id@?A0xe462fda7@@@Z 0000000180045770 f   libucrt:tmpfile.obj
 0001:00044834       ?common_tmpfile@@YAHQEAPEAU_iobuf@@H@Z 0000000180045834 f   libucrt:tmpfile.obj
 0001:000448a4       ?common_tmpfile_nolock@@YAHQEAPEAU_iobuf@@H@Z 00000001800458a4 f   libucrt:tmpfile.obj
 0001:00046608       ??R<lambda_3a6204444a8bad05601fdaf7664f6f17>@@QEBAHXZ 0000000180047608 f   libucrt:input.obj
 0001:000466fc       ??R<lambda_037e91eb5f7fe3a681de8d8491e423b3>@@QEBA_NXZ 00000001800476fc f   libucrt:input.obj
 0001:000466fc       ??R<lambda_faed2df532bb37849f111efe98abdd75>@@QEBA_NXZ 00000001800476fc f   libucrt:input.obj
 0001:000466fc       ??R<lambda_b9821a569aa5955fc6d82138aaf53eb6>@@QEBA_NXZ 00000001800476fc f   libucrt:input.obj
 0001:00049e44       memcpy_s                   000000018004ae44 f   libucrt:input.obj
 0001:00049e44       memcpy_s                   000000018004ae44 f   libucrt:cfout.obj
 0001:00049ecc       ??$common_dupenv_s@_W@@YAHQEAPEA_WQEA_KQEB_WHQEBDH@Z 000000018004aecc f   libucrt:getenv.obj
 0001:00049fd0       ??$common_getenv@_W@@YAPEA_WQEB_W@Z 000000018004afd0 f   libucrt:getenv.obj
 0001:0004a03c       ??$common_getenv_nolock@_W@@YAPEA_WQEB_W@Z 000000018004b03c f   libucrt:getenv.obj
 0001:0004a4d8       ?atexit_exception_filter@@YAHK@Z 000000018004b4d8 f   libucrt:exit.obj
 0001:0004a4e4       ?common_exit@@YAXHW4_crt_exit_cleanup_mode@@W4_crt_exit_return_mode@@@Z 000000018004b4e4 f   libucrt:exit.obj
 0001:0004a650       ?exit_or_terminate_process@@YAXI@Z 000000018004b650 f   libucrt:exit.obj
 0001:0004a69c       ?try_cor_exit_process@@YAXI@Z 000000018004b69c f   libucrt:exit.obj
 0001:0004a734       ??$common_get_or_create_environment_nolock@_W@@YAPEAPEA_WXZ 000000018004b734 f   libucrt:environment_initialization.obj
 0001:0004a77c       ??$common_initialize_environment_nolock@D@@YAHXZ 000000018004b77c f   libucrt:environment_initialization.obj
 0001:0004a7e8       ??$common_initialize_environment_nolock@_W@@YAHXZ 000000018004b7e8 f   libucrt:environment_initialization.obj
 0001:0004a850       ??$create_environment@D@@YAQEAPEADQEAD@Z 000000018004b850 f   libucrt:environment_initialization.obj
 0001:0004a94c       ??$create_environment@_W@@YAQEAPEA_WQEA_W@Z 000000018004b94c f   libucrt:environment_initialization.obj
 0001:0004aa50       ??$free_environment@_W@@YAXQEAPEA_W@Z 000000018004ba50 f   libucrt:environment_initialization.obj
 0001:0004aa50       ??$free_environment@D@@YAXQEAPEAD@Z 000000018004ba50 f   libucrt:environment_initialization.obj
 0001:0004aa94       ??$initialize_environment_by_cloning_nolock@_W@@YAHXZ 000000018004ba94 f   libucrt:environment_initialization.obj
 0001:0004ab44       ??$uninitialize_environment_internal@D@@YAXAEAPEAPEAD@Z 000000018004bb44 f   libucrt:environment_initialization.obj
 0001:0004ab60       ??$uninitialize_environment_internal@_W@@YAXAEAPEAPEA_W@Z 000000018004bb60 f   libucrt:environment_initialization.obj
 0001:0004ada0       ??R<lambda_4e60a939b0d047cfe11ddc22648dfba9>@@QEBAHXZ 000000018004bda0 f   libucrt:onexit.obj
 0001:0004b050       initialize_global_variables 000000018004c050 f   libucrt:initialization.obj
 0001:0004b064       initialize_c               000000018004c064 f   libucrt:initialization.obj
 0001:0004b088       uninitialize_environment   000000018004c088 f   libucrt:initialization.obj
 0001:0004b098       report_memory_leaks        000000018004c098 f   libucrt:initialization.obj
 0001:0004b098       uninitialize_c             000000018004c098 f   libucrt:initialization.obj
 0001:0004b098       uninitialize_global_state_isolation 000000018004c098 f   libucrt:initialization.obj
 0001:0004b098       initialize_environment     000000018004c098 f   libucrt:initialization.obj
 0001:0004b098       initialize_global_state_isolation 000000018004c098 f   libucrt:initialization.obj
 0001:0004b09c       initialize_pointers        000000018004c09c f   libucrt:initialization.obj
 0001:0004b0f0       uninitialize_vcruntime     000000018004c0f0 f   libucrt:initialization.obj
 0001:0004b0f8       uninitialize_allocated_memory 000000018004c0f8 f   libucrt:initialization.obj
 0001:0004b20c       ?_strupr_s_l_stat@@YAHQEAD_KQEAU__crt_locale_pointers@@@Z 000000018004c20c f   libucrt:strupr.obj
 0001:0004c668       ?internal_isupper_l@@YA_NHQEAU__crt_locale_pointers@@@Z 000000018004d668 f   libucrt:tolower_toupper.obj
 0001:0004d024       ?construct_ptd_array@@YAXQEAU__acrt_ptd@@@Z 000000018004e024 f   libucrt:per_thread_data.obj
 0001:0004d0f4       ?destroy_fls@@YAXPEAX@Z    000000018004e0f4 f   libucrt:per_thread_data.obj
 0001:0004d114       ?destroy_ptd_array@@YAXQEAU__acrt_ptd@@@Z 000000018004e114 f   libucrt:per_thread_data.obj
 0001:0004d20c       ?replace_current_thread_locale_nolock@@YAXQEAU__acrt_ptd@@QEAU__crt_locale_data@@@Z 000000018004e20c f   libucrt:per_thread_data.obj
 0001:0004d51c       ?fp_format_a@@YAHQEBNPEAD_KQEAD2H_NIQEAU__crt_locale_pointers@@@Z 000000018004e51c f   libucrt:cvt.obj
 0001:0004d87c       ?fp_format_e@@YAHQEBNQEAD_K12H_NIQEAU__crt_locale_pointers@@@Z 000000018004e87c f   libucrt:cvt.obj
 0001:0004d94c       ?fp_format_e_internal@@YAHQEAD_KH_NIQEAU_strflt@@2QEAU__crt_locale_pointers@@@Z 000000018004e94c f   libucrt:cvt.obj
 0001:0004db28       ?fp_format_f_internal@@YAHQEAD_KHQEAU_strflt@@_NQEAU__crt_locale_pointers@@@Z 000000018004eb28 f   libucrt:cvt.obj
 0001:0004dc70       ?fp_format_g@@YAHQEBNQEAD_K12H_NIQEAU__crt_locale_pointers@@@Z 000000018004ec70 f   libucrt:cvt.obj
 0001:0004dda8       ?fp_format_nan_or_infinity@@YAHW4__acrt_fp_class@@_NPEAD_K1@Z 000000018004eda8 f   libucrt:cvt.obj
 0001:0004e2e8       ?initialize_inherited_file_handles_nolock@@YAXXZ 000000018004f2e8 f   libucrt:ioinit.obj
 0001:0004e3d4       ?initialize_stdio_handles_nolock@@YAXXZ 000000018004f3d4 f   libucrt:ioinit.obj
 0001:0004e654       ?find_or_allocate_unused_stream_nolock@@YA?AV__crt_stdio_stream@@XZ 000000018004f654 f   libucrt:stream.obj
 0001:0004ecc0       $$000000                   000000018004fcc0     libucrt:fpsr.obj
 0001:0004ee04       ?try_get_function@@YAPEAXW4function_id@?A0x63058377@@QEBDQEBW4module_id@2@2@Z 000000018004fe04 f   libucrt:winapi_thunks.obj
 0001:0004f5d8       ??$translate_text_mode_nolock@_W@@YAHHQEA_W_K@Z 00000001800505d8 f   libucrt:read.obj
 0001:0004f808       ?translate_ansi_or_utf8_nolock@@YAHHQEAD_KQEA_W1@Z 0000000180050808 f   libucrt:read.obj
 0001:00050088       ??$common_refill_and_read_nolock@D@@YAHV__crt_stdio_stream@@@Z 0000000180051088 f   libucrt:_filbuf.obj
 0001:00050238       ??$common_lseek@J@@YAJHJH@Z 0000000180051238 f   libucrt:lseek.obj
 0001:00050324       ??$common_lseek@_J@@YA_JH_JH@Z 0000000180051324 f   libucrt:lseek.obj
 0001:00050414       ??$common_lseek_nolock@J@@YAJHJH@Z 0000000180051414 f   libucrt:lseek.obj
 0001:00050490       ??$common_lseek_nolock@_J@@YA_JH_JH@Z 0000000180051490 f   libucrt:lseek.obj
 0001:0005052c       ?common_lseek_do_seek_nolock@@YAJQEAXJH@Z 000000018005152c f   libucrt:lseek.obj
 0001:00050f24       ??$common_fdopen@_W@@YAPEAU_iobuf@@HQEB_W@Z 0000000180051f24 f   libucrt:fdopen.obj
 0001:00051140       ?write_double_translated_ansi_nolock@@YA?AUwrite_result@?A0x9c548279@@HQEBDI@Z 0000000180052140 f   libucrt:write.obj
 0001:00051348       ?write_text_ansi_nolock@@YA?AUwrite_result@?A0x9c548279@@HQEBDI@Z 0000000180052348 f   libucrt:write.obj
 0001:00051450       ?write_text_utf16le_nolock@@YA?AUwrite_result@?A0x9c548279@@HQEBDI@Z 0000000180052450 f   libucrt:write.obj
 0001:0005156c       ?write_text_utf8_nolock@@YA?AUwrite_result@?A0x9c548279@@HQEBDI@Z 000000018005256c f   libucrt:write.obj
 0001:00051ab0       ??$write_buffer_nolock@D@@YA_NDV__crt_stdio_stream@@@Z 0000000180052ab0 f   libucrt:_flsbuf.obj
 0001:00051c9c       ??$common_xtox@_KD@@YAH_KQEAD0I_N@Z 0000000180052c9c f   libucrt:xtoa.obj
 0001:00051d34       ??$common_xtox_s@_KD@@YAH_KQEAD0I_N@Z 0000000180052d34 f   libucrt:xtoa.obj
 0001:00051ee0       ??$common_sopen_dispatch@D@@YAHQEBDHHHQEAHH@Z 0000000180052ee0 f   libucrt:open.obj
 0001:00051fc0       ??$common_sopen_dispatch@_W@@YAHQEB_WHHHQEAHH@Z 0000000180052fc0 f   libucrt:open.obj
 0001:000520a0       ?configure_text_mode@@YAHHUfile_options@?A0x656cf9f4@@HAEAW4__crt_lowio_text_mode@@@Z 00000001800530a0 f   libucrt:open.obj
 0001:00052334       ?decode_options@@YA?AUfile_options@?A0x656cf9f4@@HHH@Z 0000000180053334 f   libucrt:open.obj
 0001:00052540       ?truncate_ctrl_z_if_present@@YAHH@Z 0000000180053540 f   libucrt:open.obj
 0001:00052db8       ??$common_spawnv@_W@@YA_JHQEB_WQEBQEB_W1@Z 0000000180053db8 f   libucrt:spawnv.obj
 0001:0005304c       ??$execute_command@_W@@YA_JHQEB_WQEBQEB_W1@Z 000000018005404c f   libucrt:spawnv.obj
 0001:000532ac       ??R<lambda_45edfab556fcff821d8a41c06e3d46c0>@@QEBA_NXZ 00000001800542ac f   libucrt:spawnv.obj
 0001:00053420       ?accumulate_inheritable_handles@@YA_NQEAPEAEQEA_K_N@Z 0000000180054420 f   libucrt:spawnv.obj
 0001:00053480       ??$common_spawnvp@_W@@YA_JHQEB_WQEBQEB_W1@Z 0000000180054480 f   libucrt:spawnvp.obj
 0001:00053800       ??R<lambda_ad1ced32f4ac17aa236e5ef05d6b3b7c>@@QEBAXXZ 0000000180054800 f   libucrt:mbctype.obj
 0001:00053a18       ?getSystemCP@@YAHH@Z       0000000180054a18 f   libucrt:mbctype.obj
 0001:00053a98       ?setSBCS@@YAXPEAU__crt_multibyte_data@@@Z 0000000180054a98 f   libucrt:mbctype.obj
 0001:00053b28       ?setSBUpLow@@YAXPEAU__crt_multibyte_data@@@Z 0000000180054b28 f   libucrt:mbctype.obj
 0001:00053d0c       ?setmbcp_internal@@YAHH_N@Z 0000000180054d0c f   libucrt:mbctype.obj
 0001:000543f0       ??$common_set_variable_in_environment_nolock@_W@@YAHQEA_WH@Z 00000001800553f0 f   libucrt:setenv.obj
 0001:000546e0       ??$copy_environment@_W@@YAPEAPEA_WQEAPEA_W@Z 00000001800556e0 f   libucrt:setenv.obj
 0001:00054d30       ?__acrt_LCMapStringA_stat@@YAHPEAU__crt_locale_pointers@@PEB_WKPEBDHPEADHHH@Z 0000000180055d30 f   libucrt:lcmapstringa.obj
 0001:00056b7c       ?free_crt_array_internal@@YAXQEAPEBX_K@Z 0000000180057b7c f   libucrt:inittime.obj
 0001:0005757c       ?GetTableIndexFromLocaleName@@YAHPEB_W@Z 000000018005857c f   libucrt:lcidtoname_downlevel.obj
 0001:00057ce8       ??$construct_environment_block@_W@@YAHQEBQEB_WQEAPEA_W@Z 0000000180058ce8 f   libucrt:cenvarg.obj
 0001:000581b8       ?initialize_multibyte@@YAHXZ 00000001800591b8 f   libucrt:multibyte_initializer.obj
 0001:00058370       $$000000                   0000000180059370     libucrt:log10.obj
 0001:00058980       _call_matherr              0000000180059980 f   libucrt:libm_error.obj
 0001:000589e8       _exception_enabled         00000001800599e8 f   libucrt:libm_error.obj
 0001:00058c80       _log_special_common        0000000180059c80 f   libucrt:log_special.obj
 0001:000591e0       $$000000                   000000018005a1e0     LIBCMT:_amdsecgs_.obj
 0001:000594a8       capture_current_context    000000018005a4a8 f   LIBCMT:gs_report.obj
 0001:00059518       capture_previous_context   000000018005a518 f   LIBCMT:gs_report.obj
 0001:00059630       $$000000                   000000018005a630     LIBCMT:_guard_dispatch_.obj
 0001:00059650       ?fin$0@?0??dllmain_crt_process_attach@@YAHQEAUHINSTANCE__@@QEAX@Z@4HA 000000018005a650 f   LIBCMT:dll_dllmain.obj
 0001:00059667       ?fin$0@?0??dllmain_crt_process_detach@@YAH_N@Z@4HA 000000018005a667 f   LIBCMT:dll_dllmain.obj
 0001:00059683       ?filt$0@?0??dllmain_dispatch@@YAHQEAUHINSTANCE__@@KQEAX@Z@4HA 000000018005a683 f   LIBCMT:dll_dllmain.obj
 0001:000596b9       __scrt_is_nonwritable_in_current_image$filt$0 000000018005a6b9 f   LIBCMT:utility.obj
 0001:000596d1       ?fin$0@?0???$common_fsopen@_W@@YAPEAU_iobuf@@QEB_W0H@Z@4HA 000000018005a6d1 f   libucrt:fopen.obj
 0001:000596fc       ?fin$0@?0???$common_freopen@_W@@YAHQEAPEAU_iobuf@@QEB_W1V__crt_stdio_stream@@H@Z@4HA 000000018005a6fc f   libucrt:freopen.obj
 0001:000596fc       ?fin$0@?0???$common_fdopen@_W@@YAPEAU_iobuf@@HQEB_W@Z@4HA 000000018005a6fc f   libucrt:fdopen.obj
 0001:00059716       fread_s$fin$0              000000018005a716 f   libucrt:fread.obj
 0001:0005972e       fgetc$fin$0                000000018005a72e f   libucrt:fgetc.obj
 0001:00059748       ungetc$fin$0               000000018005a748 f   libucrt:ungetc.obj
 0001:00059760       ?fin$0@?0???$common_popen@_W@@YAPEAU_iobuf@@QEB_W0@Z@4HA 000000018005a760 f   libucrt:popen.obj
 0001:0005977b       _pclose$fin$0              000000018005a77b f   libucrt:popen.obj
 0001:00059794       common_flush_all$fin$0     000000018005a794 f   libucrt:fflush.obj
 0001:000597ae       common_flush_all$fin$1     000000018005a7ae f   libucrt:fflush.obj
 0001:000597c7       fclose$fin$0               000000018005a7c7 f   libucrt:fclose.obj
 0001:000597c7       rewind$fin$0               000000018005a7c7 f   libucrt:rewind.obj
 0001:000597c7       clearerr_s$fin$0           000000018005a7c7 f   libucrt:clearerr.obj
 0001:000597c7       fflush$fin$0               000000018005a7c7 f   libucrt:fflush.obj
 0001:000597df       ?fin$0@?0???$common_fgets@D@@YAPEADQEADHV__crt_stdio_stream@@@Z@4HA 000000018005a7df f   libucrt:fgets.obj
 0001:000597f9       ?fin$0@?0??common_fseek@@YAHV__crt_stdio_stream@@_JH@Z@4HA 000000018005a7f9 f   libucrt:fseek.obj
 0001:000597f9       ?fin$0@?0???$common_ftell@J@@YAJV__crt_stdio_stream@@@Z@4HA 000000018005a7f9 f   libucrt:ftell.obj
 0001:00059813       ?fin$0@?0??common_tmpfile@@YAHQEAPEAU_iobuf@@H@Z@4HA 000000018005a813 f   libucrt:tmpfile.obj
 0001:0005982c       ?fin$0@?0??common_tmpfile_nolock@@YAHQEAPEAU_iobuf@@H@Z@4HA 000000018005a82c f   libucrt:tmpfile.obj
 0001:00059855       ?fin$0@?0???$?RV<lambda_5d4c3fee44080f75d5d9762853974fe0>@@AEAV<lambda_532e024f4337e6fc7ad266c2bef9f4ed>@@V<lambda_c87bdc10097eb2402edb8ba9bdf0697b>@@@?$__crt_seh_guarded_call@_K@@QEAA_K$$QEAV<lambda_5d4c3fee44080f75d5d9762853974fe0>@@AEAV<lambda_532e024f4337e6fc7ad266c2bef9f4ed>@@$$QEAV<lambda_c87bdc10097eb2402edb8ba9bdf0697b>@@@Z@4HA 000000018005a855 f   libucrt:fwrite.obj
 0001:00059855       ?fin$0@?0???$?RV<lambda_aa279a7bcb127014629d5b1d62c7325d>@@AEAV<lambda_0a64b6a4deda75c01876f29c44fc5eb3>@@V<lambda_3323e69fbefe9d1a11713e670d47cdfa>@@@?$__crt_seh_guarded_call@H@@QEAAH$$QEAV<lambda_aa279a7bcb127014629d5b1d62c7325d>@@AEAV<lambda_0a64b6a4deda75c01876f29c44fc5eb3>@@$$QEAV<lambda_3323e69fbefe9d1a11713e670d47cdfa>@@@Z@4HA 000000018005a855 f   libucrt:output.obj
 0001:00059855       ?fin$0@?0???$?RV<lambda_7a5ef57ff966f610505f1d28a3d40618>@@AEAV<lambda_b721fa326cdb32351d23dfa67958c160>@@V<lambda_5e0fb27672408a07956fe59e48ccb2aa>@@@?$__crt_seh_guarded_call@H@@QEAAH$$QEAV<lambda_7a5ef57ff966f610505f1d28a3d40618>@@AEAV<lambda_b721fa326cdb32351d23dfa67958c160>@@$$QEAV<lambda_5e0fb27672408a07956fe59e48ccb2aa>@@@Z@4HA 000000018005a855 f   libucrt:setvbuf.obj
 0001:00059855       ?fin$0@?0???$?RV<lambda_c01e8233c1997d6cc4b8f1fd672e07e5>@@AEAV<lambda_3a6204444a8bad05601fdaf7664f6f17>@@V<lambda_b6ae1896c9cebd71befa8310523e5efb>@@@?$__crt_seh_guarded_call@H@@QEAAH$$QEAV<lambda_c01e8233c1997d6cc4b8f1fd672e07e5>@@AEAV<lambda_3a6204444a8bad05601fdaf7664f6f17>@@$$QEAV<lambda_b6ae1896c9cebd71befa8310523e5efb>@@@Z@4HA 000000018005a855 f   libucrt:input.obj
 0001:00059870       ?fin$0@?0???$common_dupenv_s@_W@@YAHQEAPEA_WQEA_KQEB_WHQEBDH@Z@4HA 000000018005a870 f   libucrt:getenv.obj
 0001:00059889       ?fin$0@?0???$common_getenv@_W@@YAPEA_WQEB_W@Z@4HA 000000018005a889 f   libucrt:getenv.obj
 0001:000598a2       ?filt$0@?0??common_exit@@YAXHW4_crt_exit_cleanup_mode@@W4_crt_exit_return_mode@@@Z@4HA 000000018005a8a2 f   libucrt:exit.obj
 0001:000598bd       ?fin$1@?0??common_exit@@YAXHW4_crt_exit_cleanup_mode@@W4_crt_exit_return_mode@@@Z@4HA 000000018005a8bd f   libucrt:exit.obj
 0001:000598d6       ?fin$0@?0???$?RV<lambda_e24bbb7b643b32fcea6fa61b31d4c984>@@AEAV<lambda_275893d493268fdec8709772e3fcec0e>@@V<lambda_9d71df4d7cf3f480f8d633942495c3b0>@@@?$__crt_seh_guarded_call@H@@QEAAH$$QEAV<lambda_e24bbb7b643b32fcea6fa61b31d4c984>@@AEAV<lambda_275893d493268fdec8709772e3fcec0e>@@$$QEAV<lambda_9d71df4d7cf3f480f8d633942495c3b0>@@@Z@4HA 000000018005a8d6 f   libucrt:onexit.obj
 0001:000598f3       _alloc_osfhnd$fin$0        000000018005a8f3 f   libucrt:osfinfo.obj
 0001:000598f3       __acrt_initialize_lowio$fin$0 000000018005a8f3 f   libucrt:ioinit.obj
 0001:000598f3       __acrt_lowio_ensure_fh_exists$fin$0 000000018005a8f3 f   libucrt:osfinfo.obj
 0001:0005990c       _fcloseall$fin$0           000000018005a90c f   libucrt:closeall.obj
 0001:0005990c       ?fin$0@?0??__acrt_stdio_allocate_stream@@YA?AV__crt_stdio_stream@@XZ@4HA 000000018005a90c f   libucrt:stream.obj
 0001:00059925       _write$fin$0               000000018005a925 f   libucrt:write.obj
 0001:00059925       ?fin$0@?0???$common_lseek@J@@YAJHJH@Z@4HA 000000018005a925 f   libucrt:lseek.obj
 0001:00059925       ?fin$0@?0???$common_lseek@_J@@YA_JH_JH@Z@4HA 000000018005a925 f   libucrt:lseek.obj
 0001:00059925       _read$fin$0                000000018005a925 f   libucrt:read.obj
 0001:0005993c       _pipe$fin$1                000000018005a93c f   libucrt:pipe.obj
 0001:00059958       _pipe$fin$0                000000018005a958 f   libucrt:pipe.obj
 0001:00059974       ?fin$0@?0???$?RV<lambda_bfedae4ebbf01fab1bb6dcc6a9e276e0>@@AEAV<lambda_2fe9b910cf3cbf4a0ab98a02ba45b3ec>@@V<lambda_237c231691f317818eb88cc1d5d642d6>@@@?$__crt_seh_guarded_call@H@@QEAAH$$QEAV<lambda_bfedae4ebbf01fab1bb6dcc6a9e276e0>@@AEAV<lambda_2fe9b910cf3cbf4a0ab98a02ba45b3ec>@@$$QEAV<lambda_237c231691f317818eb88cc1d5d642d6>@@@Z@4HA 000000018005a974 f   libucrt:close.obj
 0001:00059974       ?fin$0@?0???$?RV<lambda_b521505b218e5242e90febf6bfebc422>@@AEAV<lambda_6978c1fb23f02e42e1d9e99668cc68aa>@@V<lambda_314360699dd331753a4119843814e9a7>@@@?$__crt_seh_guarded_call@H@@QEAAH$$QEAV<lambda_b521505b218e5242e90febf6bfebc422>@@AEAV<lambda_6978c1fb23f02e42e1d9e99668cc68aa>@@$$QEAV<lambda_314360699dd331753a4119843814e9a7>@@@Z@4HA 000000018005a974 f   libucrt:commit.obj
 0001:0005998e       ?fin$0@?0???$common_sopen_dispatch@_W@@YAHQEB_WHHHQEAHH@Z@4HA 000000018005a98e f   libucrt:open.obj
 0001:0005998e       ?fin$0@?0???$common_sopen_dispatch@D@@YAHQEBDHHHQEAHH@Z@4HA 000000018005a98e f   libucrt:open.obj
 0001:000599e1       _rmtmp$fin$0               000000018005a9e1 f   libucrt:rmtmp.obj
 0001:000599fb       _rmtmp$fin$1               000000018005a9fb f   libucrt:rmtmp.obj
 0001:00059a14       ?fin$0@?0???$?RV<lambda_fb3a7dec4e47f37f22dae91bb15c9095>@@AEAV<lambda_698284760c8add0bfb0756c19673e34b>@@V<lambda_dfb8eca1e75fef3034a8fb18dd509707>@@@?$__crt_seh_guarded_call@X@@QEAAX$$QEAV<lambda_fb3a7dec4e47f37f22dae91bb15c9095>@@AEAV<lambda_698284760c8add0bfb0756c19673e34b>@@$$QEAV<lambda_dfb8eca1e75fef3034a8fb18dd509707>@@@Z@4HA 000000018005aa14 f   libucrt:per_thread_data.obj
 0001:00059a14       ?fin$0@?0???$?RV<lambda_72d1df2b273a38828b1ce30cbf4cdab5>@@AEAV<lambda_876a65b173b8412d3a47c70a915b0cf4>@@V<lambda_41932305e351933ebe8f8be3ed8bb5dc>@@@?$__crt_seh_guarded_call@X@@QEAAX$$QEAV<lambda_72d1df2b273a38828b1ce30cbf4cdab5>@@AEAV<lambda_876a65b173b8412d3a47c70a915b0cf4>@@$$QEAV<lambda_41932305e351933ebe8f8be3ed8bb5dc>@@@Z@4HA 000000018005aa14 f   libucrt:per_thread_data.obj
 0001:00059a14       ?fin$0@?0???$?RV<lambda_b8c45f8f788dd370798f47cfe8ac3a86>@@AEAV<lambda_4e60a939b0d047cfe11ddc22648dfba9>@@V<lambda_332c3edc96d0294ec56c57d38c1cdfd5>@@@?$__crt_seh_guarded_call@H@@QEAAH$$QEAV<lambda_b8c45f8f788dd370798f47cfe8ac3a86>@@AEAV<lambda_4e60a939b0d047cfe11ddc22648dfba9>@@$$QEAV<lambda_332c3edc96d0294ec56c57d38c1cdfd5>@@@Z@4HA 000000018005aa14 f   libucrt:onexit.obj
 0001:00059a14       ?fin$0@?0???$?RV<lambda_fb01e4b6cb0b58be62120d2a518119ce>@@AEAV<lambda_45edfab556fcff821d8a41c06e3d46c0>@@V<lambda_8a9bf702b7f902ca2f9107a173e0fbe3>@@@?$__crt_seh_guarded_call@_N@@QEAA_N$$QEAV<lambda_fb01e4b6cb0b58be62120d2a518119ce>@@AEAV<lambda_45edfab556fcff821d8a41c06e3d46c0>@@$$QEAV<lambda_8a9bf702b7f902ca2f9107a173e0fbe3>@@@Z@4HA 000000018005aa14 f   libucrt:spawnv.obj
 0001:00059a14       ?fin$0@?0???$?RV<lambda_c36588078e9f5dfd39652860aa6b3aaf>@@AEAV<lambda_ec61778202f4f5fc7e7711acc23c3bca>@@V<lambda_dc9d2797ccde5d239b4a0efae8ebd7db>@@@?$__crt_seh_guarded_call@P6AXH@Z@@QEAAP6AXH@Z$$QEAV<lambda_c36588078e9f5dfd39652860aa6b3aaf>@@AEAV<lambda_ec61778202f4f5fc7e7711acc23c3bca>@@$$QEAV<lambda_dc9d2797ccde5d239b4a0efae8ebd7db>@@@Z@4HA 000000018005aa14 f   libucrt:signal.obj
 0001:00059a14       ?fin$0@?0???$?RV<lambda_46352004c1216016012b18bd6f87e700>@@AEAV<lambda_3bd07e1a1191394380780325891bf33f>@@V<lambda_334532d3f185bcaa59b5be82d7d22bff>@@@?$__crt_seh_guarded_call@X@@QEAAX$$QEAV<lambda_46352004c1216016012b18bd6f87e700>@@AEAV<lambda_3bd07e1a1191394380780325891bf33f>@@$$QEAV<lambda_334532d3f185bcaa59b5be82d7d22bff>@@@Z@4HA 000000018005aa14 f   libucrt:per_thread_data.obj
 0001:00059a14       ?fin$0@?0???$?RV<lambda_99476a1ad63dd22509b5d3e65b0ffc95>@@AEAV<lambda_ad1ced32f4ac17aa236e5ef05d6b3b7c>@@V<lambda_f7424dd8d45958661754dc4f2697e9c3>@@@?$__crt_seh_guarded_call@X@@QEAAX$$QEAV<lambda_99476a1ad63dd22509b5d3e65b0ffc95>@@AEAV<lambda_ad1ced32f4ac17aa236e5ef05d6b3b7c>@@$$QEAV<lambda_f7424dd8d45958661754dc4f2697e9c3>@@@Z@4HA 000000018005aa14 f   libucrt:mbctype.obj
 0001:00059a14       ?fin$0@?0???$?RV<lambda_5e887d1dcbef67a5eb4283622ba103bf>@@AEAV<lambda_4466841279450cc726390878d4a41900>@@V<lambda_341c25c0346d94847f1f3c463c57e077>@@@?$__crt_seh_guarded_call@X@@QEAAX$$QEAV<lambda_5e887d1dcbef67a5eb4283622ba103bf>@@AEAV<lambda_4466841279450cc726390878d4a41900>@@$$QEAV<lambda_341c25c0346d94847f1f3c463c57e077>@@@Z@4HA 000000018005aa14 f   libucrt:per_thread_data.obj
 0001:00059a2e       __acrt_update_thread_multibyte_data$fin$0 000000018005aa2e f   libucrt:mbctype.obj
 0001:00059a47       _query_new_handler$fin$0   000000018005aa47 f   libucrt:new_handler.obj
 0001:00059a5d       raise$fin$0                000000018005aa5d f   libucrt:signal.obj
 0001:00059a81       __acrt_uninitialize_locale$fin$0 000000018005aa81 f   libucrt:wsetlocale.obj
 0001:00059a81       __acrt_update_thread_locale_data$fin$0 000000018005aa81 f   libucrt:locale_refcounting.obj
 0001:00059a9a       common_control87$filt$0    000000018005aa9a f   libucrt:ieee.obj
 0001:00059a9a       _ctrlfp$filt$0             000000018005aa9a f   libucrt:fpctrl.obj
 0001:00059ad0       _IsNonwritableInCurrentImage$filt$0 000000018005aad0 f   LIBCMT:pesect.obj
 0001:00059af0       $xdatasym                  000000018005aaf0     chkstk.obj
 0001:00059af8       $chain$0$bit64_getvalue    000000018005aaf8     bit64.obj
 0001:00059b0c       $chain$1$bit64_getvalue    000000018005ab0c     bit64.obj
 0001:00059b1c       $unwind$bor                000000018005ab1c     bit64.obj
 0001:00059b1c       $unwind$bxor               000000018005ab1c     bit64.obj
 0001:00059b1c       $unwind$band               000000018005ab1c     bit64.obj
 0001:00059b1c       $unwind$f_mul              000000018005ab1c     bit64.obj
 0001:00059b1c       $unwind$f_add              000000018005ab1c     bit64.obj
 0001:00059b28       $chain$5$band              000000018005ab28     bit64.obj
 0001:00059b50       $chain$6$band              000000018005ab50     bit64.obj
 0001:00059b60       $chain$5$bor               000000018005ab60     bit64.obj
 0001:00059b88       $chain$6$bor               000000018005ab88     bit64.obj
 0001:00059b98       $chain$5$bxor              000000018005ab98     bit64.obj
 0001:00059bc0       $chain$6$bxor              000000018005abc0     bit64.obj
 0001:00059bd0       $chain$0$bnot              000000018005abd0     bit64.obj
 0001:00059be4       $chain$1$bnot              000000018005abe4     bit64.obj
 0001:00059bf4       $unwind$far_SetDlgItem     000000018005abf4     service.obj
 0001:00059bf4       $unwind$f_new              000000018005abf4     bit64.obj
 0001:00059bf4       $unwind$far_GetDlgItem     000000018005abf4     service.obj
 0001:00059c04       $chain$0$f_new             000000018005ac04     bit64.obj
 0001:00059c18       $chain$1$f_new             000000018005ac18     bit64.obj
 0001:00059c28       $unwind$f_tostring         000000018005ac28     bit64.obj
 0001:00059c30       $chain$0$f_tostring        000000018005ac30     bit64.obj
 0001:00059c44       $chain$1$f_tostring        000000018005ac44     bit64.obj
 0001:00059c54       $unwind$f_unm              000000018005ac54     bit64.obj
 0001:00059c54       $unwind$io_lines           000000018005ac54     uliolib51.obj
 0001:00059c54       $unwind$bnot               000000018005ac54     bit64.obj
 0001:00059c54       $unwind$f_type             000000018005ac54     bit64.obj
 0001:00059c5c       $chain$0$f_type            000000018005ac5c     bit64.obj
 0001:00059c70       $chain$1$f_type            000000018005ac70     bit64.obj
 0001:00059c80       $chain$5$f_add             000000018005ac80     bit64.obj
 0001:00059ca8       $chain$6$f_add             000000018005aca8     bit64.obj
 0001:00059cb8       $unwind$f_lt               000000018005acb8     bit64.obj
 0001:00059cb8       $unwind$f_eq               000000018005acb8     bit64.obj
 0001:00059cb8       $unwind$f_le               000000018005acb8     bit64.obj
 0001:00059cb8       $unwind$f_sub              000000018005acb8     bit64.obj
 0001:00059cd4       $chain$5$f_mul             000000018005acd4     bit64.obj
 0001:00059cfc       $chain$6$f_mul             000000018005acfc     bit64.obj
 0001:00059d0c       $unwind$f_div              000000018005ad0c     bit64.obj
 0001:00059d0c       $unwind$f_mod              000000018005ad0c     bit64.obj
 0001:00059d24       $chain$0$f_unm             000000018005ad24     bit64.obj
 0001:00059d38       $chain$1$f_unm             000000018005ad38     bit64.obj
 0001:00059d48       $chain$0$LF_ClosePanel     000000018005ad48     exported.obj
 0001:00059d5c       $chain$1$LF_ClosePanel     000000018005ad5c     exported.obj
 0001:00059d6c       $chain$0$LF_Compare        000000018005ad6c     exported.obj
 0001:00059d80       $chain$2$LF_Compare        000000018005ad80     exported.obj
 0001:00059d94       $chain$3$LF_Compare        000000018005ad94     exported.obj
 0001:00059da4       $unwind$LF_ProcessPanelEvent 000000018005ada4     exported.obj
 0001:00059da4       $unwind$LF_DeleteFiles     000000018005ada4     exported.obj
 0001:00059db4       $chain$0$LF_DeleteFiles    000000018005adb4     exported.obj
 0001:00059dc8       $chain$2$LF_DeleteFiles    000000018005adc8     exported.obj
 0001:00059ddc       $chain$3$LF_DeleteFiles    000000018005addc     exported.obj
 0001:00059dec       $chain$0$LF_GetFiles       000000018005adec     exported.obj
 0001:00059e00       $chain$2$LF_GetFiles       000000018005ae00     exported.obj
 0001:00059e14       $chain$3$LF_GetFiles       000000018005ae14     exported.obj
 0001:00059e24       $chain$0$LF_GetFindData    000000018005ae24     exported.obj
 0001:00059e38       $chain$1$LF_GetFindData    000000018005ae38     exported.obj
 0001:00059e48       $unwind$LF_GetGlobalInfo   000000018005ae48     exported.obj
 0001:00059e5c       $chain$1$LF_GetGlobalInfo  000000018005ae5c     exported.obj
 0001:00059e70       $chain$2$LF_GetGlobalInfo  000000018005ae70     exported.obj
 0001:00059e84       $chain$3$LF_GetGlobalInfo  000000018005ae84     exported.obj
 0001:00059e94       $chain$4$LF_GetGlobalInfo  000000018005ae94     exported.obj
 0001:00059ea4       $unwind$LF_GetOpenPanelInfo 000000018005aea4     exported.obj
 0001:00059eb0       $chain$1$LF_GetOpenPanelInfo 000000018005aeb0     exported.obj
 0001:00059ec8       $chain$3$LF_GetOpenPanelInfo 000000018005aec8     exported.obj
 0001:00059ec8       $chain$5$LF_GetOpenPanelInfo 000000018005aec8     exported.obj
 0001:00059ee0       $chain$10$LF_GetOpenPanelInfo 000000018005aee0     exported.obj
 0001:00059f04       $chain$11$LF_GetOpenPanelInfo 000000018005af04     exported.obj
 0001:00059f18       $chain$12$LF_GetOpenPanelInfo 000000018005af18     exported.obj
 0001:00059f2c       $chain$13$LF_GetOpenPanelInfo 000000018005af2c     exported.obj
 0001:00059f3c       $unwind$LF_GetPluginInfo   000000018005af3c     exported.obj
 0001:00059f48       $chain$0$LF_GetPluginInfo  000000018005af48     exported.obj
 0001:00059f5c       $chain$1$LF_GetPluginInfo  000000018005af5c     exported.obj
 0001:00059f6c       $chain$0$LF_MakeDirectory  000000018005af6c     exported.obj
 0001:00059f80       $chain$2$LF_MakeDirectory  000000018005af80     exported.obj
 0001:00059f94       $chain$3$LF_MakeDirectory  000000018005af94     exported.obj
 0001:00059fa4       $unwind$LF_Open            000000018005afa4     exported.obj
 0001:00059fb0       $chain$2$LF_Open           000000018005afb0     exported.obj
 0001:00059fcc       $chain$4$LF_Open           000000018005afcc     exported.obj
 0001:00059fe8       $chain$5$LF_Open           000000018005afe8     exported.obj
 0001:00059ff8       $unwind$NewDialogData      000000018005aff8     service.obj
 0001:00059ff8       $unwind$push_far_usercontrol 000000018005aff8     lusercontrol.obj
 0001:00059ff8       $unwind$PushDNParams       000000018005aff8     service.obj
 0001:00059ff8       $unwind$add_value          000000018005aff8     slnunico.obj
 0001:00059ff8       $unwind$LF_DoFile          000000018005aff8     service.obj
 0001:00059ff8       $unwind$win_MoveFile       000000018005aff8     win.obj
 0001:00059ff8       $unwind$LF_ProcessDialogEvent 000000018005aff8     exported.obj
 0001:00059ff8       $unwind$win_CreateDir      000000018005aff8     win.obj
 0001:00059ff8       $unwind$start_capture      000000018005aff8     slnunico.obj
 0001:0005a010       $chain$0$LF_ProcessPanelEvent 000000018005b010     exported.obj
 0001:0005a024       $chain$2$LF_ProcessPanelEvent 000000018005b024     exported.obj
 0001:0005a038       $chain$3$LF_ProcessPanelEvent 000000018005b038     exported.obj
 0001:0005a048       $unwind$LF_ProcessConsoleInput 000000018005b048     exported.obj
 0001:0005a048       $unwind$?type_case_c_tchar@?$output_processor@_WV?$string_output_adapter@_W@__crt_stdio_output@@V?$standard_base@_WV?$string_output_adapter@_W@__crt_stdio_output@@@2@@__crt_stdio_output@@AEAA_N_W@Z 000000018005b048     libucrt:output.obj
 0001:0005a048       $unwind$??R<lambda_b721fa326cdb32351d23dfa67958c160>@@QEBAHXZ 000000018005b048     libucrt:setvbuf.obj
 0001:0005a048       $unwind$?truncate_ctrl_z_if_present@@YAHH@Z 000000018005b048     libucrt:open.obj
 0001:0005a048       $unwind$bit64_getvalue     000000018005b048     bit64.obj
 0001:0005a048       $unwind$_cwait             000000018005b048     libucrt:wait.obj
 0001:0005a058       $chain$0$LF_ProcessConsoleInput 000000018005b058     exported.obj
 0001:0005a06c       $chain$1$LF_ProcessConsoleInput 000000018005b06c     exported.obj
 0001:0005a07c       $chain$1$LF_ProcessSynchroEvent 000000018005b07c     exported.obj
 0001:0005a094       $chain$3$LF_ProcessSynchroEvent 000000018005b094     exported.obj
 0001:0005a0ac       $chain$4$LF_ProcessSynchroEvent 000000018005b0ac     exported.obj
 0001:0005a0bc       $chain$6$LF_ProcessSynchroEvent 000000018005b0bc     exported.obj
 0001:0005a0d0       $chain$7$LF_ProcessSynchroEvent 000000018005b0d0     exported.obj
 0001:0005a0e0       $chain$0$LF_GetContentFields 000000018005b0e0     exported.obj
 0001:0005a0f4       $chain$1$LF_GetContentFields 000000018005b0f4     exported.obj
 0001:0005a104       $chain$0$LF_GetContentData 000000018005b104     exported.obj
 0001:0005a118       $chain$1$LF_GetContentData 000000018005b118     exported.obj
 0001:0005a128       $chain$0$pcall_msg         000000018005b128     exported.obj
 0001:0005a13c       $chain$1$pcall_msg         000000018005b13c     exported.obj
 0001:0005a14c       $unwind$LF_ClosePanel      000000018005b14c     exported.obj
 0001:0005a14c       $unwind$LF_GetFiles        000000018005b14c     exported.obj
 0001:0005a14c       $unwind$LF_MakeDirectory   000000018005b14c     exported.obj
 0001:0005a14c       $unwind$LF_GetFindData     000000018005b14c     exported.obj
 0001:0005a14c       $unwind$LF_Compare         000000018005b14c     exported.obj
 0001:0005a14c       $unwind$pcall_msg          000000018005b14c     exported.obj
 0001:0005a14c       $unwind$_AddStringToCollector 000000018005b14c     exported.obj
 0001:0005a158       $chain$0$_AddStringToCollector 000000018005b158     exported.obj
 0001:0005a16c       $chain$1$_AddStringToCollector 000000018005b16c     exported.obj
 0001:0005a17c       $unwind$CreateStringsArray 000000018005b17c     exported.obj
 0001:0005a18c       $chain$0$CreateStringsArray 000000018005b18c     exported.obj
 0001:0005a1a0       $chain$1$CreateStringsArray 000000018005b1a0     exported.obj
 0001:0005a1b4       $chain$2$CreateStringsArray 000000018005b1b4     exported.obj
 0001:0005a1c8       $chain$3$CreateStringsArray 000000018005b1c8     exported.obj
 0001:0005a1d8       $chain$4$CreateStringsArray 000000018005b1d8     exported.obj
 0001:0005a1e8       $chain$5$CreateStringsArray 000000018005b1e8     exported.obj
 0001:0005a1f8       $unwind$FillFindData       000000018005b1f8     exported.obj
 0001:0005a20c       $chain$1$FillFindData      000000018005b20c     exported.obj
 0001:0005a224       $chain$2$FillFindData      000000018005b224     exported.obj
 0001:0005a234       $unwind$UpdateFileSelection 000000018005b234     exported.obj
 0001:0005a244       $chain$0$UpdateFileSelection 000000018005b244     exported.obj
 0001:0005a258       $chain$1$UpdateFileSelection 000000018005b258     exported.obj
 0001:0005a268       $unwind$RunDefaultScript   000000018005b268     exported.obj
 0001:0005a280       $chain$0$RunDefaultScript  000000018005b280     exported.obj
 0001:0005a294       $chain$1$RunDefaultScript  000000018005b294     exported.obj
 0001:0005a2a4       $unwind$FillFarMacroCall_Callback 000000018005b2a4     exported.obj
 0001:0005a2b0       $chain$0$FillFarMacroCall_Callback 000000018005b2b0     exported.obj
 0001:0005a2c4       $chain$1$FillFarMacroCall_Callback 000000018005b2c4     exported.obj
 0001:0005a2d4       $unwind$FillFarMacroCall   000000018005b2d4     exported.obj
 0001:0005a2e4       $chain$3$FillFarMacroCall  000000018005b2e4     exported.obj
 0001:0005a304       $chain$4$FillFarMacroCall  000000018005b304     exported.obj
 0001:0005a314       $unwind$LF_Gsub            000000018005b314     lflua.obj
 0001:0005a334       $unwind$LF_LoadFile        000000018005b334     lflua.obj
 0001:0005a348       $chain$1$LF_LoadFile       000000018005b348     lflua.obj
 0001:0005a360       $chain$3$LF_LoadFile       000000018005b360     lflua.obj
 0001:0005a378       $chain$2$LF_LoadFile       000000018005b378     lflua.obj
 0001:0005a378       $chain$4$LF_LoadFile       000000018005b378     lflua.obj
 0001:0005a388       $unwind$getF               000000018005b388     lflua.obj
 0001:0005a398       $unwind$luaLF_FieldError   000000018005b398     util.obj
 0001:0005a398       $unwind$??$__acrt_stdio_parse_mode@_W@@YA?AU__acrt_stdio_stream_mode@@QEB_W@Z 000000018005b398     libucrt:openfile.obj
 0001:0005a398       $unwind$errfile            000000018005b398     lflua.obj
 0001:0005a398       $unwind$_wcsdup            000000018005b398     libucrt:wcsdup.obj
 0001:0005a398       $unwind$luaLF_SlotError    000000018005b398     util.obj
 0001:0005a3ac       $unwind$check_regex_pattern 000000018005b3ac     lregex.obj
 0001:0005a3bc       $chain$1$check_regex_pattern 000000018005b3bc     lregex.obj
 0001:0005a3d4       $chain$2$check_regex_pattern 000000018005b3d4     lregex.obj
 0001:0005a3e4       $unwind$_regex_gmatch_closure 000000018005b3e4     lregex.obj
 0001:0005a3f4       $chain$1$_regex_gmatch_closure 000000018005b3f4     lregex.obj
 0001:0005a40c       $chain$2$_regex_gmatch_closure 000000018005b40c     lregex.obj
 0001:0005a40c       $chain$4$_regex_gmatch_closure 000000018005b40c     lregex.obj
 0001:0005a420       $chain$5$_regex_gmatch_closure 000000018005b420     lregex.obj
 0001:0005a430       $unwind$_Gmatch            000000018005b430     lregex.obj
 0001:0005a448       $unwind$rx_find_match      000000018005b448     lregex.obj
 0001:0005a464       $unwind$rx_gsub            000000018005b464     lregex.obj
 0001:0005a480       $unwind$FL_PushParams      000000018005b480     luamacro.obj
 0001:0005a48c       $chain$0$FL_PushParams     000000018005b48c     luamacro.obj
 0001:0005a4a0       $chain$1$FL_PushParams     000000018005b4a0     luamacro.obj
 0001:0005a4b4       $chain$2$FL_PushParams     000000018005b4b4     luamacro.obj
 0001:0005a4c8       $chain$3$FL_PushParams     000000018005b4c8     luamacro.obj
 0001:0005a4d8       $chain$4$FL_PushParams     000000018005b4d8     luamacro.obj
 0001:0005a4e8       $chain$5$FL_PushParams     000000018005b4e8     luamacro.obj
 0001:0005a4f8       $unwind$Open_Luamacro      000000018005b4f8     luamacro.obj
 0001:0005a50c       $chain$0$Open_Luamacro     000000018005b50c     luamacro.obj
 0001:0005a520       $chain$1$Open_Luamacro     000000018005b520     luamacro.obj
 0001:0005a530       $unwind$far_MacroCallFar   000000018005b530     luamacro.obj
 0001:0005a540       $chain$1$far_MacroCallFar  000000018005b540     luamacro.obj
 0001:0005a558       $chain$3$far_MacroCallFar  000000018005b558     luamacro.obj
 0001:0005a570       $chain$4$far_MacroCallFar  000000018005b570     luamacro.obj
 0001:0005a580       $chain$5$far_MacroCallFar  000000018005b580     luamacro.obj
 0001:0005a590       $chain$0$far_FarMacroCallToLua 000000018005b590     luamacro.obj
 0001:0005a5a4       $chain$1$far_FarMacroCallToLua 000000018005b5a4     luamacro.obj
 0001:0005a5b4       $unwind$CreateRegKey       000000018005b5b4     reg.obj
 0001:0005a5bc       $unwind$SetRegKeyArr       000000018005b5bc     reg.obj
 0001:0005a5bc       $unwind$SetRegKeyStr       000000018005b5bc     reg.obj
 0001:0005a5cc       $unwind$SetRegKeyDword     000000018005b5cc     reg.obj
 0001:0005a5d8       $unwind$sprintf            000000018005b5d8     bit64.obj
 0001:0005a5d8       $unwind$fscanf             000000018005b5d8     uliolib51.obj
 0001:0005a5d8       $unwind$fprintf            000000018005b5d8     service.obj
 0001:0005a5e4       $unwind$LF_DlgProc         000000018005b5e4     service.obj
 0001:0005a5f8       $chain$1$LF_DlgProc        000000018005b5f8     service.obj
 0001:0005a610       $chain$2$LF_DlgProc        000000018005b610     service.obj
 0001:0005a620       $unwind$LF_InitLuaState1   000000018005b620     service.obj
 0001:0005a62c       $chain$0$LF_InitLuaState1  000000018005b62c     service.obj
 0001:0005a640       $chain$2$LF_InitLuaState1  000000018005b640     service.obj
 0001:0005a658       $chain$3$LF_InitLuaState1  000000018005b658     service.obj
 0001:0005a668       $chain$4$LF_InitLuaState1  000000018005b668     service.obj
 0001:0005a678       $unwind$LF_Message         000000018005b678     service.obj
 0001:0005a688       $chain$1$LF_Message        000000018005b688     service.obj
 0001:0005a6a0       $chain$3$LF_Message        000000018005b6a0     service.obj
 0001:0005a6b8       $chain$4$LF_Message        000000018005b6b8     service.obj
 0001:0005a6cc       $chain$5$LF_Message        000000018005b6cc     service.obj
 0001:0005a6dc       $chain$6$LF_Message        000000018005b6dc     service.obj
 0001:0005a6f0       $chain$7$LF_Message        000000018005b6f0     service.obj
 0001:0005a700       $unwind$LF_RunLuafarInit   000000018005b700     service.obj
 0001:0005a70c       $unwind$PushPanelItem      000000018005b70c     service.obj
 0001:0005a718       $chain$0$PushPanelItem     000000018005b718     service.obj
 0001:0005a72c       $chain$1$PushPanelItem     000000018005b72c     service.obj
 0001:0005a73c       $chain$3$PushPanelItem     000000018005b73c     service.obj
 0001:0005a754       $chain$4$PushPanelItem     000000018005b754     service.obj
 0001:0005a764       $unwind$PushPanelItems     000000018005b764     service.obj
 0001:0005a774       $chain$3$PushPanelItems    000000018005b774     service.obj
 0001:0005a794       $chain$4$PushPanelItems    000000018005b794     service.obj
 0001:0005a7a4       $chain$0$DllMain           000000018005b7a4     service.obj
 0001:0005a7b8       $chain$1$DllMain           000000018005b7b8     service.obj
 0001:0005a7c8       $unwind$ConvertLuaValue    000000018005b7c8     service.obj
 0001:0005a7dc       $unwind$far_GetFileOwner   000000018005b7dc     service.obj
 0001:0005a7f0       $unwind$far_GetCurrentDirectory 000000018005b7f0     service.obj
 0001:0005a7f0       $unwind$far_LStrnicmp      000000018005b7f0     service.obj
 0001:0005a7f0       $unwind$far_ShowHelp       000000018005b7f0     service.obj
 0001:0005a804       $unwind$editor_GetInfo     000000018005b804     service.obj
 0001:0005a814       $chain$2$editor_GetInfo    000000018005b814     service.obj
 0001:0005a830       $chain$3$editor_GetInfo    000000018005b830     service.obj
 0001:0005a844       $chain$4$editor_GetInfo    000000018005b844     service.obj
 0001:0005a854       $chain$5$editor_GetInfo    000000018005b854     service.obj
 0001:0005a868       $unwind$_EditorGetString   000000018005b868     service.obj
 0001:0005a884       $unwind$_EditorSetString   000000018005b884     service.obj
 0001:0005a894       $unwind$plugin_load        000000018005b894     service.obj
 0001:0005a894       $unwind$far_CreateFileFilter 000000018005b894     service.obj
 0001:0005a894       $unwind$_EditorInsertText  000000018005b894     service.obj
 0001:0005a8a4       $unwind$editor_UndoRedo    000000018005b8a4     service.obj
 0001:0005a8b8       $unwind$FillKeyBarTitles   000000018005b8b8     service.obj
 0001:0005a8cc       $chain$1$FillKeyBarTitles  000000018005b8cc     service.obj
 0001:0005a8e4       $chain$2$FillKeyBarTitles  000000018005b8e4     service.obj
 0001:0005a8f4       $unwind$SetKeyBar          000000018005b8f4     service.obj
 0001:0005a90c       $unwind$editor_SetParam    000000018005b90c     service.obj
 0001:0005a924       $unwind$editor_SetPosition 000000018005b924     service.obj
 0001:0005a934       $unwind$far_LLowerBuf      000000018005b934     service.obj
 0001:0005a934       $unwind$far_LUpperBuf      000000018005b934     service.obj
 0001:0005a934       $unwind$editor_InsertString 000000018005b934     service.obj
 0001:0005a934       $unwind$far_FindPlugin     000000018005b934     service.obj
 0001:0005a934       $unwind$editor_ExpandTabs  000000018005b934     service.obj
 0001:0005a944       $unwind$PushBookmarks      000000018005b944     service.obj
 0001:0005a958       $chain$0$PushBookmarks     000000018005b958     service.obj
 0001:0005a96c       $chain$1$PushBookmarks     000000018005b96c     service.obj
 0001:0005a97c       $unwind$editor_GetSelection 000000018005b97c     service.obj
 0001:0005a994       $chain$1$editor_GetSelection 000000018005b994     service.obj
 0001:0005a9ac       $chain$3$editor_GetSelection 000000018005b9ac     service.obj
 0001:0005a9c4       $chain$2$editor_GetSelection 000000018005b9c4     service.obj
 0001:0005a9c4       $chain$4$editor_GetSelection 000000018005b9c4     service.obj
 0001:0005a9d4       $unwind$_EditorTabConvert  000000018005b9d4     service.obj
 0001:0005a9e8       $unwind$editor_AddColor    000000018005b9e8     service.obj
 0001:0005a9fc       $unwind$editor_DelColor    000000018005b9fc     service.obj
 0001:0005aa10       $unwind$editor_GetColor    000000018005ba10     service.obj
 0001:0005aa20       $unwind$SetFarDialogItem   000000018005ba20     service.obj
 0001:0005aa20       $unwind$pushresult         000000018005ba20     uliolib51.obj
 0001:0005aa20       $unwind$?find_or_allocate_unused_stream_nolock@@YA?AV__crt_stdio_stream@@XZ 000000018005ba20     libucrt:stream.obj
 0001:0005aa20       $unwind$__acrt_execute_initializers 000000018005ba20     libucrt:shared_initialization.obj
 0001:0005aa20       $unwind$OptInputRecord     000000018005ba20     service.obj
 0001:0005aa20       $unwind$?dllmain_raw@@YAHQEAUHINSTANCE__@@KQEAX@Z 000000018005ba20     LIBCMT:dll_dllmain.obj
 0001:0005aa20       $unwind$__acrt_free_locale 000000018005ba20     libucrt:locale_refcounting.obj
 0001:0005aa20       $unwind$MacroAddCallback   000000018005ba20     service.obj
 0001:0005aa20       $unwind$__acrt_lowio_create_handle_array 000000018005ba20     libucrt:osfinfo.obj
 0001:0005aa20       $unwind$win_CopyFile       000000018005ba20     win.obj
 0001:0005aa20       $unwind$??$ensure_buffer_is_big_enough@D@formatting_buffer@__crt_stdio_output@@QEAA_N_K@Z 000000018005ba20     libucrt:output.obj
 0001:0005aa20       $unwind$__acrt_InitializeCriticalSectionEx 000000018005ba20     libucrt:winapi_thunks.obj
 0001:0005aa20       $unwind$?setSBCS@@YAXPEAU__crt_multibyte_data@@@Z 000000018005ba20     libucrt:mbctype.obj
 0001:0005aa20       $unwind$io_popen           000000018005ba20     uliolib51.obj
 0001:0005aa20       $unwind$PackMacroValues    000000018005ba20     exported.obj
 0001:0005aa20       $unwind$__scrt_dllmain_exception_filter 000000018005ba20     LIBCMT:utility.obj
 0001:0005aa20       $unwind$docall             000000018005ba20     exported.obj
 0001:0005aa20       $unwind$__dcrt_get_wide_environment_from_os 000000018005ba20     libucrt:get_environment_from_os.obj
 0001:0005aa20       $unwind$ll_loadfunc        000000018005ba20     uloadlib51.obj
 0001:0005aa20       $unwind$??$common_getenv_nolock@_W@@YAPEA_WQEB_W@Z 000000018005ba20     libucrt:getenv.obj
 0001:0005aa20       $unwind$findfile           000000018005ba20     uloadlib51.obj
 0001:0005aa20       $unwind$FillPluginPanelItem 000000018005ba20     exported.obj
 0001:0005aa20       $unwind$push_far_regex     000000018005ba20     lregex.obj
 0001:0005aa20       $unwind$??$skip_whitespace@Vstream_input_adapter@__crt_stdio_input@@D@__crt_stdio_input@@YAHAEAV?$stream_input_adapter@D@0@QEAU__crt_locale_pointers@@@Z 000000018005ba20     libucrt:input.obj
 0001:0005aa20       $unwind$timer_index        000000018005ba20     service.obj
 0001:0005aa20       $unwind$AddBufToCollector  000000018005ba20     exported.obj
 0001:0005aa20       $unwind$timer_newindex     000000018005ba20     service.obj
 0001:0005aa20       $unwind$_recalloc_base     000000018005ba20     libucrt:recalloc.obj
 0001:0005aa20       $unwind$end_capture        000000018005ba20     slnunico.obj
 0001:0005aa20       $unwind$_seh_filter_exe    000000018005ba20     libucrt:exception_filter.obj
 0001:0005aa20       $unwind$InitMPR            000000018005ba20     luamacro.obj
 0001:0005aa20       $unwind$__vcrt_InitializeCriticalSectionEx 000000018005ba20     libvcruntime:winapi_downlevel.obj
 0001:0005aa34       $unwind$far_Menu           000000018005ba34     service.obj
 0001:0005aa54       $unwind$LF_Error           000000018005ba54     service.obj
 0001:0005aa60       $chain$0$LF_Error          000000018005ba60     service.obj
 0001:0005aa74       $chain$1$LF_Error          000000018005ba74     service.obj
 0001:0005aa84       $unwind$far_Message        000000018005ba84     service.obj
 0001:0005aaa0       $unwind$panel_GetPanelInfo 000000018005baa0     service.obj
 0001:0005aab0       $unwind$get_panel_item     000000018005bab0     service.obj
 0001:0005aac4       $unwind$get_string_info    000000018005bac4     service.obj
 0001:0005aadc       $unwind$panel_RedrawPanel  000000018005badc     service.obj
 0001:0005aaf0       $unwind$truncstring        000000018005baf0     service.obj
 0001:0005aaf0       $unwind$SetPanelBooleanProperty 000000018005baf0     service.obj
 0001:0005aaf0       $unwind$g_write            000000018005baf0     uliolib51.obj
 0001:0005ab04       $unwind$panel_GetPanelDirectory 000000018005bb04     service.obj
 0001:0005ab18       $unwind$panel_SetPanelDirectory 000000018005bb18     service.obj
 0001:0005ab28       $unwind$far_PluginStartupInfo 000000018005bb28     service.obj
 0001:0005ab28       $unwind$utf8_valid         000000018005bb28     slnunico.obj
 0001:0005ab28       $unwind$editor_InsertText  000000018005bb28     service.obj
 0001:0005ab28       $unwind$addquoted          000000018005bb28     slnunico.obj
 0001:0005ab28       $unwind$editor_DeleteSessionBookmark 000000018005bb28     service.obj
 0001:0005ab28       $unwind$editor_SetTitle    000000018005bb28     service.obj
 0001:0005ab28       $unwind$ustring_sub        000000018005bb28     ustring.obj
 0001:0005ab28       $unwind$far_MacroDelete    000000018005bb28     service.obj
 0001:0005ab28       $unwind$GetItemFlags       000000018005bb28     service.obj
 0001:0005ab28       $unwind$GetDialogItemType  000000018005bb28     service.obj
 0001:0005ab28       $unwind$panel_InsertCmdLine 000000018005bb28     service.obj
 0001:0005ab28       $unwind$panel_SetCmdLinePos 000000018005bb28     service.obj
 0001:0005ab28       $unwind$panel_ClosePanel   000000018005bb28     service.obj
 0001:0005ab28       $unwind$far_LStricmp       000000018005bb28     service.obj
 0001:0005ab28       $unwind$far_MkTemp         000000018005bb28     service.obj
 0001:0005ab28       $unwind$panel_SetCmdLine   000000018005bb28     service.obj
 0001:0005ab28       $unwind$panel_SetActivePanel 000000018005bb28     service.obj
 0001:0005ab38       $unwind$ChangePanelSelection 000000018005bb38     service.obj
 0001:0005ab50       $chain$0$ChangePanelSelection 000000018005bb50     service.obj
 0001:0005ab64       $chain$1$ChangePanelSelection 000000018005bb64     service.obj
 0001:0005ab78       $chain$2$ChangePanelSelection 000000018005bb78     service.obj
 0001:0005ab88       $chain$3$ChangePanelSelection 000000018005bb88     service.obj
 0001:0005ab98       $unwind$far_GetDirList     000000018005bb98     service.obj
 0001:0005aba4       $chain$0$far_GetDirList    000000018005bba4     service.obj
 0001:0005abb8       $chain$6$far_GetDirList    000000018005bbb8     service.obj
 0001:0005abe0       $chain$7$far_GetDirList    000000018005bbe0     service.obj
 0001:0005abf0       $chain$8$far_GetDirList    000000018005bbf0     service.obj
 0001:0005ac00       $unwind$far_GetPluginDirList 000000018005bc00     service.obj
 0001:0005ac0c       $unwind$far_RestoreScreen  000000018005bc0c     service.obj
 0001:0005ac18       $unwind$CreateList         000000018005bc18     service.obj
 0001:0005ac28       $chain$2$CreateList        000000018005bc28     service.obj
 0001:0005ac44       $chain$3$CreateList        000000018005bc44     service.obj
 0001:0005ac54       $unwind$PushList           000000018005bc54     service.obj
 0001:0005ac60       $chain$1$PushList          000000018005bc60     service.obj
 0001:0005ac78       $chain$2$PushList          000000018005bc78     service.obj
 0001:0005ac88       $unwind$PushDlgItemNum     000000018005bc88     service.obj
 0001:0005aca0       $unwind$SetDlgItem         000000018005bca0     service.obj
 0001:0005acb8       $unwind$far_SendDlgMessage 000000018005bcb8     service.obj
 0001:0005acd4       $chain$0$far_SendDlgMessage 000000018005bcd4     service.obj
 0001:0005ace8       $chain$1$far_SendDlgMessage 000000018005bce8     service.obj
 0001:0005acf8       $unwind$ProcessDNResult    000000018005bcf8     service.obj
 0001:0005ad08       $chain$0$ProcessDNResult   000000018005bd08     service.obj
 0001:0005ad1c       $chain$1$ProcessDNResult   000000018005bd1c     service.obj
 0001:0005ad30       $chain$2$ProcessDNResult   000000018005bd30     service.obj
 0001:0005ad40       $chain$3$ProcessDNResult   000000018005bd40     service.obj
 0001:0005ad50       $unwind$far_DialogInit     000000018005bd50     service.obj
 0001:0005ad68       $chain$0$far_DialogInit    000000018005bd68     service.obj
 0001:0005ad7c       $chain$1$far_DialogInit    000000018005bd7c     service.obj
 0001:0005ad8c       $unwind$editor_Editor      000000018005bd8c     service.obj
 0001:0005ad8c       $unwind$far_InputBox       000000018005bd8c     service.obj
 0001:0005ada4       $unwind$viewer_Viewer      000000018005bda4     service.obj
 0001:0005adbc       $unwind$viewer_GetInfo     000000018005bdbc     service.obj
 0001:0005adc8       $chain$1$viewer_GetInfo    000000018005bdc8     service.obj
 0001:0005ade0       $chain$2$viewer_GetInfo    000000018005bde0     service.obj
 0001:0005adf4       $chain$3$viewer_GetInfo    000000018005bdf4     service.obj
 0001:0005ae04       $chain$4$viewer_GetInfo    000000018005be04     service.obj
 0001:0005ae14       $unwind$panel_SetCmdLineSelection 000000018005be14     service.obj
 0001:0005ae14       $unwind$editor_SaveFile    000000018005be14     service.obj
 0001:0005ae14       $unwind$viewer_Select      000000018005be14     service.obj
 0001:0005ae24       $unwind$viewer_SetPosition 000000018005be24     service.obj
 0001:0005ae2c       $chain$2$viewer_SetPosition 000000018005be2c     service.obj
 0001:0005ae48       $chain$3$viewer_SetPosition 000000018005be48     service.obj
 0001:0005ae58       $unwind$editor_SubscribeChangeEvent 000000018005be58     service.obj
 0001:0005ae58       $unwind$_strupr_s_l        000000018005be58     libucrt:strupr.obj
 0001:0005ae58       $unwind$panel_GetCmdLineSelection 000000018005be58     service.obj
 0001:0005ae58       $unwind$Settings_delete    000000018005be58     service.obj
 0001:0005ae58       $unwind$editor_ProcessInput 000000018005be58     service.obj
 0001:0005ae58       $unwind$Settings_opensubkey 000000018005be58     service.obj
 0001:0005ae58       $unwind$viewer_SetMode     000000018005be58     service.obj
 0001:0005ae58       $unwind$editor_ReadInput   000000018005be58     service.obj
 0001:0005ae58       $unwind$far_NameToInputRecord 000000018005be58     service.obj
 0001:0005ae64       $unwind$far_Text           000000018005be64     service.obj
 0001:0005ae78       $chain$1$far_CopyToClipboard 000000018005be78     service.obj
 0001:0005ae90       $chain$2$far_CopyToClipboard 000000018005be90     service.obj
 0001:0005aea0       $unwind$far_PasteFromClipboard 000000018005bea0     service.obj
 0001:0005aeb4       $unwind$far_InputRecordToName 000000018005beb4     service.obj
 0001:0005aec0       $chain$0$far_InputRecordToName 000000018005bec0     service.obj
 0001:0005aed4       $chain$2$far_InputRecordToName 000000018005bed4     service.obj
 0001:0005aee8       $chain$3$far_InputRecordToName 000000018005bee8     service.obj
 0001:0005aef8       $unwind$far_ProcessName    000000018005bef8     service.obj
 0001:0005af0c       $chain$1$far_ProcessName   000000018005bf0c     service.obj
 0001:0005af20       $chain$2$far_ProcessName   000000018005bf20     service.obj
 0001:0005af34       $chain$3$far_ProcessName   000000018005bf34     service.obj
 0001:0005af44       $chain$4$far_ProcessName   000000018005bf44     service.obj
 0001:0005af44       $chain$6$far_ProcessName   000000018005bf44     service.obj
 0001:0005af54       $chain$5$far_ProcessName   000000018005bf54     service.obj
 0001:0005af68       $unwind$far_GetReparsePointInfo 000000018005bf68     service.obj
 0001:0005af78       $chain$0$far_GetReparsePointInfo 000000018005bf78     service.obj
 0001:0005af8c       $chain$1$far_GetReparsePointInfo 000000018005bf8c     service.obj
 0001:0005af9c       $unwind$far_GetPathRoot    000000018005bf9c     service.obj
 0001:0005af9c       $unwind$editor_GetFileName 000000018005bf9c     service.obj
 0001:0005af9c       $unwind$panel_GetCmdLine   000000018005bf9c     service.obj
 0001:0005af9c       $unwind$FillInputRecord    000000018005bf9c     service.obj
 0001:0005af9c       $unwind$luaopen_far        000000018005bf9c     service.obj
 0001:0005af9c       $unwind$far_MkLink         000000018005bf9c     service.obj
 0001:0005af9c       $unwind$editor_GetTitle    000000018005bf9c     service.obj
 0001:0005af9c       $unwind$viewer_GetFileName 000000018005bf9c     service.obj
 0001:0005afb0       $unwind$far_AdvControl     000000018005bfb0     service.obj
 0001:0005afcc       $chain$0$far_AdvControl    000000018005bfcc     service.obj
 0001:0005afe0       $chain$1$far_AdvControl    000000018005bfe0     service.obj
 0001:0005aff0       $chain$0$far_MacroLoadAll  000000018005bff0     service.obj
 0001:0005b004       $chain$1$far_MacroLoadAll  000000018005c004     service.obj
 0001:0005b014       $unwind$editor_Select      000000018005c014     service.obj
 0001:0005b014       $unwind$MacroSendString    000000018005c014     service.obj
 0001:0005b028       $unwind$far_MacroGetLastError 000000018005c028     service.obj
 0001:0005b038       $chain$0$far_MacroGetLastError 000000018005c038     service.obj
 0001:0005b04c       $chain$1$far_MacroGetLastError 000000018005c04c     service.obj
 0001:0005b05c       $unwind$far_MacroAdd       000000018005c05c     service.obj
 0001:0005b070       $unwind$far_MacroExecute   000000018005c070     service.obj
 0001:0005b078       $chain$2$far_MacroExecute  000000018005c078     service.obj
 0001:0005b094       $chain$3$far_MacroExecute  000000018005c094     service.obj
 0001:0005b0a4       $unwind$far_MakeMenuItems  000000018005c0a4     service.obj
 0001:0005b0b0       $chain$1$far_MakeMenuItems 000000018005c0b0     service.obj
 0001:0005b0c8       $chain$5$far_MakeMenuItems 000000018005c0c8     service.obj
 0001:0005b0e8       $chain$6$far_MakeMenuItems 000000018005c0e8     service.obj
 0001:0005b0f8       $chain$8$far_MakeMenuItems 000000018005c0f8     service.obj
 0001:0005b110       $chain$9$far_MakeMenuItems 000000018005c110     service.obj
 0001:0005b120       $unwind$filefilter_IsFileInFilter 000000018005c120     service.obj
 0001:0005b134       $unwind$PutPluginMenuItemToTable 000000018005c134     service.obj
 0001:0005b134       $unwind$LF_GetContentFields 000000018005c134     exported.obj
 0001:0005b134       $unwind$LF_GetContentData  000000018005c134     exported.obj
 0001:0005b148       $chain$0$PutPluginMenuItemToTable 000000018005c148     service.obj
 0001:0005b15c       $chain$1$PutPluginMenuItemToTable 000000018005c15c     service.obj
 0001:0005b16c       $unwind$far_GetPluginInformation 000000018005c16c     service.obj
 0001:0005b17c       $chain$0$far_GetPluginInformation 000000018005c17c     service.obj
 0001:0005b190       $chain$1$far_GetPluginInformation 000000018005c190     service.obj
 0001:0005b1a0       $unwind$far_GetPlugins     000000018005c1a0     service.obj
 0001:0005b1ac       $chain$2$far_GetPlugins    000000018005c1ac     service.obj
 0001:0005b1c8       $chain$3$far_GetPlugins    000000018005c1c8     service.obj
 0001:0005b1d8       $unwind$far_IsPluginLoaded 000000018005c1d8     service.obj
 0001:0005b1e8       $chain$0$far_IsPluginLoaded 000000018005c1e8     service.obj
 0001:0005b1fc       $chain$1$far_IsPluginLoaded 000000018005c1fc     service.obj
 0001:0005b20c       $unwind$SetPanelIntegerProperty 000000018005c20c     service.obj
 0001:0005b20c       $unwind$far_XLat           000000018005c20c     service.obj
 0001:0005b20c       $unwind$far_ConvertPath    000000018005c20c     service.obj
 0001:0005b220       $unwind$far_FormatFileSize 000000018005c220     service.obj
 0001:0005b238       $unwind$utf8_count         000000018005c238     slnunico.obj
 0001:0005b238       $unwind$TimerThreadFunc    000000018005c238     service.obj
 0001:0005b248       $chain$0$TimerThreadFunc   000000018005c248     service.obj
 0001:0005b25c       $chain$1$TimerThreadFunc   000000018005c25c     service.obj
 0001:0005b26c       $unwind$far_CreateSettings 000000018005c26c     service.obj
 0001:0005b27c       $unwind$Settings_set       000000018005c27c     service.obj
 0001:0005b290       $unwind$Settings_get       000000018005c290     service.obj
 0001:0005b2a0       $unwind$Settings_createsubkey 000000018005c2a0     service.obj
 0001:0005b2b4       $unwind$Settings_enum      000000018005c2b4     service.obj
 0001:0005b2cc       $chain$0$Settings_enum     000000018005c2cc     service.obj
 0001:0005b2e0       $chain$2$Settings_enum     000000018005c2e0     service.obj
 0001:0005b2f4       $chain$3$Settings_enum     000000018005c2f4     service.obj
 0001:0005b2f4       $chain$1$Settings_enum     000000018005c2f4     service.obj
 0001:0005b304       $unwind$far_ColorDialog    000000018005c304     service.obj
 0001:0005b314       $unwind$_snwprintf         000000018005c314     slnunico.obj
 0001:0005b324       $unwind$iswctype           000000018005c324     libucrt:iswctype.obj
 0001:0005b324       $unwind$utf8_enco          000000018005c324     slnunico.obj
 0001:0005b324       $unwind$__acrt_is_packaged_app 000000018005c324     libucrt:winapi_thunks.obj
 0001:0005b330       $chain$0$utf8_enco         000000018005c330     slnunico.obj
 0001:0005b344       $chain$1$utf8_enco         000000018005c344     slnunico.obj
 0001:0005b354       $unwind$utf8_graphext      000000018005c354     slnunico.obj
 0001:0005b354       $unwind$__GSHandlerCheckCommon 000000018005c354     LIBCMT:_gshandler_.obj
 0001:0005b35c       $chain$0$utf8_graphext     000000018005c35c     slnunico.obj
 0001:0005b370       $chain$1$utf8_graphext     000000018005c370     slnunico.obj
 0001:0005b380       $chain$0$utf8_count        000000018005c380     slnunico.obj
 0001:0005b394       $chain$1$utf8_count        000000018005c394     slnunico.obj
 0001:0005b3a8       $chain$2$utf8_count        000000018005c3a8     slnunico.obj
 0001:0005b3b8       $chain$3$utf8_count        000000018005c3b8     slnunico.obj
 0001:0005b3c8       $unwind$unic_sub           000000018005c3c8     slnunico.obj
 0001:0005b3c8       $unwind$unic_byte          000000018005c3c8     slnunico.obj
 0001:0005b3e0       $unwind$str_reverse        000000018005c3e0     slnunico.obj
 0001:0005b3f4       $chain$0$str_reverse       000000018005c3f4     slnunico.obj
 0001:0005b408       $chain$1$str_reverse       000000018005c408     slnunico.obj
 0001:0005b418       $chain$1$unic_lower        000000018005c418     slnunico.obj
 0001:0005b430       $chain$2$unic_lower        000000018005c430     slnunico.obj
 0001:0005b440       $unwind$unic_lower         000000018005c440     slnunico.obj
 0001:0005b440       $unwind$unic_upper         000000018005c440     slnunico.obj
 0001:0005b450       $chain$1$unic_upper        000000018005c450     slnunico.obj
 0001:0005b468       $chain$2$unic_upper        000000018005c468     slnunico.obj
 0001:0005b478       $unwind$str_rep            000000018005c478     slnunico.obj
 0001:0005b48c       $unwind$unic_char          000000018005c48c     slnunico.obj
 0001:0005b4a4       $chain$0$unic_char         000000018005c4a4     slnunico.obj
 0001:0005b4b8       $chain$1$unic_char         000000018005c4b8     slnunico.obj
 0001:0005b4c8       $unwind$str_dump           000000018005c4c8     slnunico.obj
 0001:0005b4d4       $unwind$classend           000000018005c4d4     slnunico.obj
 0001:0005b4d4       $unwind$??$free_environment@_W@@YAXQEAPEA_W@Z 000000018005c4d4     libucrt:environment_initialization.obj
 0001:0005b4d4       $unwind$??$free_environment@D@@YAXQEAPEAD@Z 000000018005c4d4     libucrt:environment_initialization.obj
 0001:0005b4e0       $unwind$match_class        000000018005c4e0     slnunico.obj
 0001:0005b4f0       $unwind$singlematch        000000018005c4f0     slnunico.obj
 0001:0005b50c       $unwind$match              000000018005c50c     slnunico.obj
 0001:0005b520       $unwind$min_expand         000000018005c520     slnunico.obj
 0001:0005b538       $unwind$lmemfind           000000018005c538     slnunico.obj
 0001:0005b54c       $chain$0$lmemfind          000000018005c54c     slnunico.obj
 0001:0005b560       $chain$1$lmemfind          000000018005c560     slnunico.obj
 0001:0005b570       $chain$2$lmemfind          000000018005c570     slnunico.obj
 0001:0005b584       $chain$1$push_onecapture   000000018005c584     slnunico.obj
 0001:0005b59c       $chain$3$push_onecapture   000000018005c59c     slnunico.obj
 0001:0005b5b4       $unwind$push_captures      000000018005c5b4     slnunico.obj
 0001:0005b5cc       $chain$0$push_captures     000000018005c5cc     slnunico.obj
 0001:0005b5e0       $chain$1$push_captures     000000018005c5e0     slnunico.obj
 0001:0005b5f0       $chain$2$push_captures     000000018005c5f0     slnunico.obj
 0001:0005b604       $unwind$unic_find_aux      000000018005c604     slnunico.obj
 0001:0005b620       $unwind$gmatch_aux         000000018005c620     slnunico.obj
 0001:0005b620       $unwind$far_SaveScreen     000000018005c620     service.obj
 0001:0005b638       $unwind$gmatch             000000018005c638     slnunico.obj
 0001:0005b648       $unwind$add_s              000000018005c648     slnunico.obj
 0001:0005b660       $unwind$unic_gsub          000000018005c660     slnunico.obj
 0001:0005b680       $unwind$scanformat         000000018005c680     slnunico.obj
 0001:0005b680       $unwind$getPluginMenuItems 000000018005c680     exported.obj
 0001:0005b698       $unwind$str_format         000000018005c698     slnunico.obj
 0001:0005b6b4       $unwind$editor_DeleteChar  000000018005c6b4     service.obj
 0001:0005b6b4       $unwind$?process_conversion_specifier@?$input_processor@DV?$stream_input_adapter@D@__crt_stdio_input@@@__crt_stdio_input@@AEAA_NXZ 000000018005c6b4     libucrt:input.obj
 0001:0005b6b4       $unwind$editor_DeleteBlock 000000018005c6b4     service.obj
 0001:0005b6b4       $unwind$modinit            000000018005c6b4     uloadlib51.obj
 0001:0005b6b4       $unwind$__acrt_stdio_begin_temporary_buffering_nolock 000000018005c6b4     libucrt:_sftbuf.obj
 0001:0005b6b4       $unwind$LF_FreeFindData    000000018005c6b4     exported.obj
 0001:0005b6b4       $unwind$GetFileSizeFromTable 000000018005c6b4     util.obj
 0001:0005b6b4       $unwind$?process_literal_character_tchar@?$input_processor@DV?$stream_input_adapter@D@__crt_stdio_input@@@__crt_stdio_input@@AEAA_ND@Z 000000018005c6b4     libucrt:input.obj
 0001:0005b6b4       $unwind$method_bracketscount 000000018005c6b4     lregex.obj
 0001:0005b6b4       $unwind$newfile            000000018005c6b4     uliolib51.obj
 0001:0005b6b4       $unwind$CheckFlagsFromTable 000000018005c6b4     service.obj
 0001:0005b6b4       $unwind$tofile             000000018005c6b4     uliolib51.obj
 0001:0005b6b4       $unwind$editor_Redraw      000000018005c6b4     service.obj
 0001:0005b6b4       $unwind$?process_floating_point_specifier@?$input_processor@DV?$stream_input_adapter@D@__crt_stdio_input@@@__crt_stdio_input@@AEAA_NXZ 000000018005c6b4     libucrt:input.obj
 0001:0005b6b4       $unwind$__vcrt_FlsGetValue 000000018005c6b4     libvcruntime:winapi_downlevel.obj
 0001:0005b6b4       $unwind$?process_state@?$input_processor@DV?$stream_input_adapter@D@__crt_stdio_input@@@__crt_stdio_input@@AEAA_NXZ 000000018005c6b4     libucrt:input.obj
 0001:0005b6b4       $unwind$io_type            000000018005c6b4     uliolib51.obj
 0001:0005b6b4       $unwind$PutFlagsToTable    000000018005c6b4     service.obj
 0001:0005b6b4       $unwind$editor_AddSessionBookmark 000000018005c6b4     service.obj
 0001:0005b6b4       $unwind$DialogHandleEqual  000000018005c6b4     service.obj
 0001:0005b6b4       $unwind$editor_ClearSessionBookmarks 000000018005c6b4     service.obj
 0001:0005b6b4       $unwind$far_GetMsg         000000018005c6b4     service.obj
 0001:0005b6b4       $unwind$strncpy_s          000000018005c6b4     libucrt:strncpy_s.obj
 0001:0005b6b4       $unwind$PushPluginHandle   000000018005c6b4     service.obj
 0001:0005b6b4       $unwind$editor_NextSessionBookmark 000000018005c6b4     service.obj
 0001:0005b6b4       $unwind$editor_PrevSessionBookmark 000000018005c6b4     service.obj
 0001:0005b6b4       $unwind$editor_DeleteString 000000018005c6b4     service.obj
 0001:0005b6b4       $unwind$?write_integer@?$input_processor@DV?$stream_input_adapter@D@__crt_stdio_input@@@__crt_stdio_input@@AEAA_N_K_N@Z 000000018005c6b4     libucrt:input.obj
 0001:0005b6b4       $unwind$editor_Quit        000000018005c6b4     service.obj
 0001:0005b6b4       $unwind$__acrt_invoke_user_matherr 000000018005c6b4     libucrt:matherr.obj
 0001:0005b6b4       $unwind$??$get_tmpfile_buffer_nolock@D@@YAPEADW4buffer_id@?A0xe462fda7@@@Z 000000018005c6b4     libucrt:tmpfile.obj
 0001:0005b6b4       $unwind$GetAttrFromTable   000000018005c6b4     util.obj
 0001:0005b6b4       $unwind$f_write            000000018005c6b4     uliolib51.obj
 0001:0005b6b4       $unwind$_realloc_base      000000018005c6b4     libucrt:realloc_base.obj
 0001:0005b6b4       $unwind$ustring_EnumSystemCodePages 000000018005c6b4     ustring.obj
 0001:0005b6b4       $unwind$loader_preload     000000018005c6b4     uloadlib51.obj
 0001:0005b6b4       $unwind$PushDlgItem        000000018005c6b4     service.obj
 0001:0005b6b4       $unwind$SysErrorReturn     000000018005c6b4     ustring.obj
 0001:0005b6b4       $unwind$viewer_Redraw      000000018005c6b4     service.obj
 0001:0005b6b4       $unwind$GetBoolFromTable   000000018005c6b4     ustring.obj
 0001:0005b6b4       $unwind$GetOptBoolFromTable 000000018005c6b4     ustring.obj
 0001:0005b6b4       $unwind$RegisterObject     000000018005c6b4     exported.obj
 0001:0005b6b4       $unwind$far_GetNumberOfLinks 000000018005c6b4     service.obj
 0001:0005b6b4       $unwind$viewer_Quit        000000018005c6b4     service.obj
 0001:0005b6b4       $unwind$GetOptIntFromArray 000000018005c6b4     ustring.obj
 0001:0005b6b4       $unwind$??R<lambda_faed2df532bb37849f111efe98abdd75>@@QEBA_NXZ 000000018005c6b4     libucrt:input.obj
 0001:0005b6b4       $unwind$GetMouseEvent      000000018005c6b4     service.obj
 0001:0005b6b4       $unwind$PushInputRecord    000000018005c6b4     service.obj
 0001:0005b6b4       $unwind$__vcrt_FlsFree     000000018005c6b4     libvcruntime:winapi_downlevel.obj
 0001:0005b6b4       $unwind$mkfuncname         000000018005c6b4     uloadlib51.obj
 0001:0005b6b4       $unwind$??R<lambda_037e91eb5f7fe3a681de8d8491e423b3>@@QEBA_NXZ 000000018005c6b4     libucrt:input.obj
 0001:0005b6b4       $unwind$_callnewh          000000018005c6b4     libucrt:new_handler.obj
 0001:0005b6b4       $unwind$free_dialog        000000018005c6b4     service.obj
 0001:0005b6b4       $unwind$GetOptIntFromTable 000000018005c6b4     ustring.obj
 0001:0005b6b4       $unwind$?replace_current_thread_locale_nolock@@YAXQEAU__acrt_ptd@@QEAU__crt_locale_data@@@Z 000000018005c6b4     libucrt:per_thread_data.obj
 0001:0005b6b4       $unwind$FillEditorSetPosition 000000018005c6b4     service.obj
 0001:0005b6b4       $unwind$__acrt_getptd      000000018005c6b4     libucrt:per_thread_data.obj
 0001:0005b6b4       $unwind$far_DialogFree     000000018005c6b4     service.obj
 0001:0005b6b4       $unwind$method_tostring    000000018005c6b4     lregex.obj
 0001:0005b6b4       $unwind$LF_Analyse         000000018005c6b4     exported.obj
 0001:0005b6b4       $unwind$__acrt_errno_map_os_error 000000018005c6b4     libucrt:errno.obj
 0001:0005b6b4       $unwind$method_gc          000000018005c6b4     lregex.obj
 0001:0005b6b4       $unwind$loader_Lua         000000018005c6b4     uloadlib51.obj
 0001:0005b6b4       $unwind$__vcrt_FlsAlloc    000000018005c6b4     libvcruntime:winapi_downlevel.obj
 0001:0005b6b4       $unwind$arshift            000000018005c6b4     bit64.obj
 0001:0005b6b4       $unwind$rshift             000000018005c6b4     bit64.obj
 0001:0005b6b4       $unwind$_ungetc_nolock     000000018005c6b4     libucrt:ungetc.obj
 0001:0005b6b4       $unwind$lshift             000000018005c6b4     bit64.obj
 0001:0005b6b4       $unwind$_close_nolock      000000018005c6b4     libucrt:close.obj
 0001:0005b6b4       $unwind$??$common_initialize_environment_nolock@_W@@YAHXZ 000000018005c6b4     libucrt:environment_initialization.obj
 0001:0005b6b4       $unwind$??$common_initialize_environment_nolock@D@@YAHXZ 000000018005c6b4     libucrt:environment_initialization.obj
 0001:0005b6b4       $unwind$PutBoolToTable     000000018005c6b4     ustring.obj
 0001:0005b6b4       $unwind$_fclose_nolock     000000018005c6b4     libucrt:fclose.obj
 0001:0005b6b4       $unwind$unic_len           000000018005c6b4     slnunico.obj
 0001:0005b6b4       $unwind$PushFarMacroValue  000000018005c6b4     exported.obj
 0001:0005b6b4       $unwind$PushAnalyseInfo    000000018005c6b4     exported.obj
 0001:0005b6b4       $unwind$ll_loadlib         000000018005c6b4     uloadlib51.obj
 0001:0005b6b4       $unwind$__acrt_wgetpath    000000018005c6b4     libucrt:getpath.obj
 0001:0005b6b4       $unwind$CheckFlags         000000018005c6b4     service.obj
 0001:0005b6b4       $unwind$io_tmpfile         000000018005c6b4     uliolib51.obj
 0001:0005b6b4       $unwind$PutIntToArray      000000018005c6b4     ustring.obj
 0001:0005b6b4       $unwind$func_New           000000018005c6b4     lregex.obj
 0001:0005b6b4       $unwind$PushFarColor       000000018005c6b4     service.obj
 0001:0005b6b4       $unwind$PutIntToTable      000000018005c6b4     ustring.obj
 0001:0005b6b4       $unwind$PutMouseEvent      000000018005c6b4     service.obj
 0001:0005b6b4       $unwind$__acrt_FlsGetValue 000000018005c6b4     libucrt:winapi_thunks.obj
 0001:0005b6b4       $unwind$__acrt_FlsFree     000000018005c6b4     libucrt:winapi_thunks.obj
 0001:0005b6b4       $unwind$__acrt_FlsAlloc    000000018005c6b4     libucrt:winapi_thunks.obj
 0001:0005b6b4       $unwind$GetExportFunction  000000018005c6b4     exported.obj
 0001:0005b6b4       $unwind$io_write           000000018005c6b4     uliolib51.obj
 0001:0005b6b4       $unwind$pushSystemTime     000000018005c6b4     win.obj
 0001:0005b6b4       $unwind$far_LIsUpper       000000018005c6b4     service.obj
 0001:0005b6b4       $unwind$LF_FreeContentData 000000018005c6b4     exported.obj
 0001:0005b6b4       $unwind$__acrt_uninitialize_lowio 000000018005c6b4     libucrt:ioinit.obj
 0001:0005b6b4       $unwind$PushWinFindData    000000018005c6b4     win.obj
 0001:0005b6b4       $unwind$panel_IsActivePanel 000000018005c6b4     service.obj
 0001:0005b6b4       $unwind$PutLStrToTable     000000018005c6b4     ustring.obj
 0001:0005b6b4       $unwind$far_LIsLower       000000018005c6b4     service.obj
 0001:0005b6b4       $unwind$panel_CheckPanelsExist 000000018005c6b4     service.obj
 0001:0005b6b4       $unwind$__vcrt_EventUnregister 000000018005c6b4     libvcruntime:winapi_downlevel.obj
 0001:0005b6b4       $unwind$panel_GetUserScreen 000000018005c6b4     service.obj
 0001:0005b6b4       $unwind$far_LIsAlphanum    000000018005c6b4     service.obj
 0001:0005b6b4       $unwind$panel_SetUserScreen 000000018005c6b4     service.obj
 0001:0005b6b4       $unwind$?internal_isupper_l@@YA_NHQEAU__crt_locale_pointers@@@Z 000000018005c6b4     libucrt:tolower_toupper.obj
 0001:0005b6b4       $unwind$far_LIsAlpha       000000018005c6b4     service.obj
 0001:0005b6b4       $unwind$_updatetlocinfoEx_nolock 000000018005c6b4     libucrt:locale_refcounting.obj
 0001:0005b6b4       $unwind$win_DeleteRegKey   000000018005c6b4     win.obj
 0001:0005b6b4       $unwind$??0_LocaleUpdate@@QEAA@QEAU__crt_locale_pointers@@@Z 000000018005c6b4     libucrt:output.obj
 0001:0005b6b4       $unwind$io_read            000000018005c6b4     uliolib51.obj
 0001:0005b6b4       $unwind$f_read             000000018005c6b4     uliolib51.obj
 0001:0005b6b4       $unwind$LF_InitLuaState2   000000018005c6b4     service.obj
 0001:0005b6b4       $unwind$bit64_push         000000018005c6b4     bit64.obj
 0001:0005b6b4       $unwind$CheckHKey          000000018005c6b4     win.obj
 0001:0005b6b4       $unwind$Settings_free      000000018005c6b4     service.obj
 0001:0005b6b4       $unwind$win_SetEnv         000000018005c6b4     win.obj
 0001:0005b6b4       $unwind$?type_case_c_tchar@?$output_processor@DV?$string_output_adapter@D@__crt_stdio_output@@V?$standard_base@DV?$string_output_adapter@D@__crt_stdio_output@@@2@@__crt_stdio_output@@AEAA_ND@Z 000000018005c6b4     libucrt:output.obj
 0001:0005b6b4       $unwind$LF_ProcessEditorInput 000000018005c6b4     exported.obj
 0001:0005b6b4       $unwind$PutNumToTable      000000018005c6b4     ustring.obj
 0001:0005b6b4       $unwind$far_Show           000000018005c6b4     service.obj
 0001:0005b6b4       $unwind$bit64_pushuserdata 000000018005c6b4     bit64.obj
 0001:0005b6b4       $unwind$CheckReloadDefaultScript 000000018005c6b4     exported.obj
 0001:0005b6b4       $unwind$filefilter_Free    000000018005c6b4     service.obj
 0001:0005b6b4       $unwind$PutStrToArray      000000018005c6b4     ustring.obj
 0001:0005b6b4       $unwind$panel_GetCmdLinePos 000000018005c6b4     service.obj
 0001:0005b6b4       $unwind$?try_cor_exit_process@@YAXI@Z 000000018005c6b4     libucrt:exit.obj
 0001:0005b6b4       $unwind$?force_decimal_point@__crt_stdio_output@@YAXPEADQEAU__crt_locale_pointers@@@Z 000000018005c6b4     libucrt:output.obj
 0001:0005b6b4       $unwind$PutStrToTable      000000018005c6b4     ustring.obj
 0001:0005b6b4       $unwind$filefilter_OpenMenu 000000018005c6b4     service.obj
 0001:0005b6b4       $unwind$filefilter_Starting 000000018005c6b4     service.obj
 0001:0005b6b4       $unwind$LF_GetLuafarAPI    000000018005c6b4     service.obj
 0001:0005b6b4       $unwind$far_UnloadPlugin   000000018005c6b4     service.obj
 0001:0005b6b4       $unwind$?type_case_c_tchar@?$output_processor@DV?$stream_output_adapter@D@__crt_stdio_output@@V?$standard_base@DV?$stream_output_adapter@D@__crt_stdio_output@@@2@@__crt_stdio_output@@AEAA_ND@Z 000000018005c6b4     libucrt:output.obj
 0001:0005b6b4       $unwind$??R<lambda_b9821a569aa5955fc6d82138aaf53eb6>@@QEBA_NXZ 000000018005c6b4     libucrt:input.obj
 0001:0005b6c0       $unwind$g_iofile           000000018005c6c0     uliolib51.obj
 0001:0005b6d0       $chain$0$g_iofile          000000018005c6d0     uliolib51.obj
 0001:0005b6e4       $chain$1$g_iofile          000000018005c6e4     uliolib51.obj
 0001:0005b6f8       $chain$2$g_iofile          000000018005c6f8     uliolib51.obj
 0001:0005b708       $chain$3$g_iofile          000000018005c708     uliolib51.obj
 0001:0005b718       $chain$1$io_lines          000000018005c718     uliolib51.obj
 0001:0005b730       $chain$2$io_lines          000000018005c730     uliolib51.obj
 0001:0005b744       $unwind$read_line          000000018005c744     uliolib51.obj
 0001:0005b758       $unwind$read_chars         000000018005c758     uliolib51.obj
 0001:0005b770       $unwind$g_read             000000018005c770     uliolib51.obj
 0001:0005b788       $unwind$setprogdir         000000018005c788     uloadlib51.obj
 0001:0005b794       $unwind$ll_register        000000018005c794     uloadlib51.obj
 0001:0005b7a4       $unwind$pushnexttemplate   000000018005c7a4     uloadlib51.obj
 0001:0005b7b4       $unwind$loader_Croot       000000018005c7b4     uloadlib51.obj
 0001:0005b7c4       $unwind$setfenv            000000018005c7c4     uloadlib51.obj
 0001:0005b7d0       $chain$2$luaopen_upackage  000000018005c7d0     uloadlib51.obj
 0001:0005b7ec       $chain$3$luaopen_upackage  000000018005c7ec     uloadlib51.obj
 0001:0005b7fc       $unwind$pusherrorcode      000000018005c7fc     ustring.obj
 0001:0005b80c       $unwind$GetOptNumFromTable 000000018005c80c     ustring.obj
 0001:0005b818       $unwind$opt_utf8_string    000000018005c818     ustring.obj
 0001:0005b830       $unwind$convert_multibyte_string 000000018005c830     ustring.obj
 0001:0005b84c       $unwind$push_multibyte_string 000000018005c84c     ustring.obj
 0001:0005b860       $chain$2$push_multibyte_string 000000018005c860     ustring.obj
 0001:0005b878       $chain$3$push_multibyte_string 000000018005c878     ustring.obj
 0001:0005b88c       $unwind$ustring_WideCharToMultiByte 000000018005c88c     ustring.obj
 0001:0005b8a0       $chain$1$ustring_WideCharToMultiByte 000000018005c8a0     ustring.obj
 0001:0005b8b8       $chain$2$ustring_WideCharToMultiByte 000000018005c8b8     ustring.obj
 0001:0005b8c8       $unwind$ustring_MultiByteToWideChar 000000018005c8c8     ustring.obj
 0001:0005b8e4       $unwind$ustring_OemToUtf8  000000018005c8e4     ustring.obj
 0001:0005b8f0       $chain$1$ustring_OemToUtf8 000000018005c8f0     ustring.obj
 0001:0005b908       $chain$2$ustring_OemToUtf8 000000018005c908     ustring.obj
 0001:0005b918       $unwind$ustring_Utf8ToUtf16 000000018005c918     ustring.obj
 0001:0005b928       $chain$0$ustring_Utf8ToUtf16 000000018005c928     ustring.obj
 0001:0005b93c       $chain$1$ustring_Utf8ToUtf16 000000018005c93c     ustring.obj
 0001:0005b94c       $unwind$EnumCodePagesProc  000000018005c94c     ustring.obj
 0001:0005b94c       $unwind$PutWStrToTable     000000018005c94c     ustring.obj
 0001:0005b94c       $unwind$?convert_hexadecimal_string_to_floating_type_common@__crt_strtox@@YA?AW4SLD_STATUS@@AEBUfloating_point_string@1@AEBVfloating_point_value@1@@Z 000000018005c94c     libucrt:input.obj
 0001:0005b94c       $unwind$strerror           000000018005c94c     libucrt:strerror.obj
 0001:0005b958       $unwind$ustring_GetCPInfo  000000018005c958     ustring.obj
 0001:0005b970       $unwind$ustring_GetLogicalDriveStrings 000000018005c970     ustring.obj
 0001:0005b980       $chain$0$ustring_GetLogicalDriveStrings 000000018005c980     ustring.obj
 0001:0005b994       $chain$1$ustring_GetLogicalDriveStrings 000000018005c994     ustring.obj
 0001:0005b9a4       $unwind$ustring_SearchPath 000000018005c9a4     ustring.obj
 0001:0005b9bc       $unwind$ustring_GlobalMemoryStatus 000000018005c9bc     ustring.obj
 0001:0005b9c4       $chain$0$ustring_GlobalMemoryStatus 000000018005c9c4     ustring.obj
 0001:0005b9d8       $chain$2$ustring_GlobalMemoryStatus 000000018005c9d8     ustring.obj
 0001:0005b9ec       $unwind$ustring_GetFileAttr 000000018005c9ec     ustring.obj
 0001:0005b9ec       $unwind$ustring_SetCurrentDir 000000018005c9ec     ustring.obj
 0001:0005b9ec       $unwind$ustring_SetFileAttr 000000018005c9ec     ustring.obj
 0001:0005b9f8       $chain$2$ustring_SetFileAttr 000000018005c9f8     ustring.obj
 0001:0005ba14       $chain$3$ustring_SetFileAttr 000000018005ca14     ustring.obj
 0001:0005ba24       $chain$2$ustring_GetFileAttr 000000018005ca24     ustring.obj
 0001:0005ba40       $chain$3$ustring_GetFileAttr 000000018005ca40     ustring.obj
 0001:0005ba50       $unwind$ustring_SHGetFolderPath 000000018005ca50     ustring.obj
 0001:0005ba60       $chain$1$ustring_SHGetFolderPath 000000018005ca60     ustring.obj
 0001:0005ba78       $chain$2$ustring_SHGetFolderPath 000000018005ca78     ustring.obj
 0001:0005ba88       $unwind$ustring_OutputDebugString 000000018005ca88     ustring.obj
 0001:0005ba9c       $chain$0$ustring_OutputDebugString 000000018005ca9c     ustring.obj
 0001:0005bab0       $chain$1$ustring_OutputDebugString 000000018005cab0     ustring.obj
 0001:0005bac0       $unwind$ustring_GetCurrentDir 000000018005cac0     ustring.obj
 0001:0005bad4       $chain$0$ustring_GetCurrentDir 000000018005cad4     ustring.obj
 0001:0005bae8       $chain$1$ustring_GetCurrentDir 000000018005cae8     ustring.obj
 0001:0005bafc       $chain$2$ustring_GetCurrentDir 000000018005cafc     ustring.obj
 0001:0005bb0c       $chain$3$ustring_GetCurrentDir 000000018005cb0c     ustring.obj
 0001:0005bb1c       $chain$2$ustring_SetCurrentDir 000000018005cb1c     ustring.obj
 0001:0005bb38       $chain$3$ustring_SetCurrentDir 000000018005cb38     ustring.obj
 0001:0005bb48       $unwind$win_GetEnv         000000018005cb48     win.obj
 0001:0005bb5c       $chain$0$win_GetEnv        000000018005cb5c     win.obj
 0001:0005bb70       $chain$1$win_GetEnv        000000018005cb70     win.obj
 0001:0005bb80       $unwind$win_SetRegKey      000000018005cb80     win.obj
 0001:0005bb98       $unwind$far_Timer          000000018005cb98     service.obj
 0001:0005bb98       $unwind$win_GetRegKey      000000018005cb98     win.obj
 0001:0005bbac       $unwind$win_EnumRegValue   000000018005cbac     win.obj
 0001:0005bbac       $unwind$win_EnumRegKey     000000018005cbac     win.obj
 0001:0005bbc0       $unwind$win_GetFileInfo    000000018005cbc0     win.obj
 0001:0005bbd0       $unwind$win_CompareString  000000018005cbd0     win.obj
 0001:0005bbe8       $unwind$mkdir              000000018005cbe8     win.obj
 0001:0005bc04       $unwind$?dllmain_crt_process_attach@@YAHQEAUHINSTANCE__@@QEAX@Z 000000018005cc04     LIBCMT:dll_dllmain.obj
 0001:0005bc30       $unwind$?dllmain_crt_process_detach@@YAH_N@Z 000000018005cc30     LIBCMT:dll_dllmain.obj
 0001:0005bc58       $unwind$?dllmain_dispatch@@YAHQEAUHINSTANCE__@@KQEAX@Z 000000018005cc58     LIBCMT:dll_dllmain.obj
 0001:0005bc80       $unwind$__scrt_is_nonwritable_in_current_image 000000018005cc80     LIBCMT:utility.obj
 0001:0005bca0       $unwind$__scrt_is_nonwritable_in_current_image$filt$0 000000018005cca0     LIBCMT:utility.obj
 0001:0005bca8       $unwind$__scrt_initialize_onexit_tables 000000018005cca8     LIBCMT:utility.obj
 0001:0005bcb4       $unwind$__security_init_cookie 000000018005ccb4     LIBCMT:gs_support.obj
 0001:0005bcc0       $unwind$__scrt_fastfail    000000018005ccc0     LIBCMT:utility_desktop.obj
 0001:0005bcd0       $unwind$__isa_available_init 000000018005ccd0     LIBCMT:_cpu_disp_.obj
 0001:0005bce0       $xdatasym                  000000018005cce0     LIBCMT:_guard_dispatch_.obj
 0001:0005bce8       $xdatasym                  000000018005cce8     libvcruntime:memcpy.obj
 0001:0005bcf0       $xdatasym                  000000018005ccf0     libvcruntime:memset.obj
 0001:0005bcf4       $unwind$wcsstr             000000018005ccf4     libvcruntime:wcsstr.obj
 0001:0005bd04       $unwind$wcschr             000000018005cd04     libvcruntime:wcschr.obj
 0001:0005bd04       $unwind$strchr             000000018005cd04     libvcruntime:strchr.obj
 0001:0005bd04       $unwind$strrchr            000000018005cd04     libvcruntime:strrchr.obj
 0001:0005bd10       $xdatasym                  000000018005cd10     libvcruntime:memcmp.obj
 0001:0005bd14       $unwind$__telemetry_main_return_trigger 000000018005cd14     libvcruntime:telemetry.obj
 0001:0005bd14       $unwind$__telemetry_main_invoke_trigger 000000018005cd14     libvcruntime:telemetry.obj
 0001:0005bd2c       $unwind$?_TlgEnableCallback@__vcrt_trace_logging_provider@@YAXPEBU_GUID@@KE_K1PEAU_EVENT_FILTER_DESCRIPTOR@@PEAX@Z 000000018005cd2c     libvcruntime:telemetry.obj
 0001:0005bd48       $unwind$__C_specific_handler 000000018005cd48     libvcruntime:_chandler_.obj
 0001:0005bd64       $unwind$?process@?$output_processor@_WV?$string_output_adapter@_W@__crt_stdio_output@@V?$standard_base@_WV?$string_output_adapter@_W@__crt_stdio_output@@@2@@__crt_stdio_output@@QEAAHXZ 000000018005cd64     libucrt:output.obj
 0001:0005bd64       $unwind$__GSHandlerCheck_SEH 000000018005cd64     LIBCMT:_gshandlerseh_.obj
 0001:0005bd64       $unwind$__vcrt_EventSetInformation 000000018005cd64     libvcruntime:winapi_downlevel.obj
 0001:0005bd64       $unwind$__acrt_lowio_set_os_handle 000000018005cd64     libucrt:osfinfo.obj
 0001:0005bd64       $unwind$__vcrt_EventRegister 000000018005cd64     libvcruntime:winapi_downlevel.obj
 0001:0005bd64       $unwind$_initterm          000000018005cd64     libucrt:initterm.obj
 0001:0005bd64       $unwind$__acrt_initialize_stdio 000000018005cd64     libucrt:_file.obj
 0001:0005bd7c       $unwind$__vcrt_initialize_winapi_thunks 000000018005cd7c     libvcruntime:winapi_downlevel.obj
 0001:0005bd7c       $unwind$__acrt_initialize_winapi_thunks 000000018005cd7c     libucrt:winapi_thunks.obj
 0001:0005bd7c       $unwind$wcsncpy            000000018005cd7c     libucrt:wcsncpy.obj
 0001:0005bd84       $unwind$__vcrt_uninitialize_winapi_thunks 000000018005cd84     libvcruntime:winapi_downlevel.obj
 0001:0005bd84       $unwind$__acrt_stdio_end_temporary_buffering_nolock 000000018005cd84     libucrt:_sftbuf.obj
 0001:0005bd90       $xdatasym                  000000018005cd90     libvcruntime:_jmpuwind_.obj
 0001:0005bda4       $unwind$__stdio_common_vfscanf 000000018005cda4     libucrt:input.obj
 0001:0005bda4       $unwind$__stdio_common_vfprintf 000000018005cda4     libucrt:output.obj
 0001:0005bdac       $unwind$__stdio_common_vswprintf 000000018005cdac     libucrt:output.obj
 0001:0005bdac       $unwind$__stdio_common_vsprintf 000000018005cdac     libucrt:output.obj
 0001:0005bdd0       $unwind$max_expand         000000018005cdd0     slnunico.obj
 0001:0005bdd0       $unwind$_chsize_nolock     000000018005cdd0     libucrt:chsize.obj
 0001:0005bdd0       $unwind$io_open            000000018005cdd0     uliolib51.obj
 0001:0005bdd0       $unwind$NewVirtualKeyTable 000000018005cdd0     service.obj
 0001:0005bdd0       $unwind$??$parse_floating_point_possible_nan_is_snan@DV?$input_adapter_character_source@V?$stream_input_adapter@D@__crt_stdio_input@@@__crt_strtox@@@__crt_strtox@@YA_NAEADAEAV?$input_adapter_character_source@V?$stream_input_adapter@D@__crt_stdio_input@@@0@@Z 000000018005cdd0     libucrt:input.obj
 0001:0005bdd0       $unwind$?write_string@?$stream_output_adapter@D@__crt_stdio_output@@QEBAXQEBDHQEAH1@Z 000000018005cdd0     libucrt:output.obj
 0001:0005bdd0       $unwind$FrsUserFunc        000000018005cdd0     service.obj
 0001:0005bdd0       $unwind$GetFlagCombination 000000018005cdd0     service.obj
 0001:0005bdd0       $unwind$??$parse_floating_point_possible_nan_is_ind@DV?$input_adapter_character_source@V?$stream_input_adapter@D@__crt_stdio_input@@@__crt_strtox@@@__crt_strtox@@YA_NAEADAEAV?$input_adapter_character_source@V?$stream_input_adapter@D@__crt_stdio_input@@@0@@Z 000000018005cdd0     libucrt:input.obj
 0001:0005bde8       $unwind$?process@?$output_processor@DV?$stream_output_adapter@D@__crt_stdio_output@@V?$standard_base@DV?$stream_output_adapter@D@__crt_stdio_output@@@2@@__crt_stdio_output@@QEAAHXZ 000000018005cde8     libucrt:output.obj
 0001:0005bde8       $unwind$?process@?$output_processor@DV?$string_output_adapter@D@__crt_stdio_output@@V?$standard_base@DV?$string_output_adapter@D@__crt_stdio_output@@@2@@__crt_stdio_output@@QEAAHXZ 000000018005cde8     libucrt:output.obj
 0001:0005bdf8       $unwind$?parse_int_from_format_string@?$output_processor@DV?$string_output_adapter@D@__crt_stdio_output@@V?$standard_base@DV?$string_output_adapter@D@__crt_stdio_output@@@2@@__crt_stdio_output@@AEAA_NQEAH@Z 000000018005cdf8     libucrt:output.obj
 0001:0005bdf8       $unwind$?parse_int_from_format_string@?$output_processor@DV?$stream_output_adapter@D@__crt_stdio_output@@V?$standard_base@DV?$stream_output_adapter@D@__crt_stdio_output@@@2@@__crt_stdio_output@@AEAA_NQEAH@Z 000000018005cdf8     libucrt:output.obj
 0001:0005be0c       $unwind$??R<lambda_0a64b6a4deda75c01876f29c44fc5eb3>@@QEBAHXZ 000000018005ce0c     libucrt:output.obj
 0001:0005be28       $unwind$?write_string@?$string_output_adapter@D@__crt_stdio_output@@QEBAXQEBDHQEAH1@Z 000000018005ce28     libucrt:output.obj
 0001:0005be28       $unwind$??R<lambda_4e60a939b0d047cfe11ddc22648dfba9>@@QEBAHXZ 000000018005ce28     libucrt:onexit.obj
 0001:0005be44       $unwind$?type_case_a@?$output_processor@DV?$string_output_adapter@D@__crt_stdio_output@@V?$standard_base@DV?$string_output_adapter@D@__crt_stdio_output@@@2@@__crt_stdio_output@@AEAA_NXZ 000000018005ce44     libucrt:output.obj
 0001:0005be44       $unwind$?type_case_a@?$output_processor@DV?$stream_output_adapter@D@__crt_stdio_output@@V?$standard_base@DV?$stream_output_adapter@D@__crt_stdio_output@@@2@@__crt_stdio_output@@AEAA_NXZ 000000018005ce44     libucrt:output.obj
 0001:0005be50       $unwind$?write_stored_string_tchar@?$output_processor@DV?$string_output_adapter@D@__crt_stdio_output@@V?$standard_base@DV?$string_output_adapter@D@__crt_stdio_output@@@2@@__crt_stdio_output@@AEAA_ND@Z 000000018005ce50     libucrt:output.obj
 0001:0005be50       $unwind$?write_stored_string_tchar@?$output_processor@DV?$stream_output_adapter@D@__crt_stdio_output@@V?$standard_base@DV?$stream_output_adapter@D@__crt_stdio_output@@@2@@__crt_stdio_output@@AEAA_ND@Z 000000018005ce50     libucrt:output.obj
 0001:0005be68       $unwind$?parse_int_from_format_string@?$output_processor@_WV?$string_output_adapter@_W@__crt_stdio_output@@V?$standard_base@_WV?$string_output_adapter@_W@__crt_stdio_output@@@2@@__crt_stdio_output@@AEAA_NQEAH@Z 000000018005ce68     libucrt:output.obj
 0001:0005be7c       $unwind$?state_case_type@?$output_processor@_WV?$string_output_adapter@_W@__crt_stdio_output@@V?$standard_base@_WV?$string_output_adapter@_W@__crt_stdio_output@@@2@@__crt_stdio_output@@AEAA_NXZ 000000018005ce7c     libucrt:output.obj
 0001:0005bea0       $unwind$?type_case_a@?$output_processor@_WV?$string_output_adapter@_W@__crt_stdio_output@@V?$standard_base@_WV?$string_output_adapter@_W@__crt_stdio_output@@@2@@__crt_stdio_output@@AEAA_NXZ 000000018005cea0     libucrt:output.obj
 0001:0005beb0       $unwind$?write_stored_string_tchar@?$output_processor@_WV?$string_output_adapter@_W@__crt_stdio_output@@V?$standard_base@_WV?$string_output_adapter@_W@__crt_stdio_output@@@2@@__crt_stdio_output@@AEAA_N_W@Z 000000018005ceb0     libucrt:output.obj
 0001:0005bec4       $unwind$??$write_multiple_characters@V?$stream_output_adapter@D@__crt_stdio_output@@D@__crt_stdio_output@@YAXAEBV?$stream_output_adapter@D@0@DHQEAH@Z 000000018005cec4     libucrt:output.obj
 0001:0005bedc       $unwind$??$type_case_integer_parse_into_buffer@I@?$output_processor@DV?$string_output_adapter@D@__crt_stdio_output@@V?$standard_base@DV?$string_output_adapter@D@__crt_stdio_output@@@2@@__crt_stdio_output@@AEAAXII_N@Z 000000018005cedc     libucrt:output.obj
 0001:0005bedc       $unwind$??$type_case_integer_parse_into_buffer@I@?$output_processor@DV?$stream_output_adapter@D@__crt_stdio_output@@V?$standard_base@DV?$stream_output_adapter@D@__crt_stdio_output@@@2@@__crt_stdio_output@@AEAAXII_N@Z 000000018005cedc     libucrt:output.obj
 0001:0005bedc       $unwind$??$type_case_integer_parse_into_buffer@_K@?$output_processor@_WV?$string_output_adapter@_W@__crt_stdio_output@@V?$standard_base@_WV?$string_output_adapter@_W@__crt_stdio_output@@@2@@__crt_stdio_output@@AEAAX_KI_N@Z 000000018005cedc     libucrt:output.obj
 0001:0005bedc       $unwind$??$type_case_integer_parse_into_buffer@I@?$output_processor@_WV?$string_output_adapter@_W@__crt_stdio_output@@V?$standard_base@_WV?$string_output_adapter@_W@__crt_stdio_output@@@2@@__crt_stdio_output@@AEAAXII_N@Z 000000018005cedc     libucrt:output.obj
 0001:0005bedc       $unwind$??$write_multiple_characters@V?$string_output_adapter@D@__crt_stdio_output@@D@__crt_stdio_output@@YAXAEBV?$string_output_adapter@D@0@DHQEAH@Z 000000018005cedc     libucrt:output.obj
 0001:0005bedc       $unwind$??$type_case_integer_parse_into_buffer@_K@?$output_processor@DV?$stream_output_adapter@D@__crt_stdio_output@@V?$standard_base@DV?$stream_output_adapter@D@__crt_stdio_output@@@2@@__crt_stdio_output@@AEAAX_KI_N@Z 000000018005cedc     libucrt:output.obj
 0001:0005bedc       $unwind$??$type_case_integer_parse_into_buffer@_K@?$output_processor@DV?$string_output_adapter@D@__crt_stdio_output@@V?$standard_base@DV?$string_output_adapter@D@__crt_stdio_output@@@2@@__crt_stdio_output@@AEAAX_KI_N@Z 000000018005cedc     libucrt:output.obj
 0001:0005bee4       $unwind$??$write_multiple_characters@V?$string_output_adapter@_W@__crt_stdio_output@@D@__crt_stdio_output@@YAXAEBV?$string_output_adapter@_W@0@DHQEAH@Z 000000018005cee4     libucrt:output.obj
 0001:0005bef0       $unwind$??$?RV<lambda_aa279a7bcb127014629d5b1d62c7325d>@@AEAV<lambda_0a64b6a4deda75c01876f29c44fc5eb3>@@V<lambda_3323e69fbefe9d1a11713e670d47cdfa>@@@?$__crt_seh_guarded_call@H@@QEAAH$$QEAV<lambda_aa279a7bcb127014629d5b1d62c7325d>@@AEAV<lambda_0a64b6a4deda75c01876f29c44fc5eb3>@@$$QEAV<lambda_3323e69fbefe9d1a11713e670d47cdfa>@@@Z 000000018005cef0     libucrt:output.obj
 0001:0005bf14       $unwind$??$common_fsopen@_W@@YAPEAU_iobuf@@QEB_W0H@Z 000000018005cf14     libucrt:fopen.obj
 0001:0005bf40       $unwind$fclose             000000018005cf40     libucrt:fclose.obj
 0001:0005bf64       $unwind$common_control87   000000018005cf64     libucrt:ieee.obj
 0001:0005bf94       $unwind$??$common_freopen@_W@@YAHQEAPEAU_iobuf@@QEB_W1V__crt_stdio_stream@@H@Z 000000018005cf94     libucrt:freopen.obj
 0001:0005bfbc       $unwind$fread_s            000000018005cfbc     libucrt:fread.obj
 0001:0005bfec       $unwind$_fread_nolock_s    000000018005cfec     libucrt:fread.obj
 0001:0005c004       $unwind$fgetc              000000018005d004     libucrt:fgetc.obj
 0001:0005c038       $unwind$rewind             000000018005d038     libucrt:rewind.obj
 0001:0005c05c       $unwind$ungetc             000000018005d05c     libucrt:ungetc.obj
 0001:0005c080       $unwind$_wcsicmp_l         000000018005d080     libucrt:wcsicmp.obj
 0001:0005c098       $xdatasym                  000000018005d098     libucrt:strncmp.obj
 0001:0005c0a0       $xdatasym                  000000018005d0a0     libucrt:strcmp.obj
 0001:0005c0a8       $xdatasym                  000000018005d0a8     libucrt:strncpy.obj
 0001:0005c0ac       $unwind$strpbrk            000000018005d0ac     libucrt:strpbrk.obj
 0001:0005c0bc       $unwind$_pclose            000000018005d0bc     libucrt:popen.obj
 0001:0005c0e4       $unwind$??$common_popen@_W@@YAPEAU_iobuf@@QEB_W0@Z 000000018005d0e4     libucrt:popen.obj
 0001:0005c114       $unwind$??$common_popen_nolock@_W@@YAPEAU_iobuf@@QEB_W0HAEAY01H@Z 000000018005d114     libucrt:popen.obj
 0001:0005c134       $unwind$??$get_executable_path@_W@@YAPEB_WQEB_W@Z 000000018005d134     libucrt:popen.obj
 0001:0005c14c       $unwind$clearerr_s         000000018005d14c     libucrt:clearerr.obj
 0001:0005c174       $unwind$fflush             000000018005d174     libucrt:fflush.obj
 0001:0005c198       $unwind$common_flush_all   000000018005d198     libucrt:fflush.obj
 0001:0005c1d4       $unwind$__acrt_uninitialize_locale$fin$0 000000018005d1d4     libucrt:wsetlocale.obj
 0001:0005c1d4       $unwind$?fin$0@?0??common_tmpfile@@YAHQEAPEAU_iobuf@@H@Z@4HA 000000018005d1d4     libucrt:tmpfile.obj
 0001:0005c1d4       $unwind$?fin$0@?0???$?RV<lambda_fb3a7dec4e47f37f22dae91bb15c9095>@@AEAV<lambda_698284760c8add0bfb0756c19673e34b>@@V<lambda_dfb8eca1e75fef3034a8fb18dd509707>@@@?$__crt_seh_guarded_call@X@@QEAAX$$QEAV<lambda_fb3a7dec4e47f37f22dae91bb15c9095>@@AEAV<lambda_698284760c8add0bfb0756c19673e34b>@@$$QEAV<lambda_dfb8eca1e75fef3034a8fb18dd509707>@@@Z@4HA 000000018005d1d4     libucrt:per_thread_data.obj
 0001:0005c1d4       $unwind$?fin$0@?0??__acrt_stdio_allocate_stream@@YA?AV__crt_stdio_stream@@XZ@4HA 000000018005d1d4     libucrt:stream.obj
 0001:0005c1d4       $unwind$?fin$0@?0???$?RV<lambda_e24bbb7b643b32fcea6fa61b31d4c984>@@AEAV<lambda_275893d493268fdec8709772e3fcec0e>@@V<lambda_9d71df4d7cf3f480f8d633942495c3b0>@@@?$__crt_seh_guarded_call@H@@QEAAH$$QEAV<lambda_e24bbb7b643b32fcea6fa61b31d4c984>@@AEAV<lambda_275893d493268fdec8709772e3fcec0e>@@$$QEAV<lambda_9d71df4d7cf3f480f8d633942495c3b0>@@@Z@4HA 000000018005d1d4     libucrt:onexit.obj
 0001:0005c1d4       $unwind$?fin$0@?0???$?RV<lambda_46352004c1216016012b18bd6f87e700>@@AEAV<lambda_3bd07e1a1191394380780325891bf33f>@@V<lambda_334532d3f185bcaa59b5be82d7d22bff>@@@?$__crt_seh_guarded_call@X@@QEAAX$$QEAV<lambda_46352004c1216016012b18bd6f87e700>@@AEAV<lambda_3bd07e1a1191394380780325891bf33f>@@$$QEAV<lambda_334532d3f185bcaa59b5be82d7d22bff>@@@Z@4HA 000000018005d1d4     libucrt:per_thread_data.obj
 0001:0005c1d4       $unwind$ungetc$fin$0       000000018005d1d4     libucrt:ungetc.obj
 0001:0005c1d4       $unwind$?fin$0@?0???$common_popen@_W@@YAPEAU_iobuf@@QEB_W0@Z@4HA 000000018005d1d4     libucrt:popen.obj
 0001:0005c1d4       $unwind$?fin$1@?0??common_exit@@YAXHW4_crt_exit_cleanup_mode@@W4_crt_exit_return_mode@@@Z@4HA 000000018005d1d4     libucrt:exit.obj
 0001:0005c1d4       $unwind$?fin$0@?0???$?RV<lambda_7a5ef57ff966f610505f1d28a3d40618>@@AEAV<lambda_b721fa326cdb32351d23dfa67958c160>@@V<lambda_5e0fb27672408a07956fe59e48ccb2aa>@@@?$__crt_seh_guarded_call@H@@QEAAH$$QEAV<lambda_7a5ef57ff966f610505f1d28a3d40618>@@AEAV<lambda_b721fa326cdb32351d23dfa67958c160>@@$$QEAV<lambda_5e0fb27672408a07956fe59e48ccb2aa>@@@Z@4HA 000000018005d1d4     libucrt:setvbuf.obj
 0001:0005c1d4       $unwind$?fin$0@?0???$?RV<lambda_5e887d1dcbef67a5eb4283622ba103bf>@@AEAV<lambda_4466841279450cc726390878d4a41900>@@V<lambda_341c25c0346d94847f1f3c463c57e077>@@@?$__crt_seh_guarded_call@X@@QEAAX$$QEAV<lambda_5e887d1dcbef67a5eb4283622ba103bf>@@AEAV<lambda_4466841279450cc726390878d4a41900>@@$$QEAV<lambda_341c25c0346d94847f1f3c463c57e077>@@@Z@4HA 000000018005d1d4     libucrt:per_thread_data.obj
 0001:0005c1d4       $unwind$_rmtmp$fin$0       000000018005d1d4     libucrt:rmtmp.obj
 0001:0005c1d4       $unwind$clearerr_s$fin$0   000000018005d1d4     libucrt:clearerr.obj
 0001:0005c1d4       $unwind$?filt$0@?0??common_exit@@YAXHW4_crt_exit_cleanup_mode@@W4_crt_exit_return_mode@@@Z@4HA 000000018005d1d4     libucrt:exit.obj
 0001:0005c1d4       $unwind$?fin$0@?0???$?RV<lambda_c01e8233c1997d6cc4b8f1fd672e07e5>@@AEAV<lambda_3a6204444a8bad05601fdaf7664f6f17>@@V<lambda_b6ae1896c9cebd71befa8310523e5efb>@@@?$__crt_seh_guarded_call@H@@QEAAH$$QEAV<lambda_c01e8233c1997d6cc4b8f1fd672e07e5>@@AEAV<lambda_3a6204444a8bad05601fdaf7664f6f17>@@$$QEAV<lambda_b6ae1896c9cebd71befa8310523e5efb>@@@Z@4HA 000000018005d1d4     libucrt:input.obj
 0001:0005c1d4       $unwind$fflush$fin$0       000000018005d1d4     libucrt:fflush.obj
 0001:0005c1d4       $unwind$_fcloseall$fin$0   000000018005d1d4     libucrt:closeall.obj
 0001:0005c1d4       $unwind$?fin$0@?0???$?RV<lambda_aa279a7bcb127014629d5b1d62c7325d>@@AEAV<lambda_0a64b6a4deda75c01876f29c44fc5eb3>@@V<lambda_3323e69fbefe9d1a11713e670d47cdfa>@@@?$__crt_seh_guarded_call@H@@QEAAH$$QEAV<lambda_aa279a7bcb127014629d5b1d62c7325d>@@AEAV<lambda_0a64b6a4deda75c01876f29c44fc5eb3>@@$$QEAV<lambda_3323e69fbefe9d1a11713e670d47cdfa>@@@Z@4HA 000000018005d1d4     libucrt:output.obj
 0001:0005c1d4       $unwind$common_control87$filt$0 000000018005d1d4     libucrt:ieee.obj
 0001:0005c1d4       $unwind$_rmtmp$fin$1       000000018005d1d4     libucrt:rmtmp.obj
 0001:0005c1d4       $unwind$common_flush_all$fin$0 000000018005d1d4     libucrt:fflush.obj
 0001:0005c1d4       $unwind$?fin$0@?0???$?RV<lambda_5d4c3fee44080f75d5d9762853974fe0>@@AEAV<lambda_532e024f4337e6fc7ad266c2bef9f4ed>@@V<lambda_c87bdc10097eb2402edb8ba9bdf0697b>@@@?$__crt_seh_guarded_call@_K@@QEAA_K$$QEAV<lambda_5d4c3fee44080f75d5d9762853974fe0>@@AEAV<lambda_532e024f4337e6fc7ad266c2bef9f4ed>@@$$QEAV<lambda_c87bdc10097eb2402edb8ba9bdf0697b>@@@Z@4HA 000000018005d1d4     libucrt:fwrite.obj
 0001:0005c1d4       $unwind$common_flush_all$fin$1 000000018005d1d4     libucrt:fflush.obj
 0001:0005c1d4       $unwind$?fin$0@?0??dllmain_crt_process_attach@@YAHQEAUHINSTANCE__@@QEAX@Z@4HA 000000018005d1d4     LIBCMT:dll_dllmain.obj
 0001:0005c1d4       $unwind$_pclose$fin$0      000000018005d1d4     libucrt:popen.obj
 0001:0005c1d4       $unwind$?fin$0@?0???$?RV<lambda_72d1df2b273a38828b1ce30cbf4cdab5>@@AEAV<lambda_876a65b173b8412d3a47c70a915b0cf4>@@V<lambda_41932305e351933ebe8f8be3ed8bb5dc>@@@?$__crt_seh_guarded_call@X@@QEAAX$$QEAV<lambda_72d1df2b273a38828b1ce30cbf4cdab5>@@AEAV<lambda_876a65b173b8412d3a47c70a915b0cf4>@@$$QEAV<lambda_41932305e351933ebe8f8be3ed8bb5dc>@@@Z@4HA 000000018005d1d4     libucrt:per_thread_data.obj
 0001:0005c1d4       $unwind$?fin$0@?0???$common_fgets@D@@YAPEADQEADHV__crt_stdio_stream@@@Z@4HA 000000018005d1d4     libucrt:fgets.obj
 0001:0005c1d4       $unwind$?fin$0@?0???$?RV<lambda_c36588078e9f5dfd39652860aa6b3aaf>@@AEAV<lambda_ec61778202f4f5fc7e7711acc23c3bca>@@V<lambda_dc9d2797ccde5d239b4a0efae8ebd7db>@@@?$__crt_seh_guarded_call@P6AXH@Z@@QEAAP6AXH@Z$$QEAV<lambda_c36588078e9f5dfd39652860aa6b3aaf>@@AEAV<lambda_ec61778202f4f5fc7e7711acc23c3bca>@@$$QEAV<lambda_dc9d2797ccde5d239b4a0efae8ebd7db>@@@Z@4HA 000000018005d1d4     libucrt:signal.obj
 0001:0005c1d4       $unwind$?fin$0@?0???$common_ftell@J@@YAJV__crt_stdio_stream@@@Z@4HA 000000018005d1d4     libucrt:ftell.obj
 0001:0005c1d4       $unwind$fgetc$fin$0        000000018005d1d4     libucrt:fgetc.obj
 0001:0005c1d4       $unwind$raise$fin$0        000000018005d1d4     libucrt:signal.obj
 0001:0005c1d4       $unwind$?fin$0@?0??common_fseek@@YAHV__crt_stdio_stream@@_JH@Z@4HA 000000018005d1d4     libucrt:fseek.obj
 0001:0005c1d4       $unwind$__acrt_update_thread_multibyte_data$fin$0 000000018005d1d4     libucrt:mbctype.obj
 0001:0005c1d4       $unwind$?fin$0@?0???$common_lseek@J@@YAJHJH@Z@4HA 000000018005d1d4     libucrt:lseek.obj
 0001:0005c1d4       $unwind$_query_new_handler$fin$0 000000018005d1d4     libucrt:new_handler.obj
 0001:0005c1d4       $unwind$?fin$0@?0???$?RV<lambda_b521505b218e5242e90febf6bfebc422>@@AEAV<lambda_6978c1fb23f02e42e1d9e99668cc68aa>@@V<lambda_314360699dd331753a4119843814e9a7>@@@?$__crt_seh_guarded_call@H@@QEAAH$$QEAV<lambda_b521505b218e5242e90febf6bfebc422>@@AEAV<lambda_6978c1fb23f02e42e1d9e99668cc68aa>@@$$QEAV<lambda_314360699dd331753a4119843814e9a7>@@@Z@4HA 000000018005d1d4     libucrt:commit.obj
 0001:0005c1d4       $unwind$?fin$0@?0???$common_fdopen@_W@@YAPEAU_iobuf@@HQEB_W@Z@4HA 000000018005d1d4     libucrt:fdopen.obj
 0001:0005c1d4       $unwind$?fin$0@?0???$common_freopen@_W@@YAHQEAPEAU_iobuf@@QEB_W1V__crt_stdio_stream@@H@Z@4HA 000000018005d1d4     libucrt:freopen.obj
 0001:0005c1d4       $unwind$?fin$0@?0???$?RV<lambda_99476a1ad63dd22509b5d3e65b0ffc95>@@AEAV<lambda_ad1ced32f4ac17aa236e5ef05d6b3b7c>@@V<lambda_f7424dd8d45958661754dc4f2697e9c3>@@@?$__crt_seh_guarded_call@X@@QEAAX$$QEAV<lambda_99476a1ad63dd22509b5d3e65b0ffc95>@@AEAV<lambda_ad1ced32f4ac17aa236e5ef05d6b3b7c>@@$$QEAV<lambda_f7424dd8d45958661754dc4f2697e9c3>@@@Z@4HA 000000018005d1d4     libucrt:mbctype.obj
 0001:0005c1d4       $unwind$__acrt_lowio_ensure_fh_exists$fin$0 000000018005d1d4     libucrt:osfinfo.obj
 0001:0005c1d4       $unwind$?fin$0@?0???$common_lseek@_J@@YA_JH_JH@Z@4HA 000000018005d1d4     libucrt:lseek.obj
 0001:0005c1d4       $unwind$?fin$0@?0???$common_getenv@_W@@YAPEA_WQEB_W@Z@4HA 000000018005d1d4     libucrt:getenv.obj
 0001:0005c1d4       $unwind$__acrt_update_thread_locale_data$fin$0 000000018005d1d4     libucrt:locale_refcounting.obj
 0001:0005c1d4       $unwind$rewind$fin$0       000000018005d1d4     libucrt:rewind.obj
 0001:0005c1d4       $unwind$_IsNonwritableInCurrentImage$filt$0 000000018005d1d4     LIBCMT:pesect.obj
 0001:0005c1d4       $unwind$fclose$fin$0       000000018005d1d4     libucrt:fclose.obj
 0001:0005c1d4       $unwind$?fin$0@?0???$?RV<lambda_fb01e4b6cb0b58be62120d2a518119ce>@@AEAV<lambda_45edfab556fcff821d8a41c06e3d46c0>@@V<lambda_8a9bf702b7f902ca2f9107a173e0fbe3>@@@?$__crt_seh_guarded_call@_N@@QEAA_N$$QEAV<lambda_fb01e4b6cb0b58be62120d2a518119ce>@@AEAV<lambda_45edfab556fcff821d8a41c06e3d46c0>@@$$QEAV<lambda_8a9bf702b7f902ca2f9107a173e0fbe3>@@@Z@4HA 000000018005d1d4     libucrt:spawnv.obj
 0001:0005c1d4       $unwind$_read$fin$0        000000018005d1d4     libucrt:read.obj
 0001:0005c1d4       $unwind$_write$fin$0       000000018005d1d4     libucrt:write.obj
 0001:0005c1d4       $unwind$?fin$0@?0???$?RV<lambda_bfedae4ebbf01fab1bb6dcc6a9e276e0>@@AEAV<lambda_2fe9b910cf3cbf4a0ab98a02ba45b3ec>@@V<lambda_237c231691f317818eb88cc1d5d642d6>@@@?$__crt_seh_guarded_call@H@@QEAAH$$QEAV<lambda_bfedae4ebbf01fab1bb6dcc6a9e276e0>@@AEAV<lambda_2fe9b910cf3cbf4a0ab98a02ba45b3ec>@@$$QEAV<lambda_237c231691f317818eb88cc1d5d642d6>@@@Z@4HA 000000018005d1d4     libucrt:close.obj
 0001:0005c1d4       $unwind$_alloc_osfhnd$fin$0 000000018005d1d4     libucrt:osfinfo.obj
 0001:0005c1d4       $unwind$?fin$0@?0???$common_fsopen@_W@@YAPEAU_iobuf@@QEB_W0H@Z@4HA 000000018005d1d4     libucrt:fopen.obj
 0001:0005c1d4       $unwind$?fin$0@?0??dllmain_crt_process_detach@@YAH_N@Z@4HA 000000018005d1d4     LIBCMT:dll_dllmain.obj
 0001:0005c1d4       $unwind$?fin$0@?0???$?RV<lambda_b8c45f8f788dd370798f47cfe8ac3a86>@@AEAV<lambda_4e60a939b0d047cfe11ddc22648dfba9>@@V<lambda_332c3edc96d0294ec56c57d38c1cdfd5>@@@?$__crt_seh_guarded_call@H@@QEAAH$$QEAV<lambda_b8c45f8f788dd370798f47cfe8ac3a86>@@AEAV<lambda_4e60a939b0d047cfe11ddc22648dfba9>@@$$QEAV<lambda_332c3edc96d0294ec56c57d38c1cdfd5>@@@Z@4HA 000000018005d1d4     libucrt:onexit.obj
 0001:0005c1d4       $unwind$_ctrlfp$filt$0     000000018005d1d4     libucrt:fpctrl.obj
 0001:0005c1d4       $unwind$__acrt_initialize_lowio$fin$0 000000018005d1d4     libucrt:ioinit.obj
 0001:0005c1dc       $unwind$??$common_fgets@D@@YAPEADQEADHV__crt_stdio_stream@@@Z 000000018005d1dc     libucrt:fgets.obj
 0001:0005c208       $unwind$?common_fseek_binary_mode_read_only_fast_track_nolock@@YA_NV__crt_stdio_stream@@_JH@Z 000000018005d208     libucrt:fseek.obj
 0001:0005c214       $unwind$?common_fseek@@YAHV__crt_stdio_stream@@_JH@Z 000000018005d214     libucrt:fseek.obj
 0001:0005c238       $unwind$?common_ftell_translated_utf8_nolock@@YA_JV__crt_stdio_stream@@_J@Z 000000018005d238     libucrt:ftell.obj
 0001:0005c25c       $unwind$?common_ftell_read_mode_nolock@@YA_JV__crt_stdio_stream@@_J1@Z 000000018005d25c     libucrt:ftell.obj
 0001:0005c278       $unwind$??$common_ftell_nolock@_J@@YA_JV__crt_stdio_stream@@@Z 000000018005d278     libucrt:ftell.obj
 0001:0005c284       $unwind$??$common_ftell@J@@YAJV__crt_stdio_stream@@@Z 000000018005d284     libucrt:ftell.obj
 0001:0005c2a4       $unwind$fwrite             000000018005d2a4     libucrt:fwrite.obj
 0001:0005c2ac       $unwind$?write_string@?$string_output_adapter@_W@__crt_stdio_output@@QEBAXQEB_WHQEAH1@Z 000000018005d2ac     libucrt:output.obj
 0001:0005c2ac       $unwind$?try_get_function@@YAPEAXW4function_id@?A0x63058377@@QEBDQEBW4module_id@2@2@Z 000000018005d2ac     libucrt:winapi_thunks.obj
 0001:0005c2ac       $unwind$_fwrite_nolock     000000018005d2ac     libucrt:fwrite.obj
 0001:0005c2ac       $unwind$?try_get_function@@YAPEAXW4function_id@?A0x61ce2399@@QEBDQEBW4module_id@2@2@Z 000000018005d2ac     libvcruntime:winapi_downlevel.obj
 0001:0005c2ac       $unwind$??$process_string_specifier_tchar@D@?$input_processor@DV?$stream_input_adapter@D@__crt_stdio_input@@@__crt_stdio_input@@AEAA_NW4conversion_mode@1@D@Z 000000018005d2ac     libucrt:input.obj
 0001:0005c2c8       $unwind$??$?RV<lambda_5d4c3fee44080f75d5d9762853974fe0>@@AEAV<lambda_532e024f4337e6fc7ad266c2bef9f4ed>@@V<lambda_c87bdc10097eb2402edb8ba9bdf0697b>@@@?$__crt_seh_guarded_call@_K@@QEAA_K$$QEAV<lambda_5d4c3fee44080f75d5d9762853974fe0>@@AEAV<lambda_532e024f4337e6fc7ad266c2bef9f4ed>@@$$QEAV<lambda_c87bdc10097eb2402edb8ba9bdf0697b>@@@Z 000000018005d2c8     libucrt:fwrite.obj
 0001:0005c2ec       $unwind$setvbuf            000000018005d2ec     libucrt:setvbuf.obj
 0001:0005c2f4       $unwind$??$?RV<lambda_7a5ef57ff966f610505f1d28a3d40618>@@AEAV<lambda_b721fa326cdb32351d23dfa67958c160>@@V<lambda_5e0fb27672408a07956fe59e48ccb2aa>@@@?$__crt_seh_guarded_call@H@@QEAAH$$QEAV<lambda_7a5ef57ff966f610505f1d28a3d40618>@@AEAV<lambda_b721fa326cdb32351d23dfa67958c160>@@$$QEAV<lambda_5e0fb27672408a07956fe59e48ccb2aa>@@@Z 000000018005d2f4     libucrt:setvbuf.obj
 0001:0005c318       $unwind$?common_tmpfile_nolock@@YAHQEAPEAU_iobuf@@H@Z 000000018005d318     libucrt:tmpfile.obj
 0001:0005c344       $unwind$_strdup            000000018005d344     libucrt:strdup.obj
 0001:0005c344       $unwind$loaderror          000000018005d344     uloadlib51.obj
 0001:0005c344       $unwind$??$generate_tmpfile_file_name@D@@YA_NQEAD_K@Z 000000018005d344     libucrt:tmpfile.obj
 0001:0005c344       $unwind$PutWStrToArray     000000018005d344     ustring.obj
 0001:0005c344       $unwind$GetIntFromArray    000000018005d344     util.obj
 0001:0005c344       $unwind$??$initialize_tmpfile_buffer_nolock@D@@YA_NW4buffer_id@?A0xe462fda7@@@Z 000000018005d344     libucrt:tmpfile.obj
 0001:0005c354       $unwind$?common_tmpfile@@YAHQEAPEAU_iobuf@@H@Z 000000018005d354     libucrt:tmpfile.obj
 0001:0005c378       $unwind$?divide@__crt_strtox@@YA_KAEAUbig_integer@1@AEBU21@@Z 000000018005d378     libucrt:input.obj
 0001:0005c398       $chain$5$?divide@__crt_strtox@@YA_KAEAUbig_integer@1@AEBU21@@Z 000000018005d398     libucrt:input.obj
 0001:0005c3ac       $chain$6$?divide@__crt_strtox@@YA_KAEAUbig_integer@1@AEBU21@@Z 000000018005d3ac     libucrt:input.obj
 0001:0005c3bc       $unwind$?assemble_floating_point_value@__crt_strtox@@YA?AW4SLD_STATUS@@_KH_N1AEBVfloating_point_value@1@@Z 000000018005d3bc     libucrt:input.obj
 0001:0005c3d4       $unwind$??$common_set_variable_in_environment_nolock@_W@@YAHQEA_WH@Z 000000018005d3d4     libucrt:setenv.obj
 0001:0005c3d4       $unwind$?assemble_floating_point_value_from_big_integer@__crt_strtox@@YA?AW4SLD_STATUS@@AEBUbig_integer@1@I_N1AEBVfloating_point_value@1@@Z 000000018005d3d4     libucrt:input.obj
 0001:0005c3f0       $unwind$?convert_decimal_string_to_floating_type_common@__crt_strtox@@YA?AW4SLD_STATUS@@AEBUfloating_point_string@1@AEBVfloating_point_value@1@@Z 000000018005d3f0     libucrt:input.obj
 0001:0005c414       $unwind$?write_character@?$input_processor@DV?$stream_input_adapter@D@__crt_stdio_input@@@__crt_stdio_input@@AEAA_NQEFA_W_KAEAPEFA_WAEA_KD@Z 000000018005d414     libucrt:input.obj
 0001:0005c424       $unwind$far_RecursiveSearch 000000018005d424     service.obj
 0001:0005c424       $unwind$?process_integer_specifier@?$input_processor@DV?$stream_input_adapter@D@__crt_stdio_input@@@__crt_stdio_input@@AEAA_NI_N@Z 000000018005d424     libucrt:input.obj
 0001:0005c438       $unwind$__acrt_stdio_allocate_buffer_nolock 000000018005d438     libucrt:_getbuf.obj
 0001:0005c438       $unwind$__acrt_update_multibyte_info 000000018005d438     libucrt:locale_update.obj
 0001:0005c438       $unwind$__vcrt_uninitialize_locks 000000018005d438     libvcruntime:locks.obj
 0001:0005c438       $unwind$__acrt_stdio_free_buffer_nolock 000000018005d438     libucrt:_freebuf.obj
 0001:0005c438       $unwind$win_DeleteFile     000000018005d438     win.obj
 0001:0005c438       $unwind$__vcrt_initialize_locks 000000018005d438     libvcruntime:locks.obj
 0001:0005c438       $unwind$__acrt_uninitialize_stdio 000000018005d438     libucrt:_file.obj
 0001:0005c438       $unwind$__vcrt_uninitialize 000000018005d438     libvcruntime:initialization.obj
 0001:0005c438       $unwind$win_RemoveDir      000000018005d438     win.obj
 0001:0005c438       $unwind$__std_type_info_destroy_list 000000018005d438     libvcruntime:std_type_info.obj
 0001:0005c438       $unwind$strcpy_s           000000018005d438     libucrt:strcpy_s.obj
 0001:0005c438       $unwind$__acrt_uninitialize_locks 000000018005d438     libucrt:locks.obj
 0001:0005c438       $unwind$luaopen_win        000000018005d438     win.obj
 0001:0005c438       $unwind$__acrt_update_locale_info 000000018005d438     libucrt:locale_update.obj
 0001:0005c438       $unwind$__vcrt_freeptd     000000018005d438     libvcruntime:per_thread_data.obj
 0001:0005c438       $unwind$_strupr            000000018005d438     libucrt:strupr.obj
 0001:0005c438       $unwind$SetFarColors       000000018005d438     keysandcolors.obj
 0001:0005c438       $unwind$__acrt_initialize_locks 000000018005d438     libucrt:locks.obj
 0001:0005c438       $unwind$wcscat_s           000000018005d438     libucrt:wcscat_s.obj
 0001:0005c438       $unwind$win_FileTimeToLocalFileTime 000000018005d438     win.obj
 0001:0005c438       $unwind$??0?$output_processor@DV?$stream_output_adapter@D@__crt_stdio_output@@V?$standard_base@DV?$stream_output_adapter@D@__crt_stdio_output@@@2@@__crt_stdio_output@@QEAA@AEBV?$stream_output_adapter@D@1@_KQEBDQEAU__crt_locale_pointers@@QEAD@Z 000000018005d438     libucrt:output.obj
 0001:0005c438       $unwind$__scrt_uninitialize_crt 000000018005d438     LIBCMT:utility.obj
 0001:0005c438       $unwind$?state_case_normal@?$output_processor@DV?$stream_output_adapter@D@__crt_stdio_output@@V?$standard_base@DV?$stream_output_adapter@D@__crt_stdio_output@@@2@@__crt_stdio_output@@AEAA_NXZ 000000018005d438     libucrt:output.obj
 0001:0005c438       $unwind$__scrt_initialize_crt 000000018005d438     LIBCMT:utility.obj
 0001:0005c438       $unwind$?state_case_normal_tchar@?$output_processor@DV?$stream_output_adapter@D@__crt_stdio_output@@V?$standard_base@DV?$stream_output_adapter@D@__crt_stdio_output@@@2@@__crt_stdio_output@@AEAA_ND@Z 000000018005d438     libucrt:output.obj
 0001:0005c438       $unwind$__scrt_release_startup_lock 000000018005d438     LIBCMT:utility.obj
 0001:0005c438       $unwind$?type_case_integer@?$output_processor@DV?$stream_output_adapter@D@__crt_stdio_output@@V?$standard_base@DV?$stream_output_adapter@D@__crt_stdio_output@@@2@@__crt_stdio_output@@AEAA_NI_N@Z 000000018005d438     libucrt:output.obj
 0001:0005c438       $unwind$_onexit            000000018005d438     LIBCMT:utility.obj
 0001:0005c438       $unwind$??0?$output_processor@DV?$string_output_adapter@D@__crt_stdio_output@@V?$standard_base@DV?$string_output_adapter@D@__crt_stdio_output@@@2@@__crt_stdio_output@@QEAA@AEBV?$string_output_adapter@D@1@_KQEBDQEAU__crt_locale_pointers@@QEAD@Z 000000018005d438     libucrt:output.obj
 0001:0005c438       $unwind$?state_case_normal@?$output_processor@DV?$string_output_adapter@D@__crt_stdio_output@@V?$standard_base@DV?$string_output_adapter@D@__crt_stdio_output@@@2@@__crt_stdio_output@@AEAA_NXZ 000000018005d438     libucrt:output.obj
 0001:0005c438       $unwind$?type_case_integer@?$output_processor@DV?$string_output_adapter@D@__crt_stdio_output@@V?$standard_base@DV?$string_output_adapter@D@__crt_stdio_output@@@2@@__crt_stdio_output@@AEAA_NI_N@Z 000000018005d438     libucrt:output.obj
 0001:0005c438       $unwind$wcscpy_s           000000018005d438     libucrt:wcscpy_s.obj
 0001:0005c438       $unwind$uc_tostring        000000018005d438     lusercontrol.obj
 0001:0005c438       $unwind$?type_case_integer@?$output_processor@_WV?$string_output_adapter@_W@__crt_stdio_output@@V?$standard_base@_WV?$string_output_adapter@_W@__crt_stdio_output@@@2@@__crt_stdio_output@@AEAA_NI_N@Z 000000018005d438     libucrt:output.obj
 0001:0005c438       $unwind$f_lines            000000018005d438     uliolib51.obj
 0001:0005c438       $unwind$uc_len             000000018005d438     lusercontrol.obj
 0001:0005c438       $unwind$fegetenv           000000018005d438     libucrt:fegetenv.obj
 0001:0005c438       $unwind$feholdexcept       000000018005d438     libucrt:feholdexcept.obj
 0001:0005c438       $unwind$win_GetSystemTimeAsFileTime 000000018005d438     win.obj
 0001:0005c438       $unwind$fesetenv           000000018005d438     libucrt:fesetenv.obj
 0001:0005c438       $unwind$initialize_pointers 000000018005d438     libucrt:initialization.obj
 0001:0005c438       $unwind$__raise_securityfailure 000000018005d438     LIBCMT:gs_report.obj
 0001:0005c438       $unwind$io_tostring        000000018005d438     uliolib51.obj
 0001:0005c438       $unwind$io_gc              000000018005d438     uliolib51.obj
 0001:0005c438       $unwind$far_CopyToClipboard 000000018005d438     service.obj
 0001:0005c438       $unwind$io_close           000000018005d438     uliolib51.obj
 0001:0005c438       $unwind$win_ExtractKey     000000018005d438     win.obj
 0001:0005c438       $unwind$?scan_optional_field_width@?$format_string_parser@D@__crt_stdio_input@@AEAA_NXZ 000000018005d438     libucrt:input.obj
 0001:0005c438       $unwind$luaopen_usercontrol 000000018005d438     lusercontrol.obj
 0001:0005c438       $unwind$io_noclose         000000018005d438     uliolib51.obj
 0001:0005c438       $unwind$luaopen_bit64      000000018005d438     bit64.obj
 0001:0005c438       $unwind$__acrt_freeptd     000000018005d438     libucrt:per_thread_data.obj
 0001:0005c438       $unwind$luaopen_upackage   000000018005d438     uloadlib51.obj
 0001:0005c438       $unwind$ll_seeall          000000018005d438     uloadlib51.obj
 0001:0005c438       $unwind$luaopen_unicode    000000018005d438     slnunico.obj
 0001:0005c438       $unwind$uninitialize_allocated_memory 000000018005d438     libucrt:initialization.obj
 0001:0005c438       $unwind$_setfpstatusword   000000018005d438     libucrt:_fenvutils.obj
 0001:0005c438       $unwind$dialog_tostring    000000018005d438     service.obj
 0001:0005c438       $unwind$dialog_rawhandle   000000018005d438     service.obj
 0001:0005c438       $unwind$push_onecapture    000000018005d438     slnunico.obj
 0001:0005c438       $unwind$_clearfp           000000018005d438     libucrt:ieee.obj
 0001:0005c438       $unwind$?idtab@@YAPEAUprocess_handle_pair@?A0x13a7efdb@@QEAU_iobuf@@@Z 000000018005d438     libucrt:popen.obj
 0001:0005c438       $unwind$_clrfp             000000018005d438     libucrt:fpctrl.obj
 0001:0005c438       $unwind$_set_statfp        000000018005d438     libucrt:fpctrl.obj
 0001:0005c438       $unwind$gctm               000000018005d438     uloadlib51.obj
 0001:0005c438       $unwind$luaB_loadfileW     000000018005d438     lflua.obj
 0001:0005c438       $unwind$??$common_get_or_create_environment_nolock@_W@@YAPEAPEA_WXZ 000000018005d438     libucrt:environment_initialization.obj
 0001:0005c438       $unwind$_calloc_base       000000018005d438     libucrt:calloc_base.obj
 0001:0005c438       $unwind$Settings_tostring  000000018005d438     service.obj
 0001:0005c438       $unwind$far_FreeSettings   000000018005d438     service.obj
 0001:0005c438       $unwind$ustring_system     000000018005d438     ustring.obj
 0001:0005c438       $unwind$??$common_xtox@_KD@@YAH_KQEAD0I_N@Z 000000018005d438     libucrt:xtoa.obj
 0001:0005c438       $unwind$ustring_len        000000018005d438     ustring.obj
 0001:0005c438       $unwind$_fflush_nolock     000000018005d438     libucrt:fflush.obj
 0001:0005c438       $unwind$timer_tostring     000000018005d438     service.obj
 0001:0005c438       $unwind$far_FarClock       000000018005d438     service.obj
 0001:0005c438       $unwind$filefilter_tostring 000000018005d438     service.obj
 0001:0005c438       $unwind$?exit_or_terminate_process@@YAXI@Z 000000018005d438     libucrt:exit.obj
 0001:0005c438       $unwind$luaopen_regex      000000018005d438     lregex.obj
 0001:0005c438       $unwind$FarPanelItemFreeCallback 000000018005d438     exported.obj
 0001:0005c438       $unwind$far_CPluginStartupInfo 000000018005d438     service.obj
 0001:0005c438       $unwind$ustring_GetDriveType 000000018005d438     ustring.obj
 0001:0005c438       $unwind$ustring_GetOEMCP   000000018005d438     ustring.obj
 0001:0005c438       $unwind$ReplacePluginInfoCollector 000000018005d438     exported.obj
 0001:0005c438       $unwind$ustring_GetACP     000000018005d438     ustring.obj
 0001:0005c438       $unwind$_malloc_base       000000018005d438     libucrt:malloc_base.obj
 0001:0005c438       $unwind$traceback          000000018005d438     exported.obj
 0001:0005c438       $unwind$far_MacroGetArea   000000018005d438     service.obj
 0001:0005c438       $unwind$PutAttrToTable     000000018005d438     ustring.obj
 0001:0005c438       $unwind$OptHandle          000000018005d438     service.obj
 0001:0005c438       $unwind$__acrt_AreFileApisANSI 000000018005d438     libucrt:winapi_thunks.obj
 0001:0005c438       $unwind$check_utf16_string 000000018005d438     ustring.obj
 0001:0005c438       $unwind$__acrt_uninitialize_winapi_thunks 000000018005d438     libucrt:winapi_thunks.obj
 0001:0005c438       $unwind$far_MacroGetState  000000018005d438     service.obj
 0001:0005c438       $unwind$__acrt_fp_strflt_to_string 000000018005d438     libucrt:_fptostr.obj
 0001:0005c438       $unwind$LF_ExitFAR         000000018005d438     exported.obj
 0001:0005c438       $unwind$far_MacroSaveAll   000000018005d438     service.obj
 0001:0005c438       $unwind$??0?$output_processor@_WV?$string_output_adapter@_W@__crt_stdio_output@@V?$standard_base@_WV?$string_output_adapter@_W@__crt_stdio_output@@@2@@__crt_stdio_output@@QEAA@AEBV?$string_output_adapter@_W@1@_KQEB_WQEAU__crt_locale_pointers@@QEAD@Z 000000018005d438     libucrt:output.obj
 0001:0005c438       $unwind$pusherror          000000018005d438     ustring.obj
 0001:0005c438       $unwind$luaopen_ustring    000000018005d438     ustring.obj
 0001:0005c438       $unwind$GetFileTimeFromTable 000000018005d438     util.obj
 0001:0005c440       $unwind$??R<lambda_3a6204444a8bad05601fdaf7664f6f17>@@QEBAHXZ 000000018005d440     libucrt:input.obj
 0001:0005c460       $unwind$??$process_string_specifier_tchar@_W@?$input_processor@DV?$stream_input_adapter@D@__crt_stdio_input@@@__crt_stdio_input@@AEAA_NW4conversion_mode@1@_W@Z 000000018005d460     libucrt:input.obj
 0001:0005c478       $unwind$??$parse_integer@_KV?$input_adapter_character_source@V?$stream_input_adapter@D@__crt_stdio_input@@@__crt_strtox@@@__crt_strtox@@YA_KQEAU__crt_locale_pointers@@V?$input_adapter_character_source@V?$stream_input_adapter@D@__crt_stdio_input@@@0@H_N@Z 000000018005d478     libucrt:input.obj
 0001:0005c494       $unwind$??$process_floating_point_specifier_t@N@?$input_processor@DV?$stream_input_adapter@D@__crt_stdio_input@@@__crt_stdio_input@@AEAA_NXZ 000000018005d494     libucrt:input.obj
 0001:0005c494       $unwind$??$process_floating_point_specifier_t@M@?$input_processor@DV?$stream_input_adapter@D@__crt_stdio_input@@@__crt_stdio_input@@AEAA_NXZ 000000018005d494     libucrt:input.obj
 0001:0005c4a0       $unwind$??$?RV<lambda_c01e8233c1997d6cc4b8f1fd672e07e5>@@AEAV<lambda_3a6204444a8bad05601fdaf7664f6f17>@@V<lambda_b6ae1896c9cebd71befa8310523e5efb>@@@?$__crt_seh_guarded_call@H@@QEAAH$$QEAV<lambda_c01e8233c1997d6cc4b8f1fd672e07e5>@@AEAV<lambda_3a6204444a8bad05601fdaf7664f6f17>@@$$QEAV<lambda_b6ae1896c9cebd71befa8310523e5efb>@@@Z 000000018005d4a0     libucrt:input.obj
 0001:0005c4c4       $unwind$??$parse_floating_point@V?$input_adapter_character_source@V?$stream_input_adapter@D@__crt_stdio_input@@@__crt_strtox@@N@__crt_strtox@@YA?AW4SLD_STATUS@@QEAU__crt_locale_pointers@@V?$input_adapter_character_source@V?$stream_input_adapter@D@__crt_stdio_input@@@0@QEAN@Z 000000018005d4c4     libucrt:input.obj
 0001:0005c4c4       $unwind$??$parse_floating_point@V?$input_adapter_character_source@V?$stream_input_adapter@D@__crt_stdio_input@@@__crt_strtox@@M@__crt_strtox@@YA?AW4SLD_STATUS@@QEAU__crt_locale_pointers@@V?$input_adapter_character_source@V?$stream_input_adapter@D@__crt_stdio_input@@@0@QEAM@Z 000000018005d4c4     libucrt:input.obj
 0001:0005c4dc       $unwind$??$parse_floating_point_from_source@V?$input_adapter_character_source@V?$stream_input_adapter@D@__crt_stdio_input@@@__crt_strtox@@@__crt_strtox@@YA?AW4floating_point_parse_result@0@QEAU__crt_locale_pointers@@AEAV?$input_adapter_character_source@V?$stream_input_adapter@D@__crt_stdio_input@@@0@AEAUfloating_point_string@0@@Z 000000018005d4dc     libucrt:input.obj
 0001:0005c4f4       $unwind$??$parse_floating_point_possible_infinity@DV?$input_adapter_character_source@V?$stream_input_adapter@D@__crt_stdio_input@@@__crt_strtox@@_K@__crt_strtox@@YA?AW4floating_point_parse_result@0@AEADAEAV?$input_adapter_character_source@V?$stream_input_adapter@D@__crt_stdio_input@@@0@_K@Z 000000018005d4f4     libucrt:input.obj
 0001:0005c508       $unwind$??$parse_floating_point_possible_nan@DV?$input_adapter_character_source@V?$stream_input_adapter@D@__crt_stdio_input@@@__crt_strtox@@_K@__crt_strtox@@YA?AW4floating_point_parse_result@0@AEADAEAV?$input_adapter_character_source@V?$stream_input_adapter@D@__crt_stdio_input@@@0@_K@Z 000000018005d508     libucrt:input.obj
 0001:0005c51c       $unwind$??$parse_floating_point_write_result@N@__crt_strtox@@YA?AW4SLD_STATUS@@W4floating_point_parse_result@0@AEBUfloating_point_string@0@QEAN@Z 000000018005d51c     libucrt:input.obj
 0001:0005c51c       $unwind$check_utf8_string  000000018005d51c     ustring.obj
 0001:0005c51c       $unwind$_invalid_parameter_noinfo 000000018005d51c     libucrt:invalid_parameter.obj
 0001:0005c51c       $unwind$??$parse_floating_point_write_result@M@__crt_strtox@@YA?AW4SLD_STATUS@@W4floating_point_parse_result@0@AEBUfloating_point_string@0@QEAM@Z 000000018005d51c     libucrt:input.obj
 0001:0005c51c       $unwind$?as_float@floating_point_value@__crt_strtox@@QEBAAEAMXZ 000000018005d51c     libucrt:input.obj
 0001:0005c51c       $unwind$?as_double@floating_point_value@__crt_strtox@@QEBAAEANXZ 000000018005d51c     libucrt:input.obj
 0001:0005c51c       $unwind$_wfreopen          000000018005d51c     libucrt:freopen.obj
 0001:0005c51c       $unwind$OpenRegKey         000000018005d51c     reg.obj
 0001:0005c51c       $unwind$fread              000000018005d51c     libucrt:fread.obj
 0001:0005c51c       $unwind$_ui64toa_s         000000018005d51c     libucrt:xtoa.obj
 0001:0005c51c       $unwind$PushAttrString     000000018005d51c     ustring.obj
 0001:0005c51c       $unwind$utf8_to_utf16      000000018005d51c     ustring.obj
 0001:0005c51c       $unwind$push_utf8_string   000000018005d51c     ustring.obj
 0001:0005c51c       $unwind$wctomb_s           000000018005d51c     libucrt:wctomb.obj
 0001:0005c51c       $unwind$_wsopen_s          000000018005d51c     libucrt:open.obj
 0001:0005c51c       $unwind$_sopen_s           000000018005d51c     libucrt:open.obj
 0001:0005c51c       $unwind$_wdupenv_s         000000018005d51c     libucrt:getenv.obj
 0001:0005c51c       $unwind$_log10_special     000000018005d51c     libucrt:log_special.obj
 0001:0005c524       $unwind$??$common_getenv@_W@@YAPEA_WQEB_W@Z 000000018005d524     libucrt:getenv.obj
 0001:0005c544       $unwind$??$common_dupenv_s@_W@@YAHQEAPEA_WQEA_KQEB_WHQEBDH@Z 000000018005d544     libucrt:getenv.obj
 0001:0005c584       $unwind$_wsystem           000000018005d584     libucrt:system.obj
 0001:0005c59c       $unwind$?common_exit@@YAXHW4_crt_exit_cleanup_mode@@W4_crt_exit_return_mode@@@Z 000000018005d59c     libucrt:exit.obj
 0001:0005c5dc       $unwind$??$initialize_environment_by_cloning_nolock@_W@@YAHXZ 000000018005d5dc     libucrt:environment_initialization.obj
 0001:0005c5ec       $unwind$_register_onexit_function 000000018005d5ec     libucrt:onexit.obj
 0001:0005c5f4       $unwind$_execute_onexit_table 000000018005d5f4     libucrt:onexit.obj
 0001:0005c5fc       $unwind$??$?RV<lambda_b8c45f8f788dd370798f47cfe8ac3a86>@@AEAV<lambda_4e60a939b0d047cfe11ddc22648dfba9>@@V<lambda_332c3edc96d0294ec56c57d38c1cdfd5>@@@?$__crt_seh_guarded_call@H@@QEAAH$$QEAV<lambda_b8c45f8f788dd370798f47cfe8ac3a86>@@AEAV<lambda_4e60a939b0d047cfe11ddc22648dfba9>@@$$QEAV<lambda_332c3edc96d0294ec56c57d38c1cdfd5>@@@Z 000000018005d5fc     libucrt:onexit.obj
 0001:0005c620       $unwind$??$?RV<lambda_e24bbb7b643b32fcea6fa61b31d4c984>@@AEAV<lambda_275893d493268fdec8709772e3fcec0e>@@V<lambda_9d71df4d7cf3f480f8d633942495c3b0>@@@?$__crt_seh_guarded_call@H@@QEAAH$$QEAV<lambda_e24bbb7b643b32fcea6fa61b31d4c984>@@AEAV<lambda_275893d493268fdec8709772e3fcec0e>@@$$QEAV<lambda_9d71df4d7cf3f480f8d633942495c3b0>@@@Z 000000018005d620     libucrt:onexit.obj
 0001:0005c650       $unwind$terminate          000000018005d650     libucrt:terminate.obj
 0001:0005c670       $unwind$?_strupr_s_l_stat@@YAHQEAD_KQEAU__crt_locale_pointers@@@Z 000000018005d670     libucrt:strupr.obj
 0001:0005c694       $unwind$??$parse_integer@_KV?$c_string_character_source@D@__crt_strtox@@@__crt_strtox@@YA_KQEAU__crt_locale_pointers@@V?$c_string_character_source@D@0@H_N@Z 000000018005d694     libucrt:atox.obj
 0001:0005c694       $unwind$??$parse_integer@KV?$c_string_character_source@D@__crt_strtox@@@__crt_strtox@@YAKQEAU__crt_locale_pointers@@V?$c_string_character_source@D@0@H_N@Z 000000018005d694     libucrt:atox.obj
 0001:0005c6b0       $unwind$??$parse_integer@KV?$c_string_character_source@_W@__crt_strtox@@@__crt_strtox@@YAKQEAU__crt_locale_pointers@@V?$c_string_character_source@_W@0@H_N@Z 000000018005d6b0     libucrt:atox.obj
 0001:0005c6cc       $unwind$__acrt_call_reportfault 000000018005d6cc     libucrt:invalid_parameter.obj
 0001:0005c6ec       $unwind$_tolower_l         000000018005d6ec     libucrt:tolower_toupper.obj
 0001:0005c6fc       $unwind$_wctomb_s_l        000000018005d6fc     libucrt:wctomb.obj
 0001:0005c70c       $unwind$strnlen            000000018005d70c     libucrt:strnlen.obj
 0001:0005c70c       $unwind$wcsnlen            000000018005d70c     libucrt:strnlen.obj
 0001:0005c714       $unwind$?construct_ptd_array@@YAXQEAU__acrt_ptd@@@Z 000000018005d714     libucrt:per_thread_data.obj
 0001:0005c71c       $unwind$?destroy_ptd_array@@YAXQEAU__acrt_ptd@@@Z 000000018005d71c     libucrt:per_thread_data.obj
 0001:0005c724       $unwind$??$?RV<lambda_72d1df2b273a38828b1ce30cbf4cdab5>@@AEAV<lambda_876a65b173b8412d3a47c70a915b0cf4>@@V<lambda_41932305e351933ebe8f8be3ed8bb5dc>@@@?$__crt_seh_guarded_call@X@@QEAAX$$QEAV<lambda_72d1df2b273a38828b1ce30cbf4cdab5>@@AEAV<lambda_876a65b173b8412d3a47c70a915b0cf4>@@$$QEAV<lambda_41932305e351933ebe8f8be3ed8bb5dc>@@@Z 000000018005d724     libucrt:per_thread_data.obj
 0001:0005c748       $unwind$??$?RV<lambda_5e887d1dcbef67a5eb4283622ba103bf>@@AEAV<lambda_4466841279450cc726390878d4a41900>@@V<lambda_341c25c0346d94847f1f3c463c57e077>@@@?$__crt_seh_guarded_call@X@@QEAAX$$QEAV<lambda_5e887d1dcbef67a5eb4283622ba103bf>@@AEAV<lambda_4466841279450cc726390878d4a41900>@@$$QEAV<lambda_341c25c0346d94847f1f3c463c57e077>@@@Z 000000018005d748     libucrt:per_thread_data.obj
 0001:0005c76c       $unwind$??$?RV<lambda_46352004c1216016012b18bd6f87e700>@@AEAV<lambda_3bd07e1a1191394380780325891bf33f>@@V<lambda_334532d3f185bcaa59b5be82d7d22bff>@@@?$__crt_seh_guarded_call@X@@QEAAX$$QEAV<lambda_46352004c1216016012b18bd6f87e700>@@AEAV<lambda_3bd07e1a1191394380780325891bf33f>@@$$QEAV<lambda_334532d3f185bcaa59b5be82d7d22bff>@@@Z 000000018005d76c     libucrt:per_thread_data.obj
 0001:0005c790       $unwind$??$?RV<lambda_fb3a7dec4e47f37f22dae91bb15c9095>@@AEAV<lambda_698284760c8add0bfb0756c19673e34b>@@V<lambda_dfb8eca1e75fef3034a8fb18dd509707>@@@?$__crt_seh_guarded_call@X@@QEAAX$$QEAV<lambda_fb3a7dec4e47f37f22dae91bb15c9095>@@AEAV<lambda_698284760c8add0bfb0756c19673e34b>@@$$QEAV<lambda_dfb8eca1e75fef3034a8fb18dd509707>@@@Z 000000018005d790     libucrt:per_thread_data.obj
 0001:0005c7b4       $unwind$__acrt_fp_format   000000018005d7b4     libucrt:cvt.obj
 0001:0005c7d0       $unwind$?fp_format_nan_or_infinity@@YAHW4__acrt_fp_class@@_NPEAD_K1@Z 000000018005d7d0     libucrt:cvt.obj
 0001:0005c7e4       $unwind$?fp_format_e_internal@@YAHQEAD_KH_NIQEAU_strflt@@2QEAU__crt_locale_pointers@@@Z 000000018005d7e4     libucrt:cvt.obj
 0001:0005c7fc       $unwind$?fp_format_a@@YAHQEBNPEAD_KQEAD2H_NIQEAU__crt_locale_pointers@@@Z 000000018005d7fc     libucrt:cvt.obj
 0001:0005c818       $unwind$__dcrt_get_narrow_environment_from_os 000000018005d818     libucrt:get_environment_from_os.obj
 0001:0005c818       $unwind$_wcsnicmp_l        000000018005d818     libucrt:wcsnicmp.obj
 0001:0005c818       $unwind$?fp_format_f_internal@@YAHQEAD_KHQEAU_strflt@@_NQEAU__crt_locale_pointers@@@Z 000000018005d818     libucrt:cvt.obj
 0001:0005c830       $unwind$?fp_format_g@@YAHQEBNQEAD_K12H_NIQEAU__crt_locale_pointers@@@Z 000000018005d830     libucrt:cvt.obj
 0001:0005c844       $unwind$__acrt_uninitialize_locale 000000018005d844     libucrt:wsetlocale.obj
 0001:0005c864       $unwind$__acrt_initialize_lowio 000000018005d864     libucrt:ioinit.obj
 0001:0005c884       $unwind$?initialize_inherited_file_handles_nolock@@YAXXZ 000000018005d884     libucrt:ioinit.obj
 0001:0005c8a0       $unwind$?__acrt_stdio_allocate_stream@@YA?AV__crt_stdio_stream@@XZ 000000018005d8a0     libucrt:stream.obj
 0001:0005c8c0       $unwind$_wopenfile         000000018005d8c0     libucrt:openfile.obj
 0001:0005c8d4       $unwind$??$?RV<lambda_bfedae4ebbf01fab1bb6dcc6a9e276e0>@@AEAV<lambda_2fe9b910cf3cbf4a0ab98a02ba45b3ec>@@V<lambda_237c231691f317818eb88cc1d5d642d6>@@@?$__crt_seh_guarded_call@H@@QEAAH$$QEAV<lambda_bfedae4ebbf01fab1bb6dcc6a9e276e0>@@AEAV<lambda_2fe9b910cf3cbf4a0ab98a02ba45b3ec>@@$$QEAV<lambda_237c231691f317818eb88cc1d5d642d6>@@@Z 000000018005d8d4     libucrt:close.obj
 0001:0005c8f8       $xdatasym                  000000018005d8f8     libucrt:fpsr.obj
 0001:0005c900       $unwind$__acrt_LCMapStringEx 000000018005d900     libucrt:winapi_thunks.obj
 0001:0005c900       $unwind$_mbtowc_l          000000018005d900     libucrt:mbtowc.obj
 0001:0005c900       $unwind$_wcsnicoll_l       000000018005d900     libucrt:wcsnicol.obj
 0001:0005c900       $unwind$__acrt_CompareStringW 000000018005d900     libucrt:comparestringw.obj
 0001:0005c900       $unwind$__acrt_CompareStringEx 000000018005d900     libucrt:winapi_thunks.obj
 0001:0005c918       $unwind$?process@?$input_processor@DV?$stream_input_adapter@D@__crt_stdio_input@@@__crt_stdio_input@@QEAAHXZ 000000018005d918     libucrt:input.obj
 0001:0005c918       $unwind$_exception_enabled 000000018005d918     libucrt:libm_error.obj
 0001:0005c918       $unwind$LF_ProcessPanelInput 000000018005d918     exported.obj
 0001:0005c918       $unwind$matchbalance       000000018005d918     slnunico.obj
 0001:0005c918       $unwind$match_capture      000000018005d918     slnunico.obj
 0001:0005c918       $unwind$ll_require         000000018005d918     uloadlib51.obj
 0001:0005c918       $unwind$PushDMParams       000000018005d918     service.obj
 0001:0005c918       $unwind$__acrt_getptd_noexit 000000018005d918     libucrt:per_thread_data.obj
 0001:0005c918       $unwind$??R<lambda_532e024f4337e6fc7ad266c2bef9f4ed>@@QEBA_KXZ 000000018005d918     libucrt:fwrite.obj
 0001:0005c918       $unwind$memcpy_s           000000018005d918     libucrt:input.obj
 0001:0005c918       $unwind$io_readline        000000018005d918     uliolib51.obj
 0001:0005c918       $unwind$loader_C           000000018005d918     uloadlib51.obj
 0001:0005c918       $unwind$memcpy_s           000000018005d918     libucrt:cfout.obj
 0001:0005c918       $unwind$far_DialogRun      000000018005d918     service.obj
 0001:0005c918       $unwind$?process_string_specifier@?$input_processor@DV?$stream_input_adapter@D@__crt_stdio_input@@@__crt_stdio_input@@AEAA_NW4conversion_mode@2@@Z 000000018005d918     libucrt:input.obj
 0001:0005c918       $unwind$?advance@?$format_string_parser@D@__crt_stdio_input@@QEAA_NXZ 000000018005d918     libucrt:input.obj
 0001:0005c918       $unwind$?type_case_n@?$output_processor@_WV?$string_output_adapter@_W@__crt_stdio_output@@V?$standard_base@_WV?$string_output_adapter@_W@__crt_stdio_output@@@2@@__crt_stdio_output@@AEAA_NXZ 000000018005d918     libucrt:output.obj
 0001:0005c918       $unwind$?type_case_s@?$output_processor@_WV?$string_output_adapter@_W@__crt_stdio_output@@V?$standard_base@_WV?$string_output_adapter@_W@__crt_stdio_output@@@2@@__crt_stdio_output@@AEAA_NXZ 000000018005d918     libucrt:output.obj
 0001:0005c918       $unwind$?type_case_Z@?$output_processor@_WV?$string_output_adapter@_W@__crt_stdio_output@@V?$standard_base@_WV?$string_output_adapter@_W@__crt_stdio_output@@@2@@__crt_stdio_output@@AEAA_NXZ 000000018005d918     libucrt:output.obj
 0001:0005c918       $unwind$io_fclose          000000018005d918     uliolib51.obj
 0001:0005c918       $unwind$?type_case_s@?$output_processor@DV?$string_output_adapter@D@__crt_stdio_output@@V?$standard_base@DV?$string_output_adapter@D@__crt_stdio_output@@@2@@__crt_stdio_output@@AEAA_NXZ 000000018005d918     libucrt:output.obj
 0001:0005c918       $unwind$?type_case_Z@?$output_processor@DV?$string_output_adapter@D@__crt_stdio_output@@V?$standard_base@DV?$string_output_adapter@D@__crt_stdio_output@@@2@@__crt_stdio_output@@AEAA_NXZ 000000018005d918     libucrt:output.obj
 0001:0005c918       $unwind$LF_ProcessViewerEvent 000000018005d918     exported.obj
 0001:0005c918       $unwind$luaB_dofileW       000000018005d918     lflua.obj
 0001:0005c918       $unwind$LF_PutFiles        000000018005d918     exported.obj
 0001:0005c918       $unwind$?TraceLoggingRegister@__vcrt_trace_logging_provider@@YAJPEBU_TlgProvider_t@1@PEBU_GUID@@P6AX1KE_K2PEAU_EVENT_FILTER_DESCRIPTOR@@PEAX@Z4@Z 000000018005d918     libvcruntime:telemetry.obj
 0001:0005c918       $unwind$LF_SetDirectory    000000018005d918     exported.obj
 0001:0005c918       $unwind$??$common_lseek_nolock@_J@@YA_JH_JH@Z 000000018005d918     libucrt:lseek.obj
 0001:0005c918       $unwind$LF_SetFindList     000000018005d918     exported.obj
 0001:0005c918       $unwind$?type_case_n@?$output_processor@DV?$stream_output_adapter@D@__crt_stdio_output@@V?$standard_base@DV?$stream_output_adapter@D@__crt_stdio_output@@@2@@__crt_stdio_output@@AEAA_NXZ 000000018005d918     libucrt:output.obj
 0001:0005c918       $unwind$f_seek             000000018005d918     uliolib51.obj
 0001:0005c918       $unwind$?type_case_s@?$output_processor@DV?$stream_output_adapter@D@__crt_stdio_output@@V?$standard_base@DV?$stream_output_adapter@D@__crt_stdio_output@@@2@@__crt_stdio_output@@AEAA_NXZ 000000018005d918     libucrt:output.obj
 0001:0005c918       $unwind$?type_case_Z@?$output_processor@DV?$stream_output_adapter@D@__crt_stdio_output@@V?$standard_base@DV?$stream_output_adapter@D@__crt_stdio_output@@@2@@__crt_stdio_output@@AEAA_NXZ 000000018005d918     libucrt:output.obj
 0001:0005c918       $unwind$f_setvbuf          000000018005d918     uliolib51.obj
 0001:0005c918       $unwind$io_pclose          000000018005d918     uliolib51.obj
 0001:0005c918       $unwind$?scan_scanset_range@?$format_string_parser@D@__crt_stdio_input@@AEAA_NXZ 000000018005d918     libucrt:input.obj
 0001:0005c918       $unwind$ll_module          000000018005d918     uloadlib51.obj
 0001:0005c918       $unwind$OptFlags           000000018005d918     service.obj
 0001:0005c918       $unwind$GetFlagsFromTable  000000018005d918     service.obj
 0001:0005c918       $unwind$?free_crt_array_internal@@YAXQEAPEBX_K@Z 000000018005d918     libucrt:inittime.obj
 0001:0005c918       $unwind$__acrt_stdio_flush_nolock 000000018005d918     libucrt:fflush.obj
 0001:0005c918       $unwind$_RTC_Terminate     000000018005d918     LIBCMT:_initsect_.obj
 0001:0005c918       $unwind$uc_New             000000018005d918     lusercontrol.obj
 0001:0005c918       $unwind$uc_newindex        000000018005d918     lusercontrol.obj
 0001:0005c918       $unwind$__acrt_execute_uninitializers 000000018005d918     libucrt:shared_initialization.obj
 0001:0005c918       $unwind$uc_index           000000018005d918     lusercontrol.obj
 0001:0005c918       $unwind$LF_ProcessHostFile 000000018005d918     exported.obj
 0001:0005c918       $unwind$io_flush           000000018005d918     uliolib51.obj
 0001:0005c918       $unwind$__acrt_LocaleNameToLCID 000000018005d918     libucrt:winapi_thunks.obj
 0001:0005c918       $unwind$__acrt_FlsSetValue 000000018005d918     libucrt:winapi_thunks.obj
 0001:0005c918       $unwind$f_flush            000000018005d918     uliolib51.obj
 0001:0005c918       $unwind$??$common_lseek_nolock@J@@YAJHJH@Z 000000018005d918     libucrt:lseek.obj
 0001:0005c918       $unwind$fileerror          000000018005d918     uliolib51.obj
 0001:0005c918       $unwind$get_env_flag       000000018005d918     service.obj
 0001:0005c918       $unwind$LF_Configure       000000018005d918     exported.obj
 0001:0005c918       $unwind$luaopen_uio        000000018005d918     uliolib51.obj
 0001:0005c918       $unwind$PutVersionInfoToTable 000000018005d918     service.obj
 0001:0005c918       $unwind$__vcrt_FlsSetValue 000000018005d918     libvcruntime:winapi_downlevel.obj
 0001:0005c918       $unwind$_RTC_Initialize    000000018005d918     LIBCMT:_initsect_.obj
 0001:0005c918       $unwind$_initterm_e        000000018005d918     libucrt:initterm.obj
 0001:0005c918       $unwind$__acrt_stdio_free_tmpfile_name_buffers_nolock 000000018005d918     libucrt:tmpfile.obj
 0001:0005c918       $unwind$FillEditorSelect   000000018005d918     service.obj
 0001:0005c918       $unwind$push_flags_table   000000018005d918     flags.obj
 0001:0005c918       $unwind$__acrt_stdio_flush_and_write_narrow_nolock 000000018005d918     libucrt:_flsbuf.obj
 0001:0005c918       $unwind$_DllMainCRTStartup 000000018005d918     LIBCMT:dll_dllmain.obj
 0001:0005c918       $unwind$LF_ProcessEditorEvent 000000018005d918     exported.obj
 0001:0005c918       $unwind$check_env_flag     000000018005d918     service.obj
 0001:0005c918       $unwind$__vcrt_getptd_noexit 000000018005d918     libvcruntime:per_thread_data.obj
 0001:0005c918       $unwind$??R<lambda_ad1ced32f4ac17aa236e5ef05d6b3b7c>@@QEBAXXZ 000000018005d918     libucrt:mbctype.obj
 0001:0005c918       $unwind$?type_case_n@?$output_processor@DV?$string_output_adapter@D@__crt_stdio_output@@V?$standard_base@DV?$string_output_adapter@D@__crt_stdio_output@@@2@@__crt_stdio_output@@AEAA_NXZ 000000018005d918     libucrt:output.obj
 0001:0005c918       $unwind$win_wcscmp         000000018005d918     win.obj
 0001:0005c918       $unwind$GetFarColor        000000018005d918     service.obj
 0001:0005c928       $unwind$_fcloseall         000000018005d928     libucrt:closeall.obj
 0001:0005c94c       $unwind$_read              000000018005d94c     libucrt:read.obj
 0001:0005c978       $unwind$_read_nolock       000000018005d978     libucrt:read.obj
 0001:0005c990       $unwind$?translate_ansi_or_utf8_nolock@@YAHHQEAD_KQEA_W1@Z 000000018005d990     libucrt:read.obj
 0001:0005c9a8       $unwind$??$translate_text_mode_nolock@_W@@YAHHQEA_W_K@Z 000000018005d9a8     libucrt:read.obj
 0001:0005c9c0       $unwind$?common_lseek_do_seek_nolock@@YAJQEAXJH@Z 000000018005d9c0     libucrt:lseek.obj
 0001:0005c9d0       $unwind$??$common_lseek@J@@YAJHJH@Z 000000018005d9d0     libucrt:lseek.obj
 0001:0005ca00       $unwind$??$common_lseek@_J@@YA_JH_JH@Z 000000018005da00     libucrt:lseek.obj
 0001:0005ca30       $unwind$_towlower_l        000000018005da30     libucrt:towlower.obj
 0001:0005ca38       $unwind$_isctype_l         000000018005da38     libucrt:isctype.obj
 0001:0005ca54       $unwind$_waccess_s         000000018005da54     libucrt:waccess.obj
 0001:0005ca64       $unwind$_pipe              000000018005da64     libucrt:pipe.obj
 0001:0005caa4       $unwind$?fin$0@?0???$common_dupenv_s@_W@@YAHQEAPEA_WQEA_KQEB_WHQEBDH@Z@4HA 000000018005daa4     libucrt:getenv.obj
 0001:0005caa4       $unwind$fread_s$fin$0      000000018005daa4     libucrt:fread.obj
 0001:0005caa4       $unwind$_pipe$fin$1        000000018005daa4     libucrt:pipe.obj
 0001:0005caa4       $unwind$_pipe$fin$0        000000018005daa4     libucrt:pipe.obj
 0001:0005caa4       $unwind$?filt$0@?0??dllmain_dispatch@@YAHQEAUHINSTANCE__@@KQEAX@Z@4HA 000000018005daa4     LIBCMT:dll_dllmain.obj
 0001:0005caa4       $unwind$?fin$0@?0??common_tmpfile_nolock@@YAHQEAPEAU_iobuf@@H@Z@4HA 000000018005daa4     libucrt:tmpfile.obj
 0001:0005caac       $unwind$??$common_fdopen@_W@@YAPEAU_iobuf@@HQEB_W@Z 000000018005daac     libucrt:fdopen.obj
 0001:0005cacc       $unwind$_commit            000000018005dacc     libucrt:commit.obj
 0001:0005cacc       $unwind$_close             000000018005dacc     libucrt:close.obj
 0001:0005cad4       $unwind$??$?RV<lambda_b521505b218e5242e90febf6bfebc422>@@AEAV<lambda_6978c1fb23f02e42e1d9e99668cc68aa>@@V<lambda_314360699dd331753a4119843814e9a7>@@@?$__crt_seh_guarded_call@H@@QEAAH$$QEAV<lambda_b521505b218e5242e90febf6bfebc422>@@AEAV<lambda_6978c1fb23f02e42e1d9e99668cc68aa>@@$$QEAV<lambda_314360699dd331753a4119843814e9a7>@@@Z 000000018005dad4     libucrt:commit.obj
 0001:0005caf8       $unwind$_write             000000018005daf8     libucrt:write.obj
 0001:0005cb28       $unwind$_write_nolock      000000018005db28     libucrt:write.obj
 0001:0005cb40       $unwind$?write_double_translated_ansi_nolock@@YA?AUwrite_result@?A0x9c548279@@HQEBDI@Z 000000018005db40     libucrt:write.obj
 0001:0005cb60       $unwind$?write_text_utf16le_nolock@@YA?AUwrite_result@?A0x9c548279@@HQEBDI@Z 000000018005db60     libucrt:write.obj
 0001:0005cb60       $unwind$?write_text_ansi_nolock@@YA?AUwrite_result@?A0x9c548279@@HQEBDI@Z 000000018005db60     libucrt:write.obj
 0001:0005cb80       $unwind$?write_text_utf8_nolock@@YA?AUwrite_result@?A0x9c548279@@HQEBDI@Z 000000018005db80     libucrt:write.obj
 0001:0005cba4       $unwind$??$write_buffer_nolock@D@@YA_NDV__crt_stdio_stream@@@Z 000000018005dba4     libucrt:_flsbuf.obj
 0001:0005cbb4       $unwind$win_SystemTimeToFileTime 000000018005dbb4     win.obj
 0001:0005cbb4       $unwind$strtoull           000000018005dbb4     libucrt:strtox.obj
 0001:0005cbb4       $unwind$ustring_Utf16ToUtf8 000000018005dbb4     ustring.obj
 0001:0005cbb4       $unwind$ustring_Uuid       000000018005dbb4     ustring.obj
 0001:0005cbb4       $unwind$strtol             000000018005dbb4     libucrt:strtox.obj
 0001:0005cbb4       $unwind$wcstol             000000018005dbb4     libucrt:strtox.obj
 0001:0005cbb4       $unwind$??$common_xtox_s@_KD@@YAH_KQEAD0I_N@Z 000000018005dbb4     libucrt:xtoa.obj
 0001:0005cbb4       $unwind$win_FileTimeToSystemTime 000000018005dbb4     win.obj
 0001:0005cbbc       $unwind$__acrt_GetTempPathA 000000018005dbbc     libucrt:gettemppath.obj
 0001:0005cbd4       $unwind$_wsopen_nolock     000000018005dbd4     libucrt:open.obj
 0001:0005cbf0       $unwind$??$common_sopen_dispatch@D@@YAHQEBDHHHQEAHH@Z 000000018005dbf0     libucrt:open.obj
 0001:0005cc14       $unwind$?fin$0@?0???$common_sopen_dispatch@D@@YAHQEBDHHHQEAHH@Z@4HA 000000018005dc14     libucrt:open.obj
 0001:0005cc14       $unwind$?fin$0@?0???$common_sopen_dispatch@_W@@YAHQEB_WHHHQEAHH@Z@4HA 000000018005dc14     libucrt:open.obj
 0001:0005cc1c       $unwind$??$common_sopen_dispatch@_W@@YAHQEB_WHHHQEAHH@Z 000000018005dc1c     libucrt:open.obj
 0001:0005cc40       $unwind$win_DeleteRegValue 000000018005dc40     win.obj
 0001:0005cc40       $unwind$ustring_Utf8ToOem  000000018005dc40     ustring.obj
 0001:0005cc40       $unwind$?decode_options@@YA?AUfile_options@?A0x656cf9f4@@HHH@Z 000000018005dc40     libucrt:open.obj
 0001:0005cc54       $unwind$?state_case_type@?$output_processor@DV?$stream_output_adapter@D@__crt_stdio_output@@V?$standard_base@DV?$stream_output_adapter@D@__crt_stdio_output@@@2@@__crt_stdio_output@@AEAA_NXZ 000000018005dc54     libucrt:output.obj
 0001:0005cc54       $unwind$?state_case_type@?$output_processor@DV?$string_output_adapter@D@__crt_stdio_output@@V?$standard_base@DV?$string_output_adapter@D@__crt_stdio_output@@@2@@__crt_stdio_output@@AEAA_NXZ 000000018005dc54     libucrt:output.obj
 0001:0005cc54       $unwind$?configure_text_mode@@YAHHUfile_options@?A0x656cf9f4@@HAEAW4__crt_lowio_text_mode@@@Z 000000018005dc54     libucrt:open.obj
 0001:0005cc6c       $unwind$_rmtmp             000000018005dc6c     libucrt:rmtmp.obj
 0001:0005cca0       $unwind$?accumulate_inheritable_handles@@YA_NQEAPEAEQEA_K_N@Z 000000018005dca0     libucrt:spawnv.obj
 0001:0005cca8       $unwind$??R<lambda_45edfab556fcff821d8a41c06e3d46c0>@@QEBA_NXZ 000000018005dca8     libucrt:spawnv.obj
 0001:0005ccc0       $unwind$??$common_spawnv@_W@@YA_JHQEB_WQEBQEB_W1@Z 000000018005dcc0     libucrt:spawnv.obj
 0001:0005ccdc       $unwind$??$?RV<lambda_fb01e4b6cb0b58be62120d2a518119ce>@@AEAV<lambda_45edfab556fcff821d8a41c06e3d46c0>@@V<lambda_8a9bf702b7f902ca2f9107a173e0fbe3>@@@?$__crt_seh_guarded_call@_N@@QEAA_N$$QEAV<lambda_fb01e4b6cb0b58be62120d2a518119ce>@@AEAV<lambda_45edfab556fcff821d8a41c06e3d46c0>@@$$QEAV<lambda_8a9bf702b7f902ca2f9107a173e0fbe3>@@@Z 000000018005dcdc     libucrt:spawnv.obj
 0001:0005cd00       $unwind$??$execute_command@_W@@YA_JHQEB_WQEBQEB_W1@Z 000000018005dd00     libucrt:spawnv.obj
 0001:0005cd1c       $unwind$??$common_spawnvp@_W@@YA_JHQEB_WQEBQEB_W1@Z 000000018005dd1c     libucrt:spawnvp.obj
 0001:0005cd3c       $unwind$__acrt_update_thread_multibyte_data 000000018005dd3c     libucrt:mbctype.obj
 0001:0005cd60       $unwind$_setmbcp_nolock    000000018005dd60     libucrt:mbctype.obj
 0001:0005cd80       $unwind$?setSBUpLow@@YAXPEAU__crt_multibyte_data@@@Z 000000018005dd80     libucrt:mbctype.obj
 0001:0005cd9c       $unwind$?setmbcp_internal@@YAHH_N@Z 000000018005dd9c     libucrt:mbctype.obj
 0001:0005cdac       $unwind$??$?RV<lambda_99476a1ad63dd22509b5d3e65b0ffc95>@@AEAV<lambda_ad1ced32f4ac17aa236e5ef05d6b3b7c>@@V<lambda_f7424dd8d45958661754dc4f2697e9c3>@@@?$__crt_seh_guarded_call@X@@QEAAX$$QEAV<lambda_99476a1ad63dd22509b5d3e65b0ffc95>@@AEAV<lambda_ad1ced32f4ac17aa236e5ef05d6b3b7c>@@$$QEAV<lambda_f7424dd8d45958661754dc4f2697e9c3>@@@Z 000000018005ddac     libucrt:mbctype.obj
 0001:0005cdd0       $unwind$_invalid_parameter 000000018005ddd0     libucrt:invalid_parameter.obj
 0001:0005cdd0       $unwind$__vcrt_EventWriteTransfer 000000018005ddd0     libvcruntime:winapi_downlevel.obj
 0001:0005cdd0       $unwind$??$copy_environment@_W@@YAPEAPEA_WQEAPEA_W@Z 000000018005ddd0     libucrt:setenv.obj
 0001:0005cde8       $unwind$_query_new_handler 000000018005dde8     libucrt:new_handler.obj
 0001:0005ce08       $unwind$__acrt_get_sigabrt_handler 000000018005de08     libucrt:signal.obj
 0001:0005ce10       $unwind$raise              000000018005de10     libucrt:signal.obj
 0001:0005ce3c       $unwind$??$?RV<lambda_c36588078e9f5dfd39652860aa6b3aaf>@@AEAV<lambda_ec61778202f4f5fc7e7711acc23c3bca>@@V<lambda_dc9d2797ccde5d239b4a0efae8ebd7db>@@@?$__crt_seh_guarded_call@P6AXH@Z@@QEAAP6AXH@Z$$QEAV<lambda_c36588078e9f5dfd39652860aa6b3aaf>@@AEAV<lambda_ec61778202f4f5fc7e7711acc23c3bca>@@$$QEAV<lambda_dc9d2797ccde5d239b4a0efae8ebd7db>@@@Z 000000018005de3c     libucrt:signal.obj
 0001:0005ce60       $unwind$__acrt_LCMapStringA 000000018005de60     libucrt:lcmapstringa.obj
 0001:0005ce70       $unwind$?__acrt_LCMapStringA_stat@@YAHPEAU__crt_locale_pointers@@PEB_WKPEBDHPEADHHH@Z 000000018005de70     libucrt:lcmapstringa.obj
 0001:0005ce98       $unwind$far_FarMacroCallToLua 000000018005de98     luamacro.obj
 0001:0005ce98       $unwind$isspace            000000018005de98     libucrt:_ctype.obj
 0001:0005ce98       $unwind$?_TlgWrite@__vcrt_trace_logging_provider@@YAJPEBU_TlgProvider_t@1@PEFBXPEBU_GUID@@2IPEAU_EVENT_DATA_DESCRIPTOR@@@Z 000000018005de98     libvcruntime:telemetry.obj
 0001:0005ce98       $unwind$win_GetConsoleScreenBufferInfo 000000018005de98     win.obj
 0001:0005ce98       $unwind$isdigit            000000018005de98     libucrt:_ctype.obj
 0001:0005ce98       $unwind$_isleadbyte_l      000000018005de98     libucrt:_wctype.obj
 0001:0005ce98       $unwind$?getSystemCP@@YAHH@Z 000000018005de98     libucrt:mbctype.obj
 0001:0005ce98       $unwind$ExtractKey         000000018005de98     win.obj
 0001:0005cea0       $unwind$__acrt_update_thread_locale_data 000000018005dea0     libucrt:locale_refcounting.obj
 0001:0005cec4       $unwind$__acrt_fltout      000000018005dec4     libucrt:cfout.obj
 0001:0005cee4       $unwind$__acrt_locale_free_monetary 000000018005dee4     libucrt:initmon.obj
 0001:0005ceec       $unwind$__acrt_locale_free_lc_time_if_unreferenced 000000018005deec     libucrt:locale_refcounting.obj
 0001:0005ceec       $unwind$_free_base         000000018005deec     libucrt:free_base.obj
 0001:0005ceec       $unwind$__acrt_locale_free_numeric 000000018005deec     libucrt:initnum.obj
 0001:0005ceec       $unwind$?destroy_fls@@YAXPEAX@Z 000000018005deec     libucrt:per_thread_data.obj
 0001:0005cef4       $unwind$__acrt_locale_free_time 000000018005def4     libucrt:inittime.obj
 0001:0005cf04       $unwind$__acrt_GetStringTypeA 000000018005df04     libucrt:getstringtypea.obj
 0001:0005cf2c       $unwind$_alloc_osfhnd      000000018005df2c     libucrt:osfinfo.obj
 0001:0005cf5c       $unwind$?initialize_stdio_handles_nolock@@YAXXZ 000000018005df5c     libucrt:ioinit.obj
 0001:0005cf5c       $unwind$_free_osfhnd       000000018005df5c     libucrt:osfinfo.obj
 0001:0005cf70       $unwind$__acrt_lowio_destroy_handle_array 000000018005df70     libucrt:osfinfo.obj
 0001:0005cf80       $unwind$__acrt_lowio_ensure_fh_exists 000000018005df80     libucrt:osfinfo.obj
 0001:0005cfac       $unwind$__scrt_dllmain_uninitialize_critical 000000018005dfac     LIBCMT:utility.obj
 0001:0005cfac       $unwind$timer_Close        000000018005dfac     service.obj
 0001:0005cfac       $unwind$__doserrno         000000018005dfac     libucrt:errno.obj
 0001:0005cfac       $unwind$_getfpstatusword   000000018005dfac     libucrt:_fenvutils.obj
 0001:0005cfac       $unwind$__vcrt_uninitialize_telemetry_provider 000000018005dfac     libvcruntime:telemetry.obj
 0001:0005cfac       $unwind$dir_exist          000000018005dfac     service.obj
 0001:0005cfac       $unwind$_getfpcontrolword  000000018005dfac     libucrt:_fenvutils.obj
 0001:0005cfac       $unwind$far_SubscribeDialogDrawEvents 000000018005dfac     service.obj
 0001:0005cfac       $unwind$atexit             000000018005dfac     LIBCMT:utility.obj
 0001:0005cfac       $unwind$__scrt_dllmain_crt_thread_attach 000000018005dfac     LIBCMT:utility.obj
 0001:0005cfac       $unwind$feof               000000018005dfac     libucrt:feoferr.obj
 0001:0005cfac       $unwind$__acrt_uninitialize_ptd 000000018005dfac     libucrt:per_thread_data.obj
 0001:0005cfac       $unwind$ferror             000000018005dfac     libucrt:feoferr.obj
 0001:0005cfac       $unwind$GetPluginData      000000018005dfac     service.obj
 0001:0005cfac       $unwind$__acrt_DownlevelLocaleNameToLCID 000000018005dfac     libucrt:lcidtoname_downlevel.obj
 0001:0005cfac       $unwind$__acrt_initialize_ptd 000000018005dfac     libucrt:per_thread_data.obj
 0001:0005cfac       $unwind$?state_case_size@?$output_processor@DV?$string_output_adapter@D@__crt_stdio_output@@V?$standard_base@DV?$string_output_adapter@D@__crt_stdio_output@@@2@@__crt_stdio_output@@AEAA_NXZ 000000018005dfac     libucrt:output.obj
 0001:0005cfac       $unwind$ustring_Sleep      000000018005dfac     ustring.obj
 0001:0005cfac       $unwind$__scrt_dllmain_crt_thread_detach 000000018005dfac     LIBCMT:utility.obj
 0001:0005cfac       $unwind$?initialize_multibyte@@YAHXZ 000000018005dfac     libucrt:multibyte_initializer.obj
 0001:0005cfac       $unwind$?dllmain_crt_dispatch@@YAHQEAUHINSTANCE__@@KQEAX@Z 000000018005dfac     LIBCMT:dll_dllmain.obj
 0001:0005cfac       $unwind$__dcrt_terminate_console_output 000000018005dfac     libucrt:initcon.obj
 0001:0005cfac       $unwind$?state_case_size@?$output_processor@_WV?$string_output_adapter@_W@__crt_stdio_output@@V?$standard_base@_WV?$string_output_adapter@_W@__crt_stdio_output@@@2@@__crt_stdio_output@@AEAA_NXZ 000000018005dfac     libucrt:output.obj
 0001:0005cfac       $unwind$?state_case_size@?$output_processor@DV?$stream_output_adapter@D@__crt_stdio_output@@V?$standard_base@DV?$stream_output_adapter@D@__crt_stdio_output@@@2@@__crt_stdio_output@@AEAA_NXZ 000000018005dfac     libucrt:output.obj
 0001:0005cfac       $unwind$_set_errno_from_matherr 000000018005dfac     libucrt:fpexcept.obj
 0001:0005cfac       $unwind$uninitialize_environment 000000018005dfac     libucrt:initialization.obj
 0001:0005cfac       $unwind$__pctype_func      000000018005dfac     libucrt:ctype.obj
 0001:0005cfac       $unwind$_fgetc_nolock      000000018005dfac     libucrt:fgetc.obj
 0001:0005cfac       $unwind$?validate_stream_is_ansi_if_required@?$__acrt_stdio_char_traits@D@@SA_NQEAU_iobuf@@@Z 000000018005dfac     libucrt:output.obj
 0001:0005cfac       $unwind$__acrt_initialize_heap 000000018005dfac     libucrt:heap_handle.obj
 0001:0005cfac       $unwind$__scrt_dllmain_after_initialize_c 000000018005dfac     LIBCMT:utility.obj
 0001:0005cfac       $unwind$?state_case_normal_tchar@?$output_processor@DV?$string_output_adapter@D@__crt_stdio_output@@V?$standard_base@DV?$string_output_adapter@D@__crt_stdio_output@@@2@@__crt_stdio_output@@AEAA_ND@Z 000000018005dfac     libucrt:output.obj
 0001:0005cfac       $unwind$fegetround         000000018005dfac     libucrt:fegetround.obj
 0001:0005cfac       $unwind$__acrt_initialize_multibyte 000000018005dfac     libucrt:mbctype.obj
 0001:0005cfac       $unwind$_fileno            000000018005dfac     libucrt:fileno.obj
 0001:0005cfac       $unwind$__scrt_initialize_default_local_stdio_options 000000018005dfac     LIBCMT:default_local_stdio_options.obj
 0001:0005cfac       $unwind$_invoke_watson     000000018005dfac     libucrt:invalid_parameter.obj
 0001:0005cfac       $unwind$tmpfile            000000018005dfac     libucrt:tmpfile.obj
 0001:0005cfac       $unwind$__scrt_acquire_startup_lock 000000018005dfac     LIBCMT:utility.obj
 0001:0005cfac       $unwind$__vcrt_initialize  000000018005dfac     libvcruntime:initialization.obj
 0001:0005cfac       $unwind$__acrt_thread_detach 000000018005dfac     libucrt:initialization.obj
 0001:0005cfac       $unwind$_errno             000000018005dfac     libucrt:errno.obj
 0001:0005cfac       $unwind$tolower            000000018005dfac     libucrt:tolower_toupper.obj
 0001:0005cfac       $unwind$__vcrt_uninitialize_critical 000000018005dfac     libvcruntime:initialization.obj
 0001:0005cfac       $unwind$_statfp            000000018005dfac     libucrt:fpctrl.obj
 0001:0005cfac       $unwind$__vcrt_thread_attach 000000018005dfac     libvcruntime:initialization.obj
 0001:0005cfac       $unwind$__vcrt_thread_detach 000000018005dfac     libvcruntime:initialization.obj
 0001:0005cfac       $unwind$_isatty            000000018005dfac     libucrt:isatty.obj
 0001:0005cfac       $unwind$_msize             000000018005dfac     libucrt:msize.obj
 0001:0005cfac       $unwind$__report_rangecheckfailure 000000018005dfac     LIBCMT:gs_report.obj
 0001:0005cfac       $unwind$_wcsnicoll         000000018005dfac     libucrt:wcsnicol.obj
 0001:0005cfac       $unwind$__acrt_initialize_command_line 000000018005dfac     libucrt:argv_data.obj
 0001:0005cfac       $unwind$AddMacroData_gc    000000018005dfac     service.obj
 0001:0005cfac       $unwind$__scrt_dllmain_uninitialize_c 000000018005dfac     LIBCMT:utility.obj
 0001:0005cfac       $unwind$__GSHandlerCheck   000000018005dfac     LIBCMT:_gshandler_.obj
 0001:0005cfac       $unwind$_get_osfhandle     000000018005dfac     libucrt:osfinfo.obj
 0001:0005cfac       $unwind$__acrt_release_locale_ref 000000018005dfac     libucrt:locale_refcounting.obj
 0001:0005cfac       $unwind$abort              000000018005dfac     libucrt:abort.obj
 0001:0005cfac       $unwind$__acrt_thread_attach 000000018005dfac     libucrt:initialization.obj
 0001:0005cfac       $unwind$__vcrt_initialize_ptd 000000018005dfac     libvcruntime:per_thread_data.obj
 0001:0005cfac       $unwind$win_GetVirtualKeys 000000018005dfac     win.obj
 0001:0005cfac       $unwind$_get_fmode         000000018005dfac     libucrt:setmode.obj
 0001:0005cfac       $unwind$DllMain            000000018005dfac     service.obj
 0001:0005cfac       $unwind$_wcsnicmp          000000018005dfac     libucrt:wcsnicmp.obj
 0001:0005cfac       $unwind$??$uninitialize_environment_internal@_W@@YAXAEAPEAPEA_W@Z 000000018005dfac     libucrt:environment_initialization.obj
 0001:0005cfac       $unwind$??$uninitialize_environment_internal@D@@YAXAEAPEAPEAD@Z 000000018005dfac     libucrt:environment_initialization.obj
 0001:0005cfac       $unwind$__scrt_dllmain_before_initialize_c 000000018005dfac     LIBCMT:utility.obj
 0001:0005cfac       $unwind$__acrt_uninitialize_critical 000000018005dfac     libucrt:initialization.obj
 0001:0005cfac       $unwind$__acrt_uninitialize_tmpfile 000000018005dfac     libucrt:rmtmp.obj
 0001:0005cfac       $unwind$writer             000000018005dfac     slnunico.obj
 0001:0005cfac       $unwind$initialize_c       000000018005dfac     libucrt:initialization.obj
 0001:0005cfac       $unwind$__dcrt_uninitialize_environments_nolock 000000018005dfac     libucrt:environment_initialization.obj
 0001:0005cfac       $unwind$PutFileTimeToTable 000000018005dfac     util.obj
 0001:0005cfac       $unwind$__vcrt_freefls     000000018005dfac     libvcruntime:per_thread_data.obj
 0001:0005cfac       $unwind$_wcsicmp           000000018005dfac     libucrt:wcsicmp.obj
 0001:0005cfac       $unwind$filefilter_gc      000000018005dfac     service.obj
 0001:0005cfac       $unwind$__vcrt_uninitialize_ptd 000000018005dfac     libvcruntime:per_thread_data.obj
 0001:0005cfb4       $unwind$?GetTableIndexFromLocaleName@@YAHPEB_W@Z 000000018005dfb4     libucrt:lcidtoname_downlevel.obj
 0001:0005cfcc       $unwind$__acrt_LCMapStringW 000000018005dfcc     libucrt:lcmapstringw.obj
 0001:0005cfcc       $unwind$_sopen_nolock      000000018005dfcc     libucrt:open.obj
 0001:0005cfcc       $unwind$?fp_format_e@@YAHQEBNQEAD_K12H_NIQEAU__crt_locale_pointers@@@Z 000000018005dfcc     libucrt:cvt.obj
 0001:0005cfe0       $unwind$??$create_environment@_W@@YAQEAPEA_WQEA_W@Z 000000018005dfe0     libucrt:environment_initialization.obj
 0001:0005cfe0       $unwind$win_ShellExecute   000000018005dfe0     win.obj
 0001:0005cfe0       $unwind$__acrt_copy_path_to_wide_string 000000018005dfe0     libucrt:string_utilities.obj
 0001:0005cfe0       $unwind$??$create_environment@D@@YAQEAPEADQEAD@Z 000000018005dfe0     libucrt:environment_initialization.obj
 0001:0005cff8       $unwind$_setmode_nolock    000000018005dff8     libucrt:setmode.obj
 0001:0005d008       $unwind$__acrt_pack_wide_command_line_and_environment 000000018005e008     libucrt:cenvarg.obj
 0001:0005d024       $unwind$??$construct_environment_block@_W@@YAHQEBQEB_WQEAPEA_W@Z 000000018005e024     libucrt:cenvarg.obj
 0001:0005d048       $xdatasym                  000000018005e048     libucrt:log10.obj
 0001:0005d054       $unwind$_call_matherr      000000018005e054     libucrt:libm_error.obj
 0001:0005d05c       $unwind$_handle_error      000000018005e05c     libucrt:libm_error.obj
 0001:0005d07c       $unwind$__acrt_initialize_fma3 000000018005e07c     libucrt:fma3_available.obj
 0001:0005d084       $unwind$_log_special_common 000000018005e084     libucrt:log_special.obj
 0001:0005d090       $unwind$__dcrt_lowio_initialize_console_output 000000018005e090     libucrt:initcon.obj
 0001:0005d090       $unwind$_raise_exc         000000018005e090     libucrt:fpexcept.obj
 0001:0005d098       $unwind$?common_fseek_nolock@@YAHV__crt_stdio_stream@@_JH@Z 000000018005e098     libucrt:fseek.obj
 0001:0005d098       $unwind$_raise_exc_ex      000000018005e098     libucrt:fpexcept.obj
 0001:0005d098       $unwind$??$common_refill_and_read_nolock@D@@YAHV__crt_stdio_stream@@@Z 000000018005e098     libucrt:_filbuf.obj
 0001:0005d0ac       $unwind$_ctrlfp            000000018005e0ac     libucrt:fpctrl.obj
 0001:0005d0d8       $xdatasym                  000000018005e0d8     LIBCMT:_amdsecgs_.obj
 0001:0005d0dc       $unwind$_IsNonwritableInCurrentImage 000000018005e0dc     LIBCMT:pesect.obj
 0001:0005d100       $unwind$__report_securityfailure 000000018005e100     LIBCMT:gs_report.obj
 0001:0005d108       $unwind$_putwch_nolock     000000018005e108     libucrt:putwch.obj
 0001:0005d108       $unwind$__report_gsfailure 000000018005e108     LIBCMT:gs_report.obj
 0001:0005d110       $unwind$capture_current_context 000000018005e110     LIBCMT:gs_report.obj
 0001:0005d110       $unwind$far_MacroLoadAll   000000018005e110     service.obj
 0001:0005d11c       $unwind$LF_ProcessSynchroEvent 000000018005e11c     exported.obj
 0001:0005d11c       $unwind$capture_previous_context 000000018005e11c     LIBCMT:gs_report.obj
 0001:0005d130       .edata                     000000018005e130     luafar3.exp
 0001:0005d158       rgpv                       000000018005e158     luafar3.exp
 0001:0005d200       rgszName                   000000018005e200     luafar3.exp
 0001:0005d2a8       rgwOrd                     000000018005e2a8     luafar3.exp
 0001:0005d2fc       szName                     000000018005e2fc     luafar3.exp
 0001:0005d308       $N00001                    000000018005e308     luafar3.exp
 0001:0005d313       $N00002                    000000018005e313     luafar3.exp
 0001:0005d323       $N00003                    000000018005e323     luafar3.exp
 0001:0005d331       $N00004                    000000018005e331     luafar3.exp
 0001:0005d33c       $N00005                    000000018005e33c     luafar3.exp
 0001:0005d349       $N00006                    000000018005e349     luafar3.exp
 0001:0005d358       $N00007                    000000018005e358     luafar3.exp
 0001:0005d363       $N00008                    000000018005e363     luafar3.exp
 0001:0005d36d       $N00009                    000000018005e36d     luafar3.exp
 0001:0005d378       $N00010                    000000018005e378     luafar3.exp
 0001:0005d38b       $N00011                    000000018005e38b     luafar3.exp
 0001:0005d39b       $N00012                    000000018005e39b     luafar3.exp
 0001:0005d3ad       $N00013                    000000018005e3ad     luafar3.exp
 0001:0005d3c1       $N00014                    000000018005e3c1     luafar3.exp
 0001:0005d3cd       $N00015                    000000018005e3cd     luafar3.exp
 0001:0005d3dc       $N00016                    000000018005e3dc     luafar3.exp
 0001:0005d3ed       $N00017                    000000018005e3ed     luafar3.exp
 0001:0005d3fd       $N00018                    000000018005e3fd     luafar3.exp
 0001:0005d411       $N00019                    000000018005e411     luafar3.exp
 0001:0005d422       $N00020                    000000018005e422     luafar3.exp
 0001:0005d42a       $N00021                    000000018005e42a     luafar3.exp
 0001:0005d43b       $N00022                    000000018005e43b     luafar3.exp
 0001:0005d44c       $N00023                    000000018005e44c     luafar3.exp
 0001:0005d458       $N00024                    000000018005e458     luafar3.exp
 0001:0005d469       $N00025                    000000018005e469     luafar3.exp
 0001:0005d47a       $N00026                    000000018005e47a     luafar3.exp
 0001:0005d485       $N00027                    000000018005e485     luafar3.exp
 0001:0005d48d       $N00028                    000000018005e48d     luafar3.exp
 0001:0005d4a4       $N00029                    000000018005e4a4     luafar3.exp
 0001:0005d4ba       $N00030                    000000018005e4ba     luafar3.exp
 0001:0005d4d0       $N00031                    000000018005e4d0     luafar3.exp
 0001:0005d4e6       $N00032                    000000018005e4e6     luafar3.exp
 0001:0005d4f8       $N00033                    000000018005e4f8     luafar3.exp
 0001:0005d50b       $N00034                    000000018005e50b     luafar3.exp
 0001:0005d520       $N00035                    000000018005e520     luafar3.exp
 0001:0005d535       $N00036                    000000018005e535     luafar3.exp
 0001:0005d54c       $N00037                    000000018005e54c     luafar3.exp
 0001:0005d562       $N00038                    000000018005e562     luafar3.exp
 0001:0005d56e       $N00039                    000000018005e56e     luafar3.exp
 0001:0005d582       $N00040                    000000018005e582     luafar3.exp
 0001:0005d593       $N00041                    000000018005e593     luafar3.exp
 0001:0005d5a3       $N00042                    000000018005e5a3     luafar3.exp
 0002:00001da0       ?names@?5??LF_InitLuaState1@@9@9 0000000180060da0     service.obj
 0002:00001dc0       pageMap                    0000000180060dc0     slnudata.obj
 0002:000034c0       groupMap                   00000001800624c0     slnudata.obj
 0002:00005270       groups                     0000000180064270     slnudata.obj
 0002:00005470       pageMap                    0000000180064470     slnunico.obj
 0002:00006b70       groupMap                   0000000180065b70     slnunico.obj
 0002:00008920       groups                     0000000180067920     slnunico.obj
 0002:00008b50       ?_Tlg_Microsoft_CRTProviderProv@@3U_TlgProvider_t@__vcrt_trace_logging_provider@@A 0000000180067b50     libvcruntime:telemetry.obj
 0002:00008ba0       ?__vcrt_flsindex@@3KA      0000000180067ba0     libvcruntime:per_thread_data.obj
 0002:00008ba4       ?dazSupported@?1??common_control87@@9@9 0000000180067ba4     libucrt:ieee.obj
 0002:00008ba8       errno_no_memory            0000000180067ba8     libucrt:errno.obj
 0002:00008bac       doserrno_no_memory         0000000180067bac     libucrt:errno.obj
 0002:00008cc4       __acrt_flsindex            0000000180067cc4     libucrt:per_thread_data.obj
 0002:000091c0       __rgctypeflag              00000001800681c0     libucrt:mbctype.obj
 0002:000091d0       __rgcode_page_info         00000001800681d0     libucrt:mbctype.obj
 0002:00009590       ?dazSupported@?1??_ctrlfp@@9@9 0000000180068590     libucrt:fpctrl.obj
 0002:000095a0       luaopen_bit                00000001800685a0     service.obj
 0002:000095a8       luaopen_ffi                00000001800685a8     service.obj
 0002:000095b0       luaopen_jit                00000001800685b0     service.obj
 0002:000095b8       ?__proc_attached@@3HA      00000001800685b8     LIBCMT:dll_dllmain.obj
 0002:000095d0       ?module_local_atexit_table@@3U_onexit_table_t@@A 00000001800685d0     LIBCMT:utility.obj
 0002:000095e8       ?module_local_at_quick_exit_table@@3U_onexit_table_t@@A 00000001800685e8     LIBCMT:utility.obj
 0002:00009600       ?is_initialized_as_dll@@3_NA 0000000180068600     LIBCMT:utility.obj
 0002:00009630       ?module_handles@@3PAPEAUHINSTANCE__@@A 0000000180068630     libvcruntime:winapi_downlevel.obj
 0002:00009650       ?encoded_function_pointers@@3PAPEAXA 0000000180068650     libvcruntime:winapi_downlevel.obj
 0002:000096a0       ?__vcrt_startup_thread_ptd@@3U__vcrt_ptd@@A 00000001800686a0     libvcruntime:per_thread_data.obj
 0002:00009718       __vcrt_lock_table          0000000180068718     libvcruntime:locks.obj
 0002:00009740       __vcrt_locks_initialized   0000000180068740     libvcruntime:locks.obj
 0002:00009798       ?heap@@3V_HeapManager@@A   0000000180068798     libvcruntime:undname.obj
 0002:000097d8       __idtabsiz                 00000001800687d8     libucrt:popen.obj
 0002:000097e0       __idpairs                  00000001800687e0     libucrt:popen.obj
 0002:000097e8       narrow_tmpfile_buffer_pointers 00000001800687e8     libucrt:tmpfile.obj
 0002:00009800       wide_tmpfile_buffer_pointers 0000000180068800     libucrt:tmpfile.obj
 0002:00009818       c_termination_complete     0000000180068818     libucrt:exit.obj
 0002:00009820       thread_local_exit_callback_func 0000000180068820     libucrt:exit.obj
 0002:00009828       ?c_exit_complete@?5??common_exit@@YAXHW4_crt_exit_cleanup_mode@@W4_crt_exit_return_mode@@@Z@4_NA 0000000180068828     libucrt:exit.obj
 0002:00009880       __acrt_invalid_parameter_handler 0000000180068880     libucrt:invalid_parameter.obj
 0002:00009888       enable_percent_n           0000000180068888     libucrt:printf_count_output.obj
 0002:00009cc0       module_handles             0000000180068cc0     libucrt:winapi_thunks.obj
 0002:00009d60       encoded_function_pointers  0000000180068d60     libucrt:winapi_thunks.obj
 0002:00009e60       ?state_cache@?1??__acrt_is_packaged_app@@9@4JA 0000000180068e60     libucrt:winapi_thunks.obj
 0002:00009e70       __acrt_lock_table          0000000180068e70     libucrt:locks.obj
 0002:0000a078       __acrt_locks_initialized   0000000180069078     libucrt:locks.obj
 0002:0000a094       fSystemSet                 0000000180069094     libucrt:mbctype.obj
 0002:0000a0a0       ?initialized@?1??__acrt_initialize_multibyte@@9@4_NA 00000001800690a0     libucrt:mbctype.obj
 0002:0000a0d0       __acrt_new_handler         00000001800690d0     libucrt:new_handler.obj
 0002:0000a0d8       ctrlc_action               00000001800690d8     libucrt:signal.obj
 0002:0000a0e0       ctrlbreak_action           00000001800690e0     libucrt:signal.obj
 0002:0000a0e8       abort_action               00000001800690e8     libucrt:signal.obj
 0002:0000a0f0       term_action                00000001800690f0     libucrt:signal.obj
 0002:0000a0f8       user_matherr               00000001800690f8     libucrt:matherr.obj
 0002:0000a100       __acrt_global_new_mode     0000000180069100     libucrt:new_mode.obj
 0002:0000a110       __acrt_app_type            0000000180069110     libucrt:report_runtime_error.obj
 0002:0000a120       GS_ExceptionRecord         0000000180069120     LIBCMT:gs_report.obj
 0002:0000a1c0       GS_ContextRecord           00000001800691c0     LIBCMT:gs_report.obj
 0003:00000000       $pdata$?TraceLoggingRegister@__vcrt_trace_logging_provider@@YAJPEBU_TlgProvider_t@1@PEBU_GUID@@P6AX1KE_K2PEAU_EVENT_FILTER_DESCRIPTOR@@PEAX@Z4@Z 000000018006a000     libvcruntime:telemetry.obj
 0003:0000000c       $pdata$?_TlgEnableCallback@__vcrt_trace_logging_provider@@YAXPEBU_GUID@@KE_K1PEAU_EVENT_FILTER_DESCRIPTOR@@PEAX@Z 000000018006a00c     libvcruntime:telemetry.obj
 0003:00000018       $pdata$?_TlgWrite@__vcrt_trace_logging_provider@@YAJPEBU_TlgProvider_t@1@PEFBXPEBU_GUID@@2IPEAU_EVENT_DATA_DESCRIPTOR@@@Z 000000018006a018     libvcruntime:telemetry.obj
 0003:00000030       $pdata$band                000000018006a030     bit64.obj
 0003:0000003c       $pdata$5$band              000000018006a03c     bit64.obj
 0003:00000048       $pdata$6$band              000000018006a048     bit64.obj
 0003:00000054       $pdata$bor                 000000018006a054     bit64.obj
 0003:00000060       $pdata$5$bor               000000018006a060     bit64.obj
 0003:0000006c       $pdata$6$bor               000000018006a06c     bit64.obj
 0003:00000078       $pdata$bxor                000000018006a078     bit64.obj
 0003:00000084       $pdata$5$bxor              000000018006a084     bit64.obj
 0003:00000090       $pdata$6$bxor              000000018006a090     bit64.obj
 0003:0000009c       $pdata$bnot                000000018006a09c     bit64.obj
 0003:000000a8       $pdata$0$bnot              000000018006a0a8     bit64.obj
 0003:000000b4       $pdata$1$bnot              000000018006a0b4     bit64.obj
 0003:000000c0       $pdata$lshift              000000018006a0c0     bit64.obj
 0003:000000cc       $pdata$rshift              000000018006a0cc     bit64.obj
 0003:000000d8       $pdata$arshift             000000018006a0d8     bit64.obj
 0003:000000e4       $pdata$f_new               000000018006a0e4     bit64.obj
 0003:000000f0       $pdata$0$f_new             000000018006a0f0     bit64.obj
 0003:000000fc       $pdata$1$f_new             000000018006a0fc     bit64.obj
 0003:00000108       $pdata$f_tostring          000000018006a108     bit64.obj
 0003:00000114       $pdata$0$f_tostring        000000018006a114     bit64.obj
 0003:00000120       $pdata$1$f_tostring        000000018006a120     bit64.obj
 0003:0000012c       $pdata$f_type              000000018006a12c     bit64.obj
 0003:00000138       $pdata$0$f_type            000000018006a138     bit64.obj
 0003:00000144       $pdata$1$f_type            000000018006a144     bit64.obj
 0003:00000150       $pdata$f_add               000000018006a150     bit64.obj
 0003:0000015c       $pdata$5$f_add             000000018006a15c     bit64.obj
 0003:00000168       $pdata$6$f_add             000000018006a168     bit64.obj
 0003:00000174       $pdata$f_sub               000000018006a174     bit64.obj
 0003:00000180       $pdata$f_mul               000000018006a180     bit64.obj
 0003:0000018c       $pdata$5$f_mul             000000018006a18c     bit64.obj
 0003:00000198       $pdata$6$f_mul             000000018006a198     bit64.obj
 0003:000001a4       $pdata$f_div               000000018006a1a4     bit64.obj
 0003:000001b0       $pdata$f_mod               000000018006a1b0     bit64.obj
 0003:000001bc       $pdata$f_unm               000000018006a1bc     bit64.obj
 0003:000001c8       $pdata$0$f_unm             000000018006a1c8     bit64.obj
 0003:000001d4       $pdata$1$f_unm             000000018006a1d4     bit64.obj
 0003:000001e0       $pdata$f_eq                000000018006a1e0     bit64.obj
 0003:000001ec       $pdata$f_lt                000000018006a1ec     bit64.obj
 0003:000001f8       $pdata$f_le                000000018006a1f8     bit64.obj
 0003:00000204       $pdata$bit64_getvalue      000000018006a204     bit64.obj
 0003:00000210       $pdata$0$bit64_getvalue    000000018006a210     bit64.obj
 0003:0000021c       $pdata$1$bit64_getvalue    000000018006a21c     bit64.obj
 0003:00000228       $pdata$bit64_push          000000018006a228     bit64.obj
 0003:00000234       $pdata$bit64_pushuserdata  000000018006a234     bit64.obj
 0003:00000240       $pdata$luaopen_bit64       000000018006a240     bit64.obj
 0003:0000024c       $pdata$sprintf             000000018006a24c     bit64.obj
 0003:00000258       $pdata$AddBufToCollector   000000018006a258     exported.obj
 0003:00000264       $pdata$CheckReloadDefaultScript 000000018006a264     exported.obj
 0003:00000270       $pdata$CreateStringsArray  000000018006a270     exported.obj
 0003:0000027c       $pdata$0$CreateStringsArray 000000018006a27c     exported.obj
 0003:00000288       $pdata$1$CreateStringsArray 000000018006a288     exported.obj
 0003:00000294       $pdata$2$CreateStringsArray 000000018006a294     exported.obj
 0003:000002a0       $pdata$3$CreateStringsArray 000000018006a2a0     exported.obj
 0003:000002ac       $pdata$4$CreateStringsArray 000000018006a2ac     exported.obj
 0003:000002b8       $pdata$5$CreateStringsArray 000000018006a2b8     exported.obj
 0003:000002c4       $pdata$FarPanelItemFreeCallback 000000018006a2c4     exported.obj
 0003:000002d0       $pdata$FillFarMacroCall    000000018006a2d0     exported.obj
 0003:000002dc       $pdata$3$FillFarMacroCall  000000018006a2dc     exported.obj
 0003:000002e8       $pdata$4$FillFarMacroCall  000000018006a2e8     exported.obj
 0003:000002f4       $pdata$FillFarMacroCall_Callback 000000018006a2f4     exported.obj
 0003:00000300       $pdata$0$FillFarMacroCall_Callback 000000018006a300     exported.obj
 0003:0000030c       $pdata$1$FillFarMacroCall_Callback 000000018006a30c     exported.obj
 0003:00000318       $pdata$FillFindData        000000018006a318     exported.obj
 0003:00000324       $pdata$1$FillFindData      000000018006a324     exported.obj
 0003:00000330       $pdata$2$FillFindData      000000018006a330     exported.obj
 0003:0000033c       $pdata$FillPluginPanelItem 000000018006a33c     exported.obj
 0003:00000348       $pdata$GetExportFunction   000000018006a348     exported.obj
 0003:00000354       $pdata$LF_Analyse          000000018006a354     exported.obj
 0003:00000360       $pdata$LF_ClosePanel       000000018006a360     exported.obj
 0003:0000036c       $pdata$0$LF_ClosePanel     000000018006a36c     exported.obj
 0003:00000378       $pdata$1$LF_ClosePanel     000000018006a378     exported.obj
 0003:00000384       $pdata$LF_Compare          000000018006a384     exported.obj
 0003:00000390       $pdata$0$LF_Compare        000000018006a390     exported.obj
 0003:0000039c       $pdata$2$LF_Compare        000000018006a39c     exported.obj
 0003:000003a8       $pdata$3$LF_Compare        000000018006a3a8     exported.obj
 0003:000003b4       $pdata$LF_Configure        000000018006a3b4     exported.obj
 0003:000003c0       $pdata$LF_DeleteFiles      000000018006a3c0     exported.obj
 0003:000003cc       $pdata$0$LF_DeleteFiles    000000018006a3cc     exported.obj
 0003:000003d8       $pdata$2$LF_DeleteFiles    000000018006a3d8     exported.obj
 0003:000003e4       $pdata$3$LF_DeleteFiles    000000018006a3e4     exported.obj
 0003:000003f0       $pdata$LF_ExitFAR          000000018006a3f0     exported.obj
 0003:000003fc       $pdata$LF_FreeContentData  000000018006a3fc     exported.obj
 0003:00000408       $pdata$LF_FreeFindData     000000018006a408     exported.obj
 0003:00000414       $pdata$LF_GetContentData   000000018006a414     exported.obj
 0003:00000420       $pdata$0$LF_GetContentData 000000018006a420     exported.obj
 0003:0000042c       $pdata$1$LF_GetContentData 000000018006a42c     exported.obj
 0003:00000438       $pdata$LF_GetContentFields 000000018006a438     exported.obj
 0003:00000444       $pdata$0$LF_GetContentFields 000000018006a444     exported.obj
 0003:00000450       $pdata$1$LF_GetContentFields 000000018006a450     exported.obj
 0003:0000045c       $pdata$LF_GetFiles         000000018006a45c     exported.obj
 0003:00000468       $pdata$0$LF_GetFiles       000000018006a468     exported.obj
 0003:00000474       $pdata$2$LF_GetFiles       000000018006a474     exported.obj
 0003:00000480       $pdata$3$LF_GetFiles       000000018006a480     exported.obj
 0003:0000048c       $pdata$LF_GetFindData      000000018006a48c     exported.obj
 0003:00000498       $pdata$0$LF_GetFindData    000000018006a498     exported.obj
 0003:000004a4       $pdata$1$LF_GetFindData    000000018006a4a4     exported.obj
 0003:000004b0       $pdata$LF_GetGlobalInfo    000000018006a4b0     exported.obj
 0003:000004bc       $pdata$1$LF_GetGlobalInfo  000000018006a4bc     exported.obj
 0003:000004c8       $pdata$2$LF_GetGlobalInfo  000000018006a4c8     exported.obj
 0003:000004d4       $pdata$3$LF_GetGlobalInfo  000000018006a4d4     exported.obj
 0003:000004e0       $pdata$4$LF_GetGlobalInfo  000000018006a4e0     exported.obj
 0003:000004ec       $pdata$LF_GetOpenPanelInfo 000000018006a4ec     exported.obj
 0003:000004f8       $pdata$1$LF_GetOpenPanelInfo 000000018006a4f8     exported.obj
 0003:00000504       $pdata$3$LF_GetOpenPanelInfo 000000018006a504     exported.obj
 0003:00000510       $pdata$5$LF_GetOpenPanelInfo 000000018006a510     exported.obj
 0003:0000051c       $pdata$10$LF_GetOpenPanelInfo 000000018006a51c     exported.obj
 0003:00000528       $pdata$11$LF_GetOpenPanelInfo 000000018006a528     exported.obj
 0003:00000534       $pdata$12$LF_GetOpenPanelInfo 000000018006a534     exported.obj
 0003:00000540       $pdata$13$LF_GetOpenPanelInfo 000000018006a540     exported.obj
 0003:0000054c       $pdata$LF_GetPluginInfo    000000018006a54c     exported.obj
 0003:00000558       $pdata$0$LF_GetPluginInfo  000000018006a558     exported.obj
 0003:00000564       $pdata$1$LF_GetPluginInfo  000000018006a564     exported.obj
 0003:00000570       $pdata$LF_MakeDirectory    000000018006a570     exported.obj
 0003:0000057c       $pdata$0$LF_MakeDirectory  000000018006a57c     exported.obj
 0003:00000588       $pdata$2$LF_MakeDirectory  000000018006a588     exported.obj
 0003:00000594       $pdata$3$LF_MakeDirectory  000000018006a594     exported.obj
 0003:000005a0       $pdata$LF_Open             000000018006a5a0     exported.obj
 0003:000005ac       $pdata$2$LF_Open           000000018006a5ac     exported.obj
 0003:000005b8       $pdata$4$LF_Open           000000018006a5b8     exported.obj
 0003:000005c4       $pdata$5$LF_Open           000000018006a5c4     exported.obj
 0003:000005d0       $pdata$LF_ProcessConsoleInput 000000018006a5d0     exported.obj
 0003:000005dc       $pdata$0$LF_ProcessConsoleInput 000000018006a5dc     exported.obj
 0003:000005e8       $pdata$1$LF_ProcessConsoleInput 000000018006a5e8     exported.obj
 0003:000005f4       $pdata$LF_ProcessDialogEvent 000000018006a5f4     exported.obj
 0003:00000600       $pdata$LF_ProcessEditorEvent 000000018006a600     exported.obj
 0003:0000060c       $pdata$LF_ProcessEditorInput 000000018006a60c     exported.obj
 0003:00000618       $pdata$LF_ProcessHostFile  000000018006a618     exported.obj
 0003:00000624       $pdata$LF_ProcessPanelEvent 000000018006a624     exported.obj
 0003:00000630       $pdata$0$LF_ProcessPanelEvent 000000018006a630     exported.obj
 0003:0000063c       $pdata$2$LF_ProcessPanelEvent 000000018006a63c     exported.obj
 0003:00000648       $pdata$3$LF_ProcessPanelEvent 000000018006a648     exported.obj
 0003:00000654       $pdata$LF_ProcessPanelInput 000000018006a654     exported.obj
 0003:00000660       $pdata$LF_ProcessSynchroEvent 000000018006a660     exported.obj
 0003:0000066c       $pdata$1$LF_ProcessSynchroEvent 000000018006a66c     exported.obj
 0003:00000678       $pdata$3$LF_ProcessSynchroEvent 000000018006a678     exported.obj
 0003:00000684       $pdata$4$LF_ProcessSynchroEvent 000000018006a684     exported.obj
 0003:00000690       $pdata$6$LF_ProcessSynchroEvent 000000018006a690     exported.obj
 0003:0000069c       $pdata$7$LF_ProcessSynchroEvent 000000018006a69c     exported.obj
 0003:000006a8       $pdata$LF_ProcessViewerEvent 000000018006a6a8     exported.obj
 0003:000006b4       $pdata$LF_PutFiles         000000018006a6b4     exported.obj
 0003:000006c0       $pdata$LF_SetDirectory     000000018006a6c0     exported.obj
 0003:000006cc       $pdata$LF_SetFindList      000000018006a6cc     exported.obj
 0003:000006d8       $pdata$PackMacroValues     000000018006a6d8     exported.obj
 0003:000006e4       $pdata$PushAnalyseInfo     000000018006a6e4     exported.obj
 0003:000006f0       $pdata$PushFarMacroValue   000000018006a6f0     exported.obj
 0003:000006fc       $pdata$RegisterObject      000000018006a6fc     exported.obj
 0003:00000708       $pdata$ReplacePluginInfoCollector 000000018006a708     exported.obj
 0003:00000714       $pdata$RunDefaultScript    000000018006a714     exported.obj
 0003:00000720       $pdata$0$RunDefaultScript  000000018006a720     exported.obj
 0003:0000072c       $pdata$1$RunDefaultScript  000000018006a72c     exported.obj
 0003:00000738       $pdata$UpdateFileSelection 000000018006a738     exported.obj
 0003:00000744       $pdata$0$UpdateFileSelection 000000018006a744     exported.obj
 0003:00000750       $pdata$1$UpdateFileSelection 000000018006a750     exported.obj
 0003:0000075c       $pdata$_AddStringToCollector 000000018006a75c     exported.obj
 0003:00000768       $pdata$0$_AddStringToCollector 000000018006a768     exported.obj
 0003:00000774       $pdata$1$_AddStringToCollector 000000018006a774     exported.obj
 0003:00000780       $pdata$docall              000000018006a780     exported.obj
 0003:0000078c       $pdata$getPluginMenuItems  000000018006a78c     exported.obj
 0003:00000798       $pdata$pcall_msg           000000018006a798     exported.obj
 0003:000007a4       $pdata$0$pcall_msg         000000018006a7a4     exported.obj
 0003:000007b0       $pdata$1$pcall_msg         000000018006a7b0     exported.obj
 0003:000007bc       $pdata$traceback           000000018006a7bc     exported.obj
 0003:000007c8       $pdata$push_flags_table    000000018006a7c8     flags.obj
 0003:000007d4       $pdata$SetFarColors        000000018006a7d4     keysandcolors.obj
 0003:000007e0       $pdata$LF_Gsub             000000018006a7e0     lflua.obj
 0003:000007ec       $pdata$LF_LoadFile         000000018006a7ec     lflua.obj
 0003:000007f8       $pdata$1$LF_LoadFile       000000018006a7f8     lflua.obj
 0003:00000804       $pdata$2$LF_LoadFile       000000018006a804     lflua.obj
 0003:00000810       $pdata$3$LF_LoadFile       000000018006a810     lflua.obj
 0003:0000081c       $pdata$4$LF_LoadFile       000000018006a81c     lflua.obj
 0003:00000828       $pdata$errfile             000000018006a828     lflua.obj
 0003:00000834       $pdata$getF                000000018006a834     lflua.obj
 0003:00000840       $pdata$luaB_dofileW        000000018006a840     lflua.obj
 0003:0000084c       $pdata$luaB_loadfileW      000000018006a84c     lflua.obj
 0003:00000858       $pdata$method_gc           000000018006a858     lregex.obj
 0003:00000864       $pdata$method_tostring     000000018006a864     lregex.obj
 0003:00000870       $pdata$method_bracketscount 000000018006a870     lregex.obj
 0003:0000087c       $pdata$func_New            000000018006a87c     lregex.obj
 0003:00000888       $pdata$_Gmatch             000000018006a888     lregex.obj
 0003:00000894       $pdata$_regex_gmatch_closure 000000018006a894     lregex.obj
 0003:000008a0       $pdata$1$_regex_gmatch_closure 000000018006a8a0     lregex.obj
 0003:000008ac       $pdata$2$_regex_gmatch_closure 000000018006a8ac     lregex.obj
 0003:000008b8       $pdata$4$_regex_gmatch_closure 000000018006a8b8     lregex.obj
 0003:000008c4       $pdata$5$_regex_gmatch_closure 000000018006a8c4     lregex.obj
 0003:000008d0       $pdata$check_regex_pattern 000000018006a8d0     lregex.obj
 0003:000008dc       $pdata$1$check_regex_pattern 000000018006a8dc     lregex.obj
 0003:000008e8       $pdata$2$check_regex_pattern 000000018006a8e8     lregex.obj
 0003:000008f4       $pdata$luaopen_regex       000000018006a8f4     lregex.obj
 0003:00000900       $pdata$push_far_regex      000000018006a900     lregex.obj
 0003:0000090c       $pdata$rx_find_match       000000018006a90c     lregex.obj
 0003:00000918       $pdata$rx_gsub             000000018006a918     lregex.obj
 0003:00000924       $pdata$FL_PushParams       000000018006a924     luamacro.obj
 0003:00000930       $pdata$0$FL_PushParams     000000018006a930     luamacro.obj
 0003:0000093c       $pdata$1$FL_PushParams     000000018006a93c     luamacro.obj
 0003:00000948       $pdata$2$FL_PushParams     000000018006a948     luamacro.obj
 0003:00000954       $pdata$3$FL_PushParams     000000018006a954     luamacro.obj
 0003:00000960       $pdata$4$FL_PushParams     000000018006a960     luamacro.obj
 0003:0000096c       $pdata$5$FL_PushParams     000000018006a96c     luamacro.obj
 0003:00000978       $pdata$InitMPR             000000018006a978     luamacro.obj
 0003:00000984       $pdata$Open_Luamacro       000000018006a984     luamacro.obj
 0003:00000990       $pdata$0$Open_Luamacro     000000018006a990     luamacro.obj
 0003:0000099c       $pdata$1$Open_Luamacro     000000018006a99c     luamacro.obj
 0003:000009a8       $pdata$far_FarMacroCallToLua 000000018006a9a8     luamacro.obj
 0003:000009b4       $pdata$0$far_FarMacroCallToLua 000000018006a9b4     luamacro.obj
 0003:000009c0       $pdata$1$far_FarMacroCallToLua 000000018006a9c0     luamacro.obj
 0003:000009cc       $pdata$far_MacroCallFar    000000018006a9cc     luamacro.obj
 0003:000009d8       $pdata$1$far_MacroCallFar  000000018006a9d8     luamacro.obj
 0003:000009e4       $pdata$3$far_MacroCallFar  000000018006a9e4     luamacro.obj
 0003:000009f0       $pdata$4$far_MacroCallFar  000000018006a9f0     luamacro.obj
 0003:000009fc       $pdata$5$far_MacroCallFar  000000018006a9fc     luamacro.obj
 0003:00000a08       $pdata$uc_tostring         000000018006aa08     lusercontrol.obj
 0003:00000a14       $pdata$uc_len              000000018006aa14     lusercontrol.obj
 0003:00000a20       $pdata$uc_index            000000018006aa20     lusercontrol.obj
 0003:00000a2c       $pdata$uc_newindex         000000018006aa2c     lusercontrol.obj
 0003:00000a38       $pdata$uc_New              000000018006aa38     lusercontrol.obj
 0003:00000a44       $pdata$luaopen_usercontrol 000000018006aa44     lusercontrol.obj
 0003:00000a50       $pdata$push_far_usercontrol 000000018006aa50     lusercontrol.obj
 0003:00000a5c       $pdata$CreateRegKey        000000018006aa5c     reg.obj
 0003:00000a68       $pdata$OpenRegKey          000000018006aa68     reg.obj
 0003:00000a74       $pdata$SetRegKeyArr        000000018006aa74     reg.obj
 0003:00000a80       $pdata$SetRegKeyDword      000000018006aa80     reg.obj
 0003:00000a8c       $pdata$SetRegKeyStr        000000018006aa8c     reg.obj
 0003:00000a98       $pdata$far_FormatFileSize  000000018006aa98     service.obj
 0003:00000aa4       $pdata$dialog_rawhandle    000000018006aaa4     service.obj
 0003:00000ab0       $pdata$far_FarClock        000000018006aab0     service.obj
 0003:00000abc       $pdata$far_GetDlgItem      000000018006aabc     service.obj
 0003:00000ac8       $pdata$far_GetFileOwner    000000018006aac8     service.obj
 0003:00000ad4       $pdata$far_SetDlgItem      000000018006aad4     service.obj
 0003:00000ae0       $pdata$far_GetNumberOfLinks 000000018006aae0     service.obj
 0003:00000aec       $pdata$far_Message         000000018006aaec     service.obj
 0003:00000af8       $pdata$far_SubscribeDialogDrawEvents 000000018006aaf8     service.obj
 0003:00000b04       $pdata$editor_Editor       000000018006ab04     service.obj
 0003:00000b10       $pdata$far_Timer           000000018006ab10     service.obj
 0003:00000b1c       $pdata$viewer_Viewer       000000018006ab1c     service.obj
 0003:00000b28       $pdata$panel_CheckPanelsExist 000000018006ab28     service.obj
 0003:00000b34       $pdata$panel_ClosePanel    000000018006ab34     service.obj
 0003:00000b40       $pdata$viewer_GetFileName  000000018006ab40     service.obj
 0003:00000b4c       $pdata$panel_GetPanelInfo  000000018006ab4c     service.obj
 0003:00000b58       $pdata$timer_Close         000000018006ab58     service.obj
 0003:00000b64       $pdata$viewer_GetInfo      000000018006ab64     service.obj
 0003:00000b70       $pdata$1$viewer_GetInfo    000000018006ab70     service.obj
 0003:00000b7c       $pdata$2$viewer_GetInfo    000000018006ab7c     service.obj
 0003:00000b88       $pdata$3$viewer_GetInfo    000000018006ab88     service.obj
 0003:00000b94       $pdata$4$viewer_GetInfo    000000018006ab94     service.obj
 0003:00000ba0       $pdata$timer_tostring      000000018006aba0     service.obj
 0003:00000bac       $pdata$timer_index         000000018006abac     service.obj
 0003:00000bb8       $pdata$viewer_Quit         000000018006abb8     service.obj
 0003:00000bc4       $pdata$viewer_Redraw       000000018006abc4     service.obj
 0003:00000bd0       $pdata$viewer_Select       000000018006abd0     service.obj
 0003:00000bdc       $pdata$timer_newindex      000000018006abdc     service.obj
 0003:00000be8       $pdata$viewer_SetPosition  000000018006abe8     service.obj
 0003:00000bf4       $pdata$2$viewer_SetPosition 000000018006abf4     service.obj
 0003:00000c00       $pdata$3$viewer_SetPosition 000000018006ac00     service.obj
 0003:00000c0c       $pdata$far_PluginStartupInfo 000000018006ac0c     service.obj
 0003:00000c18       $pdata$viewer_SetMode      000000018006ac18     service.obj
 0003:00000c24       $pdata$far_CreateSettings  000000018006ac24     service.obj
 0003:00000c30       $pdata$far_GetCurrentDirectory 000000018006ac30     service.obj
 0003:00000c3c       $pdata$far_ShowHelp        000000018006ac3c     service.obj
 0003:00000c48       $pdata$far_InputBox        000000018006ac48     service.obj
 0003:00000c54       $pdata$panel_RedrawPanel   000000018006ac54     service.obj
 0003:00000c60       $pdata$editor_GetFileName  000000018006ac60     service.obj
 0003:00000c6c       $pdata$editor_GetInfo      000000018006ac6c     service.obj
 0003:00000c78       $pdata$2$editor_GetInfo    000000018006ac78     service.obj
 0003:00000c84       $pdata$3$editor_GetInfo    000000018006ac84     service.obj
 0003:00000c90       $pdata$4$editor_GetInfo    000000018006ac90     service.obj
 0003:00000c9c       $pdata$5$editor_GetInfo    000000018006ac9c     service.obj
 0003:00000ca8       $pdata$far_GetMsg          000000018006aca8     service.obj
 0003:00000cb4       $pdata$Settings_set        000000018006acb4     service.obj
 0003:00000cc0       $pdata$far_Text            000000018006acc0     service.obj
 0003:00000ccc       $pdata$Settings_get        000000018006accc     service.obj
 0003:00000cd8       $pdata$far_CopyToClipboard 000000018006acd8     service.obj
 0003:00000ce4       $pdata$1$far_CopyToClipboard 000000018006ace4     service.obj
 0003:00000cf0       $pdata$2$far_CopyToClipboard 000000018006acf0     service.obj
 0003:00000cfc       $pdata$panel_GetPanelDirectory 000000018006acfc     service.obj
 0003:00000d08       $pdata$far_PasteFromClipboard 000000018006ad08     service.obj
 0003:00000d14       $pdata$Settings_delete     000000018006ad14     service.obj
 0003:00000d20       $pdata$Settings_createsubkey 000000018006ad20     service.obj
 0003:00000d2c       $pdata$panel_SetPanelDirectory 000000018006ad2c     service.obj
 0003:00000d38       $pdata$far_InputRecordToName 000000018006ad38     service.obj
 0003:00000d44       $pdata$0$far_InputRecordToName 000000018006ad44     service.obj
 0003:00000d50       $pdata$2$far_InputRecordToName 000000018006ad50     service.obj
 0003:00000d5c       $pdata$3$far_InputRecordToName 000000018006ad5c     service.obj
 0003:00000d68       $pdata$Settings_opensubkey 000000018006ad68     service.obj
 0003:00000d74       $pdata$Settings_enum       000000018006ad74     service.obj
 0003:00000d80       $pdata$0$Settings_enum     000000018006ad80     service.obj
 0003:00000d8c       $pdata$1$Settings_enum     000000018006ad8c     service.obj
 0003:00000d98       $pdata$2$Settings_enum     000000018006ad98     service.obj
 0003:00000da4       $pdata$3$Settings_enum     000000018006ada4     service.obj
 0003:00000db0       $pdata$panel_GetCmdLine    000000018006adb0     service.obj
 0003:00000dbc       $pdata$far_NameToInputRecord 000000018006adbc     service.obj
 0003:00000dc8       $pdata$panel_SetCmdLine    000000018006adc8     service.obj
 0003:00000dd4       $pdata$far_LStricmp        000000018006add4     service.obj
 0003:00000de0       $pdata$panel_GetCmdLinePos 000000018006ade0     service.obj
 0003:00000dec       $pdata$far_LStrnicmp       000000018006adec     service.obj
 0003:00000df8       $pdata$panel_SetCmdLinePos 000000018006adf8     service.obj
 0003:00000e04       $pdata$Settings_free       000000018006ae04     service.obj
 0003:00000e10       $pdata$far_ProcessName     000000018006ae10     service.obj
 0003:00000e1c       $pdata$1$far_ProcessName   000000018006ae1c     service.obj
 0003:00000e28       $pdata$2$far_ProcessName   000000018006ae28     service.obj
 0003:00000e34       $pdata$3$far_ProcessName   000000018006ae34     service.obj
 0003:00000e40       $pdata$4$far_ProcessName   000000018006ae40     service.obj
 0003:00000e4c       $pdata$5$far_ProcessName   000000018006ae4c     service.obj
 0003:00000e58       $pdata$6$far_ProcessName   000000018006ae58     service.obj
 0003:00000e64       $pdata$panel_InsertCmdLine 000000018006ae64     service.obj
 0003:00000e70       $pdata$panel_GetCmdLineSelection 000000018006ae70     service.obj
 0003:00000e7c       $pdata$far_FreeSettings    000000018006ae7c     service.obj
 0003:00000e88       $pdata$editor_InsertString 000000018006ae88     service.obj
 0003:00000e94       $pdata$Settings_tostring   000000018006ae94     service.obj
 0003:00000ea0       $pdata$editor_DeleteString 000000018006aea0     service.obj
 0003:00000eac       $pdata$panel_SetCmdLineSelection 000000018006aeac     service.obj
 0003:00000eb8       $pdata$far_ColorDialog     000000018006aeb8     service.obj
 0003:00000ec4       $pdata$far_GetReparsePointInfo 000000018006aec4     service.obj
 0003:00000ed0       $pdata$0$far_GetReparsePointInfo 000000018006aed0     service.obj
 0003:00000edc       $pdata$1$far_GetReparsePointInfo 000000018006aedc     service.obj
 0003:00000ee8       $pdata$far_LIsAlpha        000000018006aee8     service.obj
 0003:00000ef4       $pdata$far_LIsAlphanum     000000018006aef4     service.obj
 0003:00000f00       $pdata$editor_InsertText   000000018006af00     service.obj
 0003:00000f0c       $pdata$far_LIsLower        000000018006af0c     service.obj
 0003:00000f18       $pdata$editor_DeleteChar   000000018006af18     service.obj
 0003:00000f24       $pdata$far_LIsUpper        000000018006af24     service.obj
 0003:00000f30       $pdata$editor_DeleteBlock  000000018006af30     service.obj
 0003:00000f3c       $pdata$panel_SetUserScreen 000000018006af3c     service.obj
 0003:00000f48       $pdata$editor_UndoRedo     000000018006af48     service.obj
 0003:00000f54       $pdata$panel_GetUserScreen 000000018006af54     service.obj
 0003:00000f60       $pdata$far_LLowerBuf       000000018006af60     service.obj
 0003:00000f6c       $pdata$far_LUpperBuf       000000018006af6c     service.obj
 0003:00000f78       $pdata$panel_IsActivePanel 000000018006af78     service.obj
 0003:00000f84       $pdata$far_MkTemp          000000018006af84     service.obj
 0003:00000f90       $pdata$panel_SetActivePanel 000000018006af90     service.obj
 0003:00000f9c       $pdata$far_GetDirList      000000018006af9c     service.obj
 0003:00000fa8       $pdata$0$far_GetDirList    000000018006afa8     service.obj
 0003:00000fb4       $pdata$6$far_GetDirList    000000018006afb4     service.obj
 0003:00000fc0       $pdata$7$far_GetDirList    000000018006afc0     service.obj
 0003:00000fcc       $pdata$8$far_GetDirList    000000018006afcc     service.obj
 0003:00000fd8       $pdata$far_MkLink          000000018006afd8     service.obj
 0003:00000fe4       $pdata$far_GetPathRoot     000000018006afe4     service.obj
 0003:00000ff0       $pdata$far_GetPluginDirList 000000018006aff0     service.obj
 0003:00000ffc       $pdata$far_RestoreScreen   000000018006affc     service.obj
 0003:00001008       $pdata$far_SaveScreen      000000018006b008     service.obj
 0003:00001014       $pdata$editor_SetParam     000000018006b014     service.obj
 0003:00001020       $pdata$editor_SetPosition  000000018006b020     service.obj
 0003:0000102c       $pdata$far_RecursiveSearch 000000018006b02c     service.obj
 0003:00001038       $pdata$editor_Redraw       000000018006b038     service.obj
 0003:00001044       $pdata$editor_ExpandTabs   000000018006b044     service.obj
 0003:00001050       $pdata$far_ConvertPath     000000018006b050     service.obj
 0003:0000105c       $pdata$far_AdvControl      000000018006b05c     service.obj
 0003:00001068       $pdata$0$far_AdvControl    000000018006b068     service.obj
 0003:00001074       $pdata$1$far_AdvControl    000000018006b074     service.obj
 0003:00001080       $pdata$editor_AddSessionBookmark 000000018006b080     service.obj
 0003:0000108c       $pdata$editor_ClearSessionBookmarks 000000018006b08c     service.obj
 0003:00001098       $pdata$editor_DeleteSessionBookmark 000000018006b098     service.obj
 0003:000010a4       $pdata$editor_NextSessionBookmark 000000018006b0a4     service.obj
 0003:000010b0       $pdata$editor_PrevSessionBookmark 000000018006b0b0     service.obj
 0003:000010bc       $pdata$editor_SetTitle     000000018006b0bc     service.obj
 0003:000010c8       $pdata$editor_GetTitle     000000018006b0c8     service.obj
 0003:000010d4       $pdata$editor_Quit         000000018006b0d4     service.obj
 0003:000010e0       $pdata$far_MacroLoadAll    000000018006b0e0     service.obj
 0003:000010ec       $pdata$0$far_MacroLoadAll  000000018006b0ec     service.obj
 0003:000010f8       $pdata$1$far_MacroLoadAll  000000018006b0f8     service.obj
 0003:00001104       $pdata$editor_Select       000000018006b104     service.obj
 0003:00001110       $pdata$far_MacroSaveAll    000000018006b110     service.obj
 0003:0000111c       $pdata$far_MacroGetState   000000018006b11c     service.obj
 0003:00001128       $pdata$editor_GetSelection 000000018006b128     service.obj
 0003:00001134       $pdata$1$editor_GetSelection 000000018006b134     service.obj
 0003:00001140       $pdata$2$editor_GetSelection 000000018006b140     service.obj
 0003:0000114c       $pdata$3$editor_GetSelection 000000018006b14c     service.obj
 0003:00001158       $pdata$4$editor_GetSelection 000000018006b158     service.obj
 0003:00001164       $pdata$far_MacroGetArea    000000018006b164     service.obj
 0003:00001170       $pdata$far_MacroGetLastError 000000018006b170     service.obj
 0003:0000117c       $pdata$0$far_MacroGetLastError 000000018006b17c     service.obj
 0003:00001188       $pdata$1$far_MacroGetLastError 000000018006b188     service.obj
 0003:00001194       $pdata$far_SendDlgMessage  000000018006b194     service.obj
 0003:000011a0       $pdata$0$far_SendDlgMessage 000000018006b1a0     service.obj
 0003:000011ac       $pdata$1$far_SendDlgMessage 000000018006b1ac     service.obj
 0003:000011b8       $pdata$far_MacroAdd        000000018006b1b8     service.obj
 0003:000011c4       $pdata$far_MacroDelete     000000018006b1c4     service.obj
 0003:000011d0       $pdata$far_MacroExecute    000000018006b1d0     service.obj
 0003:000011dc       $pdata$2$far_MacroExecute  000000018006b1dc     service.obj
 0003:000011e8       $pdata$3$far_MacroExecute  000000018006b1e8     service.obj
 0003:000011f4       $pdata$editor_AddColor     000000018006b1f4     service.obj
 0003:00001200       $pdata$editor_DelColor     000000018006b200     service.obj
 0003:0000120c       $pdata$far_CPluginStartupInfo 000000018006b20c     service.obj
 0003:00001218       $pdata$editor_GetColor     000000018006b218     service.obj
 0003:00001224       $pdata$far_MakeMenuItems   000000018006b224     service.obj
 0003:00001230       $pdata$1$far_MakeMenuItems 000000018006b230     service.obj
 0003:0000123c       $pdata$5$far_MakeMenuItems 000000018006b23c     service.obj
 0003:00001248       $pdata$6$far_MakeMenuItems 000000018006b248     service.obj
 0003:00001254       $pdata$8$far_MakeMenuItems 000000018006b254     service.obj
 0003:00001260       $pdata$9$far_MakeMenuItems 000000018006b260     service.obj
 0003:0000126c       $pdata$editor_SaveFile     000000018006b26c     service.obj
 0003:00001278       $pdata$editor_ReadInput    000000018006b278     service.obj
 0003:00001284       $pdata$far_Show            000000018006b284     service.obj
 0003:00001290       $pdata$editor_ProcessInput 000000018006b290     service.obj
 0003:0000129c       $pdata$far_CreateFileFilter 000000018006b29c     service.obj
 0003:000012a8       $pdata$editor_SubscribeChangeEvent 000000018006b2a8     service.obj
 0003:000012b4       $pdata$far_Menu            000000018006b2b4     service.obj
 0003:000012c0       $pdata$filefilter_Free     000000018006b2c0     service.obj
 0003:000012cc       $pdata$filefilter_gc       000000018006b2cc     service.obj
 0003:000012d8       $pdata$filefilter_tostring 000000018006b2d8     service.obj
 0003:000012e4       $pdata$filefilter_OpenMenu 000000018006b2e4     service.obj
 0003:000012f0       $pdata$filefilter_Starting 000000018006b2f0     service.obj
 0003:000012fc       $pdata$filefilter_IsFileInFilter 000000018006b2fc     service.obj
 0003:00001308       $pdata$far_UnloadPlugin    000000018006b308     service.obj
 0003:00001314       $pdata$far_FindPlugin      000000018006b314     service.obj
 0003:00001320       $pdata$far_GetPluginInformation 000000018006b320     service.obj
 0003:0000132c       $pdata$0$far_GetPluginInformation 000000018006b32c     service.obj
 0003:00001338       $pdata$1$far_GetPluginInformation 000000018006b338     service.obj
 0003:00001344       $pdata$far_DialogInit      000000018006b344     service.obj
 0003:00001350       $pdata$0$far_DialogInit    000000018006b350     service.obj
 0003:0000135c       $pdata$1$far_DialogInit    000000018006b35c     service.obj
 0003:00001368       $pdata$far_GetPlugins      000000018006b368     service.obj
 0003:00001374       $pdata$2$far_GetPlugins    000000018006b374     service.obj
 0003:00001380       $pdata$3$far_GetPlugins    000000018006b380     service.obj
 0003:0000138c       $pdata$far_IsPluginLoaded  000000018006b38c     service.obj
 0003:00001398       $pdata$0$far_IsPluginLoaded 000000018006b398     service.obj
 0003:000013a4       $pdata$1$far_IsPluginLoaded 000000018006b3a4     service.obj
 0003:000013b0       $pdata$far_DialogRun       000000018006b3b0     service.obj
 0003:000013bc       $pdata$far_XLat            000000018006b3bc     service.obj
 0003:000013c8       $pdata$far_DialogFree      000000018006b3c8     service.obj
 0003:000013d4       $pdata$dialog_tostring     000000018006b3d4     service.obj
 0003:000013e0       $pdata$AddMacroData_gc     000000018006b3e0     service.obj
 0003:000013ec       $pdata$ChangePanelSelection 000000018006b3ec     service.obj
 0003:000013f8       $pdata$0$ChangePanelSelection 000000018006b3f8     service.obj
 0003:00001404       $pdata$1$ChangePanelSelection 000000018006b404     service.obj
 0003:00001410       $pdata$2$ChangePanelSelection 000000018006b410     service.obj
 0003:0000141c       $pdata$3$ChangePanelSelection 000000018006b41c     service.obj
 0003:00001428       $pdata$CheckFlags          000000018006b428     service.obj
 0003:00001434       $pdata$CheckFlagsFromTable 000000018006b434     service.obj
 0003:00001440       $pdata$ConvertLuaValue     000000018006b440     service.obj
 0003:0000144c       $pdata$CreateList          000000018006b44c     service.obj
 0003:00001458       $pdata$2$CreateList        000000018006b458     service.obj
 0003:00001464       $pdata$3$CreateList        000000018006b464     service.obj
 0003:00001470       $pdata$DialogHandleEqual   000000018006b470     service.obj
 0003:0000147c       $pdata$DllMain             000000018006b47c     service.obj
 0003:00001488       $pdata$0$DllMain           000000018006b488     service.obj
 0003:00001494       $pdata$1$DllMain           000000018006b494     service.obj
 0003:000014a0       $pdata$FillEditorSelect    000000018006b4a0     service.obj
 0003:000014ac       $pdata$FillEditorSetPosition 000000018006b4ac     service.obj
 0003:000014b8       $pdata$FillInputRecord     000000018006b4b8     service.obj
 0003:000014c4       $pdata$FillKeyBarTitles    000000018006b4c4     service.obj
 0003:000014d0       $pdata$1$FillKeyBarTitles  000000018006b4d0     service.obj
 0003:000014dc       $pdata$2$FillKeyBarTitles  000000018006b4dc     service.obj
 0003:000014e8       $pdata$FrsUserFunc         000000018006b4e8     service.obj
 0003:000014f4       $pdata$GetDialogItemType   000000018006b4f4     service.obj
 0003:00001500       $pdata$GetFarColor         000000018006b500     service.obj
 0003:0000150c       $pdata$GetFlagCombination  000000018006b50c     service.obj
 0003:00001518       $pdata$GetFlagsFromTable   000000018006b518     service.obj
 0003:00001524       $pdata$GetItemFlags        000000018006b524     service.obj
 0003:00001530       $pdata$GetMouseEvent       000000018006b530     service.obj
 0003:0000153c       $pdata$GetPluginData       000000018006b53c     service.obj
 0003:00001548       $pdata$LF_DlgProc          000000018006b548     service.obj
 0003:00001554       $pdata$1$LF_DlgProc        000000018006b554     service.obj
 0003:00001560       $pdata$2$LF_DlgProc        000000018006b560     service.obj
 0003:0000156c       $pdata$LF_DoFile           000000018006b56c     service.obj
 0003:00001578       $pdata$LF_Error            000000018006b578     service.obj
 0003:00001584       $pdata$0$LF_Error          000000018006b584     service.obj
 0003:00001590       $pdata$1$LF_Error          000000018006b590     service.obj
 0003:0000159c       $pdata$LF_GetLuafarAPI     000000018006b59c     service.obj
 0003:000015a8       $pdata$LF_InitLuaState1    000000018006b5a8     service.obj
 0003:000015b4       $pdata$0$LF_InitLuaState1  000000018006b5b4     service.obj
 0003:000015c0       $pdata$2$LF_InitLuaState1  000000018006b5c0     service.obj
 0003:000015cc       $pdata$3$LF_InitLuaState1  000000018006b5cc     service.obj
 0003:000015d8       $pdata$4$LF_InitLuaState1  000000018006b5d8     service.obj
 0003:000015e4       $pdata$LF_InitLuaState2    000000018006b5e4     service.obj
 0003:000015f0       $pdata$LF_Message          000000018006b5f0     service.obj
 0003:000015fc       $pdata$1$LF_Message        000000018006b5fc     service.obj
 0003:00001608       $pdata$3$LF_Message        000000018006b608     service.obj
 0003:00001614       $pdata$4$LF_Message        000000018006b614     service.obj
 0003:00001620       $pdata$5$LF_Message        000000018006b620     service.obj
 0003:0000162c       $pdata$6$LF_Message        000000018006b62c     service.obj
 0003:00001638       $pdata$7$LF_Message        000000018006b638     service.obj
 0003:00001644       $pdata$LF_RunLuafarInit    000000018006b644     service.obj
 0003:00001650       $pdata$MacroAddCallback    000000018006b650     service.obj
 0003:0000165c       $pdata$MacroSendString     000000018006b65c     service.obj
 0003:00001668       $pdata$NewDialogData       000000018006b668     service.obj
 0003:00001674       $pdata$NewVirtualKeyTable  000000018006b674     service.obj
 0003:00001680       $pdata$OptFlags            000000018006b680     service.obj
 0003:0000168c       $pdata$OptHandle           000000018006b68c     service.obj
 0003:00001698       $pdata$OptInputRecord      000000018006b698     service.obj
 0003:000016a4       $pdata$ProcessDNResult     000000018006b6a4     service.obj
 0003:000016b0       $pdata$0$ProcessDNResult   000000018006b6b0     service.obj
 0003:000016bc       $pdata$1$ProcessDNResult   000000018006b6bc     service.obj
 0003:000016c8       $pdata$2$ProcessDNResult   000000018006b6c8     service.obj
 0003:000016d4       $pdata$3$ProcessDNResult   000000018006b6d4     service.obj
 0003:000016e0       $pdata$PushBookmarks       000000018006b6e0     service.obj
 0003:000016ec       $pdata$0$PushBookmarks     000000018006b6ec     service.obj
 0003:000016f8       $pdata$1$PushBookmarks     000000018006b6f8     service.obj
 0003:00001704       $pdata$PushDMParams        000000018006b704     service.obj
 0003:00001710       $pdata$PushDNParams        000000018006b710     service.obj
 0003:0000171c       $pdata$PushDlgItem         000000018006b71c     service.obj
 0003:00001728       $pdata$PushDlgItemNum      000000018006b728     service.obj
 0003:00001734       $pdata$PushFarColor        000000018006b734     service.obj
 0003:00001740       $pdata$PushInputRecord     000000018006b740     service.obj
 0003:0000174c       $pdata$PushList            000000018006b74c     service.obj
 0003:00001758       $pdata$1$PushList          000000018006b758     service.obj
 0003:00001764       $pdata$2$PushList          000000018006b764     service.obj
 0003:00001770       $pdata$PushPanelItem       000000018006b770     service.obj
 0003:0000177c       $pdata$0$PushPanelItem     000000018006b77c     service.obj
 0003:00001788       $pdata$1$PushPanelItem     000000018006b788     service.obj
 0003:00001794       $pdata$3$PushPanelItem     000000018006b794     service.obj
 0003:000017a0       $pdata$4$PushPanelItem     000000018006b7a0     service.obj
 0003:000017ac       $pdata$PushPanelItems      000000018006b7ac     service.obj
 0003:000017b8       $pdata$3$PushPanelItems    000000018006b7b8     service.obj
 0003:000017c4       $pdata$4$PushPanelItems    000000018006b7c4     service.obj
 0003:000017d0       $pdata$PushPluginHandle    000000018006b7d0     service.obj
 0003:000017dc       $pdata$PutFlagsToTable     000000018006b7dc     service.obj
 0003:000017e8       $pdata$PutMouseEvent       000000018006b7e8     service.obj
 0003:000017f4       $pdata$PutPluginMenuItemToTable 000000018006b7f4     service.obj
 0003:00001800       $pdata$0$PutPluginMenuItemToTable 000000018006b800     service.obj
 0003:0000180c       $pdata$1$PutPluginMenuItemToTable 000000018006b80c     service.obj
 0003:00001818       $pdata$PutVersionInfoToTable 000000018006b818     service.obj
 0003:00001824       $pdata$SetDlgItem          000000018006b824     service.obj
 0003:00001830       $pdata$SetFarDialogItem    000000018006b830     service.obj
 0003:0000183c       $pdata$SetKeyBar           000000018006b83c     service.obj
 0003:00001848       $pdata$SetPanelBooleanProperty 000000018006b848     service.obj
 0003:00001854       $pdata$SetPanelIntegerProperty 000000018006b854     service.obj
 0003:00001860       $pdata$TimerThreadFunc     000000018006b860     service.obj
 0003:0000186c       $pdata$0$TimerThreadFunc   000000018006b86c     service.obj
 0003:00001878       $pdata$1$TimerThreadFunc   000000018006b878     service.obj
 0003:00001884       $pdata$_EditorGetString    000000018006b884     service.obj
 0003:00001890       $pdata$_EditorInsertText   000000018006b890     service.obj
 0003:0000189c       $pdata$_EditorSetString    000000018006b89c     service.obj
 0003:000018a8       $pdata$_EditorTabConvert   000000018006b8a8     service.obj
 0003:000018b4       $pdata$check_env_flag      000000018006b8b4     service.obj
 0003:000018c0       $pdata$dir_exist           000000018006b8c0     service.obj
 0003:000018cc       $pdata$fprintf             000000018006b8cc     service.obj
 0003:000018d8       $pdata$free_dialog         000000018006b8d8     service.obj
 0003:000018e4       $pdata$get_env_flag        000000018006b8e4     service.obj
 0003:000018f0       $pdata$get_panel_item      000000018006b8f0     service.obj
 0003:000018fc       $pdata$get_string_info     000000018006b8fc     service.obj
 0003:00001908       $pdata$luaopen_far         000000018006b908     service.obj
 0003:00001914       $pdata$plugin_load         000000018006b914     service.obj
 0003:00001920       $pdata$truncstring         000000018006b920     service.obj
 0003:0000192c       $pdata$gmatch              000000018006b92c     slnunico.obj
 0003:00001938       $pdata$unic_gsub           000000018006b938     slnunico.obj
 0003:00001944       $pdata$str_format          000000018006b944     slnunico.obj
 0003:00001950       $pdata$utf8_valid          000000018006b950     slnunico.obj
 0003:0000195c       $pdata$unic_len            000000018006b95c     slnunico.obj
 0003:00001968       $pdata$unic_sub            000000018006b968     slnunico.obj
 0003:00001974       $pdata$str_reverse         000000018006b974     slnunico.obj
 0003:00001980       $pdata$0$str_reverse       000000018006b980     slnunico.obj
 0003:0000198c       $pdata$1$str_reverse       000000018006b98c     slnunico.obj
 0003:00001998       $pdata$unic_lower          000000018006b998     slnunico.obj
 0003:000019a4       $pdata$1$unic_lower        000000018006b9a4     slnunico.obj
 0003:000019b0       $pdata$2$unic_lower        000000018006b9b0     slnunico.obj
 0003:000019bc       $pdata$unic_upper          000000018006b9bc     slnunico.obj
 0003:000019c8       $pdata$1$unic_upper        000000018006b9c8     slnunico.obj
 0003:000019d4       $pdata$2$unic_upper        000000018006b9d4     slnunico.obj
 0003:000019e0       $pdata$str_rep             000000018006b9e0     slnunico.obj
 0003:000019ec       $pdata$unic_byte           000000018006b9ec     slnunico.obj
 0003:000019f8       $pdata$unic_char           000000018006b9f8     slnunico.obj
 0003:00001a04       $pdata$0$unic_char         000000018006ba04     slnunico.obj
 0003:00001a10       $pdata$1$unic_char         000000018006ba10     slnunico.obj
 0003:00001a1c       $pdata$str_dump            000000018006ba1c     slnunico.obj
 0003:00001a28       $pdata$_snwprintf          000000018006ba28     slnunico.obj
 0003:00001a34       $pdata$add_s               000000018006ba34     slnunico.obj
 0003:00001a40       $pdata$add_value           000000018006ba40     slnunico.obj
 0003:00001a4c       $pdata$addquoted           000000018006ba4c     slnunico.obj
 0003:00001a58       $pdata$classend            000000018006ba58     slnunico.obj
 0003:00001a64       $pdata$end_capture         000000018006ba64     slnunico.obj
 0003:00001a70       $pdata$gmatch_aux          000000018006ba70     slnunico.obj
 0003:00001a7c       $pdata$lmemfind            000000018006ba7c     slnunico.obj
 0003:00001a88       $pdata$0$lmemfind          000000018006ba88     slnunico.obj
 0003:00001a94       $pdata$1$lmemfind          000000018006ba94     slnunico.obj
 0003:00001aa0       $pdata$2$lmemfind          000000018006baa0     slnunico.obj
 0003:00001aac       $pdata$luaopen_unicode     000000018006baac     slnunico.obj
 0003:00001ab8       $pdata$match               000000018006bab8     slnunico.obj
 0003:00001ac4       $pdata$match_capture       000000018006bac4     slnunico.obj
 0003:00001ad0       $pdata$match_class         000000018006bad0     slnunico.obj
 0003:00001adc       $pdata$matchbalance        000000018006badc     slnunico.obj
 0003:00001ae8       $pdata$max_expand          000000018006bae8     slnunico.obj
 0003:00001af4       $pdata$min_expand          000000018006baf4     slnunico.obj
 0003:00001b00       $pdata$push_captures       000000018006bb00     slnunico.obj
 0003:00001b0c       $pdata$0$push_captures     000000018006bb0c     slnunico.obj
 0003:00001b18       $pdata$1$push_captures     000000018006bb18     slnunico.obj
 0003:00001b24       $pdata$2$push_captures     000000018006bb24     slnunico.obj
 0003:00001b30       $pdata$push_onecapture     000000018006bb30     slnunico.obj
 0003:00001b3c       $pdata$1$push_onecapture   000000018006bb3c     slnunico.obj
 0003:00001b48       $pdata$3$push_onecapture   000000018006bb48     slnunico.obj
 0003:00001b54       $pdata$scanformat          000000018006bb54     slnunico.obj
 0003:00001b60       $pdata$singlematch         000000018006bb60     slnunico.obj
 0003:00001b6c       $pdata$start_capture       000000018006bb6c     slnunico.obj
 0003:00001b78       $pdata$unic_find_aux       000000018006bb78     slnunico.obj
 0003:00001b84       $pdata$utf8_count          000000018006bb84     slnunico.obj
 0003:00001b90       $pdata$0$utf8_count        000000018006bb90     slnunico.obj
 0003:00001b9c       $pdata$1$utf8_count        000000018006bb9c     slnunico.obj
 0003:00001ba8       $pdata$2$utf8_count        000000018006bba8     slnunico.obj
 0003:00001bb4       $pdata$3$utf8_count        000000018006bbb4     slnunico.obj
 0003:00001bc0       $pdata$utf8_enco           000000018006bbc0     slnunico.obj
 0003:00001bcc       $pdata$0$utf8_enco         000000018006bbcc     slnunico.obj
 0003:00001bd8       $pdata$1$utf8_enco         000000018006bbd8     slnunico.obj
 0003:00001be4       $pdata$utf8_graphext       000000018006bbe4     slnunico.obj
 0003:00001bf0       $pdata$0$utf8_graphext     000000018006bbf0     slnunico.obj
 0003:00001bfc       $pdata$1$utf8_graphext     000000018006bbfc     slnunico.obj
 0003:00001c08       $pdata$writer              000000018006bc08     slnunico.obj
 0003:00001c14       $pdata$io_type             000000018006bc14     uliolib51.obj
 0003:00001c20       $pdata$io_close            000000018006bc20     uliolib51.obj
 0003:00001c2c       $pdata$io_gc               000000018006bc2c     uliolib51.obj
 0003:00001c38       $pdata$io_tostring         000000018006bc38     uliolib51.obj
 0003:00001c44       $pdata$io_open             000000018006bc44     uliolib51.obj
 0003:00001c50       $pdata$io_popen            000000018006bc50     uliolib51.obj
 0003:00001c5c       $pdata$io_tmpfile          000000018006bc5c     uliolib51.obj
 0003:00001c68       $pdata$f_lines             000000018006bc68     uliolib51.obj
 0003:00001c74       $pdata$io_lines            000000018006bc74     uliolib51.obj
 0003:00001c80       $pdata$1$io_lines          000000018006bc80     uliolib51.obj
 0003:00001c8c       $pdata$2$io_lines          000000018006bc8c     uliolib51.obj
 0003:00001c98       $pdata$io_read             000000018006bc98     uliolib51.obj
 0003:00001ca4       $pdata$f_read              000000018006bca4     uliolib51.obj
 0003:00001cb0       $pdata$io_write            000000018006bcb0     uliolib51.obj
 0003:00001cbc       $pdata$f_write             000000018006bcbc     uliolib51.obj
 0003:00001cc8       $pdata$f_seek              000000018006bcc8     uliolib51.obj
 0003:00001cd4       $pdata$f_setvbuf           000000018006bcd4     uliolib51.obj
 0003:00001ce0       $pdata$io_flush            000000018006bce0     uliolib51.obj
 0003:00001cec       $pdata$f_flush             000000018006bcec     uliolib51.obj
 0003:00001cf8       $pdata$fileerror           000000018006bcf8     uliolib51.obj
 0003:00001d04       $pdata$fscanf              000000018006bd04     uliolib51.obj
 0003:00001d10       $pdata$g_iofile            000000018006bd10     uliolib51.obj
 0003:00001d1c       $pdata$0$g_iofile          000000018006bd1c     uliolib51.obj
 0003:00001d28       $pdata$1$g_iofile          000000018006bd28     uliolib51.obj
 0003:00001d34       $pdata$2$g_iofile          000000018006bd34     uliolib51.obj
 0003:00001d40       $pdata$3$g_iofile          000000018006bd40     uliolib51.obj
 0003:00001d4c       $pdata$g_read              000000018006bd4c     uliolib51.obj
 0003:00001d58       $pdata$g_write             000000018006bd58     uliolib51.obj
 0003:00001d64       $pdata$io_fclose           000000018006bd64     uliolib51.obj
 0003:00001d70       $pdata$io_noclose          000000018006bd70     uliolib51.obj
 0003:00001d7c       $pdata$io_pclose           000000018006bd7c     uliolib51.obj
 0003:00001d88       $pdata$io_readline         000000018006bd88     uliolib51.obj
 0003:00001d94       $pdata$luaopen_uio         000000018006bd94     uliolib51.obj
 0003:00001da0       $pdata$newfile             000000018006bda0     uliolib51.obj
 0003:00001dac       $pdata$pushresult          000000018006bdac     uliolib51.obj
 0003:00001db8       $pdata$read_chars          000000018006bdb8     uliolib51.obj
 0003:00001dc4       $pdata$read_line           000000018006bdc4     uliolib51.obj
 0003:00001dd0       $pdata$tofile              000000018006bdd0     uliolib51.obj
 0003:00001ddc       $pdata$ll_loadlib          000000018006bddc     uloadlib51.obj
 0003:00001de8       $pdata$loader_Lua          000000018006bde8     uloadlib51.obj
 0003:00001df4       $pdata$loader_C            000000018006bdf4     uloadlib51.obj
 0003:00001e00       $pdata$loader_Croot        000000018006be00     uloadlib51.obj
 0003:00001e0c       $pdata$loader_preload      000000018006be0c     uloadlib51.obj
 0003:00001e18       $pdata$ll_require          000000018006be18     uloadlib51.obj
 0003:00001e24       $pdata$ll_module           000000018006be24     uloadlib51.obj
 0003:00001e30       $pdata$ll_seeall           000000018006be30     uloadlib51.obj
 0003:00001e3c       $pdata$findfile            000000018006be3c     uloadlib51.obj
 0003:00001e48       $pdata$gctm                000000018006be48     uloadlib51.obj
 0003:00001e54       $pdata$ll_loadfunc         000000018006be54     uloadlib51.obj
 0003:00001e60       $pdata$ll_register         000000018006be60     uloadlib51.obj
 0003:00001e6c       $pdata$loaderror           000000018006be6c     uloadlib51.obj
 0003:00001e78       $pdata$luaopen_upackage    000000018006be78     uloadlib51.obj
 0003:00001e84       $pdata$2$luaopen_upackage  000000018006be84     uloadlib51.obj
 0003:00001e90       $pdata$3$luaopen_upackage  000000018006be90     uloadlib51.obj
 0003:00001e9c       $pdata$mkfuncname          000000018006be9c     uloadlib51.obj
 0003:00001ea8       $pdata$modinit             000000018006bea8     uloadlib51.obj
 0003:00001eb4       $pdata$pushnexttemplate    000000018006beb4     uloadlib51.obj
 0003:00001ec0       $pdata$setfenv             000000018006bec0     uloadlib51.obj
 0003:00001ecc       $pdata$setprogdir          000000018006becc     uloadlib51.obj
 0003:00001ed8       $pdata$ustring_WideCharToMultiByte 000000018006bed8     ustring.obj
 0003:00001ee4       $pdata$1$ustring_WideCharToMultiByte 000000018006bee4     ustring.obj
 0003:00001ef0       $pdata$2$ustring_WideCharToMultiByte 000000018006bef0     ustring.obj
 0003:00001efc       $pdata$ustring_MultiByteToWideChar 000000018006befc     ustring.obj
 0003:00001f08       $pdata$ustring_OemToUtf8   000000018006bf08     ustring.obj
 0003:00001f14       $pdata$1$ustring_OemToUtf8 000000018006bf14     ustring.obj
 0003:00001f20       $pdata$2$ustring_OemToUtf8 000000018006bf20     ustring.obj
 0003:00001f2c       $pdata$ustring_Utf8ToOem   000000018006bf2c     ustring.obj
 0003:00001f38       $pdata$ustring_Utf16ToUtf8 000000018006bf38     ustring.obj
 0003:00001f44       $pdata$ustring_Utf8ToUtf16 000000018006bf44     ustring.obj
 0003:00001f50       $pdata$0$ustring_Utf8ToUtf16 000000018006bf50     ustring.obj
 0003:00001f5c       $pdata$1$ustring_Utf8ToUtf16 000000018006bf5c     ustring.obj
 0003:00001f68       $pdata$ustring_GetACP      000000018006bf68     ustring.obj
 0003:00001f74       $pdata$ustring_GetOEMCP    000000018006bf74     ustring.obj
 0003:00001f80       $pdata$ustring_EnumSystemCodePages 000000018006bf80     ustring.obj
 0003:00001f8c       $pdata$ustring_GetCPInfo   000000018006bf8c     ustring.obj
 0003:00001f98       $pdata$ustring_GetLogicalDriveStrings 000000018006bf98     ustring.obj
 0003:00001fa4       $pdata$0$ustring_GetLogicalDriveStrings 000000018006bfa4     ustring.obj
 0003:00001fb0       $pdata$1$ustring_GetLogicalDriveStrings 000000018006bfb0     ustring.obj
 0003:00001fbc       $pdata$ustring_GetDriveType 000000018006bfbc     ustring.obj
 0003:00001fc8       $pdata$ustring_Uuid        000000018006bfc8     ustring.obj
 0003:00001fd4       $pdata$ustring_SearchPath  000000018006bfd4     ustring.obj
 0003:00001fe0       $pdata$ustring_GlobalMemoryStatus 000000018006bfe0     ustring.obj
 0003:00001fec       $pdata$0$ustring_GlobalMemoryStatus 000000018006bfec     ustring.obj
 0003:00001ff8       $pdata$2$ustring_GlobalMemoryStatus 000000018006bff8     ustring.obj
 0003:00002004       $pdata$ustring_Sleep       000000018006c004     ustring.obj
 0003:00002010       $pdata$ustring_SetFileAttr 000000018006c010     ustring.obj
 0003:0000201c       $pdata$2$ustring_SetFileAttr 000000018006c01c     ustring.obj
 0003:00002028       $pdata$3$ustring_SetFileAttr 000000018006c028     ustring.obj
 0003:00002034       $pdata$ustring_GetFileAttr 000000018006c034     ustring.obj
 0003:00002040       $pdata$2$ustring_GetFileAttr 000000018006c040     ustring.obj
 0003:0000204c       $pdata$3$ustring_GetFileAttr 000000018006c04c     ustring.obj
 0003:00002058       $pdata$ustring_SHGetFolderPath 000000018006c058     ustring.obj
 0003:00002064       $pdata$1$ustring_SHGetFolderPath 000000018006c064     ustring.obj
 0003:00002070       $pdata$2$ustring_SHGetFolderPath 000000018006c070     ustring.obj
 0003:0000207c       $pdata$ustring_sub         000000018006c07c     ustring.obj
 0003:00002088       $pdata$ustring_len         000000018006c088     ustring.obj
 0003:00002094       $pdata$ustring_OutputDebugString 000000018006c094     ustring.obj
 0003:000020a0       $pdata$0$ustring_OutputDebugString 000000018006c0a0     ustring.obj
 0003:000020ac       $pdata$1$ustring_OutputDebugString 000000018006c0ac     ustring.obj
 0003:000020b8       $pdata$ustring_system      000000018006c0b8     ustring.obj
 0003:000020c4       $pdata$ustring_GetCurrentDir 000000018006c0c4     ustring.obj
 0003:000020d0       $pdata$0$ustring_GetCurrentDir 000000018006c0d0     ustring.obj
 0003:000020dc       $pdata$1$ustring_GetCurrentDir 000000018006c0dc     ustring.obj
 0003:000020e8       $pdata$2$ustring_GetCurrentDir 000000018006c0e8     ustring.obj
 0003:000020f4       $pdata$3$ustring_GetCurrentDir 000000018006c0f4     ustring.obj
 0003:00002100       $pdata$ustring_SetCurrentDir 000000018006c100     ustring.obj
 0003:0000210c       $pdata$2$ustring_SetCurrentDir 000000018006c10c     ustring.obj
 0003:00002118       $pdata$3$ustring_SetCurrentDir 000000018006c118     ustring.obj
 0003:00002124       $pdata$EnumCodePagesProc   000000018006c124     ustring.obj
 0003:00002130       $pdata$GetBoolFromTable    000000018006c130     ustring.obj
 0003:0000213c       $pdata$GetOptBoolFromTable 000000018006c13c     ustring.obj
 0003:00002148       $pdata$GetOptIntFromArray  000000018006c148     ustring.obj
 0003:00002154       $pdata$GetOptIntFromTable  000000018006c154     ustring.obj
 0003:00002160       $pdata$GetOptNumFromTable  000000018006c160     ustring.obj
 0003:0000216c       $pdata$PushAttrString      000000018006c16c     ustring.obj
 0003:00002178       $pdata$PutAttrToTable      000000018006c178     ustring.obj
 0003:00002184       $pdata$PutBoolToTable      000000018006c184     ustring.obj
 0003:00002190       $pdata$PutIntToArray       000000018006c190     ustring.obj
 0003:0000219c       $pdata$PutIntToTable       000000018006c19c     ustring.obj
 0003:000021a8       $pdata$PutLStrToTable      000000018006c1a8     ustring.obj
 0003:000021b4       $pdata$PutNumToTable       000000018006c1b4     ustring.obj
 0003:000021c0       $pdata$PutStrToArray       000000018006c1c0     ustring.obj
 0003:000021cc       $pdata$PutStrToTable       000000018006c1cc     ustring.obj
 0003:000021d8       $pdata$PutWStrToArray      000000018006c1d8     ustring.obj
 0003:000021e4       $pdata$PutWStrToTable      000000018006c1e4     ustring.obj
 0003:000021f0       $pdata$SysErrorReturn      000000018006c1f0     ustring.obj
 0003:000021fc       $pdata$check_utf16_string  000000018006c1fc     ustring.obj
 0003:00002208       $pdata$check_utf8_string   000000018006c208     ustring.obj
 0003:00002214       $pdata$convert_multibyte_string 000000018006c214     ustring.obj
 0003:00002220       $pdata$luaopen_ustring     000000018006c220     ustring.obj
 0003:0000222c       $pdata$opt_utf8_string     000000018006c22c     ustring.obj
 0003:00002238       $pdata$push_multibyte_string 000000018006c238     ustring.obj
 0003:00002244       $pdata$2$push_multibyte_string 000000018006c244     ustring.obj
 0003:00002250       $pdata$3$push_multibyte_string 000000018006c250     ustring.obj
 0003:0000225c       $pdata$push_utf8_string    000000018006c25c     ustring.obj
 0003:00002268       $pdata$pusherror           000000018006c268     ustring.obj
 0003:00002274       $pdata$pusherrorcode       000000018006c274     ustring.obj
 0003:00002280       $pdata$utf8_to_utf16       000000018006c280     ustring.obj
 0003:0000228c       $pdata$GetAttrFromTable    000000018006c28c     util.obj
 0003:00002298       $pdata$GetFileSizeFromTable 000000018006c298     util.obj
 0003:000022a4       $pdata$GetFileTimeFromTable 000000018006c2a4     util.obj
 0003:000022b0       $pdata$GetIntFromArray     000000018006c2b0     util.obj
 0003:000022bc       $pdata$PutFileTimeToTable  000000018006c2bc     util.obj
 0003:000022c8       $pdata$luaLF_FieldError    000000018006c2c8     util.obj
 0003:000022d4       $pdata$luaLF_SlotError     000000018006c2d4     util.obj
 0003:000022e0       $pdata$win_GetEnv          000000018006c2e0     win.obj
 0003:000022ec       $pdata$0$win_GetEnv        000000018006c2ec     win.obj
 0003:000022f8       $pdata$1$win_GetEnv        000000018006c2f8     win.obj
 0003:00002304       $pdata$win_SetEnv          000000018006c304     win.obj
 0003:00002310       $pdata$win_SetRegKey       000000018006c310     win.obj
 0003:0000231c       $pdata$win_GetRegKey       000000018006c31c     win.obj
 0003:00002328       $pdata$win_DeleteRegKey    000000018006c328     win.obj
 0003:00002334       $pdata$win_DeleteRegValue  000000018006c334     win.obj
 0003:00002340       $pdata$win_EnumRegKey      000000018006c340     win.obj
 0003:0000234c       $pdata$win_EnumRegValue    000000018006c34c     win.obj
 0003:00002358       $pdata$win_ExtractKey      000000018006c358     win.obj
 0003:00002364       $pdata$win_GetFileInfo     000000018006c364     win.obj
 0003:00002370       $pdata$win_GetSystemTimeAsFileTime 000000018006c370     win.obj
 0003:0000237c       $pdata$win_FileTimeToSystemTime 000000018006c37c     win.obj
 0003:00002388       $pdata$win_SystemTimeToFileTime 000000018006c388     win.obj
 0003:00002394       $pdata$win_FileTimeToLocalFileTime 000000018006c394     win.obj
 0003:000023a0       $pdata$win_CompareString   000000018006c3a0     win.obj
 0003:000023ac       $pdata$win_wcscmp          000000018006c3ac     win.obj
 0003:000023b8       $pdata$win_GetVirtualKeys  000000018006c3b8     win.obj
 0003:000023c4       $pdata$win_GetConsoleScreenBufferInfo 000000018006c3c4     win.obj
 0003:000023d0       $pdata$win_CopyFile        000000018006c3d0     win.obj
 0003:000023dc       $pdata$win_MoveFile        000000018006c3dc     win.obj
 0003:000023e8       $pdata$win_DeleteFile      000000018006c3e8     win.obj
 0003:000023f4       $pdata$win_CreateDir       000000018006c3f4     win.obj
 0003:00002400       $pdata$win_RemoveDir       000000018006c400     win.obj
 0003:0000240c       $pdata$win_ShellExecute    000000018006c40c     win.obj
 0003:00002418       $pdata$CheckHKey           000000018006c418     win.obj
 0003:00002424       $pdata$ExtractKey          000000018006c424     win.obj
 0003:00002430       $pdata$PushWinFindData     000000018006c430     win.obj
 0003:0000243c       $pdata$luaopen_win         000000018006c43c     win.obj
 0003:00002448       $pdata$mkdir               000000018006c448     win.obj
 0003:00002454       $pdata$pushSystemTime      000000018006c454     win.obj
 0003:00002460       $pdata$?dllmain_crt_dispatch@@YAHQEAUHINSTANCE__@@KQEAX@Z 000000018006c460     LIBCMT:dll_dllmain.obj
 0003:0000246c       $pdata$?dllmain_crt_process_attach@@YAHQEAUHINSTANCE__@@QEAX@Z 000000018006c46c     LIBCMT:dll_dllmain.obj
 0003:00002478       $pdata$?dllmain_crt_process_detach@@YAH_N@Z 000000018006c478     LIBCMT:dll_dllmain.obj
 0003:00002484       $pdata$?dllmain_dispatch@@YAHQEAUHINSTANCE__@@KQEAX@Z 000000018006c484     LIBCMT:dll_dllmain.obj
 0003:00002490       $pdata$?dllmain_raw@@YAHQEAUHINSTANCE__@@KQEAX@Z 000000018006c490     LIBCMT:dll_dllmain.obj
 0003:0000249c       $pdata$_DllMainCRTStartup  000000018006c49c     LIBCMT:dll_dllmain.obj
 0003:000024a8       $pdata$__scrt_acquire_startup_lock 000000018006c4a8     LIBCMT:utility.obj
 0003:000024b4       $pdata$__scrt_dllmain_after_initialize_c 000000018006c4b4     LIBCMT:utility.obj
 0003:000024c0       $pdata$__scrt_dllmain_before_initialize_c 000000018006c4c0     LIBCMT:utility.obj
 0003:000024cc       $pdata$__scrt_dllmain_crt_thread_attach 000000018006c4cc     LIBCMT:utility.obj
 0003:000024d8       $pdata$__scrt_dllmain_crt_thread_detach 000000018006c4d8     LIBCMT:utility.obj
 0003:000024e4       $pdata$__scrt_dllmain_exception_filter 000000018006c4e4     LIBCMT:utility.obj
 0003:000024f0       $pdata$__scrt_dllmain_uninitialize_c 000000018006c4f0     LIBCMT:utility.obj
 0003:000024fc       $pdata$__scrt_dllmain_uninitialize_critical 000000018006c4fc     LIBCMT:utility.obj
 0003:00002508       $pdata$__scrt_initialize_crt 000000018006c508     LIBCMT:utility.obj
 0003:00002514       $pdata$__scrt_initialize_onexit_tables 000000018006c514     LIBCMT:utility.obj
 0003:00002520       $pdata$__scrt_is_nonwritable_in_current_image 000000018006c520     LIBCMT:utility.obj
 0003:0000252c       $pdata$__scrt_release_startup_lock 000000018006c52c     LIBCMT:utility.obj
 0003:00002538       $pdata$__scrt_uninitialize_crt 000000018006c538     LIBCMT:utility.obj
 0003:00002544       $pdata$_onexit             000000018006c544     LIBCMT:utility.obj
 0003:00002550       $pdata$atexit              000000018006c550     LIBCMT:utility.obj
 0003:0000255c       $pdata$__security_init_cookie 000000018006c55c     LIBCMT:gs_support.obj
 0003:00002568       $pdata$__scrt_initialize_default_local_stdio_options 000000018006c568     LIBCMT:default_local_stdio_options.obj
 0003:00002574       $pdata$__scrt_fastfail     000000018006c574     LIBCMT:utility_desktop.obj
 0003:00002580       $pdata$_RTC_Initialize     000000018006c580     LIBCMT:_initsect_.obj
 0003:0000258c       $pdata$_RTC_Terminate      000000018006c58c     LIBCMT:_initsect_.obj
 0003:00002598       $pdata$__isa_available_init 000000018006c598     LIBCMT:_cpu_disp_.obj
 0003:000025bc       $pdata$wcsstr              000000018006c5bc     libvcruntime:wcsstr.obj
 0003:000025c8       $pdata$strchr              000000018006c5c8     libvcruntime:strchr.obj
 0003:000025d4       $pdata$wcschr              000000018006c5d4     libvcruntime:wcschr.obj
 0003:000025ec       $pdata$strrchr             000000018006c5ec     libvcruntime:strrchr.obj
 0003:000025f8       $pdata$__telemetry_main_invoke_trigger 000000018006c5f8     libvcruntime:telemetry.obj
 0003:00002604       $pdata$__telemetry_main_return_trigger 000000018006c604     libvcruntime:telemetry.obj
 0003:00002610       $pdata$__vcrt_uninitialize_telemetry_provider 000000018006c610     libvcruntime:telemetry.obj
 0003:0000261c       $pdata$__C_specific_handler 000000018006c61c     libvcruntime:_chandler_.obj
 0003:00002628       $pdata$__vcrt_initialize   000000018006c628     libvcruntime:initialization.obj
 0003:00002634       $pdata$__vcrt_thread_attach 000000018006c634     libvcruntime:initialization.obj
 0003:00002640       $pdata$__vcrt_thread_detach 000000018006c640     libvcruntime:initialization.obj
 0003:0000264c       $pdata$__vcrt_uninitialize 000000018006c64c     libvcruntime:initialization.obj
 0003:00002658       $pdata$__vcrt_uninitialize_critical 000000018006c658     libvcruntime:initialization.obj
 0003:00002664       $pdata$__std_type_info_destroy_list 000000018006c664     libvcruntime:std_type_info.obj
 0003:00002670       $pdata$?try_get_function@@YAPEAXW4function_id@?A0x61ce2399@@QEBDQEBW4module_id@2@2@Z 000000018006c670     libvcruntime:winapi_downlevel.obj
 0003:0000267c       $pdata$__vcrt_EventRegister 000000018006c67c     libvcruntime:winapi_downlevel.obj
 0003:00002688       $pdata$__vcrt_EventSetInformation 000000018006c688     libvcruntime:winapi_downlevel.obj
 0003:00002694       $pdata$__vcrt_EventUnregister 000000018006c694     libvcruntime:winapi_downlevel.obj
 0003:000026a0       $pdata$__vcrt_EventWriteTransfer 000000018006c6a0     libvcruntime:winapi_downlevel.obj
 0003:000026ac       $pdata$__vcrt_FlsAlloc     000000018006c6ac     libvcruntime:winapi_downlevel.obj
 0003:000026b8       $pdata$__vcrt_FlsFree      000000018006c6b8     libvcruntime:winapi_downlevel.obj
 0003:000026c4       $pdata$__vcrt_FlsGetValue  000000018006c6c4     libvcruntime:winapi_downlevel.obj
 0003:000026d0       $pdata$__vcrt_FlsSetValue  000000018006c6d0     libvcruntime:winapi_downlevel.obj
 0003:000026dc       $pdata$__vcrt_InitializeCriticalSectionEx 000000018006c6dc     libvcruntime:winapi_downlevel.obj
 0003:000026e8       $pdata$__vcrt_initialize_winapi_thunks 000000018006c6e8     libvcruntime:winapi_downlevel.obj
 0003:000026f4       $pdata$__vcrt_uninitialize_winapi_thunks 000000018006c6f4     libvcruntime:winapi_downlevel.obj
 0003:00002730       $pdata$__vcrt_freefls      000000018006c730     libvcruntime:per_thread_data.obj
 0003:0000273c       $pdata$__vcrt_freeptd      000000018006c73c     libvcruntime:per_thread_data.obj
 0003:00002748       $pdata$__vcrt_getptd_noexit 000000018006c748     libvcruntime:per_thread_data.obj
 0003:00002754       $pdata$__vcrt_initialize_ptd 000000018006c754     libvcruntime:per_thread_data.obj
 0003:00002760       $pdata$__vcrt_uninitialize_ptd 000000018006c760     libvcruntime:per_thread_data.obj
 0003:0000276c       $pdata$__vcrt_initialize_locks 000000018006c76c     libvcruntime:locks.obj
 0003:00002778       $pdata$__vcrt_uninitialize_locks 000000018006c778     libvcruntime:locks.obj
 0003:00002784       $pdata$??$?RV<lambda_aa279a7bcb127014629d5b1d62c7325d>@@AEAV<lambda_0a64b6a4deda75c01876f29c44fc5eb3>@@V<lambda_3323e69fbefe9d1a11713e670d47cdfa>@@@?$__crt_seh_guarded_call@H@@QEAAH$$QEAV<lambda_aa279a7bcb127014629d5b1d62c7325d>@@AEAV<lambda_0a64b6a4deda75c01876f29c44fc5eb3>@@$$QEAV<lambda_3323e69fbefe9d1a11713e670d47cdfa>@@@Z 000000018006c784     libucrt:output.obj
 0003:00002790       $pdata$??$ensure_buffer_is_big_enough@D@formatting_buffer@__crt_stdio_output@@QEAA_N_K@Z 000000018006c790     libucrt:output.obj
 0003:0000279c       $pdata$??$type_case_integer_parse_into_buffer@I@?$output_processor@DV?$stream_output_adapter@D@__crt_stdio_output@@V?$standard_base@DV?$stream_output_adapter@D@__crt_stdio_output@@@2@@__crt_stdio_output@@AEAAXII_N@Z 000000018006c79c     libucrt:output.obj
 0003:0000279c       $pdata$??$type_case_integer_parse_into_buffer@I@?$output_processor@_WV?$string_output_adapter@_W@__crt_stdio_output@@V?$standard_base@_WV?$string_output_adapter@_W@__crt_stdio_output@@@2@@__crt_stdio_output@@AEAAXII_N@Z 000000018006c79c     libucrt:output.obj
 0003:0000279c       $pdata$??$type_case_integer_parse_into_buffer@I@?$output_processor@DV?$string_output_adapter@D@__crt_stdio_output@@V?$standard_base@DV?$string_output_adapter@D@__crt_stdio_output@@@2@@__crt_stdio_output@@AEAAXII_N@Z 000000018006c79c     libucrt:output.obj
 0003:000027a8       $pdata$??$type_case_integer_parse_into_buffer@_K@?$output_processor@DV?$string_output_adapter@D@__crt_stdio_output@@V?$standard_base@DV?$string_output_adapter@D@__crt_stdio_output@@@2@@__crt_stdio_output@@AEAAX_KI_N@Z 000000018006c7a8     libucrt:output.obj
 0003:000027a8       $pdata$??$type_case_integer_parse_into_buffer@_K@?$output_processor@_WV?$string_output_adapter@_W@__crt_stdio_output@@V?$standard_base@_WV?$string_output_adapter@_W@__crt_stdio_output@@@2@@__crt_stdio_output@@AEAAX_KI_N@Z 000000018006c7a8     libucrt:output.obj
 0003:000027a8       $pdata$??$type_case_integer_parse_into_buffer@_K@?$output_processor@DV?$stream_output_adapter@D@__crt_stdio_output@@V?$standard_base@DV?$stream_output_adapter@D@__crt_stdio_output@@@2@@__crt_stdio_output@@AEAAX_KI_N@Z 000000018006c7a8     libucrt:output.obj
 0003:000027b4       $pdata$??$write_multiple_characters@V?$stream_output_adapter@D@__crt_stdio_output@@D@__crt_stdio_output@@YAXAEBV?$stream_output_adapter@D@0@DHQEAH@Z 000000018006c7b4     libucrt:output.obj
 0003:000027c0       $pdata$??$write_multiple_characters@V?$string_output_adapter@D@__crt_stdio_output@@D@__crt_stdio_output@@YAXAEBV?$string_output_adapter@D@0@DHQEAH@Z 000000018006c7c0     libucrt:output.obj
 0003:000027cc       $pdata$??$write_multiple_characters@V?$string_output_adapter@_W@__crt_stdio_output@@D@__crt_stdio_output@@YAXAEBV?$string_output_adapter@_W@0@DHQEAH@Z 000000018006c7cc     libucrt:output.obj
 0003:000027d8       $pdata$??0?$output_processor@DV?$string_output_adapter@D@__crt_stdio_output@@V?$standard_base@DV?$string_output_adapter@D@__crt_stdio_output@@@2@@__crt_stdio_output@@QEAA@AEBV?$string_output_adapter@D@1@_KQEBDQEAU__crt_locale_pointers@@QEAD@Z 000000018006c7d8     libucrt:output.obj
 0003:000027d8       $pdata$??0?$output_processor@DV?$stream_output_adapter@D@__crt_stdio_output@@V?$standard_base@DV?$stream_output_adapter@D@__crt_stdio_output@@@2@@__crt_stdio_output@@QEAA@AEBV?$stream_output_adapter@D@1@_KQEBDQEAU__crt_locale_pointers@@QEAD@Z 000000018006c7d8     libucrt:output.obj
 0003:000027e4       $pdata$??0?$output_processor@_WV?$string_output_adapter@_W@__crt_stdio_output@@V?$standard_base@_WV?$string_output_adapter@_W@__crt_stdio_output@@@2@@__crt_stdio_output@@QEAA@AEBV?$string_output_adapter@_W@1@_KQEB_WQEAU__crt_locale_pointers@@QEAD@Z 000000018006c7e4     libucrt:output.obj
 0003:000027f0       $pdata$??0_LocaleUpdate@@QEAA@QEAU__crt_locale_pointers@@@Z 000000018006c7f0     libucrt:output.obj
 0003:000027fc       $pdata$??R<lambda_0a64b6a4deda75c01876f29c44fc5eb3>@@QEBAHXZ 000000018006c7fc     libucrt:output.obj
 0003:00002808       $pdata$?force_decimal_point@__crt_stdio_output@@YAXPEADQEAU__crt_locale_pointers@@@Z 000000018006c808     libucrt:output.obj
 0003:00002814       $pdata$?parse_int_from_format_string@?$output_processor@DV?$stream_output_adapter@D@__crt_stdio_output@@V?$standard_base@DV?$stream_output_adapter@D@__crt_stdio_output@@@2@@__crt_stdio_output@@AEAA_NQEAH@Z 000000018006c814     libucrt:output.obj
 0003:00002814       $pdata$?parse_int_from_format_string@?$output_processor@DV?$string_output_adapter@D@__crt_stdio_output@@V?$standard_base@DV?$string_output_adapter@D@__crt_stdio_output@@@2@@__crt_stdio_output@@AEAA_NQEAH@Z 000000018006c814     libucrt:output.obj
 0003:00002820       $pdata$?parse_int_from_format_string@?$output_processor@_WV?$string_output_adapter@_W@__crt_stdio_output@@V?$standard_base@_WV?$string_output_adapter@_W@__crt_stdio_output@@@2@@__crt_stdio_output@@AEAA_NQEAH@Z 000000018006c820     libucrt:output.obj
 0003:0000282c       $pdata$?process@?$output_processor@DV?$stream_output_adapter@D@__crt_stdio_output@@V?$standard_base@DV?$stream_output_adapter@D@__crt_stdio_output@@@2@@__crt_stdio_output@@QEAAHXZ 000000018006c82c     libucrt:output.obj
 0003:00002838       $pdata$?process@?$output_processor@DV?$string_output_adapter@D@__crt_stdio_output@@V?$standard_base@DV?$string_output_adapter@D@__crt_stdio_output@@@2@@__crt_stdio_output@@QEAAHXZ 000000018006c838     libucrt:output.obj
 0003:00002844       $pdata$?process@?$output_processor@_WV?$string_output_adapter@_W@__crt_stdio_output@@V?$standard_base@_WV?$string_output_adapter@_W@__crt_stdio_output@@@2@@__crt_stdio_output@@QEAAHXZ 000000018006c844     libucrt:output.obj
 0003:00002850       $pdata$?state_case_normal@?$output_processor@DV?$stream_output_adapter@D@__crt_stdio_output@@V?$standard_base@DV?$stream_output_adapter@D@__crt_stdio_output@@@2@@__crt_stdio_output@@AEAA_NXZ 000000018006c850     libucrt:output.obj
 0003:0000285c       $pdata$?state_case_normal@?$output_processor@DV?$string_output_adapter@D@__crt_stdio_output@@V?$standard_base@DV?$string_output_adapter@D@__crt_stdio_output@@@2@@__crt_stdio_output@@AEAA_NXZ 000000018006c85c     libucrt:output.obj
 0003:00002868       $pdata$?state_case_normal_tchar@?$output_processor@DV?$stream_output_adapter@D@__crt_stdio_output@@V?$standard_base@DV?$stream_output_adapter@D@__crt_stdio_output@@@2@@__crt_stdio_output@@AEAA_ND@Z 000000018006c868     libucrt:output.obj
 0003:00002874       $pdata$?state_case_normal_tchar@?$output_processor@DV?$string_output_adapter@D@__crt_stdio_output@@V?$standard_base@DV?$string_output_adapter@D@__crt_stdio_output@@@2@@__crt_stdio_output@@AEAA_ND@Z 000000018006c874     libucrt:output.obj
 0003:00002880       $pdata$?state_case_size@?$output_processor@DV?$stream_output_adapter@D@__crt_stdio_output@@V?$standard_base@DV?$stream_output_adapter@D@__crt_stdio_output@@@2@@__crt_stdio_output@@AEAA_NXZ 000000018006c880     libucrt:output.obj
 0003:0000288c       $pdata$?state_case_size@?$output_processor@DV?$string_output_adapter@D@__crt_stdio_output@@V?$standard_base@DV?$string_output_adapter@D@__crt_stdio_output@@@2@@__crt_stdio_output@@AEAA_NXZ 000000018006c88c     libucrt:output.obj
 0003:00002898       $pdata$?state_case_size@?$output_processor@_WV?$string_output_adapter@_W@__crt_stdio_output@@V?$standard_base@_WV?$string_output_adapter@_W@__crt_stdio_output@@@2@@__crt_stdio_output@@AEAA_NXZ 000000018006c898     libucrt:output.obj
 0003:000028a4       $pdata$?state_case_type@?$output_processor@DV?$stream_output_adapter@D@__crt_stdio_output@@V?$standard_base@DV?$stream_output_adapter@D@__crt_stdio_output@@@2@@__crt_stdio_output@@AEAA_NXZ 000000018006c8a4     libucrt:output.obj
 0003:000028b0       $pdata$?state_case_type@?$output_processor@DV?$string_output_adapter@D@__crt_stdio_output@@V?$standard_base@DV?$string_output_adapter@D@__crt_stdio_output@@@2@@__crt_stdio_output@@AEAA_NXZ 000000018006c8b0     libucrt:output.obj
 0003:000028bc       $pdata$?state_case_type@?$output_processor@_WV?$string_output_adapter@_W@__crt_stdio_output@@V?$standard_base@_WV?$string_output_adapter@_W@__crt_stdio_output@@@2@@__crt_stdio_output@@AEAA_NXZ 000000018006c8bc     libucrt:output.obj
 0003:000028c8       $pdata$?type_case_Z@?$output_processor@DV?$stream_output_adapter@D@__crt_stdio_output@@V?$standard_base@DV?$stream_output_adapter@D@__crt_stdio_output@@@2@@__crt_stdio_output@@AEAA_NXZ 000000018006c8c8     libucrt:output.obj
 0003:000028c8       $pdata$?type_case_Z@?$output_processor@DV?$string_output_adapter@D@__crt_stdio_output@@V?$standard_base@DV?$string_output_adapter@D@__crt_stdio_output@@@2@@__crt_stdio_output@@AEAA_NXZ 000000018006c8c8     libucrt:output.obj
 0003:000028d4       $pdata$?type_case_Z@?$output_processor@_WV?$string_output_adapter@_W@__crt_stdio_output@@V?$standard_base@_WV?$string_output_adapter@_W@__crt_stdio_output@@@2@@__crt_stdio_output@@AEAA_NXZ 000000018006c8d4     libucrt:output.obj
 0003:000028e0       $pdata$?type_case_a@?$output_processor@DV?$string_output_adapter@D@__crt_stdio_output@@V?$standard_base@DV?$string_output_adapter@D@__crt_stdio_output@@@2@@__crt_stdio_output@@AEAA_NXZ 000000018006c8e0     libucrt:output.obj
 0003:000028e0       $pdata$?type_case_a@?$output_processor@DV?$stream_output_adapter@D@__crt_stdio_output@@V?$standard_base@DV?$stream_output_adapter@D@__crt_stdio_output@@@2@@__crt_stdio_output@@AEAA_NXZ 000000018006c8e0     libucrt:output.obj
 0003:000028ec       $pdata$?type_case_a@?$output_processor@_WV?$string_output_adapter@_W@__crt_stdio_output@@V?$standard_base@_WV?$string_output_adapter@_W@__crt_stdio_output@@@2@@__crt_stdio_output@@AEAA_NXZ 000000018006c8ec     libucrt:output.obj
 0003:000028f8       $pdata$?type_case_c_tchar@?$output_processor@DV?$stream_output_adapter@D@__crt_stdio_output@@V?$standard_base@DV?$stream_output_adapter@D@__crt_stdio_output@@@2@@__crt_stdio_output@@AEAA_ND@Z 000000018006c8f8     libucrt:output.obj
 0003:000028f8       $pdata$?type_case_c_tchar@?$output_processor@DV?$string_output_adapter@D@__crt_stdio_output@@V?$standard_base@DV?$string_output_adapter@D@__crt_stdio_output@@@2@@__crt_stdio_output@@AEAA_ND@Z 000000018006c8f8     libucrt:output.obj
 0003:00002904       $pdata$?type_case_c_tchar@?$output_processor@_WV?$string_output_adapter@_W@__crt_stdio_output@@V?$standard_base@_WV?$string_output_adapter@_W@__crt_stdio_output@@@2@@__crt_stdio_output@@AEAA_N_W@Z 000000018006c904     libucrt:output.obj
 0003:00002910       $pdata$?type_case_integer@?$output_processor@DV?$stream_output_adapter@D@__crt_stdio_output@@V?$standard_base@DV?$stream_output_adapter@D@__crt_stdio_output@@@2@@__crt_stdio_output@@AEAA_NI_N@Z 000000018006c910     libucrt:output.obj
 0003:00002910       $pdata$?type_case_integer@?$output_processor@_WV?$string_output_adapter@_W@__crt_stdio_output@@V?$standard_base@_WV?$string_output_adapter@_W@__crt_stdio_output@@@2@@__crt_stdio_output@@AEAA_NI_N@Z 000000018006c910     libucrt:output.obj
 0003:00002910       $pdata$?type_case_integer@?$output_processor@DV?$string_output_adapter@D@__crt_stdio_output@@V?$standard_base@DV?$string_output_adapter@D@__crt_stdio_output@@@2@@__crt_stdio_output@@AEAA_NI_N@Z 000000018006c910     libucrt:output.obj
 0003:0000291c       $pdata$?type_case_n@?$output_processor@DV?$stream_output_adapter@D@__crt_stdio_output@@V?$standard_base@DV?$stream_output_adapter@D@__crt_stdio_output@@@2@@__crt_stdio_output@@AEAA_NXZ 000000018006c91c     libucrt:output.obj
 0003:0000291c       $pdata$?type_case_n@?$output_processor@DV?$string_output_adapter@D@__crt_stdio_output@@V?$standard_base@DV?$string_output_adapter@D@__crt_stdio_output@@@2@@__crt_stdio_output@@AEAA_NXZ 000000018006c91c     libucrt:output.obj
 0003:0000291c       $pdata$?type_case_n@?$output_processor@_WV?$string_output_adapter@_W@__crt_stdio_output@@V?$standard_base@_WV?$string_output_adapter@_W@__crt_stdio_output@@@2@@__crt_stdio_output@@AEAA_NXZ 000000018006c91c     libucrt:output.obj
 0003:00002928       $pdata$?type_case_s@?$output_processor@DV?$string_output_adapter@D@__crt_stdio_output@@V?$standard_base@DV?$string_output_adapter@D@__crt_stdio_output@@@2@@__crt_stdio_output@@AEAA_NXZ 000000018006c928     libucrt:output.obj
 0003:00002928       $pdata$?type_case_s@?$output_processor@DV?$stream_output_adapter@D@__crt_stdio_output@@V?$standard_base@DV?$stream_output_adapter@D@__crt_stdio_output@@@2@@__crt_stdio_output@@AEAA_NXZ 000000018006c928     libucrt:output.obj
 0003:00002934       $pdata$?type_case_s@?$output_processor@_WV?$string_output_adapter@_W@__crt_stdio_output@@V?$standard_base@_WV?$string_output_adapter@_W@__crt_stdio_output@@@2@@__crt_stdio_output@@AEAA_NXZ 000000018006c934     libucrt:output.obj
 0003:00002940       $pdata$?validate_stream_is_ansi_if_required@?$__acrt_stdio_char_traits@D@@SA_NQEAU_iobuf@@@Z 000000018006c940     libucrt:output.obj
 0003:0000294c       $pdata$?write_stored_string_tchar@?$output_processor@DV?$stream_output_adapter@D@__crt_stdio_output@@V?$standard_base@DV?$stream_output_adapter@D@__crt_stdio_output@@@2@@__crt_stdio_output@@AEAA_ND@Z 000000018006c94c     libucrt:output.obj
 0003:00002958       $pdata$?write_stored_string_tchar@?$output_processor@DV?$string_output_adapter@D@__crt_stdio_output@@V?$standard_base@DV?$string_output_adapter@D@__crt_stdio_output@@@2@@__crt_stdio_output@@AEAA_ND@Z 000000018006c958     libucrt:output.obj
 0003:00002964       $pdata$?write_stored_string_tchar@?$output_processor@_WV?$string_output_adapter@_W@__crt_stdio_output@@V?$standard_base@_WV?$string_output_adapter@_W@__crt_stdio_output@@@2@@__crt_stdio_output@@AEAA_N_W@Z 000000018006c964     libucrt:output.obj
 0003:00002970       $pdata$?write_string@?$stream_output_adapter@D@__crt_stdio_output@@QEBAXQEBDHQEAH1@Z 000000018006c970     libucrt:output.obj
 0003:0000297c       $pdata$?write_string@?$string_output_adapter@D@__crt_stdio_output@@QEBAXQEBDHQEAH1@Z 000000018006c97c     libucrt:output.obj
 0003:00002988       $pdata$?write_string@?$string_output_adapter@_W@__crt_stdio_output@@QEBAXQEB_WHQEAH1@Z 000000018006c988     libucrt:output.obj
 0003:00002994       $pdata$__stdio_common_vfprintf 000000018006c994     libucrt:output.obj
 0003:000029a0       $pdata$__stdio_common_vsprintf 000000018006c9a0     libucrt:output.obj
 0003:000029ac       $pdata$__stdio_common_vswprintf 000000018006c9ac     libucrt:output.obj
 0003:000029b8       $pdata$_wcsdup             000000018006c9b8     libucrt:wcsdup.obj
 0003:000029c4       $pdata$??$common_fsopen@_W@@YAPEAU_iobuf@@QEB_W0H@Z 000000018006c9c4     libucrt:fopen.obj
 0003:000029d0       $pdata$_fclose_nolock      000000018006c9d0     libucrt:fclose.obj
 0003:000029dc       $pdata$fclose              000000018006c9dc     libucrt:fclose.obj
 0003:000029e8       $pdata$_clearfp            000000018006c9e8     libucrt:ieee.obj
 0003:000029f4       $pdata$common_control87    000000018006c9f4     libucrt:ieee.obj
 0003:00002a00       $pdata$__acrt_errno_map_os_error 000000018006ca00     libucrt:errno.obj
 0003:00002a0c       $pdata$__doserrno          000000018006ca0c     libucrt:errno.obj
 0003:00002a18       $pdata$_errno              000000018006ca18     libucrt:errno.obj
 0003:00002a24       $pdata$strerror            000000018006ca24     libucrt:strerror.obj
 0003:00002a30       $pdata$__acrt_initialize_stdio 000000018006ca30     libucrt:_file.obj
 0003:00002a3c       $pdata$__acrt_uninitialize_stdio 000000018006ca3c     libucrt:_file.obj
 0003:00002a48       $pdata$??$common_freopen@_W@@YAHQEAPEAU_iobuf@@QEB_W1V__crt_stdio_stream@@H@Z 000000018006ca48     libucrt:freopen.obj
 0003:00002a54       $pdata$_wfreopen           000000018006ca54     libucrt:freopen.obj
 0003:00002a60       $pdata$feof                000000018006ca60     libucrt:feoferr.obj
 0003:00002a6c       $pdata$ferror              000000018006ca6c     libucrt:feoferr.obj
 0003:00002a78       $pdata$_fread_nolock_s     000000018006ca78     libucrt:fread.obj
 0003:00002a84       $pdata$fread               000000018006ca84     libucrt:fread.obj
 0003:00002a90       $pdata$fread_s             000000018006ca90     libucrt:fread.obj
 0003:00002a9c       $pdata$_fgetc_nolock       000000018006ca9c     libucrt:fgetc.obj
 0003:00002aa8       $pdata$fgetc               000000018006caa8     libucrt:fgetc.obj
 0003:00002ab4       $pdata$rewind              000000018006cab4     libucrt:rewind.obj
 0003:00002ac0       $pdata$_ungetc_nolock      000000018006cac0     libucrt:ungetc.obj
 0003:00002acc       $pdata$ungetc              000000018006cacc     libucrt:ungetc.obj
 0003:00002ad8       $pdata$iswctype            000000018006cad8     libucrt:iswctype.obj
 0003:00002ae4       $pdata$wcsncpy             000000018006cae4     libucrt:wcsncpy.obj
 0003:00002af0       $pdata$_wcsicmp            000000018006caf0     libucrt:wcsicmp.obj
 0003:00002afc       $pdata$_wcsicmp_l          000000018006cafc     libucrt:wcsicmp.obj
 0003:00002b20       $pdata$isdigit             000000018006cb20     libucrt:_ctype.obj
 0003:00002b2c       $pdata$isspace             000000018006cb2c     libucrt:_ctype.obj
 0003:00002b44       $pdata$strpbrk             000000018006cb44     libucrt:strpbrk.obj
 0003:00002b50       $pdata$??$common_popen@_W@@YAPEAU_iobuf@@QEB_W0@Z 000000018006cb50     libucrt:popen.obj
 0003:00002b5c       $pdata$??$common_popen_nolock@_W@@YAPEAU_iobuf@@QEB_W0HAEAY01H@Z 000000018006cb5c     libucrt:popen.obj
 0003:00002b68       $pdata$??$get_executable_path@_W@@YAPEB_WQEB_W@Z 000000018006cb68     libucrt:popen.obj
 0003:00002b74       $pdata$?idtab@@YAPEAUprocess_handle_pair@?A0x13a7efdb@@QEAU_iobuf@@@Z 000000018006cb74     libucrt:popen.obj
 0003:00002b80       $pdata$_pclose             000000018006cb80     libucrt:popen.obj
 0003:00002b8c       $pdata$clearerr_s          000000018006cb8c     libucrt:clearerr.obj
 0003:00002b98       $pdata$__acrt_stdio_flush_nolock 000000018006cb98     libucrt:fflush.obj
 0003:00002ba4       $pdata$_fflush_nolock      000000018006cba4     libucrt:fflush.obj
 0003:00002bb0       $pdata$common_flush_all    000000018006cbb0     libucrt:fflush.obj
 0003:00002bbc       $pdata$fflush              000000018006cbbc     libucrt:fflush.obj
 0003:00002bc8       $pdata$??$common_fgets@D@@YAPEADQEADHV__crt_stdio_stream@@@Z 000000018006cbc8     libucrt:fgets.obj
 0003:00002bd4       $pdata$?common_fseek@@YAHV__crt_stdio_stream@@_JH@Z 000000018006cbd4     libucrt:fseek.obj
 0003:00002be0       $pdata$?common_fseek_binary_mode_read_only_fast_track_nolock@@YA_NV__crt_stdio_stream@@_JH@Z 000000018006cbe0     libucrt:fseek.obj
 0003:00002bec       $pdata$?common_fseek_nolock@@YAHV__crt_stdio_stream@@_JH@Z 000000018006cbec     libucrt:fseek.obj
 0003:00002bf8       $pdata$??$common_ftell@J@@YAJV__crt_stdio_stream@@@Z 000000018006cbf8     libucrt:ftell.obj
 0003:00002c04       $pdata$??$common_ftell_nolock@_J@@YA_JV__crt_stdio_stream@@@Z 000000018006cc04     libucrt:ftell.obj
 0003:00002c10       $pdata$?common_ftell_read_mode_nolock@@YA_JV__crt_stdio_stream@@_J1@Z 000000018006cc10     libucrt:ftell.obj
 0003:00002c1c       $pdata$?common_ftell_translated_utf8_nolock@@YA_JV__crt_stdio_stream@@_J@Z 000000018006cc1c     libucrt:ftell.obj
 0003:00002c28       $pdata$??$?RV<lambda_5d4c3fee44080f75d5d9762853974fe0>@@AEAV<lambda_532e024f4337e6fc7ad266c2bef9f4ed>@@V<lambda_c87bdc10097eb2402edb8ba9bdf0697b>@@@?$__crt_seh_guarded_call@_K@@QEAA_K$$QEAV<lambda_5d4c3fee44080f75d5d9762853974fe0>@@AEAV<lambda_532e024f4337e6fc7ad266c2bef9f4ed>@@$$QEAV<lambda_c87bdc10097eb2402edb8ba9bdf0697b>@@@Z 000000018006cc28     libucrt:fwrite.obj
 0003:00002c34       $pdata$??R<lambda_532e024f4337e6fc7ad266c2bef9f4ed>@@QEBA_KXZ 000000018006cc34     libucrt:fwrite.obj
 0003:00002c40       $pdata$_fwrite_nolock      000000018006cc40     libucrt:fwrite.obj
 0003:00002c4c       $pdata$fwrite              000000018006cc4c     libucrt:fwrite.obj
 0003:00002c58       $pdata$??$?RV<lambda_7a5ef57ff966f610505f1d28a3d40618>@@AEAV<lambda_b721fa326cdb32351d23dfa67958c160>@@V<lambda_5e0fb27672408a07956fe59e48ccb2aa>@@@?$__crt_seh_guarded_call@H@@QEAAH$$QEAV<lambda_7a5ef57ff966f610505f1d28a3d40618>@@AEAV<lambda_b721fa326cdb32351d23dfa67958c160>@@$$QEAV<lambda_5e0fb27672408a07956fe59e48ccb2aa>@@@Z 000000018006cc58     libucrt:setvbuf.obj
 0003:00002c64       $pdata$??R<lambda_b721fa326cdb32351d23dfa67958c160>@@QEBAHXZ 000000018006cc64     libucrt:setvbuf.obj
 0003:00002c70       $pdata$setvbuf             000000018006cc70     libucrt:setvbuf.obj
 0003:00002c7c       $pdata$??$generate_tmpfile_file_name@D@@YA_NQEAD_K@Z 000000018006cc7c     libucrt:tmpfile.obj
 0003:00002c88       $pdata$??$get_tmpfile_buffer_nolock@D@@YAPEADW4buffer_id@?A0xe462fda7@@@Z 000000018006cc88     libucrt:tmpfile.obj
 0003:00002c94       $pdata$??$initialize_tmpfile_buffer_nolock@D@@YA_NW4buffer_id@?A0xe462fda7@@@Z 000000018006cc94     libucrt:tmpfile.obj
 0003:00002ca0       $pdata$?common_tmpfile@@YAHQEAPEAU_iobuf@@H@Z 000000018006cca0     libucrt:tmpfile.obj
 0003:00002cac       $pdata$?common_tmpfile_nolock@@YAHQEAPEAU_iobuf@@H@Z 000000018006ccac     libucrt:tmpfile.obj
 0003:00002cb8       $pdata$__acrt_stdio_free_tmpfile_name_buffers_nolock 000000018006ccb8     libucrt:tmpfile.obj
 0003:00002cc4       $pdata$tmpfile             000000018006ccc4     libucrt:tmpfile.obj
 0003:00002cd0       $pdata$??$?RV<lambda_c01e8233c1997d6cc4b8f1fd672e07e5>@@AEAV<lambda_3a6204444a8bad05601fdaf7664f6f17>@@V<lambda_b6ae1896c9cebd71befa8310523e5efb>@@@?$__crt_seh_guarded_call@H@@QEAAH$$QEAV<lambda_c01e8233c1997d6cc4b8f1fd672e07e5>@@AEAV<lambda_3a6204444a8bad05601fdaf7664f6f17>@@$$QEAV<lambda_b6ae1896c9cebd71befa8310523e5efb>@@@Z 000000018006ccd0     libucrt:input.obj
 0003:00002cdc       $pdata$??$parse_floating_point@V?$input_adapter_character_source@V?$stream_input_adapter@D@__crt_stdio_input@@@__crt_strtox@@M@__crt_strtox@@YA?AW4SLD_STATUS@@QEAU__crt_locale_pointers@@V?$input_adapter_character_source@V?$stream_input_adapter@D@__crt_stdio_input@@@0@QEAM@Z 000000018006ccdc     libucrt:input.obj
 0003:00002ce8       $pdata$??$parse_floating_point@V?$input_adapter_character_source@V?$stream_input_adapter@D@__crt_stdio_input@@@__crt_strtox@@N@__crt_strtox@@YA?AW4SLD_STATUS@@QEAU__crt_locale_pointers@@V?$input_adapter_character_source@V?$stream_input_adapter@D@__crt_stdio_input@@@0@QEAN@Z 000000018006cce8     libucrt:input.obj
 0003:00002cf4       $pdata$??$parse_floating_point_from_source@V?$input_adapter_character_source@V?$stream_input_adapter@D@__crt_stdio_input@@@__crt_strtox@@@__crt_strtox@@YA?AW4floating_point_parse_result@0@QEAU__crt_locale_pointers@@AEAV?$input_adapter_character_source@V?$stream_input_adapter@D@__crt_stdio_input@@@0@AEAUfloating_point_string@0@@Z 000000018006ccf4     libucrt:input.obj
 0003:00002d00       $pdata$??$parse_floating_point_possible_infinity@DV?$input_adapter_character_source@V?$stream_input_adapter@D@__crt_stdio_input@@@__crt_strtox@@_K@__crt_strtox@@YA?AW4floating_point_parse_result@0@AEADAEAV?$input_adapter_character_source@V?$stream_input_adapter@D@__crt_stdio_input@@@0@_K@Z 000000018006cd00     libucrt:input.obj
 0003:00002d0c       $pdata$??$parse_floating_point_possible_nan@DV?$input_adapter_character_source@V?$stream_input_adapter@D@__crt_stdio_input@@@__crt_strtox@@_K@__crt_strtox@@YA?AW4floating_point_parse_result@0@AEADAEAV?$input_adapter_character_source@V?$stream_input_adapter@D@__crt_stdio_input@@@0@_K@Z 000000018006cd0c     libucrt:input.obj
 0003:00002d18       $pdata$??$parse_floating_point_possible_nan_is_ind@DV?$input_adapter_character_source@V?$stream_input_adapter@D@__crt_stdio_input@@@__crt_strtox@@@__crt_strtox@@YA_NAEADAEAV?$input_adapter_character_source@V?$stream_input_adapter@D@__crt_stdio_input@@@0@@Z 000000018006cd18     libucrt:input.obj
 0003:00002d24       $pdata$??$parse_floating_point_possible_nan_is_snan@DV?$input_adapter_character_source@V?$stream_input_adapter@D@__crt_stdio_input@@@__crt_strtox@@@__crt_strtox@@YA_NAEADAEAV?$input_adapter_character_source@V?$stream_input_adapter@D@__crt_stdio_input@@@0@@Z 000000018006cd24     libucrt:input.obj
 0003:00002d30       $pdata$??$parse_floating_point_write_result@M@__crt_strtox@@YA?AW4SLD_STATUS@@W4floating_point_parse_result@0@AEBUfloating_point_string@0@QEAM@Z 000000018006cd30     libucrt:input.obj
 0003:00002d3c       $pdata$??$parse_floating_point_write_result@N@__crt_strtox@@YA?AW4SLD_STATUS@@W4floating_point_parse_result@0@AEBUfloating_point_string@0@QEAN@Z 000000018006cd3c     libucrt:input.obj
 0003:00002d48       $pdata$??$parse_integer@_KV?$input_adapter_character_source@V?$stream_input_adapter@D@__crt_stdio_input@@@__crt_strtox@@@__crt_strtox@@YA_KQEAU__crt_locale_pointers@@V?$input_adapter_character_source@V?$stream_input_adapter@D@__crt_stdio_input@@@0@H_N@Z 000000018006cd48     libucrt:input.obj
 0003:00002d54       $pdata$??$process_floating_point_specifier_t@M@?$input_processor@DV?$stream_input_adapter@D@__crt_stdio_input@@@__crt_stdio_input@@AEAA_NXZ 000000018006cd54     libucrt:input.obj
 0003:00002d60       $pdata$??$process_floating_point_specifier_t@N@?$input_processor@DV?$stream_input_adapter@D@__crt_stdio_input@@@__crt_stdio_input@@AEAA_NXZ 000000018006cd60     libucrt:input.obj
 0003:00002d6c       $pdata$??$process_string_specifier_tchar@D@?$input_processor@DV?$stream_input_adapter@D@__crt_stdio_input@@@__crt_stdio_input@@AEAA_NW4conversion_mode@1@D@Z 000000018006cd6c     libucrt:input.obj
 0003:00002d78       $pdata$??$process_string_specifier_tchar@_W@?$input_processor@DV?$stream_input_adapter@D@__crt_stdio_input@@@__crt_stdio_input@@AEAA_NW4conversion_mode@1@_W@Z 000000018006cd78     libucrt:input.obj
 0003:00002d84       $pdata$??$skip_whitespace@Vstream_input_adapter@__crt_stdio_input@@D@__crt_stdio_input@@YAHAEAV?$stream_input_adapter@D@0@QEAU__crt_locale_pointers@@@Z 000000018006cd84     libucrt:input.obj
 0003:00002d90       $pdata$??R<lambda_3a6204444a8bad05601fdaf7664f6f17>@@QEBAHXZ 000000018006cd90     libucrt:input.obj
 0003:00002d9c       $pdata$??R<lambda_b9821a569aa5955fc6d82138aaf53eb6>@@QEBA_NXZ 000000018006cd9c     libucrt:input.obj
 0003:00002d9c       $pdata$??R<lambda_faed2df532bb37849f111efe98abdd75>@@QEBA_NXZ 000000018006cd9c     libucrt:input.obj
 0003:00002d9c       $pdata$??R<lambda_037e91eb5f7fe3a681de8d8491e423b3>@@QEBA_NXZ 000000018006cd9c     libucrt:input.obj
 0003:00002da8       $pdata$?advance@?$format_string_parser@D@__crt_stdio_input@@QEAA_NXZ 000000018006cda8     libucrt:input.obj
 0003:00002db4       $pdata$?as_double@floating_point_value@__crt_strtox@@QEBAAEANXZ 000000018006cdb4     libucrt:input.obj
 0003:00002dc0       $pdata$?as_float@floating_point_value@__crt_strtox@@QEBAAEAMXZ 000000018006cdc0     libucrt:input.obj
 0003:00002dcc       $pdata$?assemble_floating_point_value@__crt_strtox@@YA?AW4SLD_STATUS@@_KH_N1AEBVfloating_point_value@1@@Z 000000018006cdcc     libucrt:input.obj
 0003:00002dd8       $pdata$?assemble_floating_point_value_from_big_integer@__crt_strtox@@YA?AW4SLD_STATUS@@AEBUbig_integer@1@I_N1AEBVfloating_point_value@1@@Z 000000018006cdd8     libucrt:input.obj
 0003:00002de4       $pdata$?convert_decimal_string_to_floating_type_common@__crt_strtox@@YA?AW4SLD_STATUS@@AEBUfloating_point_string@1@AEBVfloating_point_value@1@@Z 000000018006cde4     libucrt:input.obj
 0003:00002df0       $pdata$?convert_hexadecimal_string_to_floating_type_common@__crt_strtox@@YA?AW4SLD_STATUS@@AEBUfloating_point_string@1@AEBVfloating_point_value@1@@Z 000000018006cdf0     libucrt:input.obj
 0003:00002dfc       $pdata$?divide@__crt_strtox@@YA_KAEAUbig_integer@1@AEBU21@@Z 000000018006cdfc     libucrt:input.obj
 0003:00002e08       $pdata$5$?divide@__crt_strtox@@YA_KAEAUbig_integer@1@AEBU21@@Z 000000018006ce08     libucrt:input.obj
 0003:00002e14       $pdata$6$?divide@__crt_strtox@@YA_KAEAUbig_integer@1@AEBU21@@Z 000000018006ce14     libucrt:input.obj
 0003:00002e20       $pdata$?process@?$input_processor@DV?$stream_input_adapter@D@__crt_stdio_input@@@__crt_stdio_input@@QEAAHXZ 000000018006ce20     libucrt:input.obj
 0003:00002e2c       $pdata$?process_conversion_specifier@?$input_processor@DV?$stream_input_adapter@D@__crt_stdio_input@@@__crt_stdio_input@@AEAA_NXZ 000000018006ce2c     libucrt:input.obj
 0003:00002e38       $pdata$?process_floating_point_specifier@?$input_processor@DV?$stream_input_adapter@D@__crt_stdio_input@@@__crt_stdio_input@@AEAA_NXZ 000000018006ce38     libucrt:input.obj
 0003:00002e44       $pdata$?process_integer_specifier@?$input_processor@DV?$stream_input_adapter@D@__crt_stdio_input@@@__crt_stdio_input@@AEAA_NI_N@Z 000000018006ce44     libucrt:input.obj
 0003:00002e50       $pdata$?process_literal_character_tchar@?$input_processor@DV?$stream_input_adapter@D@__crt_stdio_input@@@__crt_stdio_input@@AEAA_ND@Z 000000018006ce50     libucrt:input.obj
 0003:00002e5c       $pdata$?process_state@?$input_processor@DV?$stream_input_adapter@D@__crt_stdio_input@@@__crt_stdio_input@@AEAA_NXZ 000000018006ce5c     libucrt:input.obj
 0003:00002e68       $pdata$?process_string_specifier@?$input_processor@DV?$stream_input_adapter@D@__crt_stdio_input@@@__crt_stdio_input@@AEAA_NW4conversion_mode@2@@Z 000000018006ce68     libucrt:input.obj
 0003:00002e74       $pdata$?scan_optional_field_width@?$format_string_parser@D@__crt_stdio_input@@AEAA_NXZ 000000018006ce74     libucrt:input.obj
 0003:00002e80       $pdata$?scan_scanset_range@?$format_string_parser@D@__crt_stdio_input@@AEAA_NXZ 000000018006ce80     libucrt:input.obj
 0003:00002e8c       $pdata$?write_character@?$input_processor@DV?$stream_input_adapter@D@__crt_stdio_input@@@__crt_stdio_input@@AEAA_NQEFA_W_KAEAPEFA_WAEA_KD@Z 000000018006ce8c     libucrt:input.obj
 0003:00002e98       $pdata$?write_integer@?$input_processor@DV?$stream_input_adapter@D@__crt_stdio_input@@@__crt_stdio_input@@AEAA_N_K_N@Z 000000018006ce98     libucrt:input.obj
 0003:00002ea4       $pdata$__stdio_common_vfscanf 000000018006cea4     libucrt:input.obj
 0003:00002eb0       $pdata$memcpy_s            000000018006ceb0     libucrt:cfout.obj
 0003:00002eb0       $pdata$memcpy_s            000000018006ceb0     libucrt:input.obj
 0003:00002ebc       $pdata$??$common_dupenv_s@_W@@YAHQEAPEA_WQEA_KQEB_WHQEBDH@Z 000000018006cebc     libucrt:getenv.obj
 0003:00002ec8       $pdata$??$common_getenv@_W@@YAPEA_WQEB_W@Z 000000018006cec8     libucrt:getenv.obj
 0003:00002ed4       $pdata$??$common_getenv_nolock@_W@@YAPEA_WQEB_W@Z 000000018006ced4     libucrt:getenv.obj
 0003:00002ee0       $pdata$_wdupenv_s          000000018006cee0     libucrt:getenv.obj
 0003:00002eec       $pdata$_wsystem            000000018006ceec     libucrt:system.obj
 0003:00002ef8       $pdata$_initterm           000000018006cef8     libucrt:initterm.obj
 0003:00002f04       $pdata$_initterm_e         000000018006cf04     libucrt:initterm.obj
 0003:00002f10       $pdata$_seh_filter_exe     000000018006cf10     libucrt:exception_filter.obj
 0003:00002f1c       $pdata$?common_exit@@YAXHW4_crt_exit_cleanup_mode@@W4_crt_exit_return_mode@@@Z 000000018006cf1c     libucrt:exit.obj
 0003:00002f28       $pdata$?exit_or_terminate_process@@YAXI@Z 000000018006cf28     libucrt:exit.obj
 0003:00002f34       $pdata$?try_cor_exit_process@@YAXI@Z 000000018006cf34     libucrt:exit.obj
 0003:00002f40       $pdata$??$common_get_or_create_environment_nolock@_W@@YAPEAPEA_WXZ 000000018006cf40     libucrt:environment_initialization.obj
 0003:00002f4c       $pdata$??$common_initialize_environment_nolock@D@@YAHXZ 000000018006cf4c     libucrt:environment_initialization.obj
 0003:00002f58       $pdata$??$common_initialize_environment_nolock@_W@@YAHXZ 000000018006cf58     libucrt:environment_initialization.obj
 0003:00002f64       $pdata$??$create_environment@D@@YAQEAPEADQEAD@Z 000000018006cf64     libucrt:environment_initialization.obj
 0003:00002f70       $pdata$??$create_environment@_W@@YAQEAPEA_WQEA_W@Z 000000018006cf70     libucrt:environment_initialization.obj
 0003:00002f7c       $pdata$??$free_environment@D@@YAXQEAPEAD@Z 000000018006cf7c     libucrt:environment_initialization.obj
 0003:00002f7c       $pdata$??$free_environment@_W@@YAXQEAPEA_W@Z 000000018006cf7c     libucrt:environment_initialization.obj
 0003:00002f88       $pdata$??$initialize_environment_by_cloning_nolock@_W@@YAHXZ 000000018006cf88     libucrt:environment_initialization.obj
 0003:00002f94       $pdata$??$uninitialize_environment_internal@D@@YAXAEAPEAPEAD@Z 000000018006cf94     libucrt:environment_initialization.obj
 0003:00002fa0       $pdata$??$uninitialize_environment_internal@_W@@YAXAEAPEAPEA_W@Z 000000018006cfa0     libucrt:environment_initialization.obj
 0003:00002fac       $pdata$__dcrt_uninitialize_environments_nolock 000000018006cfac     libucrt:environment_initialization.obj
 0003:00002fb8       $pdata$??$?RV<lambda_b8c45f8f788dd370798f47cfe8ac3a86>@@AEAV<lambda_4e60a939b0d047cfe11ddc22648dfba9>@@V<lambda_332c3edc96d0294ec56c57d38c1cdfd5>@@@?$__crt_seh_guarded_call@H@@QEAAH$$QEAV<lambda_b8c45f8f788dd370798f47cfe8ac3a86>@@AEAV<lambda_4e60a939b0d047cfe11ddc22648dfba9>@@$$QEAV<lambda_332c3edc96d0294ec56c57d38c1cdfd5>@@@Z 000000018006cfb8     libucrt:onexit.obj
 0003:00002fc4       $pdata$??$?RV<lambda_e24bbb7b643b32fcea6fa61b31d4c984>@@AEAV<lambda_275893d493268fdec8709772e3fcec0e>@@V<lambda_9d71df4d7cf3f480f8d633942495c3b0>@@@?$__crt_seh_guarded_call@H@@QEAAH$$QEAV<lambda_e24bbb7b643b32fcea6fa61b31d4c984>@@AEAV<lambda_275893d493268fdec8709772e3fcec0e>@@$$QEAV<lambda_9d71df4d7cf3f480f8d633942495c3b0>@@@Z 000000018006cfc4     libucrt:onexit.obj
 0003:00002fd0       $pdata$??R<lambda_4e60a939b0d047cfe11ddc22648dfba9>@@QEBAHXZ 000000018006cfd0     libucrt:onexit.obj
 0003:00002fdc       $pdata$_execute_onexit_table 000000018006cfdc     libucrt:onexit.obj
 0003:00002fe8       $pdata$_register_onexit_function 000000018006cfe8     libucrt:onexit.obj
 0003:00002ff4       $pdata$initialize_c        000000018006cff4     libucrt:initialization.obj
 0003:00003000       $pdata$uninitialize_environment 000000018006d000     libucrt:initialization.obj
 0003:0000300c       $pdata$initialize_pointers 000000018006d00c     libucrt:initialization.obj
 0003:00003018       $pdata$uninitialize_allocated_memory 000000018006d018     libucrt:initialization.obj
 0003:00003024       $pdata$__acrt_thread_attach 000000018006d024     libucrt:initialization.obj
 0003:00003030       $pdata$__acrt_thread_detach 000000018006d030     libucrt:initialization.obj
 0003:0000303c       $pdata$__acrt_uninitialize_critical 000000018006d03c     libucrt:initialization.obj
 0003:00003048       $pdata$terminate           000000018006d048     libucrt:terminate.obj
 0003:00003054       $pdata$?_strupr_s_l_stat@@YAHQEAD_KQEAU__crt_locale_pointers@@@Z 000000018006d054     libucrt:strupr.obj
 0003:00003060       $pdata$_strupr             000000018006d060     libucrt:strupr.obj
 0003:0000306c       $pdata$_strupr_s_l         000000018006d06c     libucrt:strupr.obj
 0003:00003078       $pdata$_free_base          000000018006d078     libucrt:free_base.obj
 0003:00003084       $pdata$_malloc_base        000000018006d084     libucrt:malloc_base.obj
 0003:00003090       $pdata$strcpy_s            000000018006d090     libucrt:strcpy_s.obj
 0003:0000309c       $pdata$abort               000000018006d09c     libucrt:abort.obj
 0003:000030a8       $pdata$_calloc_base        000000018006d0a8     libucrt:calloc_base.obj
 0003:000030b4       $pdata$??$parse_integer@KV?$c_string_character_source@D@__crt_strtox@@@__crt_strtox@@YAKQEAU__crt_locale_pointers@@V?$c_string_character_source@D@0@H_N@Z 000000018006d0b4     libucrt:atox.obj
 0003:000030c0       $pdata$??$parse_integer@KV?$c_string_character_source@_W@__crt_strtox@@@__crt_strtox@@YAKQEAU__crt_locale_pointers@@V?$c_string_character_source@_W@0@H_N@Z 000000018006d0c0     libucrt:atox.obj
 0003:000030cc       $pdata$??$parse_integer@_KV?$c_string_character_source@D@__crt_strtox@@@__crt_strtox@@YA_KQEAU__crt_locale_pointers@@V?$c_string_character_source@D@0@H_N@Z 000000018006d0cc     libucrt:atox.obj
 0003:000030d8       $pdata$__acrt_call_reportfault 000000018006d0d8     libucrt:invalid_parameter.obj
 0003:000030e4       $pdata$_invalid_parameter  000000018006d0e4     libucrt:invalid_parameter.obj
 0003:000030f0       $pdata$_invalid_parameter_noinfo 000000018006d0f0     libucrt:invalid_parameter.obj
 0003:000030fc       $pdata$_invoke_watson      000000018006d0fc     libucrt:invalid_parameter.obj
 0003:00003108       $pdata$?internal_isupper_l@@YA_NHQEAU__crt_locale_pointers@@@Z 000000018006d108     libucrt:tolower_toupper.obj
 0003:00003114       $pdata$_tolower_l          000000018006d114     libucrt:tolower_toupper.obj
 0003:00003120       $pdata$tolower             000000018006d120     libucrt:tolower_toupper.obj
 0003:0000312c       $pdata$strtol              000000018006d12c     libucrt:strtox.obj
 0003:00003138       $pdata$strtoull            000000018006d138     libucrt:strtox.obj
 0003:00003144       $pdata$wcstol              000000018006d144     libucrt:strtox.obj
 0003:00003150       $pdata$_mbtowc_l           000000018006d150     libucrt:mbtowc.obj
 0003:0000315c       $pdata$_wctomb_s_l         000000018006d15c     libucrt:wctomb.obj
 0003:00003168       $pdata$wctomb_s            000000018006d168     libucrt:wctomb.obj
 0003:00003174       $pdata$strnlen             000000018006d174     libucrt:strnlen.obj
 0003:00003180       $pdata$wcsnlen             000000018006d180     libucrt:strnlen.obj
 0003:0000318c       $pdata$??$?RV<lambda_46352004c1216016012b18bd6f87e700>@@AEAV<lambda_3bd07e1a1191394380780325891bf33f>@@V<lambda_334532d3f185bcaa59b5be82d7d22bff>@@@?$__crt_seh_guarded_call@X@@QEAAX$$QEAV<lambda_46352004c1216016012b18bd6f87e700>@@AEAV<lambda_3bd07e1a1191394380780325891bf33f>@@$$QEAV<lambda_334532d3f185bcaa59b5be82d7d22bff>@@@Z 000000018006d18c     libucrt:per_thread_data.obj
 0003:00003198       $pdata$??$?RV<lambda_5e887d1dcbef67a5eb4283622ba103bf>@@AEAV<lambda_4466841279450cc726390878d4a41900>@@V<lambda_341c25c0346d94847f1f3c463c57e077>@@@?$__crt_seh_guarded_call@X@@QEAAX$$QEAV<lambda_5e887d1dcbef67a5eb4283622ba103bf>@@AEAV<lambda_4466841279450cc726390878d4a41900>@@$$QEAV<lambda_341c25c0346d94847f1f3c463c57e077>@@@Z 000000018006d198     libucrt:per_thread_data.obj
 0003:000031a4       $pdata$??$?RV<lambda_72d1df2b273a38828b1ce30cbf4cdab5>@@AEAV<lambda_876a65b173b8412d3a47c70a915b0cf4>@@V<lambda_41932305e351933ebe8f8be3ed8bb5dc>@@@?$__crt_seh_guarded_call@X@@QEAAX$$QEAV<lambda_72d1df2b273a38828b1ce30cbf4cdab5>@@AEAV<lambda_876a65b173b8412d3a47c70a915b0cf4>@@$$QEAV<lambda_41932305e351933ebe8f8be3ed8bb5dc>@@@Z 000000018006d1a4     libucrt:per_thread_data.obj
 0003:000031b0       $pdata$??$?RV<lambda_fb3a7dec4e47f37f22dae91bb15c9095>@@AEAV<lambda_698284760c8add0bfb0756c19673e34b>@@V<lambda_dfb8eca1e75fef3034a8fb18dd509707>@@@?$__crt_seh_guarded_call@X@@QEAAX$$QEAV<lambda_fb3a7dec4e47f37f22dae91bb15c9095>@@AEAV<lambda_698284760c8add0bfb0756c19673e34b>@@$$QEAV<lambda_dfb8eca1e75fef3034a8fb18dd509707>@@@Z 000000018006d1b0     libucrt:per_thread_data.obj
 0003:000031bc       $pdata$?construct_ptd_array@@YAXQEAU__acrt_ptd@@@Z 000000018006d1bc     libucrt:per_thread_data.obj
 0003:000031c8       $pdata$?destroy_fls@@YAXPEAX@Z 000000018006d1c8     libucrt:per_thread_data.obj
 0003:000031d4       $pdata$?destroy_ptd_array@@YAXQEAU__acrt_ptd@@@Z 000000018006d1d4     libucrt:per_thread_data.obj
 0003:000031e0       $pdata$?replace_current_thread_locale_nolock@@YAXQEAU__acrt_ptd@@QEAU__crt_locale_data@@@Z 000000018006d1e0     libucrt:per_thread_data.obj
 0003:000031ec       $pdata$__acrt_freeptd      000000018006d1ec     libucrt:per_thread_data.obj
 0003:000031f8       $pdata$__acrt_getptd       000000018006d1f8     libucrt:per_thread_data.obj
 0003:00003204       $pdata$__acrt_getptd_noexit 000000018006d204     libucrt:per_thread_data.obj
 0003:00003210       $pdata$__acrt_initialize_ptd 000000018006d210     libucrt:per_thread_data.obj
 0003:0000321c       $pdata$__acrt_uninitialize_ptd 000000018006d21c     libucrt:per_thread_data.obj
 0003:00003228       $pdata$__acrt_update_locale_info 000000018006d228     libucrt:locale_update.obj
 0003:00003234       $pdata$__acrt_update_multibyte_info 000000018006d234     libucrt:locale_update.obj
 0003:00003240       $pdata$?fp_format_a@@YAHQEBNPEAD_KQEAD2H_NIQEAU__crt_locale_pointers@@@Z 000000018006d240     libucrt:cvt.obj
 0003:0000324c       $pdata$?fp_format_e@@YAHQEBNQEAD_K12H_NIQEAU__crt_locale_pointers@@@Z 000000018006d24c     libucrt:cvt.obj
 0003:00003258       $pdata$?fp_format_e_internal@@YAHQEAD_KH_NIQEAU_strflt@@2QEAU__crt_locale_pointers@@@Z 000000018006d258     libucrt:cvt.obj
 0003:00003264       $pdata$?fp_format_f_internal@@YAHQEAD_KHQEAU_strflt@@_NQEAU__crt_locale_pointers@@@Z 000000018006d264     libucrt:cvt.obj
 0003:00003270       $pdata$?fp_format_g@@YAHQEBNQEAD_K12H_NIQEAU__crt_locale_pointers@@@Z 000000018006d270     libucrt:cvt.obj
 0003:0000327c       $pdata$?fp_format_nan_or_infinity@@YAHW4__acrt_fp_class@@_NPEAD_K1@Z 000000018006d27c     libucrt:cvt.obj
 0003:00003288       $pdata$__acrt_fp_format    000000018006d288     libucrt:cvt.obj
 0003:00003294       $pdata$_fileno             000000018006d294     libucrt:fileno.obj
 0003:000032a0       $pdata$__acrt_stdio_begin_temporary_buffering_nolock 000000018006d2a0     libucrt:_sftbuf.obj
 0003:000032ac       $pdata$__acrt_stdio_end_temporary_buffering_nolock 000000018006d2ac     libucrt:_sftbuf.obj
 0003:000032b8       $pdata$__acrt_uninitialize_locale 000000018006d2b8     libucrt:wsetlocale.obj
 0003:000032c4       $pdata$?initialize_inherited_file_handles_nolock@@YAXXZ 000000018006d2c4     libucrt:ioinit.obj
 0003:000032d0       $pdata$?initialize_stdio_handles_nolock@@YAXXZ 000000018006d2d0     libucrt:ioinit.obj
 0003:000032dc       $pdata$__acrt_initialize_lowio 000000018006d2dc     libucrt:ioinit.obj
 0003:000032e8       $pdata$__acrt_uninitialize_lowio 000000018006d2e8     libucrt:ioinit.obj
 0003:000032f4       $pdata$wcscpy_s            000000018006d2f4     libucrt:wcscpy_s.obj
 0003:00003300       $pdata$?__acrt_stdio_allocate_stream@@YA?AV__crt_stdio_stream@@XZ 000000018006d300     libucrt:stream.obj
 0003:0000330c       $pdata$?find_or_allocate_unused_stream_nolock@@YA?AV__crt_stdio_stream@@XZ 000000018006d30c     libucrt:stream.obj
 0003:00003318       $pdata$??$__acrt_stdio_parse_mode@_W@@YA?AU__acrt_stdio_stream_mode@@QEB_W@Z 000000018006d318     libucrt:openfile.obj
 0003:00003324       $pdata$_wopenfile          000000018006d324     libucrt:openfile.obj
 0003:00003330       $pdata$??$?RV<lambda_bfedae4ebbf01fab1bb6dcc6a9e276e0>@@AEAV<lambda_2fe9b910cf3cbf4a0ab98a02ba45b3ec>@@V<lambda_237c231691f317818eb88cc1d5d642d6>@@@?$__crt_seh_guarded_call@H@@QEAAH$$QEAV<lambda_bfedae4ebbf01fab1bb6dcc6a9e276e0>@@AEAV<lambda_2fe9b910cf3cbf4a0ab98a02ba45b3ec>@@$$QEAV<lambda_237c231691f317818eb88cc1d5d642d6>@@@Z 000000018006d330     libucrt:close.obj
 0003:0000333c       $pdata$_close              000000018006d33c     libucrt:close.obj
 0003:00003348       $pdata$_close_nolock       000000018006d348     libucrt:close.obj
 0003:00003354       $pdata$__acrt_stdio_free_buffer_nolock 000000018006d354     libucrt:_freebuf.obj
 0003:0000336c       $pdata$strncpy_s           000000018006d36c     libucrt:strncpy_s.obj
 0003:00003378       $pdata$?try_get_function@@YAPEAXW4function_id@?A0x63058377@@QEBDQEBW4module_id@2@2@Z 000000018006d378     libucrt:winapi_thunks.obj
 0003:00003384       $pdata$__acrt_AreFileApisANSI 000000018006d384     libucrt:winapi_thunks.obj
 0003:00003390       $pdata$__acrt_CompareStringEx 000000018006d390     libucrt:winapi_thunks.obj
 0003:0000339c       $pdata$__acrt_FlsAlloc     000000018006d39c     libucrt:winapi_thunks.obj
 0003:000033a8       $pdata$__acrt_FlsFree      000000018006d3a8     libucrt:winapi_thunks.obj
 0003:000033b4       $pdata$__acrt_FlsGetValue  000000018006d3b4     libucrt:winapi_thunks.obj
 0003:000033c0       $pdata$__acrt_FlsSetValue  000000018006d3c0     libucrt:winapi_thunks.obj
 0003:000033cc       $pdata$__acrt_InitializeCriticalSectionEx 000000018006d3cc     libucrt:winapi_thunks.obj
 0003:000033d8       $pdata$__acrt_LCMapStringEx 000000018006d3d8     libucrt:winapi_thunks.obj
 0003:000033e4       $pdata$__acrt_LocaleNameToLCID 000000018006d3e4     libucrt:winapi_thunks.obj
 0003:000033f0       $pdata$__acrt_initialize_winapi_thunks 000000018006d3f0     libucrt:winapi_thunks.obj
 0003:000033fc       $pdata$__acrt_is_packaged_app 000000018006d3fc     libucrt:winapi_thunks.obj
 0003:00003408       $pdata$__acrt_uninitialize_winapi_thunks 000000018006d408     libucrt:winapi_thunks.obj
 0003:00003414       $pdata$_fcloseall          000000018006d414     libucrt:closeall.obj
 0003:00003420       $pdata$??$translate_text_mode_nolock@_W@@YAHHQEA_W_K@Z 000000018006d420     libucrt:read.obj
 0003:0000342c       $pdata$?translate_ansi_or_utf8_nolock@@YAHHQEAD_KQEA_W1@Z 000000018006d42c     libucrt:read.obj
 0003:00003438       $pdata$_read               000000018006d438     libucrt:read.obj
 0003:00003444       $pdata$_read_nolock        000000018006d444     libucrt:read.obj
 0003:00003450       $pdata$??$common_refill_and_read_nolock@D@@YAHV__crt_stdio_stream@@@Z 000000018006d450     libucrt:_filbuf.obj
 0003:0000345c       $pdata$??$common_lseek@J@@YAJHJH@Z 000000018006d45c     libucrt:lseek.obj
 0003:00003468       $pdata$??$common_lseek@_J@@YA_JH_JH@Z 000000018006d468     libucrt:lseek.obj
 0003:00003474       $pdata$??$common_lseek_nolock@J@@YAJHJH@Z 000000018006d474     libucrt:lseek.obj
 0003:00003480       $pdata$??$common_lseek_nolock@_J@@YA_JH_JH@Z 000000018006d480     libucrt:lseek.obj
 0003:0000348c       $pdata$?common_lseek_do_seek_nolock@@YAJQEAXJH@Z 000000018006d48c     libucrt:lseek.obj
 0003:00003498       $pdata$__acrt_stdio_allocate_buffer_nolock 000000018006d498     libucrt:_getbuf.obj
 0003:000034a4       $pdata$__pctype_func       000000018006d4a4     libucrt:ctype.obj
 0003:000034b0       $pdata$_towlower_l         000000018006d4b0     libucrt:towlower.obj
 0003:000034bc       $pdata$_isctype_l          000000018006d4bc     libucrt:isctype.obj
 0003:000034c8       $pdata$_recalloc_base      000000018006d4c8     libucrt:recalloc.obj
 0003:000034d4       $pdata$wcscat_s            000000018006d4d4     libucrt:wcscat_s.obj
 0003:000034e0       $pdata$_cwait              000000018006d4e0     libucrt:wait.obj
 0003:000034ec       $pdata$__acrt_wgetpath     000000018006d4ec     libucrt:getpath.obj
 0003:000034f8       $pdata$__acrt_initialize_locks 000000018006d4f8     libucrt:locks.obj
 0003:00003504       $pdata$__acrt_uninitialize_locks 000000018006d504     libucrt:locks.obj
 0003:00003510       $pdata$_waccess_s          000000018006d510     libucrt:waccess.obj
 0003:0000351c       $pdata$_pipe               000000018006d51c     libucrt:pipe.obj
 0003:00003528       $pdata$??$common_fdopen@_W@@YAPEAU_iobuf@@HQEB_W@Z 000000018006d528     libucrt:fdopen.obj
 0003:00003534       $pdata$??$?RV<lambda_b521505b218e5242e90febf6bfebc422>@@AEAV<lambda_6978c1fb23f02e42e1d9e99668cc68aa>@@V<lambda_314360699dd331753a4119843814e9a7>@@@?$__crt_seh_guarded_call@H@@QEAAH$$QEAV<lambda_b521505b218e5242e90febf6bfebc422>@@AEAV<lambda_6978c1fb23f02e42e1d9e99668cc68aa>@@$$QEAV<lambda_314360699dd331753a4119843814e9a7>@@@Z 000000018006d534     libucrt:commit.obj
 0003:00003540       $pdata$_commit             000000018006d540     libucrt:commit.obj
 0003:0000354c       $pdata$?write_double_translated_ansi_nolock@@YA?AUwrite_result@?A0x9c548279@@HQEBDI@Z 000000018006d54c     libucrt:write.obj
 0003:00003558       $pdata$?write_text_ansi_nolock@@YA?AUwrite_result@?A0x9c548279@@HQEBDI@Z 000000018006d558     libucrt:write.obj
 0003:00003564       $pdata$?write_text_utf16le_nolock@@YA?AUwrite_result@?A0x9c548279@@HQEBDI@Z 000000018006d564     libucrt:write.obj
 0003:00003570       $pdata$?write_text_utf8_nolock@@YA?AUwrite_result@?A0x9c548279@@HQEBDI@Z 000000018006d570     libucrt:write.obj
 0003:0000357c       $pdata$_write              000000018006d57c     libucrt:write.obj
 0003:00003588       $pdata$_write_nolock       000000018006d588     libucrt:write.obj
 0003:00003594       $pdata$??$write_buffer_nolock@D@@YA_NDV__crt_stdio_stream@@@Z 000000018006d594     libucrt:_flsbuf.obj
 0003:000035a0       $pdata$__acrt_stdio_flush_and_write_narrow_nolock 000000018006d5a0     libucrt:_flsbuf.obj
 0003:000035ac       $pdata$??$common_xtox@_KD@@YAH_KQEAD0I_N@Z 000000018006d5ac     libucrt:xtoa.obj
 0003:000035b8       $pdata$??$common_xtox_s@_KD@@YAH_KQEAD0I_N@Z 000000018006d5b8     libucrt:xtoa.obj
 0003:000035c4       $pdata$_ui64toa_s          000000018006d5c4     libucrt:xtoa.obj
 0003:000035d0       $pdata$_strdup             000000018006d5d0     libucrt:strdup.obj
 0003:000035dc       $pdata$__acrt_GetTempPathA 000000018006d5dc     libucrt:gettemppath.obj
 0003:000035e8       $pdata$??$common_sopen_dispatch@D@@YAHQEBDHHHQEAHH@Z 000000018006d5e8     libucrt:open.obj
 0003:000035f4       $pdata$??$common_sopen_dispatch@_W@@YAHQEB_WHHHQEAHH@Z 000000018006d5f4     libucrt:open.obj
 0003:00003600       $pdata$?configure_text_mode@@YAHHUfile_options@?A0x656cf9f4@@HAEAW4__crt_lowio_text_mode@@@Z 000000018006d600     libucrt:open.obj
 0003:0000360c       $pdata$?decode_options@@YA?AUfile_options@?A0x656cf9f4@@HHH@Z 000000018006d60c     libucrt:open.obj
 0003:00003618       $pdata$?truncate_ctrl_z_if_present@@YAHH@Z 000000018006d618     libucrt:open.obj
 0003:00003624       $pdata$_sopen_nolock       000000018006d624     libucrt:open.obj
 0003:00003630       $pdata$_sopen_s            000000018006d630     libucrt:open.obj
 0003:0000363c       $pdata$_wsopen_nolock      000000018006d63c     libucrt:open.obj
 0003:00003648       $pdata$_wsopen_s           000000018006d648     libucrt:open.obj
 0003:00003654       $pdata$__acrt_uninitialize_tmpfile 000000018006d654     libucrt:rmtmp.obj
 0003:00003660       $pdata$_rmtmp              000000018006d660     libucrt:rmtmp.obj
 0003:0000366c       $pdata$fegetround          000000018006d66c     libucrt:fegetround.obj
 0003:00003678       $pdata$_wcsnicoll          000000018006d678     libucrt:wcsnicol.obj
 0003:00003684       $pdata$_wcsnicoll_l        000000018006d684     libucrt:wcsnicol.obj
 0003:00003690       $pdata$??$?RV<lambda_fb01e4b6cb0b58be62120d2a518119ce>@@AEAV<lambda_45edfab556fcff821d8a41c06e3d46c0>@@V<lambda_8a9bf702b7f902ca2f9107a173e0fbe3>@@@?$__crt_seh_guarded_call@_N@@QEAA_N$$QEAV<lambda_fb01e4b6cb0b58be62120d2a518119ce>@@AEAV<lambda_45edfab556fcff821d8a41c06e3d46c0>@@$$QEAV<lambda_8a9bf702b7f902ca2f9107a173e0fbe3>@@@Z 000000018006d690     libucrt:spawnv.obj
 0003:0000369c       $pdata$??$common_spawnv@_W@@YA_JHQEB_WQEBQEB_W1@Z 000000018006d69c     libucrt:spawnv.obj
 0003:000036a8       $pdata$??$execute_command@_W@@YA_JHQEB_WQEBQEB_W1@Z 000000018006d6a8     libucrt:spawnv.obj
 0003:000036b4       $pdata$??R<lambda_45edfab556fcff821d8a41c06e3d46c0>@@QEBA_NXZ 000000018006d6b4     libucrt:spawnv.obj
 0003:000036c0       $pdata$?accumulate_inheritable_handles@@YA_NQEAPEAEQEA_K_N@Z 000000018006d6c0     libucrt:spawnv.obj
 0003:000036cc       $pdata$??$common_spawnvp@_W@@YA_JHQEB_WQEBQEB_W1@Z 000000018006d6cc     libucrt:spawnvp.obj
 0003:000036d8       $pdata$??$?RV<lambda_99476a1ad63dd22509b5d3e65b0ffc95>@@AEAV<lambda_ad1ced32f4ac17aa236e5ef05d6b3b7c>@@V<lambda_f7424dd8d45958661754dc4f2697e9c3>@@@?$__crt_seh_guarded_call@X@@QEAAX$$QEAV<lambda_99476a1ad63dd22509b5d3e65b0ffc95>@@AEAV<lambda_ad1ced32f4ac17aa236e5ef05d6b3b7c>@@$$QEAV<lambda_f7424dd8d45958661754dc4f2697e9c3>@@@Z 000000018006d6d8     libucrt:mbctype.obj
 0003:000036e4       $pdata$??R<lambda_ad1ced32f4ac17aa236e5ef05d6b3b7c>@@QEBAXXZ 000000018006d6e4     libucrt:mbctype.obj
 0003:000036f0       $pdata$?getSystemCP@@YAHH@Z 000000018006d6f0     libucrt:mbctype.obj
 0003:000036fc       $pdata$?setSBCS@@YAXPEAU__crt_multibyte_data@@@Z 000000018006d6fc     libucrt:mbctype.obj
 0003:00003708       $pdata$?setSBUpLow@@YAXPEAU__crt_multibyte_data@@@Z 000000018006d708     libucrt:mbctype.obj
 0003:00003714       $pdata$?setmbcp_internal@@YAHH_N@Z 000000018006d714     libucrt:mbctype.obj
 0003:00003720       $pdata$__acrt_initialize_multibyte 000000018006d720     libucrt:mbctype.obj
 0003:0000372c       $pdata$__acrt_update_thread_multibyte_data 000000018006d72c     libucrt:mbctype.obj
 0003:00003738       $pdata$_setmbcp_nolock     000000018006d738     libucrt:mbctype.obj
 0003:00003744       $pdata$__dcrt_get_narrow_environment_from_os 000000018006d744     libucrt:get_environment_from_os.obj
 0003:00003750       $pdata$__dcrt_get_wide_environment_from_os 000000018006d750     libucrt:get_environment_from_os.obj
 0003:0000375c       $pdata$??$common_set_variable_in_environment_nolock@_W@@YAHQEA_WH@Z 000000018006d75c     libucrt:setenv.obj
 0003:00003768       $pdata$??$copy_environment@_W@@YAPEAPEA_WQEAPEA_W@Z 000000018006d768     libucrt:setenv.obj
 0003:00003774       $pdata$__acrt_initialize_heap 000000018006d774     libucrt:heap_handle.obj
 0003:00003780       $pdata$__acrt_initialize_command_line 000000018006d780     libucrt:argv_data.obj
 0003:0000378c       $pdata$__acrt_execute_initializers 000000018006d78c     libucrt:shared_initialization.obj
 0003:00003798       $pdata$__acrt_execute_uninitializers 000000018006d798     libucrt:shared_initialization.obj
 0003:000037a4       $pdata$_callnewh           000000018006d7a4     libucrt:new_handler.obj
 0003:000037b0       $pdata$_query_new_handler  000000018006d7b0     libucrt:new_handler.obj
 0003:000037bc       $pdata$??$?RV<lambda_c36588078e9f5dfd39652860aa6b3aaf>@@AEAV<lambda_ec61778202f4f5fc7e7711acc23c3bca>@@V<lambda_dc9d2797ccde5d239b4a0efae8ebd7db>@@@?$__crt_seh_guarded_call@P6AXH@Z@@QEAAP6AXH@Z$$QEAV<lambda_c36588078e9f5dfd39652860aa6b3aaf>@@AEAV<lambda_ec61778202f4f5fc7e7711acc23c3bca>@@$$QEAV<lambda_dc9d2797ccde5d239b4a0efae8ebd7db>@@@Z 000000018006d7bc     libucrt:signal.obj
 0003:000037c8       $pdata$__acrt_get_sigabrt_handler 000000018006d7c8     libucrt:signal.obj
 0003:000037d4       $pdata$raise               000000018006d7d4     libucrt:signal.obj
 0003:000037e0       $pdata$__acrt_invoke_user_matherr 000000018006d7e0     libucrt:matherr.obj
 0003:000037ec       $pdata$?__acrt_LCMapStringA_stat@@YAHPEAU__crt_locale_pointers@@PEB_WKPEBDHPEADHHH@Z 000000018006d7ec     libucrt:lcmapstringa.obj
 0003:000037f8       $pdata$__acrt_LCMapStringA 000000018006d7f8     libucrt:lcmapstringa.obj
 0003:00003804       $pdata$_isleadbyte_l       000000018006d804     libucrt:_wctype.obj
 0003:00003810       $pdata$__acrt_free_locale  000000018006d810     libucrt:locale_refcounting.obj
 0003:0000381c       $pdata$__acrt_locale_free_lc_time_if_unreferenced 000000018006d81c     libucrt:locale_refcounting.obj
 0003:00003828       $pdata$__acrt_release_locale_ref 000000018006d828     libucrt:locale_refcounting.obj
 0003:00003834       $pdata$__acrt_update_thread_locale_data 000000018006d834     libucrt:locale_refcounting.obj
 0003:00003840       $pdata$_updatetlocinfoEx_nolock 000000018006d840     libucrt:locale_refcounting.obj
 0003:0000384c       $pdata$__acrt_fp_strflt_to_string 000000018006d84c     libucrt:_fptostr.obj
 0003:00003858       $pdata$__acrt_fltout       000000018006d858     libucrt:cfout.obj
 0003:00003864       $pdata$_isatty             000000018006d864     libucrt:isatty.obj
 0003:00003870       $pdata$__acrt_locale_free_monetary 000000018006d870     libucrt:initmon.obj
 0003:0000387c       $pdata$__acrt_locale_free_numeric 000000018006d87c     libucrt:initnum.obj
 0003:00003888       $pdata$?free_crt_array_internal@@YAXQEAPEBX_K@Z 000000018006d888     libucrt:inittime.obj
 0003:00003894       $pdata$__acrt_locale_free_time 000000018006d894     libucrt:inittime.obj
 0003:000038a0       $pdata$__acrt_GetStringTypeA 000000018006d8a0     libucrt:getstringtypea.obj
 0003:000038ac       $pdata$__acrt_lowio_create_handle_array 000000018006d8ac     libucrt:osfinfo.obj
 0003:000038b8       $pdata$__acrt_lowio_destroy_handle_array 000000018006d8b8     libucrt:osfinfo.obj
 0003:000038c4       $pdata$__acrt_lowio_ensure_fh_exists 000000018006d8c4     libucrt:osfinfo.obj
 0003:000038d0       $pdata$__acrt_lowio_set_os_handle 000000018006d8d0     libucrt:osfinfo.obj
 0003:000038dc       $pdata$_alloc_osfhnd       000000018006d8dc     libucrt:osfinfo.obj
 0003:000038e8       $pdata$_free_osfhnd        000000018006d8e8     libucrt:osfinfo.obj
 0003:000038f4       $pdata$_get_osfhandle      000000018006d8f4     libucrt:osfinfo.obj
 0003:00003900       $pdata$_wcsnicmp           000000018006d900     libucrt:wcsnicmp.obj
 0003:0000390c       $pdata$_wcsnicmp_l         000000018006d90c     libucrt:wcsnicmp.obj
 0003:00003918       $pdata$?GetTableIndexFromLocaleName@@YAHPEB_W@Z 000000018006d918     libucrt:lcidtoname_downlevel.obj
 0003:00003924       $pdata$__acrt_DownlevelLocaleNameToLCID 000000018006d924     libucrt:lcidtoname_downlevel.obj
 0003:00003930       $pdata$__acrt_LCMapStringW 000000018006d930     libucrt:lcmapstringw.obj
 0003:0000393c       $pdata$_msize              000000018006d93c     libucrt:msize.obj
 0003:00003948       $pdata$_realloc_base       000000018006d948     libucrt:realloc_base.obj
 0003:00003954       $pdata$__acrt_copy_path_to_wide_string 000000018006d954     libucrt:string_utilities.obj
 0003:00003960       $pdata$_get_fmode          000000018006d960     libucrt:setmode.obj
 0003:0000396c       $pdata$_setmode_nolock     000000018006d96c     libucrt:setmode.obj
 0003:00003978       $pdata$_putwch_nolock      000000018006d978     libucrt:putwch.obj
 0003:00003984       $pdata$_chsize_nolock      000000018006d984     libucrt:chsize.obj
 0003:00003990       $pdata$_getfpcontrolword   000000018006d990     libucrt:_fenvutils.obj
 0003:0000399c       $pdata$_getfpstatusword    000000018006d99c     libucrt:_fenvutils.obj
 0003:000039a8       $pdata$_setfpstatusword    000000018006d9a8     libucrt:_fenvutils.obj
 0003:000039b4       $pdata$__acrt_CompareStringW 000000018006d9b4     libucrt:comparestringw.obj
 0003:000039c0       $pdata$??$construct_environment_block@_W@@YAHQEBQEB_WQEAPEA_W@Z 000000018006d9c0     libucrt:cenvarg.obj
 0003:000039cc       $pdata$__acrt_pack_wide_command_line_and_environment 000000018006d9cc     libucrt:cenvarg.obj
 0003:000039d8       $pdata$?initialize_multibyte@@YAHXZ 000000018006d9d8     libucrt:multibyte_initializer.obj
 0003:000039e4       $pdata$fegetenv            000000018006d9e4     libucrt:fegetenv.obj
 0003:000039f0       $pdata$fesetenv            000000018006d9f0     libucrt:fesetenv.obj
 0003:000039fc       $pdata$feholdexcept        000000018006d9fc     libucrt:feholdexcept.obj
 0003:00003a14       $pdata$__dcrt_lowio_initialize_console_output 000000018006da14     libucrt:initcon.obj
 0003:00003a20       $pdata$__dcrt_terminate_console_output 000000018006da20     libucrt:initcon.obj
 0003:00003a2c       $pdata$_call_matherr       000000018006da2c     libucrt:libm_error.obj
 0003:00003a38       $pdata$_exception_enabled  000000018006da38     libucrt:libm_error.obj
 0003:00003a44       $pdata$_handle_error       000000018006da44     libucrt:libm_error.obj
 0003:00003a50       $pdata$__acrt_initialize_fma3 000000018006da50     libucrt:fma3_available.obj
 0003:00003a5c       $pdata$_log10_special      000000018006da5c     libucrt:log_special.obj
 0003:00003a68       $pdata$_log_special_common 000000018006da68     libucrt:log_special.obj
 0003:00003a74       $pdata$_raise_exc          000000018006da74     libucrt:fpexcept.obj
 0003:00003a80       $pdata$_raise_exc_ex       000000018006da80     libucrt:fpexcept.obj
 0003:00003a8c       $pdata$_set_errno_from_matherr 000000018006da8c     libucrt:fpexcept.obj
 0003:00003a98       $pdata$_clrfp              000000018006da98     libucrt:fpctrl.obj
 0003:00003aa4       $pdata$_ctrlfp             000000018006daa4     libucrt:fpctrl.obj
 0003:00003ab0       $pdata$_set_statfp         000000018006dab0     libucrt:fpctrl.obj
 0003:00003abc       $pdata$_statfp             000000018006dabc     libucrt:fpctrl.obj
 0003:00003ac8       $pdata$__GSHandlerCheck    000000018006dac8     LIBCMT:_gshandler_.obj
 0003:00003ad4       $pdata$__GSHandlerCheckCommon 000000018006dad4     LIBCMT:_gshandler_.obj
 0003:00003aec       $pdata$_IsNonwritableInCurrentImage 000000018006daec     LIBCMT:pesect.obj
 0003:00003af8       $pdata$__raise_securityfailure 000000018006daf8     LIBCMT:gs_report.obj
 0003:00003b04       $pdata$__report_gsfailure  000000018006db04     LIBCMT:gs_report.obj
 0003:00003b10       $pdata$__report_rangecheckfailure 000000018006db10     LIBCMT:gs_report.obj
 0003:00003b1c       $pdata$__report_securityfailure 000000018006db1c     LIBCMT:gs_report.obj
 0003:00003b28       $pdata$capture_current_context 000000018006db28     LIBCMT:gs_report.obj
 0003:00003b34       $pdata$capture_previous_context 000000018006db34     LIBCMT:gs_report.obj
 0003:00003b40       $pdata$__GSHandlerCheck_SEH 000000018006db40     LIBCMT:_gshandlerseh_.obj
 0003:00003b58       $pdata$?fin$0@?0??dllmain_crt_process_attach@@YAHQEAUHINSTANCE__@@QEAX@Z@4HA 000000018006db58     LIBCMT:dll_dllmain.obj
 0003:00003b64       $pdata$?fin$0@?0??dllmain_crt_process_detach@@YAH_N@Z@4HA 000000018006db64     LIBCMT:dll_dllmain.obj
 0003:00003b70       $pdata$?filt$0@?0??dllmain_dispatch@@YAHQEAUHINSTANCE__@@KQEAX@Z@4HA 000000018006db70     LIBCMT:dll_dllmain.obj
 0003:00003b7c       $pdata$__scrt_is_nonwritable_in_current_image$filt$0 000000018006db7c     LIBCMT:utility.obj
 0003:00003b88       $pdata$?fin$0@?0???$common_fsopen@_W@@YAPEAU_iobuf@@QEB_W0H@Z@4HA 000000018006db88     libucrt:fopen.obj
 0003:00003b94       $pdata$?fin$0@?0???$common_freopen@_W@@YAHQEAPEAU_iobuf@@QEB_W1V__crt_stdio_stream@@H@Z@4HA 000000018006db94     libucrt:freopen.obj
 0003:00003b94       $pdata$?fin$0@?0???$common_fdopen@_W@@YAPEAU_iobuf@@HQEB_W@Z@4HA 000000018006db94     libucrt:fdopen.obj
 0003:00003ba0       $pdata$fread_s$fin$0       000000018006dba0     libucrt:fread.obj
 0003:00003bac       $pdata$fgetc$fin$0         000000018006dbac     libucrt:fgetc.obj
 0003:00003bb8       $pdata$ungetc$fin$0        000000018006dbb8     libucrt:ungetc.obj
 0003:00003bc4       $pdata$?fin$0@?0???$common_popen@_W@@YAPEAU_iobuf@@QEB_W0@Z@4HA 000000018006dbc4     libucrt:popen.obj
 0003:00003bd0       $pdata$_pclose$fin$0       000000018006dbd0     libucrt:popen.obj
 0003:00003bdc       $pdata$common_flush_all$fin$0 000000018006dbdc     libucrt:fflush.obj
 0003:00003be8       $pdata$common_flush_all$fin$1 000000018006dbe8     libucrt:fflush.obj
 0003:00003bf4       $pdata$clearerr_s$fin$0    000000018006dbf4     libucrt:clearerr.obj
 0003:00003bf4       $pdata$rewind$fin$0        000000018006dbf4     libucrt:rewind.obj
 0003:00003bf4       $pdata$fclose$fin$0        000000018006dbf4     libucrt:fclose.obj
 0003:00003bf4       $pdata$fflush$fin$0        000000018006dbf4     libucrt:fflush.obj
 0003:00003c00       $pdata$?fin$0@?0???$common_fgets@D@@YAPEADQEADHV__crt_stdio_stream@@@Z@4HA 000000018006dc00     libucrt:fgets.obj
 0003:00003c0c       $pdata$?fin$0@?0???$common_ftell@J@@YAJV__crt_stdio_stream@@@Z@4HA 000000018006dc0c     libucrt:ftell.obj
 0003:00003c0c       $pdata$?fin$0@?0??common_fseek@@YAHV__crt_stdio_stream@@_JH@Z@4HA 000000018006dc0c     libucrt:fseek.obj
 0003:00003c18       $pdata$?fin$0@?0??common_tmpfile@@YAHQEAPEAU_iobuf@@H@Z@4HA 000000018006dc18     libucrt:tmpfile.obj
 0003:00003c24       $pdata$?fin$0@?0??common_tmpfile_nolock@@YAHQEAPEAU_iobuf@@H@Z@4HA 000000018006dc24     libucrt:tmpfile.obj
 0003:00003c30       $pdata$?fin$0@?0???$?RV<lambda_aa279a7bcb127014629d5b1d62c7325d>@@AEAV<lambda_0a64b6a4deda75c01876f29c44fc5eb3>@@V<lambda_3323e69fbefe9d1a11713e670d47cdfa>@@@?$__crt_seh_guarded_call@H@@QEAAH$$QEAV<lambda_aa279a7bcb127014629d5b1d62c7325d>@@AEAV<lambda_0a64b6a4deda75c01876f29c44fc5eb3>@@$$QEAV<lambda_3323e69fbefe9d1a11713e670d47cdfa>@@@Z@4HA 000000018006dc30     libucrt:output.obj
 0003:00003c30       $pdata$?fin$0@?0???$?RV<lambda_5d4c3fee44080f75d5d9762853974fe0>@@AEAV<lambda_532e024f4337e6fc7ad266c2bef9f4ed>@@V<lambda_c87bdc10097eb2402edb8ba9bdf0697b>@@@?$__crt_seh_guarded_call@_K@@QEAA_K$$QEAV<lambda_5d4c3fee44080f75d5d9762853974fe0>@@AEAV<lambda_532e024f4337e6fc7ad266c2bef9f4ed>@@$$QEAV<lambda_c87bdc10097eb2402edb8ba9bdf0697b>@@@Z@4HA 000000018006dc30     libucrt:fwrite.obj
 0003:00003c30       $pdata$?fin$0@?0???$?RV<lambda_7a5ef57ff966f610505f1d28a3d40618>@@AEAV<lambda_b721fa326cdb32351d23dfa67958c160>@@V<lambda_5e0fb27672408a07956fe59e48ccb2aa>@@@?$__crt_seh_guarded_call@H@@QEAAH$$QEAV<lambda_7a5ef57ff966f610505f1d28a3d40618>@@AEAV<lambda_b721fa326cdb32351d23dfa67958c160>@@$$QEAV<lambda_5e0fb27672408a07956fe59e48ccb2aa>@@@Z@4HA 000000018006dc30     libucrt:setvbuf.obj
 0003:00003c30       $pdata$?fin$0@?0???$?RV<lambda_c01e8233c1997d6cc4b8f1fd672e07e5>@@AEAV<lambda_3a6204444a8bad05601fdaf7664f6f17>@@V<lambda_b6ae1896c9cebd71befa8310523e5efb>@@@?$__crt_seh_guarded_call@H@@QEAAH$$QEAV<lambda_c01e8233c1997d6cc4b8f1fd672e07e5>@@AEAV<lambda_3a6204444a8bad05601fdaf7664f6f17>@@$$QEAV<lambda_b6ae1896c9cebd71befa8310523e5efb>@@@Z@4HA 000000018006dc30     libucrt:input.obj
 0003:00003c3c       $pdata$?fin$0@?0???$common_dupenv_s@_W@@YAHQEAPEA_WQEA_KQEB_WHQEBDH@Z@4HA 000000018006dc3c     libucrt:getenv.obj
 0003:00003c48       $pdata$?fin$0@?0???$common_getenv@_W@@YAPEA_WQEB_W@Z@4HA 000000018006dc48     libucrt:getenv.obj
 0003:00003c54       $pdata$?filt$0@?0??common_exit@@YAXHW4_crt_exit_cleanup_mode@@W4_crt_exit_return_mode@@@Z@4HA 000000018006dc54     libucrt:exit.obj
 0003:00003c60       $pdata$?fin$1@?0??common_exit@@YAXHW4_crt_exit_cleanup_mode@@W4_crt_exit_return_mode@@@Z@4HA 000000018006dc60     libucrt:exit.obj
 0003:00003c6c       $pdata$?fin$0@?0???$?RV<lambda_e24bbb7b643b32fcea6fa61b31d4c984>@@AEAV<lambda_275893d493268fdec8709772e3fcec0e>@@V<lambda_9d71df4d7cf3f480f8d633942495c3b0>@@@?$__crt_seh_guarded_call@H@@QEAAH$$QEAV<lambda_e24bbb7b643b32fcea6fa61b31d4c984>@@AEAV<lambda_275893d493268fdec8709772e3fcec0e>@@$$QEAV<lambda_9d71df4d7cf3f480f8d633942495c3b0>@@@Z@4HA 000000018006dc6c     libucrt:onexit.obj
 0003:00003c78       $pdata$__acrt_lowio_ensure_fh_exists$fin$0 000000018006dc78     libucrt:osfinfo.obj
 0003:00003c78       $pdata$_alloc_osfhnd$fin$0 000000018006dc78     libucrt:osfinfo.obj
 0003:00003c78       $pdata$__acrt_initialize_lowio$fin$0 000000018006dc78     libucrt:ioinit.obj
 0003:00003c84       $pdata$_fcloseall$fin$0    000000018006dc84     libucrt:closeall.obj
 0003:00003c84       $pdata$?fin$0@?0??__acrt_stdio_allocate_stream@@YA?AV__crt_stdio_stream@@XZ@4HA 000000018006dc84     libucrt:stream.obj
 0003:00003c90       $pdata$?fin$0@?0???$common_lseek@J@@YAJHJH@Z@4HA 000000018006dc90     libucrt:lseek.obj
 0003:00003c90       $pdata$_read$fin$0         000000018006dc90     libucrt:read.obj
 0003:00003c90       $pdata$_write$fin$0        000000018006dc90     libucrt:write.obj
 0003:00003c90       $pdata$?fin$0@?0???$common_lseek@_J@@YA_JH_JH@Z@4HA 000000018006dc90     libucrt:lseek.obj
 0003:00003c9c       $pdata$_pipe$fin$1         000000018006dc9c     libucrt:pipe.obj
 0003:00003ca8       $pdata$_pipe$fin$0         000000018006dca8     libucrt:pipe.obj
 0003:00003cb4       $pdata$?fin$0@?0???$?RV<lambda_bfedae4ebbf01fab1bb6dcc6a9e276e0>@@AEAV<lambda_2fe9b910cf3cbf4a0ab98a02ba45b3ec>@@V<lambda_237c231691f317818eb88cc1d5d642d6>@@@?$__crt_seh_guarded_call@H@@QEAAH$$QEAV<lambda_bfedae4ebbf01fab1bb6dcc6a9e276e0>@@AEAV<lambda_2fe9b910cf3cbf4a0ab98a02ba45b3ec>@@$$QEAV<lambda_237c231691f317818eb88cc1d5d642d6>@@@Z@4HA 000000018006dcb4     libucrt:close.obj
 0003:00003cb4       $pdata$?fin$0@?0???$?RV<lambda_b521505b218e5242e90febf6bfebc422>@@AEAV<lambda_6978c1fb23f02e42e1d9e99668cc68aa>@@V<lambda_314360699dd331753a4119843814e9a7>@@@?$__crt_seh_guarded_call@H@@QEAAH$$QEAV<lambda_b521505b218e5242e90febf6bfebc422>@@AEAV<lambda_6978c1fb23f02e42e1d9e99668cc68aa>@@$$QEAV<lambda_314360699dd331753a4119843814e9a7>@@@Z@4HA 000000018006dcb4     libucrt:commit.obj
 0003:00003cc0       $pdata$?fin$0@?0???$common_sopen_dispatch@D@@YAHQEBDHHHQEAHH@Z@4HA 000000018006dcc0     libucrt:open.obj
 0003:00003cc0       $pdata$?fin$0@?0???$common_sopen_dispatch@_W@@YAHQEB_WHHHQEAHH@Z@4HA 000000018006dcc0     libucrt:open.obj
 0003:00003ccc       $pdata$_rmtmp$fin$0        000000018006dccc     libucrt:rmtmp.obj
 0003:00003cd8       $pdata$_rmtmp$fin$1        000000018006dcd8     libucrt:rmtmp.obj
 0003:00003ce4       $pdata$?fin$0@?0???$?RV<lambda_fb01e4b6cb0b58be62120d2a518119ce>@@AEAV<lambda_45edfab556fcff821d8a41c06e3d46c0>@@V<lambda_8a9bf702b7f902ca2f9107a173e0fbe3>@@@?$__crt_seh_guarded_call@_N@@QEAA_N$$QEAV<lambda_fb01e4b6cb0b58be62120d2a518119ce>@@AEAV<lambda_45edfab556fcff821d8a41c06e3d46c0>@@$$QEAV<lambda_8a9bf702b7f902ca2f9107a173e0fbe3>@@@Z@4HA 000000018006dce4     libucrt:spawnv.obj
 0003:00003ce4       $pdata$?fin$0@?0???$?RV<lambda_c36588078e9f5dfd39652860aa6b3aaf>@@AEAV<lambda_ec61778202f4f5fc7e7711acc23c3bca>@@V<lambda_dc9d2797ccde5d239b4a0efae8ebd7db>@@@?$__crt_seh_guarded_call@P6AXH@Z@@QEAAP6AXH@Z$$QEAV<lambda_c36588078e9f5dfd39652860aa6b3aaf>@@AEAV<lambda_ec61778202f4f5fc7e7711acc23c3bca>@@$$QEAV<lambda_dc9d2797ccde5d239b4a0efae8ebd7db>@@@Z@4HA 000000018006dce4     libucrt:signal.obj
 0003:00003ce4       $pdata$?fin$0@?0???$?RV<lambda_b8c45f8f788dd370798f47cfe8ac3a86>@@AEAV<lambda_4e60a939b0d047cfe11ddc22648dfba9>@@V<lambda_332c3edc96d0294ec56c57d38c1cdfd5>@@@?$__crt_seh_guarded_call@H@@QEAAH$$QEAV<lambda_b8c45f8f788dd370798f47cfe8ac3a86>@@AEAV<lambda_4e60a939b0d047cfe11ddc22648dfba9>@@$$QEAV<lambda_332c3edc96d0294ec56c57d38c1cdfd5>@@@Z@4HA 000000018006dce4     libucrt:onexit.obj
 0003:00003ce4       $pdata$?fin$0@?0???$?RV<lambda_fb3a7dec4e47f37f22dae91bb15c9095>@@AEAV<lambda_698284760c8add0bfb0756c19673e34b>@@V<lambda_dfb8eca1e75fef3034a8fb18dd509707>@@@?$__crt_seh_guarded_call@X@@QEAAX$$QEAV<lambda_fb3a7dec4e47f37f22dae91bb15c9095>@@AEAV<lambda_698284760c8add0bfb0756c19673e34b>@@$$QEAV<lambda_dfb8eca1e75fef3034a8fb18dd509707>@@@Z@4HA 000000018006dce4     libucrt:per_thread_data.obj
 0003:00003ce4       $pdata$?fin$0@?0???$?RV<lambda_99476a1ad63dd22509b5d3e65b0ffc95>@@AEAV<lambda_ad1ced32f4ac17aa236e5ef05d6b3b7c>@@V<lambda_f7424dd8d45958661754dc4f2697e9c3>@@@?$__crt_seh_guarded_call@X@@QEAAX$$QEAV<lambda_99476a1ad63dd22509b5d3e65b0ffc95>@@AEAV<lambda_ad1ced32f4ac17aa236e5ef05d6b3b7c>@@$$QEAV<lambda_f7424dd8d45958661754dc4f2697e9c3>@@@Z@4HA 000000018006dce4     libucrt:mbctype.obj
 0003:00003ce4       $pdata$?fin$0@?0???$?RV<lambda_46352004c1216016012b18bd6f87e700>@@AEAV<lambda_3bd07e1a1191394380780325891bf33f>@@V<lambda_334532d3f185bcaa59b5be82d7d22bff>@@@?$__crt_seh_guarded_call@X@@QEAAX$$QEAV<lambda_46352004c1216016012b18bd6f87e700>@@AEAV<lambda_3bd07e1a1191394380780325891bf33f>@@$$QEAV<lambda_334532d3f185bcaa59b5be82d7d22bff>@@@Z@4HA 000000018006dce4     libucrt:per_thread_data.obj
 0003:00003ce4       $pdata$?fin$0@?0???$?RV<lambda_5e887d1dcbef67a5eb4283622ba103bf>@@AEAV<lambda_4466841279450cc726390878d4a41900>@@V<lambda_341c25c0346d94847f1f3c463c57e077>@@@?$__crt_seh_guarded_call@X@@QEAAX$$QEAV<lambda_5e887d1dcbef67a5eb4283622ba103bf>@@AEAV<lambda_4466841279450cc726390878d4a41900>@@$$QEAV<lambda_341c25c0346d94847f1f3c463c57e077>@@@Z@4HA 000000018006dce4     libucrt:per_thread_data.obj
 0003:00003ce4       $pdata$?fin$0@?0???$?RV<lambda_72d1df2b273a38828b1ce30cbf4cdab5>@@AEAV<lambda_876a65b173b8412d3a47c70a915b0cf4>@@V<lambda_41932305e351933ebe8f8be3ed8bb5dc>@@@?$__crt_seh_guarded_call@X@@QEAAX$$QEAV<lambda_72d1df2b273a38828b1ce30cbf4cdab5>@@AEAV<lambda_876a65b173b8412d3a47c70a915b0cf4>@@$$QEAV<lambda_41932305e351933ebe8f8be3ed8bb5dc>@@@Z@4HA 000000018006dce4     libucrt:per_thread_data.obj
 0003:00003cf0       $pdata$__acrt_update_thread_multibyte_data$fin$0 000000018006dcf0     libucrt:mbctype.obj
 0003:00003cfc       $pdata$_query_new_handler$fin$0 000000018006dcfc     libucrt:new_handler.obj
 0003:00003d08       $pdata$raise$fin$0         000000018006dd08     libucrt:signal.obj
 0003:00003d14       $pdata$__acrt_update_thread_locale_data$fin$0 000000018006dd14     libucrt:locale_refcounting.obj
 0003:00003d14       $pdata$__acrt_uninitialize_locale$fin$0 000000018006dd14     libucrt:wsetlocale.obj
 0003:00003d20       $pdata$common_control87$filt$0 000000018006dd20     libucrt:ieee.obj
 0003:00003d20       $pdata$_ctrlfp$filt$0      000000018006dd20     libucrt:fpctrl.obj
 0003:00003d2c       $pdata$_IsNonwritableInCurrentImage$filt$0 000000018006dd2c     LIBCMT:pesect.obj
 0004:00001128       .idata$6                   000000018006f128     kernel32:KERNEL32.dll
 0004:000011ce       .idata$6                   000000018006f1ce     advapi32:ADVAPI32.dll
 0004:00001200       .idata$6                   000000018006f200     shell32:SHELL32.dll
 0004:00001798       .idata$6                   000000018006f798     lua51:lua51.dll
 0004:000017e4       .idata$6                   000000018006f7e4     rpcrt4:RPCRT4.dll
 0005:00000000       __guard_fids__             0000000180070000     libucrt:initialization.obj
 0005:00000060       __guard_fids___acrt_initialize_ptd 0000000180070060     libucrt:per_thread_data.obj
 0005:00000064       __guard_fids__             0000000180070064     libucrt:stdio_initializer.obj
 0005:00000068       __guard_fids__             0000000180070068     libucrt:stdio_initializer.obj
 0005:0000006c       __guard_fids__             000000018007006c     libucrt:locale_initializer.obj
 0005:00000070       __guard_fids__             0000000180070070     libucrt:tmpfile_initializer.obj
 0005:00000074       __guard_fids__             0000000180070074     libucrt:multibyte_initializer.obj
 0005:00000078       __guard_fids__             0000000180070078     libucrt:console_output_initializer.obj
 0005:0000007c       __guard_fids__             000000018007007c     libucrt:fma3_initializer.obj
 0005:00000080       __guard_fids_?dllmain_crt_process_attach@@YAHQEAUHINSTANCE__@@QEAX@Z 0000000180070080     LIBCMT:dll_dllmain.obj
 0005:00000088       __guard_fids_?dllmain_dispatch@@YAHQEAUHINSTANCE__@@KQEAX@Z 0000000180070088     LIBCMT:dll_dllmain.obj
 0005:0000008c       __guard_fids__             000000018007008c     LIBCMT:guard_support.obj
 0005:00000090       __guard_fids__             0000000180070090     libvcruntime:telemetry.obj
 0005:00000094       __guard_fids_?TraceLoggingRegister@__vcrt_trace_logging_provider@@YAJPEBU_TlgProvider_t@1@PEBU_GUID@@P6AX1KE_K2PEAU_EVENT_FILTER_DESCRIPTOR@@PEAX@Z4@Z 0000000180070094     libvcruntime:telemetry.obj
 0005:00000098       __guard_fids___vcrt_initialize_ptd 0000000180070098     libvcruntime:per_thread_data.obj
 0006:00000060       $R000000                   0000000180071060     luafar3.res
