 Proclist

 Timestamp is 56ba5741 (Wed Feb 10 00:16:49 2016)

 Preferred load address is 0000000180000000

 Start         Length     Name                   Class
 0001:00000000 00000010H .00cfg                  CODE
 0001:00000010 00000008H .CRT$XCA                CODE
 0001:00000018 00000008H .CRT$XCZ                CODE
 0001:00000020 00000008H .CRT$XIA                CODE
 0001:00000028 00000018H .CRT$XIC                CODE
 0001:00000040 00000008H .CRT$XIZ                CODE
 0001:00000048 00000008H .CRT$XPA                CODE
 0001:00000050 00000010H .CRT$XPX                CODE
 0001:00000060 00000008H .CRT$XPXA               CODE
 0001:00000068 00000008H .CRT$XPZ                CODE
 0001:00000070 00000008H .CRT$XTA                CODE
 0001:00000078 00000008H .CRT$XTZ                CODE
 0001:00000080 00009224H .rdata                  CODE
 0001:000092a8 000001f4H .rdata$r                CODE
 0001:000094a0 00000010H .rdata$zETW0            CODE
 0001:000094b0 00000077H .rdata$zETW1            CODE
 0001:00009527 0000002cH .rdata$zETW2            CODE
 0001:00009553 00000001H .rdata$zETW9            CODE
 0001:00009554 0000034cH .rdata$zzzdbg           CODE
 0001:000098a0 00000008H .rtc$IAA                CODE
 0001:000098a8 00000008H .rtc$IZZ                CODE
 0001:000098b0 00000008H .rtc$TAA                CODE
 0001:000098b8 00000008H .rtc$TZZ                CODE
 0001:000098c0 000001dbH .text                   CODE
 0001:00009aa0 00016db7H .text$mn                CODE
 0001:00020860 00000012H .text$mn$00             CODE
 0001:00020880 00000260H .text$x                 CODE
 0001:00020ae0 00001544H .xdata                  CODE
 0001:00022028 000000ecH .xdata$x                CODE
 0001:00022120 00000192H .edata                  CODE
 0002:00000000 00000ba0H .data                   DATA
 0002:00000ba0 000000a0H .data$r                 DATA
 0002:00000c40 00026b58H .bss                    DATA
 0003:00000000 0000174cH .pdata                  DATA
 0004:00000000 00000460H .idata$5                DATA
 0004:00000460 0000008cH .idata$2                DATA
 0004:000004ec 00000014H .idata$3                DATA
 0004:00000500 00000460H .idata$4                DATA
 0004:00000960 000009b8H .idata$6                DATA
 0005:00000000 0000007cH .gfids$x                DATA
 0005:0000007c 00000038H .gfids$y                DATA
 0006:00000000 00000058H .rsrc$01                DATA
 0006:00000060 00000378H .rsrc$02                DATA

  Address         Publics by Value              Rva+Base               Lib:Object

 0000:00000000       __guard_iat_table          0000000000000000     <absolute>
 0000:00000000       __guard_iat_count          0000000000000000     <absolute>
 0000:00000000       __guard_longjmp_table      0000000000000000     <absolute>
 0000:00000000       __guard_longjmp_count      0000000000000000     <absolute>
 0000:00000000       __guard_fids_count         0000000000000000     <absolute>
 0000:00000000       ___safe_se_handler_table   0000000000000000     <absolute>
 0000:00000000       ___safe_se_handler_count   0000000000000000     <absolute>
 0000:00000000       __guard_fids_table         0000000000000000     <absolute>
 0000:00000100       __guard_flags              0000000000000100     <absolute>
 0000:00000000       __ImageBase                0000000180000000     <linker-defined>
 0001:00000000       __guard_check_icall_fptr   0000000180001000     LIBCMT:guard_support.obj
 0001:00000008       __guard_dispatch_icall_fptr 0000000180001008     LIBCMT:guard_support.obj
 0001:00000010       __xc_a                     0000000180001010     LIBCMT:initializers.obj
 0001:00000018       __xc_z                     0000000180001018     LIBCMT:initializers.obj
 0001:00000020       __xi_a                     0000000180001020     LIBCMT:initializers.obj
 0001:00000028       __acrt_multibyte_initializer 0000000180001028     libucrt:multibyte_initializer.obj
 0001:00000030       __acrt_stdio_initializer   0000000180001030     libucrt:stdio_initializer.obj
 0001:00000038       __acrt_tran_fma3_initializer 0000000180001038     libucrt:fma3_initializer.obj
 0001:00000040       __xi_z                     0000000180001040     LIBCMT:initializers.obj
 0001:00000048       __xp_a                     0000000180001048     LIBCMT:initializers.obj
 0001:00000050       __acrt_locale_terminator   0000000180001050     libucrt:locale_initializer.obj
 0001:00000058       __dcrt_console_output_terminator 0000000180001058     libucrt:console_output_initializer.obj
 0001:00000060       __acrt_stdio_terminator    0000000180001060     libucrt:stdio_initializer.obj
 0001:00000068       __xp_z                     0000000180001068     LIBCMT:initializers.obj
 0001:00000070       __xt_a                     0000000180001070     LIBCMT:initializers.obj
 0001:00000078       __xt_z                     0000000180001078     LIBCMT:initializers.obj
 0001:00000138       ??_C@_11LOCGONAA@?$AA?$AA@ 0000000180001138     handles.obj
 0001:00000140       ??_C@_1BE@DNDHOCGP@?$AAD?$AAi?$AAr?$AAe?$AAc?$AAt?$AAo?$AAr?$AAy?$AA?$AA@ 0000000180001140     handles.obj
 0001:00000158       ??_C@_1BK@KDPOKCA@?$AAS?$AAy?$AAm?$AAb?$AAo?$AAl?$AAi?$AAc?$AAL?$AAi?$AAn?$AAk?$AA?$AA@ 0000000180001158     handles.obj
 0001:00000178       ??_C@_1M@JFPKKFCK@?$AAT?$AAo?$AAk?$AAe?$AAn?$AA?$AA@ 0000000180001178     handles.obj
 0001:00000188       ??_C@_1BA@NMDNJJOO@?$AAP?$AAr?$AAo?$AAc?$AAe?$AAs?$AAs?$AA?$AA@ 0000000180001188     handles.obj
 0001:00000198       ??_C@_1O@CDOGJPJJ@?$AAT?$AAh?$AAr?$AAe?$AAa?$AAd?$AA?$AA@ 0000000180001198     handles.obj
 0001:000001a8       ??_C@_1M@JJBFPLJB@?$AAE?$AAv?$AAe?$AAn?$AAt?$AA?$AA@ 00000001800011a8     handles.obj
 0001:000001b8       ??_C@_1BE@EBMGBMON@?$AAE?$AAv?$AAe?$AAn?$AAt?$AAP?$AAa?$AAi?$AAr?$AA?$AA@ 00000001800011b8     handles.obj
 0001:000001d0       ??_C@_1O@FBKOCLFA@?$AAM?$AAu?$AAt?$AAa?$AAn?$AAt?$AA?$AA@ 00000001800011d0     handles.obj
 0001:000001e0       ??_C@_1BE@NPGPGCB@?$AAS?$AAe?$AAm?$AAa?$AAp?$AAh?$AAo?$AAr?$AAe?$AA?$AA@ 00000001800011e0     handles.obj
 0001:000001f8       ??_C@_1M@EEEEDEMN@?$AAT?$AAi?$AAm?$AAe?$AAr?$AA?$AA@ 00000001800011f8     handles.obj
 0001:00000208       ??_C@_1BA@OKEJPPOI@?$AAP?$AAr?$AAo?$AAf?$AAi?$AAl?$AAe?$AA?$AA@ 0000000180001208     handles.obj
 0001:00000218       ??_C@_1BM@JIPCCEDL@?$AAW?$AAi?$AAn?$AAd?$AAo?$AAw?$AAS?$AAt?$AAa?$AAt?$AAi?$AAo?$AAn?$AA?$AA@ 0000000180001218     handles.obj
 0001:00000238       ??_C@_1BA@CBCBMBGJ@?$AAD?$AAe?$AAs?$AAk?$AAt?$AAo?$AAp?$AA?$AA@ 0000000180001238     handles.obj
 0001:00000248       ??_C@_1BA@LHDKDEEN@?$AAS?$AAe?$AAc?$AAt?$AAi?$AAo?$AAn?$AA?$AA@ 0000000180001248     handles.obj
 0001:00000258       ??_C@_17KACEIPNC@?$AAK?$AAe?$AAy?$AA?$AA@ 0000000180001258     handles.obj
 0001:00000260       ??_C@_19OBNDINH@?$AAP?$AAo?$AAr?$AAt?$AA?$AA@ 0000000180001260     handles.obj
 0001:00000270       ??_C@_1BK@GACLFIOK@?$AAW?$AAa?$AAi?$AAt?$AAa?$AAb?$AAl?$AAe?$AAP?$AAo?$AAr?$AAt?$AA?$AA@ 0000000180001270     handles.obj
 0001:00000290       ??_C@_17EKANHMLE@?$AAJ?$AAo?$AAb?$AA?$AA@ 0000000180001290     handles.obj
 0001:00000298       ??_C@_1BK@HCMNLOAL@?$AAI?$AAo?$AAC?$AAo?$AAm?$AAp?$AAl?$AAe?$AAt?$AAi?$AAo?$AAn?$AA?$AA@ 0000000180001298     handles.obj
 0001:000002b8       ??_C@_19DDLLJDOO@?$AAF?$AAi?$AAl?$AAe?$AA?$AA@ 00000001800012b8     handles.obj
 0001:000002c8       ??_C@_1BA@KLFBJALL@?$AAW?$AAm?$AAi?$AAG?$AAu?$AAi?$AAd?$AA?$AA@ 00000001800012c8     handles.obj
 0001:000002d8       ??_C@_17CNPHIMPH@?$AA?$CF?$AAl?$AAs?$AA?$AA@ 00000001800012d8     handles.obj
 0001:000002e0       ??_C@_1BE@ELICABCK@?$AA?$DM?$AAu?$AAn?$AAk?$AAn?$AAo?$AAw?$AAn?$AA?$DO?$AA?$AA@ 00000001800012e0     handles.obj
 0001:000002f8       ??_C@_1BA@FDFONNEJ@?$AA?$CF?$AAs?$AA?5?$AA?$CI?$AA?$CF?$AAd?$AA?$CJ?$AA?$AA@ 00000001800012f8     handles.obj
 0001:00000308       ??_C@_1BA@LGCEDAAB@?$AAT?$AAI?$AAD?$AA?3?$AA?5?$AA?$CF?$AAd?$AA?$AA@ 0000000180001308     handles.obj
 0001:00000318       ??_C@_1BG@OKCBELMP@?$AA?2?$AAR?$AAE?$AAG?$AAI?$AAS?$AAT?$AAR?$AAY?$AA?2?$AA?$AA@ 0000000180001318     handles.obj
 0001:00000330       ??_C@_19KGHAHCFG@?$AAU?$AAS?$AAE?$AAR?$AA?$AA@ 0000000180001330     handles.obj
 0001:00000340       ??_C@_19JAPAIJDE@?$AAH?$AAK?$AAC?$AAU?$AA?$AA@ 0000000180001340     handles.obj
 0001:00000350       ??_C@_1BC@PGMOPNLK@?$AA_?$AAC?$AAl?$AAa?$AAs?$AAs?$AAe?$AAs?$AA?$AA@ 0000000180001350     handles.obj
 0001:00000368       ??_C@_1BK@OEABCBLA@?$AAH?$AAK?$AAC?$AAU?$AA?2?$AAC?$AAl?$AAa?$AAs?$AAs?$AAe?$AAs?$AA?$AA@ 0000000180001368     handles.obj
 0001:00000388       ??_C@_17PJOJPMPB@?$AAH?$AAK?$AAU?$AA?$AA@ 0000000180001388     handles.obj
 0001:00000390       ??_C@_1DC@OIDKFHBF@?$AAM?$AAA?$AAC?$AAH?$AAI?$AAN?$AAE?$AA?2?$AAS?$AAO?$AAF?$AAT?$AAW?$AAA?$AAR?$AAE?$AA?2?$AAC?$AAL?$AAA?$AAS?$AAS?$AAE?$AAS?$AA?$AA@ 0000000180001390     handles.obj
 0001:000003c8       ??_C@_19NCHLBIN@?$AAH?$AAK?$AAC?$AAR?$AA?$AA@ 00000001800013c8     handles.obj
 0001:000003d8       ??_C@_1BA@INBMCOAP@?$AAM?$AAA?$AAC?$AAH?$AAI?$AAN?$AAE?$AA?$AA@ 00000001800013d8     handles.obj
 0001:000003e8       ??_C@_19PEALEEJB@?$AAH?$AAK?$AAL?$AAM?$AA?$AA@ 00000001800013e8     handles.obj
 0001:000003f4       ??_C@_15GANGMFKL@?$AA?$CF?$AAs?$AA?$AA@ 00000001800013f4     handles.obj
 0001:00000400       ??_C@_1O@EAOKCHFC@?$AA?$CF?$AA?9?$AA1?$AA3?$AAs?$AA?5?$AA?$AA@ 0000000180001400     handles.obj
 0001:00000410       ??_C@_1O@HAOIKAHJ@?$AA?$CF?$AAs?$AA?6?$AA?$CF?$AAs?$AA?6?$AA?$AA@ 0000000180001410     handles.obj
 0001:00000420       ??_C@_1BG@OCPCMCEA@?$AA?$CF?$AA5?$AAX?$AA?5?$AA?5?$AA?$CF?$AA0?$AA8?$AAX?$AA?5?$AA?$AA@ 0000000180001420     handles.obj
 0001:00000438       ??_C@_1BA@IGEMANKH@?$AA?2?$AAS?$AA?9?$AA?$CF?$AAl?$AAu?$AA?9?$AA?$AA@ 0000000180001438     handles.obj
 0001:00000450       ??_C@_1EC@MPDKEHCN@?$AA0?$AAx?$AA?$CF?$AA0?$AA2?$AAh?$AAx?$AA?$CF?$AA0?$AA2?$AAh?$AAx?$AA?$CF?$AA0?$AA2?$AAh?$AAx?$AA?$CF?$AA0?$AA2?$AAh?$AAx?$AA?$CF?$AA0?$AA2?$AAh?$AAx?$AA?$CF?$AA0?$AA2?$AAh?$AAx@ 0000000180001450     handles.obj
 0001:00000498       ??_C@_17IJMNDCL@?$AA?$CF?$AAl?$AAu?$AA?$AA@ 0000000180001498     handles.obj
 0001:000004a0       ??_C@_19DEJHOMFE@?$AA?9?$AA?$CF?$AAl?$AAu?$AA?$AA@ 00000001800014a0     handles.obj
 0001:000004b0       ??_7?$DialogItemBinding@UFarDialogItem@@@@6B@ 00000001800014b0     PCFG.OBJ
 0001:000004c0       ??_7PluginCheckBoxBinding@@6B@ 00000001800014c0     PCFG.OBJ
 0001:000004d0       ??_7PluginRadioButtonBinding@@6B@ 00000001800014d0     PCFG.OBJ
 0001:000004e0       ??_7PluginIntEditFieldBinding@@6B@ 00000001800014e0     PCFG.OBJ
 0001:000004f0       ??_C@_15EFLNJKHH@?$AA?$CF?$AAu?$AA?$AA@ 00000001800014f0     PCFG.OBJ
 0001:000004f8       ??_7PluginUIntEditFieldBinding@@6B@ 00000001800014f8     PCFG.OBJ
 0001:00000508       ??_7?$DialogBuilderBase@UFarDialogItem@@@@6B@ 0000000180001508     PCFG.OBJ
 0001:00000550       ??_7PluginDialogBuilder@@6B@ 0000000180001550     PCFG.OBJ
 0001:00000598       ??_C@_1O@BJPKKLLM@?$AAC?$AAo?$AAn?$AAf?$AAi?$AAg?$AA?$AA@ 0000000180001598     PCFG.OBJ
 0001:000005a8       ??_C@_1BO@NGDOFANC@?$AAA?$AAd?$AAd?$AAT?$AAo?$AAD?$AAi?$AAs?$AAk?$AAs?$AAM?$AAe?$AAn?$AAu?$AA?$AA@ 00000001800015a8     PCFG.OBJ
 0001:000005c8       ??_C@_1CC@PNNAOHJC@?$AAA?$AAd?$AAd?$AAT?$AAo?$AAP?$AAl?$AAu?$AAg?$AAi?$AAn?$AAs?$AAM?$AAe?$AAn?$AAu?$AA?$AA@ 00000001800015c8     PCFG.OBJ
 0001:000005f0       ??_C@_1CE@JIPJNDMD@?$AAE?$AAx?$AAp?$AAo?$AAr?$AAt?$AAE?$AAn?$AAv?$AAi?$AAr?$AAo?$AAn?$AAm?$AAe?$AAn?$AAt?$AA?$AA@ 00000001800015f0     PCFG.OBJ
 0001:00000618       ??_C@_1CC@OABICAMP@?$AAE?$AAx?$AAp?$AAo?$AAr?$AAt?$AAM?$AAo?$AAd?$AAu?$AAl?$AAe?$AAI?$AAn?$AAf?$AAo?$AA?$AA@ 0000000180001618     PCFG.OBJ
 0001:00000640       ??_C@_1CI@OFLGHPDG@?$AAE?$AAx?$AAp?$AAo?$AAr?$AAt?$AAM?$AAo?$AAd?$AAu?$AAl?$AAe?$AAV?$AAe?$AAr?$AAs?$AAi?$AAo?$AAn?$AA?$AA@ 0000000180001640     PCFG.OBJ
 0001:00000668       ??_C@_1CE@GNMOKOAL@?$AAE?$AAx?$AAp?$AAo?$AAr?$AAt?$AAP?$AAe?$AAr?$AAf?$AAo?$AAr?$AAm?$AAa?$AAn?$AAc?$AAe?$AA?$AA@ 0000000180001668     PCFG.OBJ
 0001:00000690       ??_C@_1BM@KMCHODLM@?$AAE?$AAx?$AAp?$AAo?$AAr?$AAt?$AAH?$AAa?$AAn?$AAd?$AAl?$AAe?$AAs?$AA?$AA@ 0000000180001690     PCFG.OBJ
 0001:000006b0       ??_C@_1CK@CLFOOHFA@?$AAE?$AAx?$AAp?$AAo?$AAr?$AAt?$AAH?$AAa?$AAn?$AAd?$AAl?$AAe?$AAs?$AAU?$AAn?$AAn?$AAa?$AAm?$AAe?$AAd?$AA?$AA@ 00000001800016b0     PCFG.OBJ
 0001:000006e0       ??_C@_1BE@PKILIDFH@?$AAE?$AAn?$AAa?$AAb?$AAl?$AAe?$AAW?$AAM?$AAI?$AA?$AA@ 00000001800016e0     PCFG.OBJ
 0001:00000700       __xmm@ffffffffffffffff0000000000000002 0000000180001700     PCFG.OBJ
 0001:00000710       __xmm@ffffffffffffffffffffffffffffffff 0000000180001710     PCFG.OBJ
 0001:00000720       ??_7PluginEditFieldBinding@@6B@ 0000000180001720     Pclass.obj
 0001:00000730       ??_C@_13JCKOPPNP@?$AAK?$AA?$AA@ 0000000180001730     Pclass.obj
 0001:00000734       ??_C@_13LHMFKAAD@?$AAM?$AA?$AA@ 0000000180001734     Pclass.obj
 0001:00000738       ??_C@_1BC@IALIJCAM@?$AAS?$AAo?$AAr?$AAt?$AAM?$AAo?$AAd?$AAe?$AA?$AA@ 0000000180001738     Pclass.obj
 0001:00000750       ??_C@_1BO@OMKAPLPJ@?$AAS?$AAt?$AAa?$AAr?$AAt?$AAP?$AAa?$AAn?$AAe?$AAl?$AAM?$AAo?$AAd?$AAe?$AA?$AA@ 0000000180001750     Pclass.obj
 0001:00000830       ??_C@_1CM@OLKFIHMK@?$AAN?$AA?0?$AAX?$AA1?$AA5?$AAT?$AA?0?$AAX?$AA1?$AA6?$AAT?$AA?0?$AAX?$AA1?$AA7?$AAT?$AA?0?$AAX?$AA1?$AA8?$AAS?$AA?$AA@ 0000000180001830     Pclass.obj
 0001:00000860       ??_C@_1BG@MNPGDOEP@?$AA1?$AA2?$AA?0?$AA0?$AA?0?$AA0?$AA?0?$AA0?$AA?0?$AA4?$AA?$AA@ 0000000180001860     Pclass.obj
 0001:00000878       ??_C@_1BO@ONCLJEFA@?$AAN?$AA?0?$AAX?$AAI?$AA?0?$AAX?$AAP?$AA?0?$AAX?$AA0?$AAS?$AA?0?$AAX?$AA6?$AA?$AA@ 0000000180001878     Pclass.obj
 0001:00000898       ??_C@_1BE@NCGLNDMK@?$AA0?$AA?0?$AA4?$AA?0?$AA2?$AA?0?$AA3?$AA?0?$AA9?$AA?$AA@ 0000000180001898     Pclass.obj
 0001:000008b0       ??_C@_17KNGPBKAK@?$AAN?$AA?0?$AAN?$AA?$AA@ 00000001800018b0     Pclass.obj
 0001:000008b8       ??_C@_17JPFFEOAH@?$AA0?$AA?0?$AA0?$AA?$AA@ 00000001800018b8     Pclass.obj
 0001:000008c0       ??_C@_1BI@FAMBFJKE@?$AAN?$AA?0?$AAX?$AAI?$AA?0?$AAX?$AAC?$AA?0?$AAD?$AA?0?$AAT?$AA?$AA@ 00000001800018c0     Pclass.obj
 0001:000008d8       ??_C@_1BE@MONBDOED@?$AA0?$AA?0?$AA4?$AA?0?$AA4?$AA?0?$AA0?$AA?0?$AA0?$AA?$AA@ 00000001800018d8     Pclass.obj
 0001:000008f0       ??_C@_1BG@MICALLFD@?$AAN?$AA?0?$AAX?$AAI?$AA?0?$AAX?$AA4?$AA?0?$AAX?$AA6?$AA?$AA@ 00000001800018f0     Pclass.obj
 0001:00000908       ??_C@_1BA@CAEMMMKJ@?$AA0?$AA?0?$AA4?$AA?0?$AA9?$AA?0?$AA9?$AA?$AA@ 0000000180001908     Pclass.obj
 0001:00000918       ??_C@_1DI@NKOPFHII@?$AAN?$AA?0?$AAX?$AAI?$AA?0?$AAX?$AA4?$AA?0?$AAX?$AA6?$AA?0?$AAX?$AA1?$AA0?$AA?0?$AAX?$AA1?$AA2?$AA?0?$AAX?$AA0?$AA?0?$AAX?$AA1?$AA?0?$AAX?$AA2?$AA?$AA@ 0000000180001918     Pclass.obj
 0001:00000950       ??_C@_1CG@HGJJIJIH@?$AA1?$AA2?$AA?0?$AA4?$AA?0?$AA0?$AA?0?$AA0?$AA?0?$AA0?$AA?0?$AA0?$AA?0?$AA8?$AA?0?$AA8?$AA?0?$AA8?$AA?$AA@ 0000000180001950     Pclass.obj
 0001:00000978       ??_C@_19ILLMDDHI@?$AAN?$AA?0?$AAZ?$AAD?$AA?$AA@ 0000000180001978     Pclass.obj
 0001:00000988       ??_C@_19NMOJBHGD@?$AA1?$AA2?$AA?0?$AA0?$AA?$AA@ 0000000180001988     Pclass.obj
 0001:000009a0       ??_C@_1EA@HPDEOPPH@?$AAN?$AA?0?$AAX?$AAP?$AA?0?$AAX?$AA0?$AAS?$AA?0?$AAX?$AA1?$AAS?$AA?0?$AAX?$AA2?$AAS?$AA?0?$AAX?$AA1?$AA1?$AAS?$AA?0?$AAX?$AA1?$AA4?$AAS?$AA?0?$AAX?$AA1?$AA8?$AAS?$AA?$AA@ 00000001800019a0     Pclass.obj
 0001:000009e0       ??_C@_1CA@MGMNHCLL@?$AA0?$AA?0?$AA2?$AA?0?$AA3?$AA?0?$AA2?$AA?0?$AA2?$AA?0?$AA3?$AA?0?$AA4?$AA?0?$AA3?$AA?$AA@ 00000001800019e0     Pclass.obj
 0001:00000a00       ??_C@_1O@JGFFCAGM@?$AAN?$AA?0?$AAX?$AAI?$AA?0?$AAO?$AA?$AA@ 0000000180001a00     Pclass.obj
 0001:00000a10       ??_C@_1O@LAHJLGAL@?$AA0?$AA?0?$AA5?$AA?0?$AA1?$AA5?$AA?$AA@ 0000000180001a10     Pclass.obj
 0001:00000a20       ??_C@_1CC@FANCGEGE@?$AAN?$AA?0?$AAX?$AAI?$AA?0?$AAX?$AAT?$AA?0?$AAX?$AA3?$AA?0?$AAX?$AAG?$AA?0?$AAX?$AAU?$AA?$AA@ 0000000180001a20     Pclass.obj
 0001:00000a48       ??_C@_1BI@DGDJEDOL@?$AA0?$AA?0?$AA4?$AA?0?$AA3?$AA?0?$AA4?$AA?0?$AA4?$AA?0?$AA4?$AA?$AA@ 0000000180001a48     Pclass.obj
 0001:00000b00       ??_C@_1BG@COBJEPBB@?$AAN?$AA?0?$AAX?$AAI?$AA?0?$AAX?$AAT?$AA?0?$AAX?$AA3?$AA?$AA@ 0000000180001b00     Pclass.obj
 0001:00000b18       ??_C@_1BA@EDOGAILM@?$AA0?$AA?0?$AA4?$AA?0?$AA3?$AA?0?$AA4?$AA?$AA@ 0000000180001b18     Pclass.obj
 0001:00000b28       ??_C@_1O@CBODAMOP@?$AAM?$AAo?$AAd?$AAe?$AA?$CF?$AAd?$AA?$AA@ 0000000180001b28     Pclass.obj
 0001:00000b38       ??_C@_1CA@HLBJOHGN@?$AAF?$AAu?$AAl?$AAl?$AAS?$AAc?$AAr?$AAe?$AAe?$AAn?$AAL?$AAo?$AAc?$AAa?$AAl?$AA?$AA@ 0000000180001b38     Pclass.obj
 0001:00000b58       ??_C@_1CC@EBBNDNOD@?$AAF?$AAu?$AAl?$AAl?$AAS?$AAc?$AAr?$AAe?$AAe?$AAn?$AAR?$AAe?$AAm?$AAo?$AAt?$AAe?$AA?$AA@ 0000000180001b58     Pclass.obj
 0001:00000b80       ??_C@_1BK@HMOODHKK@?$AAC?$AAo?$AAl?$AAu?$AAm?$AAn?$AAs?$AAL?$AAo?$AAc?$AAa?$AAl?$AA?$AA@ 0000000180001b80     Pclass.obj
 0001:00000ba0       ??_C@_1BM@EDHFKJEJ@?$AAC?$AAo?$AAl?$AAu?$AAm?$AAn?$AAs?$AAR?$AAe?$AAm?$AAo?$AAt?$AAe?$AA?$AA@ 0000000180001ba0     Pclass.obj
 0001:00000bc0       ??_C@_1BI@FOOHDOCI@?$AAW?$AAi?$AAd?$AAt?$AAh?$AAs?$AAL?$AAo?$AAc?$AAa?$AAl?$AA?$AA@ 0000000180001bc0     Pclass.obj
 0001:00000bd8       ??_C@_1BK@DDBMMJCN@?$AAW?$AAi?$AAd?$AAt?$AAh?$AAs?$AAR?$AAe?$AAm?$AAo?$AAt?$AAe?$AA?$AA@ 0000000180001bd8     Pclass.obj
 0001:00000bf4       ??_C@_13DEFPDAGF@?$AA?0?$AA?$AA@ 0000000180001bf4     Pclass.obj
 0001:00000bf8       ??_C@_15LNKNCLHH@?$AAS?$AAs?$AA?$AA@ 0000000180001bf8     Pclass.obj
 0001:00000c00       ??_C@_1BA@MFHNOFIJ@?$AA?$CF?$AAs?$AA?3?$AA?5?$AA?$CF?$AAs?$AA?5?$AA?$AA@ 0000000180001c00     Pclass.obj
 0001:00000c10       ??_C@_19MPDKCIDK@?$AA?5?$AA?$CF?$AAs?$AA?5?$AA?$AA@ 0000000180001c10     Pclass.obj
 0001:00000c1c       ??_C@_15JOGBDECP@?$AA?0?$AA?5?$AA?$AA@ 0000000180001c1c     Pclass.obj
 0001:00000c24       ??_C@_15DNHPCDHG@?$AAT?$AAt?$AA?$AA@ 0000000180001c24     Pclass.obj
 0001:00000d10       ??_C@_1BC@OMEIHGFC@?$AAW?$AAS?$AA_?$AAP?$AAO?$AAP?$AAU?$AAP?$AA?$AA@ 0000000180001d10     Pclass.obj
 0001:00000d28       ??_C@_1BC@ONEEOLLM@?$AAW?$AAS?$AA_?$AAC?$AAH?$AAI?$AAL?$AAD?$AA?$AA@ 0000000180001d28     Pclass.obj
 0001:00000d40       ??_C@_1BI@GHDIGAD@?$AAW?$AAS?$AA_?$AAM?$AAI?$AAN?$AAI?$AAM?$AAI?$AAZ?$AAE?$AA?$AA@ 0000000180001d40     Pclass.obj
 0001:00000d58       ??_C@_1BG@KLPFHNBP@?$AAW?$AAS?$AA_?$AAV?$AAI?$AAS?$AAI?$AAB?$AAL?$AAE?$AA?$AA@ 0000000180001d58     Pclass.obj
 0001:00000d70       ??_C@_1BI@NKODCGOF@?$AAW?$AAS?$AA_?$AAD?$AAI?$AAS?$AAA?$AAB?$AAL?$AAE?$AAD?$AA?$AA@ 0000000180001d70     Pclass.obj
 0001:00000d88       ??_C@_1CA@PCFJBBHH@?$AAW?$AAS?$AA_?$AAC?$AAL?$AAI?$AAP?$AAS?$AAI?$AAB?$AAL?$AAI?$AAN?$AAG?$AAS?$AA?$AA@ 0000000180001d88     Pclass.obj
 0001:00000da8       ??_C@_1CA@MPLGGIO@?$AAW?$AAS?$AA_?$AAC?$AAL?$AAI?$AAP?$AAC?$AAH?$AAI?$AAL?$AAD?$AAR?$AAE?$AAN?$AA?$AA@ 0000000180001da8     Pclass.obj
 0001:00000dc8       ??_C@_1BI@OLBAGOJG@?$AAW?$AAS?$AA_?$AAM?$AAA?$AAX?$AAI?$AAM?$AAI?$AAZ?$AAE?$AA?$AA@ 0000000180001dc8     Pclass.obj
 0001:00000de0       ??_C@_1BE@DAMMEKNP@?$AAW?$AAS?$AA_?$AAB?$AAO?$AAR?$AAD?$AAE?$AAR?$AA?$AA@ 0000000180001de0     Pclass.obj
 0001:00000df8       ??_C@_1BI@EDHINADK@?$AAW?$AAS?$AA_?$AAD?$AAL?$AAG?$AAF?$AAR?$AAA?$AAM?$AAE?$AA?$AA@ 0000000180001df8     Pclass.obj
 0001:00000e10       ??_C@_1BG@CKCLFGFA@?$AAW?$AAS?$AA_?$AAV?$AAS?$AAC?$AAR?$AAO?$AAL?$AAL?$AA?$AA@ 0000000180001e10     Pclass.obj
 0001:00000e28       ??_C@_1BG@OMIOJOGF@?$AAW?$AAS?$AA_?$AAH?$AAS?$AAC?$AAR?$AAO?$AAL?$AAL?$AA?$AA@ 0000000180001e28     Pclass.obj
 0001:00000e40       ??_C@_1BG@KJOBMDJC@?$AAW?$AAS?$AA_?$AAS?$AAY?$AAS?$AAM?$AAE?$AAN?$AAU?$AA?$AA@ 0000000180001e40     Pclass.obj
 0001:00000e58       ??_C@_1BM@GPNNOPCH@?$AAW?$AAS?$AA_?$AAT?$AAH?$AAI?$AAC?$AAK?$AAF?$AAR?$AAA?$AAM?$AAE?$AA?$AA@ 0000000180001e58     Pclass.obj
 0001:00000e78       ??_C@_1BO@FODKBODI@?$AAW?$AAS?$AA_?$AAM?$AAI?$AAN?$AAI?$AAM?$AAI?$AAZ?$AAE?$AAB?$AAO?$AAX?$AA?$AA@ 0000000180001e78     Pclass.obj
 0001:00000e98       ??_C@_1BO@IDJMAOMI@?$AAW?$AAS?$AA_?$AAM?$AAA?$AAX?$AAI?$AAM?$AAI?$AAZ?$AAE?$AAB?$AAO?$AAX?$AA?$AA@ 0000000180001e98     Pclass.obj
 0001:00000fb0       ??_C@_1CI@PKBCIOPN@?$AAW?$AAS?$AA_?$AAE?$AAX?$AA_?$AAD?$AAL?$AAG?$AAM?$AAO?$AAD?$AAA?$AAL?$AAF?$AAR?$AAA?$AAM?$AAE?$AA?$AA@ 0000000180001fb0     Pclass.obj
 0001:00000fd8       ??_C@_1CK@KJECLHMG@?$AAW?$AAS?$AA_?$AAE?$AAX?$AA_?$AAN?$AAO?$AAP?$AAA?$AAR?$AAE?$AAN?$AAT?$AAN?$AAO?$AAT?$AAI?$AAF?$AAY?$AA?$AA@ 0000000180001fd8     Pclass.obj
 0001:00001008       ??_C@_1BM@OCBKBALE@?$AAW?$AAS?$AA_?$AAE?$AAX?$AA_?$AAT?$AAO?$AAP?$AAM?$AAO?$AAS?$AAT?$AA?$AA@ 0000000180002008     Pclass.obj
 0001:00001028       ??_C@_1CE@JIDMMICL@?$AAW?$AAS?$AA_?$AAE?$AAX?$AA_?$AAA?$AAC?$AAC?$AAE?$AAP?$AAT?$AAF?$AAI?$AAL?$AAE?$AAS?$AA?$AA@ 0000000180002028     Pclass.obj
 0001:00001050       ??_C@_1CE@PFFPBMCF@?$AAW?$AAS?$AA_?$AAE?$AAX?$AA_?$AAT?$AAR?$AAA?$AAN?$AAS?$AAP?$AAA?$AAR?$AAE?$AAN?$AAT?$AA?$AA@ 0000000180002050     Pclass.obj
 0001:00001078       ??_C@_1BO@MEOEJPLO@?$AAW?$AAS?$AA_?$AAE?$AAX?$AA_?$AAM?$AAD?$AAI?$AAC?$AAH?$AAI?$AAL?$AAD?$AA?$AA@ 0000000180002078     Pclass.obj
 0001:00001098       ??_C@_1CC@IEIGGJGG@?$AAW?$AAS?$AA_?$AAE?$AAX?$AA_?$AAT?$AAO?$AAO?$AAL?$AAW?$AAI?$AAN?$AAD?$AAO?$AAW?$AA?$AA@ 0000000180002098     Pclass.obj
 0001:000010c0       ??_C@_1CC@PLPNIKGL@?$AAW?$AAS?$AA_?$AAE?$AAX?$AA_?$AAW?$AAI?$AAN?$AAD?$AAO?$AAW?$AAE?$AAD?$AAG?$AAE?$AA?$AA@ 00000001800020c0     Pclass.obj
 0001:000010e8       ??_C@_1CC@IAPGCLEG@?$AAW?$AAS?$AA_?$AAE?$AAX?$AA_?$AAC?$AAL?$AAI?$AAE?$AAN?$AAT?$AAE?$AAD?$AAG?$AAE?$AA?$AA@ 00000001800020e8     Pclass.obj
 0001:00001110       ??_C@_1CE@EANKNCIF@?$AAW?$AAS?$AA_?$AAE?$AAX?$AA_?$AAC?$AAO?$AAN?$AAT?$AAE?$AAX?$AAT?$AAH?$AAE?$AAL?$AAP?$AA?$AA@ 0000000180002110     Pclass.obj
 0001:00001138       ??_C@_1BI@GFIADCMK@?$AAW?$AAS?$AA_?$AAE?$AAX?$AA_?$AAR?$AAI?$AAG?$AAH?$AAT?$AA?$AA@ 0000000180002138     Pclass.obj
 0001:00001150       ??_C@_1CC@JOFCJJPB@?$AAW?$AAS?$AA_?$AAE?$AAX?$AA_?$AAR?$AAT?$AAL?$AAR?$AAE?$AAA?$AAD?$AAI?$AAN?$AAG?$AA?$AA@ 0000000180002150     Pclass.obj
 0001:00001178       ??_C@_1CI@EFLDECAB@?$AAW?$AAS?$AA_?$AAE?$AAX?$AA_?$AAL?$AAE?$AAF?$AAT?$AAS?$AAC?$AAR?$AAO?$AAL?$AAL?$AAB?$AAA?$AAR?$AA?$AA@ 0000000180002178     Pclass.obj
 0001:000011a0       ??_C@_1CI@CIFGFFJB@?$AAW?$AAS?$AA_?$AAE?$AAX?$AA_?$AAC?$AAO?$AAN?$AAT?$AAR?$AAO?$AAL?$AAP?$AAA?$AAR?$AAE?$AAN?$AAT?$AA?$AA@ 00000001800021a0     Pclass.obj
 0001:000011c8       ??_C@_1CC@BGEPLDCA@?$AAW?$AAS?$AA_?$AAE?$AAX?$AA_?$AAS?$AAT?$AAA?$AAT?$AAI?$AAC?$AAE?$AAD?$AAG?$AAE?$AA?$AA@ 00000001800021c8     Pclass.obj
 0001:000011f0       ??_C@_1CA@DOAIHHLO@?$AAW?$AAS?$AA_?$AAE?$AAX?$AA_?$AAA?$AAP?$AAP?$AAW?$AAI?$AAN?$AAD?$AAO?$AAW?$AA?$AA@ 00000001800021f0     Pclass.obj
 0001:00001210       ??_C@_1BM@FAODAMGD@?$AAW?$AAS?$AA_?$AAE?$AAX?$AA_?$AAL?$AAA?$AAY?$AAE?$AAR?$AAE?$AAD?$AA?$AA@ 0000000180002210     Pclass.obj
 0001:00001230       ??_C@_1CM@DJKNBOGD@?$AAW?$AAS?$AA_?$AAE?$AAX?$AA_?$AAN?$AAO?$AAI?$AAN?$AAH?$AAE?$AAR?$AAI?$AAT?$AAL?$AAA?$AAY?$AAO?$AAU?$AAT?$AA?$AA@ 0000000180002230     Pclass.obj
 0001:00001260       ??_C@_1CA@KMHLBMFI@?$AAW?$AAS?$AA_?$AAE?$AAX?$AA_?$AAL?$AAA?$AAY?$AAO?$AAU?$AAT?$AAR?$AAT?$AAL?$AA?$AA@ 0000000180002260     Pclass.obj
 0001:00001280       ??_C@_1CC@LOFMDOPL@?$AAW?$AAS?$AA_?$AAE?$AAX?$AA_?$AAN?$AAO?$AAA?$AAC?$AAT?$AAI?$AAV?$AAA?$AAT?$AAE?$AA?$AA@ 0000000180002280     Pclass.obj
 0001:000012a8       ??_C@_19GGNHIDOH@?$AA?4?$AAt?$AAx?$AAt?$AA?$AA@ 00000001800022a8     Pclass.obj
 0001:000012b8       ??_C@_1O@CNKEJBH@?$AA?0?$AA?5?$AA?$CF?$AAd?$AA?$CF?$AAs?$AA?$AA@ 00000001800022b8     Pclass.obj
 0001:000012c8       ??_C@_1BC@NEODPHBM@?$AA?$CF?$AAs?$AA?5?$AA?$CF?$AAs?$AA?$CF?$AAs?$AA?6?$AA?$AA@ 00000001800022c8     Pclass.obj
 0001:000012e0       ??_C@_1O@CIJHDDGA@?$AA?$CF?$AAs?$AA?5?$AA?$CF?$AAs?$AA?6?$AA?$AA@ 00000001800022e0     Pclass.obj
 0001:000012f0       ??_C@_1O@DGEEABED@?$AA?$CF?$AAs?$AA?5?$AA?$CF?$AAd?$AA?6?$AA?$AA@ 00000001800022f0     Pclass.obj
 0001:00001300       ??_C@_1BC@CLLLJKLA@?$AA?$CF?$AAs?$AA?5?$AA?$CF?$AA0?$AA8?$AAX?$AA?6?$AA?$AA@ 0000000180002300     Pclass.obj
 0001:00001318       ??_C@_17GMPJMPF@?$AA?$CF?$AAs?$AA?5?$AA?$AA@ 0000000180002318     Pclass.obj
 0001:00001320       ??_C@_1BE@OMBNFFBH@?$AA?$CF?$AAu?$AA?5?$AA?5?$AA?$CI?$AA?$CF?$AAs?$AA?$CJ?$AA?6?$AA?$AA@ 0000000180002320     Pclass.obj
 0001:00001338       ??_C@_17BPBJDALC@?$AA?$CF?$AAu?$AA?6?$AA?$AA@ 0000000180002338     Pclass.obj
 0001:00001340       ??_C@_1M@LFADDFHG@?$AA?$CF?$AA0?$AA8?$AAX?$AA?6?$AA?$AA@ 0000000180002340     Pclass.obj
 0001:00001350       ??_C@_1O@POMONAHN@?$AA?$CF?$AAs?$AA?5?$AA?$CF?$AAu?$AA?6?$AA?$AA@ 0000000180002350     Pclass.obj
 0001:00001360       ??_C@_1BG@MDLBKGIE@?$AA?6?$AA?$CF?$AAs?$AA?5?$AA?$CF?$AAs?$AA?5?$AA?$CF?$AAs?$AA?6?$AA?$AA@ 0000000180002360     Pclass.obj
 0001:00001378       ??_C@_1BA@OBCELLNO@?$AA?6?$AA?$CF?$AAs?$AA?5?$AA?$CF?$AAs?$AA?6?$AA?$AA@ 0000000180002378     Pclass.obj
 0001:00001388       ??_C@_1BC@MLKIHIFN@?$AA?6?$AA?$CF?$AAs?$AA?3?$AA?6?$AA?$CF?$AAs?$AA?6?$AA?$AA@ 0000000180002388     Pclass.obj
 0001:000013a0       ??_C@_1BA@DHHNFIMD@?$AA?6?$AA?$CF?$AAs?$AA?5?$AA?$CF?$AAu?$AA?6?$AA?$AA@ 00000001800023a0     Pclass.obj
 0001:000013b0       ??_C@_1BE@JKDBKCGH@?$AA?$CF?$AA?9?$AA2?$AA2?$AAs?$AA?5?$AA?$CF?$AAp?$AA?6?$AA?$AA@ 00000001800023b0     Pclass.obj
 0001:000013c8       ??_C@_1M@NOMFOFMP@?$AAH?$AAW?$AAN?$AAD?$AA?3?$AA?$AA@ 00000001800023c8     Pclass.obj
 0001:000013d4       ??_C@_13HOIJIPNN@?$AA?5?$AA?$AA@ 00000001800023d4     Pclass.obj
 0001:000013d8       ??_C@_1BO@LJMHGFAK@?$AA?$CF?$AA?9?$AA2?$AA2?$AAs?$AA?5?$AA?$CF?$AA0?$AA8?$AAX?$AA?5?$AA?$CF?$AAs?$AA?6?$AA?$AA@ 00000001800023d8     Pclass.obj
 0001:000013f8       ??_C@_1BE@PEGLKBKB@?$AA?6?$AA?$CF?$AAs?$AA?6?$AA?$CF?$AAs?$AA?$CF?$AAs?$AA?6?$AA?$AA@ 00000001800023f8     Pclass.obj
 0001:00001410       ??_C@_17JJIMNMHK@?$AA?5?$AA?$CG?$AA?$FO?$AA?$AA@ 0000000180002410     Pclass.obj
 0001:0000142c       ??_C@_15DDHGOCBH@?$AA?4?$AA?4?$AA?$AA@ 000000018000242c     Pclass.obj
 0001:00001438       ??_C@_17FJPEEFCB@?$AAp?$AAr?$AAc?$AA?$AA@ 0000000180002438     Pclass.obj
 0001:00001440       ??_C@_1BC@ENICKDH@?$AAC?$AAo?$AAn?$AAt?$AAe?$AAn?$AAt?$AAs?$AA?$AA@ 0000000180002440     Pclass.obj
 0001:00001458       ??_C@_1CK@DGKCELDD@?$AAP?$AAr?$AAo?$AAc?$AAe?$AAs?$AAs?$AAL?$AAi?$AAs?$AAt?$AA?4?$AAC?$AAo?$AAm?$AAp?$AAu?$AAt?$AAe?$AAr?$AA?$AA@ 0000000180002458     Pclass.obj
 0001:00001488       ??_C@_1CK@ECJCGOEK@?$AAP?$AAr?$AAo?$AAc?$AAe?$AAs?$AAs?$AAL?$AAi?$AAs?$AAt?$AA?4?$AAU?$AAs?$AAe?$AAr?$AAn?$AAa?$AAm?$AAe?$AA?$AA@ 0000000180002488     Pclass.obj
 0001:000014b4       ??_C@_15LEKKCGMK@?$AA?2?$AA?2?$AA?$AA@ 00000001800024b4     Pclass.obj
 0001:000014c0       ??_C@_1M@HKFBKEEN@?$AA?$CF?$AA?$CF?$AA?5?$AA?$CF?$AAs?$AA?$AA@ 00000001800024c0     Pclass.obj
 0001:000014d0       ??_C@_1M@MOFLFCEC@?$AA?$CF?$AAs?$AA?5?$AA?$CF?$AAs?$AA?$AA@ 00000001800024d0     Pclass.obj
 0001:000014e0       ??_C@_17DJGLCLAO@?$AA?$CF?$AAs?$AA?3?$AA?$AA@ 00000001800024e0     Pclass.obj
 0001:000014e8       ??_C@_1M@EJMLOAMM@?$AA?$CF?$AA?9?$AA2?$AA2?$AAs?$AA?$AA@ 00000001800024e8     Pclass.obj
 0001:00001528       ??_C@_1CE@OMPPCAIJ@?$AA?$CF?$AAd?$AA?5?$AA?$CF?$AA0?$AA2?$AAd?$AA?3?$AA?$CF?$AA0?$AA2?$AAd?$AA?3?$AA?$CF?$AA0?$AA2?$AAd?$AA?$AA@ 0000000180002528     Pclass.obj
 0001:00001550       ??_C@_1BO@EHJBCONC@?$AA?$CF?$AA0?$AA2?$AAd?$AA?3?$AA?$CF?$AA0?$AA2?$AAd?$AA?3?$AA?$CF?$AA0?$AA2?$AAd?$AA?$AA@ 0000000180002550     Pclass.obj
 0001:00001570       ??_C@_17JLFEDMMI@?$AA?$DP?$AA?$DP?$AA?$DP?$AA?$AA@ 0000000180002570     Pclass.obj
 0001:00001598       ??_C@_19JHEHLFPM@?$AA?2?$AA?$DP?$AA?$DP?$AA?2?$AA?$AA@ 0000000180002598     Pclass.obj
 0001:000015a8       ??_C@_1CG@PJJCHAJ@?$AA?2?$AA?$CF?$AAs?$AA?2?$AA?$CF?$AAs?$AA?2?$AAF?$AAi?$AAl?$AAe?$AAV?$AAe?$AAr?$AAs?$AAi?$AAo?$AAn?$AA?$AA@ 00000001800025a8     Pclass.obj
 0001:000015d0       ??_C@_1CO@PDLCNLLF@?$AA?2?$AA?$CF?$AAs?$AA?2?$AA?$CF?$AAs?$AA?2?$AAF?$AAi?$AAl?$AAe?$AAD?$AAe?$AAs?$AAc?$AAr?$AAi?$AAp?$AAt?$AAi?$AAo?$AAn?$AA?$AA@ 00000001800025d0     Pclass.obj
 0001:00001600       ??_C@_17CHCGIDNB@?$AA?$CF?$AAs?$AA?2?$AA?$AA@ 0000000180002600     Pclass.obj
 0001:00001608       ??_C@_1M@CBILFCKF@?$AA?5?$AA?$CI?$AA?$CF?$AAs?$AA?$CJ?$AA?$AA@ 0000000180002608     Pclass.obj
 0001:00001618       ??_C@_1BC@OMEIBLAI@?$AAw?$AAb?$AAe?$AAm?$AAc?$AAo?$AAm?$AAn?$AA?$AA@ 0000000180002618     Pclass.obj
 0001:00001630       __xmm@00000003000000870000000200000086 0000000180002630     Pclass.obj
 0001:00001640       __xmm@00000007000000890000000400000088 0000000180002640     Pclass.obj
 0001:00001650       __xmm@000000080000008b000000010000008a 0000000180002650     Pclass.obj
 0001:00001660       __xmm@0000000b000000120000004200000010 0000000180002660     Pclass.obj
 0001:00001670       __xmm@000000410000000f000000090000008c 0000000180002670     Pclass.obj
 0001:00001680       ??_C@_1CC@DNHMJIKH@?$AA?$CF?$AA?5?$AAP?$AAr?$AAo?$AAc?$AAe?$AAs?$AAs?$AAo?$AAr?$AA?5?$AAT?$AAi?$AAm?$AAe?$AA?$AA@ 0000000180002680     perfthread.obj
 0001:000016a8       ??_C@_1CE@FNEMIHOD@?$AA?$CF?$AA?5?$AAP?$AAr?$AAi?$AAv?$AAi?$AAl?$AAe?$AAg?$AAe?$AAd?$AA?5?$AAT?$AAi?$AAm?$AAe?$AA?$AA@ 00000001800026a8     perfthread.obj
 0001:000016d0       ??_C@_1BI@IIOPEKIO@?$AA?$CF?$AA?5?$AAU?$AAs?$AAe?$AAr?$AA?5?$AAT?$AAi?$AAm?$AAe?$AA?$AA@ 00000001800026d0     perfthread.obj
 0001:000016e8       ??_C@_1BK@FAAJNJIB@?$AAH?$AAa?$AAn?$AAd?$AAl?$AAe?$AA?5?$AAC?$AAo?$AAu?$AAn?$AAt?$AA?$AA@ 00000001800026e8     perfthread.obj
 0001:00001708       ??_C@_1CA@KJMNGIDJ@?$AAP?$AAa?$AAg?$AAe?$AA?5?$AAF?$AAi?$AAl?$AAe?$AA?5?$AAB?$AAy?$AAt?$AAe?$AAs?$AA?$AA@ 0000000180002708     perfthread.obj
 0001:00001728       ??_C@_1CK@FGGMBBIH@?$AAP?$AAa?$AAg?$AAe?$AA?5?$AAF?$AAi?$AAl?$AAe?$AA?5?$AAB?$AAy?$AAt?$AAe?$AAs?$AA?5?$AAP?$AAe?$AAa?$AAk?$AA?$AA@ 0000000180002728     perfthread.obj
 0001:00001758       ??_C@_1BI@GCOMDKEO@?$AAW?$AAo?$AAr?$AAk?$AAi?$AAn?$AAg?$AA?5?$AAS?$AAe?$AAt?$AA?$AA@ 0000000180002758     perfthread.obj
 0001:00001770       ??_C@_1CC@OFJLEPCP@?$AAW?$AAo?$AAr?$AAk?$AAi?$AAn?$AAg?$AA?5?$AAS?$AAe?$AAt?$AA?5?$AAP?$AAe?$AAa?$AAk?$AA?$AA@ 0000000180002770     perfthread.obj
 0001:00001798       ??_C@_1CI@LLKMGPEG@?$AAP?$AAo?$AAo?$AAl?$AA?5?$AAN?$AAo?$AAn?$AAp?$AAa?$AAg?$AAe?$AAd?$AA?5?$AAB?$AAy?$AAt?$AAe?$AAs?$AA?$AA@ 0000000180002798     perfthread.obj
 0001:000017c0       ??_C@_1CC@IMBAECJF@?$AAP?$AAo?$AAo?$AAl?$AA?5?$AAP?$AAa?$AAg?$AAe?$AAd?$AA?5?$AAB?$AAy?$AAt?$AAe?$AAs?$AA?$AA@ 00000001800027c0     perfthread.obj
 0001:000017e8       ??_C@_1BM@DGDPAMAA@?$AAP?$AAr?$AAi?$AAv?$AAa?$AAt?$AAe?$AA?5?$AAB?$AAy?$AAt?$AAe?$AAs?$AA?$AA@ 00000001800027e8     perfthread.obj
 0001:00001808       ??_C@_1CA@GADAGCME@?$AAP?$AAa?$AAg?$AAe?$AA?5?$AAF?$AAa?$AAu?$AAl?$AAt?$AAs?$AA?1?$AAs?$AAe?$AAc?$AA?$AA@ 0000000180002808     perfthread.obj
 0001:00001828       ??_C@_1BM@FMIOMJAE@?$AAV?$AAi?$AAr?$AAt?$AAu?$AAa?$AAl?$AA?5?$AAB?$AAy?$AAt?$AAe?$AAs?$AA?$AA@ 0000000180002828     perfthread.obj
 0001:00001848       ??_C@_1CG@KJOKFONA@?$AAV?$AAi?$AAr?$AAt?$AAu?$AAa?$AAl?$AA?5?$AAB?$AAy?$AAt?$AAe?$AAs?$AA?5?$AAP?$AAe?$AAa?$AAk?$AA?$AA@ 0000000180002848     perfthread.obj
 0001:00001870       ??_C@_1CE@DFDFLLAO@?$AAI?$AAO?$AA?5?$AAD?$AAa?$AAt?$AAa?$AA?5?$AAB?$AAy?$AAt?$AAe?$AAs?$AA?1?$AAs?$AAe?$AAc?$AA?$AA@ 0000000180002870     perfthread.obj
 0001:00001898       ??_C@_1CE@EFLEKJAB@?$AAI?$AAO?$AA?5?$AAR?$AAe?$AAa?$AAd?$AA?5?$AAB?$AAy?$AAt?$AAe?$AAs?$AA?1?$AAs?$AAe?$AAc?$AA?$AA@ 0000000180002898     perfthread.obj
 0001:000018c0       ??_C@_1CG@MEJHKKKF@?$AAI?$AAO?$AA?5?$AAW?$AAr?$AAi?$AAt?$AAe?$AA?5?$AAB?$AAy?$AAt?$AAe?$AAs?$AA?1?$AAs?$AAe?$AAc?$AA?$AA@ 00000001800028c0     perfthread.obj
 0001:000018e8       ??_C@_1CG@LBBBPCJA@?$AAI?$AAO?$AA?5?$AAO?$AAt?$AAh?$AAe?$AAr?$AA?5?$AAB?$AAy?$AAt?$AAe?$AAs?$AA?1?$AAs?$AAe?$AAc?$AA?$AA@ 00000001800028e8     perfthread.obj
 0001:00001910       ??_C@_1CO@LIEOHDCC@?$AAI?$AAO?$AA?5?$AAD?$AAa?$AAt?$AAa?$AA?5?$AAO?$AAp?$AAe?$AAr?$AAa?$AAt?$AAi?$AAo?$AAn?$AAs?$AA?1?$AAs?$AAe?$AAc?$AA?$AA@ 0000000180002910     perfthread.obj
 0001:00001940       ??_C@_1CO@LIIKBHDH@?$AAI?$AAO?$AA?5?$AAR?$AAe?$AAa?$AAd?$AA?5?$AAO?$AAp?$AAe?$AAr?$AAa?$AAt?$AAi?$AAo?$AAn?$AAs?$AA?1?$AAs?$AAe?$AAc?$AA?$AA@ 0000000180002940     perfthread.obj
 0001:00001970       ??_C@_1DA@HICMAFKK@?$AAI?$AAO?$AA?5?$AAW?$AAr?$AAi?$AAt?$AAe?$AA?5?$AAO?$AAp?$AAe?$AAr?$AAa?$AAt?$AAi?$AAo?$AAn?$AAs?$AA?1?$AAs?$AAe?$AAc?$AA?$AA@ 0000000180002970     perfthread.obj
 0001:000019a0       ??_C@_1DA@BEHINMGJ@?$AAI?$AAO?$AA?5?$AAO?$AAt?$AAh?$AAe?$AAr?$AA?5?$AAO?$AAp?$AAe?$AAr?$AAa?$AAt?$AAi?$AAo?$AAn?$AAs?$AA?1?$AAs?$AAe?$AAc?$AA?$AA@ 00000001800029a0     perfthread.obj
 0001:000019d0       ??_C@_1HE@NBDABLAL@?$AAS?$AAo?$AAf?$AAt?$AAw?$AAa?$AAr?$AAe?$AA?2?$AAM?$AAi?$AAc?$AAr?$AAo?$AAs?$AAo?$AAf?$AAt?$AA?2?$AAW?$AAi?$AAn?$AAd?$AAo?$AAw?$AAs?$AA?5?$AAN?$AAT?$AA?2?$AAC?$AAu@ 00000001800029d0     perfthread.obj
 0001:00001a48       ??_C@_1BC@IICCDNLG@?$AAC?$AAo?$AAu?$AAn?$AAt?$AAe?$AAr?$AAs?$AA?$AA@ 0000000180002a48     perfthread.obj
 0001:00001a60       ??_C@_1BG@NKNJPBCD@?$AAI?$AAD?$AA?5?$AAP?$AAr?$AAo?$AAc?$AAe?$AAs?$AAs?$AA?$AA@ 0000000180002a60     perfthread.obj
 0001:00001a78       ??_C@_1BM@KCAKLHJN@?$AAP?$AAr?$AAi?$AAo?$AAr?$AAi?$AAt?$AAy?$AA?5?$AAB?$AAa?$AAs?$AAe?$AA?$AA@ 0000000180002a78     perfthread.obj
 0001:00001a98       ??_C@_1BK@KCHPPKHP@?$AAT?$AAh?$AAr?$AAe?$AAa?$AAd?$AA?5?$AAC?$AAo?$AAu?$AAn?$AAt?$AA?$AA@ 0000000180002a98     perfthread.obj
 0001:00001ab8       ??_C@_1CI@FNIEMNAI@?$AAC?$AAr?$AAe?$AAa?$AAt?$AAi?$AAn?$AAg?$AA?5?$AAP?$AAr?$AAo?$AAc?$AAe?$AAs?$AAs?$AA?5?$AAI?$AAD?$AA?$AA@ 0000000180002ab8     perfthread.obj
 0001:00001ae0       ??_C@_1BK@IKAFHKBD@?$AAE?$AAl?$AAa?$AAp?$AAs?$AAe?$AAd?$AA?5?$AAT?$AAi?$AAm?$AAe?$AA?$AA@ 0000000180002ae0     perfthread.obj
 0001:00001b00       ??_C@_19DLCFHDFF@?$AAP?$AAE?$AAR?$AAF?$AA?$AA@ 0000000180002b00     perfthread.obj
 0001:00001b10       ??_C@_19DOGDICKI@?$AA?4?$AAe?$AAx?$AAe?$AA?$AA@ 0000000180002b10     perfthread.obj
 0001:00001b20       ??_C@_1CC@DMDJMJLM@?$AAS?$AAe?$AAD?$AAe?$AAb?$AAu?$AAg?$AAP?$AAr?$AAi?$AAv?$AAi?$AAl?$AAe?$AAg?$AAe?$AA?$AA@ 0000000180002b20     Plist.obj
 0001:00001b48       ??_C@_1M@GPDJLPMI@?$AA?4?$AA?$CF?$AA0?$AA3?$AAd?$AA?$AA@ 0000000180002b48     Plist.obj
 0001:00001b54       ??_C@_13EBCNDICG@?$AA?3?$AA?$AA@ 0000000180002b54     Plist.obj
 0001:00001b58       ??_C@_1O@KBBIJFEI@?$AA?$CF?$AA?9?$AA2?$AA4?$AAs?$AA?5?$AA?$AA@ 0000000180002b58     Plist.obj
 0001:00001b68       ??_C@_1BC@CIAMCHCM@?$AA?$CF?$AA1?$AA0?$AAI?$AA6?$AA4?$AAu?$AA?6?$AA?$AA@ 0000000180002b68     Plist.obj
 0001:00001b80       ??_C@_1BK@OIAGEDCG@?$AA?$CF?$AAs?$AA?5?$AA?$CF?$AA7?$AAI?$AA6?$AA4?$AAu?$AA?$CF?$AA?$CF?$AA?6?$AA?$AA@ 0000000180002b80     Plist.obj
 0001:00001ba0       ??_C@_1CG@FOOPEKLK@?$AA?$CF?$AA1?$AA0?$AAI?$AA6?$AA4?$AAu?$AA?5?$AA?5?$AA?$CF?$AA5?$AAI?$AA6?$AA4?$AAu?$AA?$CF?$AAs?$AA?6?$AA?$AA@ 0000000180002ba0     Plist.obj
 0001:00001bc8       ??_C@_1BA@LFJAMCEC@?$AA?$CF?$AAs?$AA?5?$AA?$CF?$AAs?$AA?6?$AA?6?$AA?$AA@ 0000000180002bc8     Plist.obj
 0001:00001bd8       ??_C@_19FJPIAKGM@?$AA?$CF?$AAs?$AA?6?$AA?6?$AA?$AA@ 0000000180002bd8     Plist.obj
 0001:00001be8       ??_C@_17MJEANDKP@?$AA?$CF?$AAs?$AA?6?$AA?$AA@ 0000000180002be8     Plist.obj
 0001:00001bf0       ??_C@_1BE@KPJOOIA@?$AA?5?$AA?5?$AA?$CF?$AAp?$AA?5?$AA?5?$AA?$CF?$AA6?$AAX?$AA?$AA@ 0000000180002bf0     Plist.obj
 0001:00001c08       ??_C@_17ENEANJDH@?$AA?5?$AA?$CF?$AAs?$AA?$AA@ 0000000180002c08     Plist.obj
 0001:00001c10       ??_C@_1BG@FFJGBKCB@?$AAE?$AAr?$AAr?$AAo?$AAr?$AA?5?$AA0?$AAx?$AA?$CF?$AAx?$AA?$AA@ 0000000180002c10     Pmix.obj
 0001:00001c28       ??_C@_15JNBOKNOG@?$AA?$AN?$AA?6?$AA?$AA@ 0000000180002c28     Pmix.obj
 0001:00001c30       CLSID_WbemLocator          0000000180002c30     WMI.obj
 0001:00001c40       IID_IWbemLocator           0000000180002c40     WMI.obj
 0001:00001c50       ??_C@_1DA@BIBEJFMF@?$AAW?$AAi?$AAn?$AA3?$AA2?$AA_?$AAP?$AAr?$AAo?$AAc?$AAe?$AAs?$AAs?$AA?4?$AAH?$AAa?$AAn?$AAd?$AAl?$AAe?$AA?$DN?$AA?$CF?$AAu?$AA?$AA@ 0000000180002c50     WMI.obj
 0001:00001c80       ??_C@_1BO@CLCOBGDE@?$AAE?$AAx?$AAe?$AAc?$AAu?$AAt?$AAa?$AAb?$AAl?$AAe?$AAP?$AAa?$AAt?$AAh?$AA?$AA@ 0000000180002c80     WMI.obj
 0001:00001ca0       ??_C@_1BC@JHNNEHFE@?$AAP?$AAr?$AAi?$AAo?$AAr?$AAi?$AAt?$AAy?$AA?$AA@ 0000000180002ca0     WMI.obj
 0001:00001cb8       ??_C@_1BC@HJJANEGO@?$AAG?$AAe?$AAt?$AAO?$AAw?$AAn?$AAe?$AAr?$AA?$AA@ 0000000180002cb8     WMI.obj
 0001:00001cd0       ??_C@_19PIJILKAI@?$AAU?$AAs?$AAe?$AAr?$AA?$AA@ 0000000180002cd0     WMI.obj
 0001:00001ce0       ??_C@_1O@OAMNPMOM@?$AAD?$AAo?$AAm?$AAa?$AAi?$AAn?$AA?$AA@ 0000000180002ce0     WMI.obj
 0001:00001cf0       ??_C@_1BI@OIPNMPCL@?$AAG?$AAe?$AAt?$AAO?$AAw?$AAn?$AAe?$AAr?$AAS?$AAi?$AAd?$AA?$AA@ 0000000180002cf0     WMI.obj
 0001:00001d08       ??_C@_17NKMLOKHF@?$AAS?$AAi?$AAd?$AA?$AA@ 0000000180002d08     WMI.obj
 0001:00001d10       ??_C@_1BE@CFEJJKFE@?$AAS?$AAe?$AAs?$AAs?$AAi?$AAo?$AAn?$AAI?$AAd?$AA?$AA@ 0000000180002d10     WMI.obj
 0001:00001d28       ??_C@_1BM@MLGLIGHJ@?$AAW?$AAi?$AAn?$AA3?$AA2?$AA_?$AAP?$AAr?$AAo?$AAc?$AAe?$AAs?$AAs?$AA?$AA@ 0000000180002d28     WMI.obj
 0001:00001d48       ??_C@_1BI@FLOHINJE@?$AAR?$AAe?$AAt?$AAu?$AAr?$AAn?$AAV?$AAa?$AAl?$AAu?$AAe?$AA?$AA@ 0000000180002d48     WMI.obj
 0001:00001d60       ??_C@_1BI@NKNJJIDM@?$AAS?$AAe?$AAt?$AAP?$AAr?$AAi?$AAo?$AAr?$AAi?$AAt?$AAy?$AA?$AA@ 0000000180002d60     WMI.obj
 0001:00001d78       ??_C@_1O@GGHBFGJC@?$AAR?$AAe?$AAa?$AAs?$AAo?$AAn?$AA?$AA@ 0000000180002d78     WMI.obj
 0001:00001d88       ??_C@_1BE@PBPGMODO@?$AAT?$AAe?$AAr?$AAm?$AAi?$AAn?$AAa?$AAt?$AAe?$AA?$AA@ 0000000180002d88     WMI.obj
 0001:00001d9c       ??_C@_13JOFGPIOO@?$AA?4?$AA?$AA@ 0000000180002d9c     WMI.obj
 0001:00001da0       ??_C@_1CA@ECJNGEII@?$AA?2?$AA?2?$AA?$CF?$AAs?$AA?2?$AAr?$AAo?$AAo?$AAt?$AA?2?$AAc?$AAi?$AAm?$AAv?$AA2?$AA?$AA@ 0000000180002da0     WMI.obj
 0001:00001dc0       MainGuid                   0000000180002dc0     Proclist.obj
 0001:00001dd0       MenuGuid                   0000000180002dd0     Proclist.obj
 0001:00001de0       ConfigDialogGuid           0000000180002de0     Proclist.obj
 0001:00001df0       ??_C@_1M@OAIMIKLP@?$AAn?$AAt?$AAd?$AAl?$AAl?$AA?$AA@ 0000000180002df0     Proclist.obj
 0001:00001e00       ??_C@_0BK@EGDDIFMK@NtQueryInformationProcess?$AA@ 0000000180002e00     Proclist.obj
 0001:00001e20       ??_C@_0BJ@HKKELGGC@NtQueryInformationThread?$AA@ 0000000180002e20     Proclist.obj
 0001:00001e40       ??_C@_0O@IFMDHOMC@NtQueryObject?$AA@ 0000000180002e40     Proclist.obj
 0001:00001e50       ??_C@_0BJ@NDLOPGCH@NtQuerySystemInformation?$AA@ 0000000180002e50     Proclist.obj
 0001:00001e70       ??_C@_0BH@DLPGICA@NtQueryInformationFile?$AA@ 0000000180002e70     Proclist.obj
 0001:00001e88       ??_C@_1BC@GDMECMAK@?$AAk?$AAe?$AAr?$AAn?$AAe?$AAl?$AA3?$AA2?$AA?$AA@ 0000000180002e88     Proclist.obj
 0001:00001ea0       ??_C@_0P@LKABJJMO@IsWow64Process?$AA@ 0000000180002ea0     Proclist.obj
 0001:00001eb0       ??_C@_1BC@DNHGCMLG@?$AAa?$AAd?$AAv?$AAa?$AAp?$AAi?$AA3?$AA2?$AA?$AA@ 0000000180002eb0     Proclist.obj
 0001:00001ec8       ??_C@_0L@KJHKJIPF@IsValidSid?$AA@ 0000000180002ec8     Proclist.obj
 0001:00001ed8       ??_C@_0BK@FIHGNING@GetSidIdentifierAuthority?$AA@ 0000000180002ed8     Proclist.obj
 0001:00001ef8       ??_C@_0BI@LPFJALDI@GetSidSubAuthorityCount?$AA@ 0000000180002ef8     Proclist.obj
 0001:00001f10       ??_C@_0BD@LMGFHOAE@GetSidSubAuthority?$AA@ 0000000180002f10     Proclist.obj
 0001:00001f28       ??_C@_0BD@MCBOPCDK@LookupAccountNameW?$AA@ 0000000180002f28     Proclist.obj
 0001:00001f40       ??_C@_1O@BCCLBEOE@?$AAu?$AAs?$AAe?$AAr?$AA3?$AA2?$AA?$AA@ 0000000180002f40     Proclist.obj
 0001:00001f50       ??_C@_0BA@FKGDNIJG@GetGuiResources?$AA@ 0000000180002f50     Proclist.obj
 0001:00001f60       ??_C@_1M@FFPAMFOB@?$AAo?$AAl?$AAe?$AA3?$AA2?$AA?$AA@ 0000000180002f60     Proclist.obj
 0001:00001f70       ??_C@_0BC@IOEGILCE@CoSetProxyBlanket?$AA@ 0000000180002f70     Proclist.obj
 0001:00001f88       ??_C@_1BC@PDEABLIN@?$AAP?$AAr?$AAo?$AAc?$AAL?$AAi?$AAs?$AAt?$AA?$AA@ 0000000180002f88     Proclist.obj
 0001:00001fa0       ??_C@_1DK@DCAMPEPJ@?$AAP?$AAr?$AAo?$AAc?$AAe?$AAs?$AAs?$AA?5?$AAL?$AAi?$AAs?$AAt?$AA?5?$AAf?$AAo?$AAr?$AA?5?$AAF?$AAA?$AAR?$AA?5?$AAM?$AAa?$AAn?$AAa?$AAg?$AAe?$AAr?$AA?$AA@ 0000000180002fa0     Proclist.obj
 0001:00001fe0       ??_C@_1DE@BGKMIKPD@?$AAE?$AAu?$AAg?$AAe?$AAn?$AAe?$AA?5?$AAR?$AAo?$AAs?$AAh?$AAa?$AAl?$AA?5?$AA?$CG?$AA?5?$AAF?$AAa?$AAr?$AA?5?$AAG?$AAr?$AAo?$AAu?$AAp?$AA?$AA@ 0000000180002fe0     Proclist.obj
 0001:00002018       ??_C@_1M@MNPEKPKO@?$AAp?$AAl?$AAi?$AAs?$AAt?$AA?$AA@ 0000000180003018     Proclist.obj
 0001:00002028       _pRawDllMain               0000000180003028     LIBCMT:dll_dllmain.obj
 0001:00002028       _pDefaultRawDllMain        0000000180003028     LIBCMT:dll_dllmain.obj
 0001:00002038       ??_7exception@std@@6B@     0000000180003038     LIBCMT:throw_bad_alloc.obj
 0001:00002048       ??_C@_0BC@EOODALEL@Unknown?5exception?$AA@ 0000000180003048     LIBCMT:throw_bad_alloc.obj
 0001:00002068       ??_7bad_alloc@std@@6B@     0000000180003068     LIBCMT:throw_bad_alloc.obj
 0001:00002078       ??_C@_0P@GHFPNOJB@bad?5allocation?$AA@ 0000000180003078     LIBCMT:throw_bad_alloc.obj
 0001:00002090       ??_7bad_array_new_length@std@@6B@ 0000000180003090     LIBCMT:throw_bad_alloc.obj
 0001:000020a0       ??_C@_0BF@KINCDENJ@bad?5array?5new?5length?$AA@ 00000001800030a0     LIBCMT:throw_bad_alloc.obj
 0001:000020c0       ??_7type_info@@6B@         00000001800030c0     LIBCMT:std_type_info_static.obj
 0001:000020c8       _Microsoft_CRTProvider     00000001800030c8     libvcruntime:telemetry.obj
 0001:000020d0       ??_C@_00CNPNBAHC@?$AA@     00000001800030d0     libvcruntime:telemetry.obj
 0001:000020d8       ??_C@_0O@JEOPJOMI@Main?5Invoked?4?$AA@ 00000001800030d8     libvcruntime:telemetry.obj
 0001:000020e8       ??_C@_0P@NEAEIBDO@Main?5Returned?4?$AA@ 00000001800030e8     libvcruntime:telemetry.obj
 0001:00002160       ??_C@_1DM@KHCHBNEB@?$AAa?$AAp?$AAi?$AA?9?$AAm?$AAs?$AA?9?$AAw?$AAi?$AAn?$AA?9?$AAc?$AAo?$AAr?$AAe?$AA?9?$AAf?$AAi?$AAb?$AAe?$AAr?$AAs?$AA?9?$AAl?$AA1?$AA?9?$AA1?$AA?9?$AA1?$AA?$AA@ 0000000180003160     libvcruntime:winapi_downlevel.obj
 0001:000021a0       ??_C@_1DK@LPPGFMPP@?$AAa?$AAp?$AAi?$AA?9?$AAm?$AAs?$AA?9?$AAw?$AAi?$AAn?$AA?9?$AAc?$AAo?$AAr?$AAe?$AA?9?$AAs?$AAy?$AAn?$AAc?$AAh?$AA?9?$AAl?$AA1?$AA?9?$AA2?$AA?9?$AA0?$AA?$AA@ 00000001800031a0     libvcruntime:winapi_downlevel.obj
 0001:000021e0       ??_C@_0O@BAMBGLIE@EventRegister?$AA@ 00000001800031e0     libvcruntime:winapi_downlevel.obj
 0001:000021f8       ??_C@_0BE@BJEEGHGK@EventSetInformation?$AA@ 00000001800031f8     libvcruntime:winapi_downlevel.obj
 0001:00002210       ??_C@_0BA@FAKLIPIC@EventUnregister?$AA@ 0000000180003210     libvcruntime:winapi_downlevel.obj
 0001:00002228       ??_C@_0BD@PKLHJPHD@EventWriteTransfer?$AA@ 0000000180003228     libvcruntime:winapi_downlevel.obj
 0001:00002248       ??_C@_08KNHFBNJ@FlsAlloc?$AA@ 0000000180003248     libvcruntime:winapi_downlevel.obj
 0001:00002260       ??_C@_07PEJMOBNF@FlsFree?$AA@ 0000000180003260     libvcruntime:winapi_downlevel.obj
 0001:00002270       ??_C@_0M@GDNOONDI@FlsGetValue?$AA@ 0000000180003270     libvcruntime:winapi_downlevel.obj
 0001:00002288       ??_C@_0M@JCPCPOEF@FlsSetValue?$AA@ 0000000180003288     libvcruntime:winapi_downlevel.obj
 0001:000022a0       ??_C@_0BM@HCFOFFN@InitializeCriticalSectionEx?$AA@ 00000001800032a0     libvcruntime:winapi_downlevel.obj
 0001:000022bc       ??_C@_01JOAMLHOP@?9?$AA@   00000001800032bc     libvcruntime:undname.obj
 0001:000022c0       ??_C@_01MIFGBAGJ@?$CL?$AA@ 00000001800032c0     libvcruntime:undname.obj
 0001:000022c4       ??_C@_01HNPIGOCE@?$CG?$AA@ 00000001800032c4     libvcruntime:undname.obj
 0001:000022c8       ??_C@_03MNHNFDLC@?9?$DO?$CK?$AA@ 00000001800032c8     libvcruntime:undname.obj
 0001:000022cc       ??_C@_01KMDKNFGN@?1?$AA@   00000001800032cc     libvcruntime:undname.obj
 0001:000022d0       ??_C@_01FGNFDNOH@?$CF?$AA@ 00000001800032d0     libvcruntime:undname.obj
 0001:000022d4       ??_C@_01MNNFJEPP@?$DM?$AA@ 00000001800032d4     libvcruntime:undname.obj
 0001:000022d8       ??_C@_02EHCHHCKH@?$DM?$DN?$AA@ 00000001800032d8     libvcruntime:undname.obj
 0001:000022dc       ??_C@_01PPODPGHN@?$DO?$AA@ 00000001800032dc     libvcruntime:undname.obj
 0001:000022e0       ??_C@_02EEKDKGMJ@?$DO?$DN?$AA@ 00000001800032e0     libvcruntime:undname.obj
 0001:000022e4       ??_C@_01IHBHIGKO@?0?$AA@   00000001800032e4     libvcruntime:undname.obj
 0001:000022e8       ??_C@_02HCKGKOFO@?$CI?$CJ?$AA@ 00000001800032e8     libvcruntime:undname.obj
 0001:000022ec       ??_C@_01PJKLJHI@?$HO?$AA@  00000001800032ec     libvcruntime:undname.obj
 0001:000022f0       ??_C@_01JKBOJNNK@?$FO?$AA@ 00000001800032f0     libvcruntime:undname.obj
 0001:000022f4       ??_C@_01DNKMNLPK@?$HM?$AA@ 00000001800032f4     libvcruntime:undname.obj
 0001:000022f8       ??_C@_02PPKAJPJL@?$CG?$CG?$AA@ 00000001800032f8     libvcruntime:undname.obj
 0001:000022fc       ??_C@_02NONPIBCD@?$HM?$HM?$AA@ 00000001800032fc     libvcruntime:undname.obj
 0001:00002300       ??_C@_02FPIMKNGF@?$CK?$DN?$AA@ 0000000180003300     libvcruntime:undname.obj
 0001:00002304       ??_C@_02FOEOMHFC@?$CL?$DN?$AA@ 0000000180003304     libvcruntime:undname.obj
 0001:00002308       ??_C@_02FKMDLLOA@?9?$DN?$AA@ 0000000180003308     libvcruntime:undname.obj
 0001:0000230c       ??_C@_02FJEHGPIO@?1?$DN?$AA@ 000000018000330c     libvcruntime:undname.obj
 0001:00002310       ??_C@_02FENAOKFI@?$CF?$DN?$AA@ 0000000180003310     libvcruntime:undname.obj
 0001:00002314       ??_C@_03IKFCCPFF@?$DO?$DO?$DN?$AA@ 0000000180003314     libvcruntime:undname.obj
 0001:00002318       ??_C@_03CDNPDDLA@?$DM?$DM?$DN?$AA@ 0000000180003318     libvcruntime:undname.obj
 0001:0000231c       ??_C@_02FGJGFEAB@?$CG?$DN?$AA@ 000000018000331c     libvcruntime:undname.obj
 0001:00002320       ??_C@_02DHLNPPGH@?$HM?$DN?$AA@ 0000000180003320     libvcruntime:undname.obj
 0001:00002324       ??_C@_02MHEGNOJ@?$FO?$DN?$AA@ 0000000180003324     libvcruntime:undname.obj
 0001:00002328       ??_C@_09IFPLHPGF@?$GAvftable?8?$AA@ 0000000180003328     libvcruntime:undname.obj
 0001:00002338       ??_C@_09BLBHBJP@?$GAvbtable?8?$AA@ 0000000180003338     libvcruntime:undname.obj
 0001:00002348       ??_C@_07FEEIOKP@?$GAvcall?8?$AA@ 0000000180003348     libvcruntime:undname.obj
 0001:00002350       ??_C@_08LLFFHHDJ@?$GAtypeof?8?$AA@ 0000000180003350     libvcruntime:undname.obj
 0001:00002360       ??_C@_0BF@KDPPACIK@?$GAlocal?5static?5guard?8?$AA@ 0000000180003360     libvcruntime:undname.obj
 0001:00002378       ??_C@_08OBABFOLI@?$GAstring?8?$AA@ 0000000180003378     libvcruntime:undname.obj
 0001:00002388       ??_C@_0BD@JDLKDPAB@?$GAvbase?5destructor?8?$AA@ 0000000180003388     libvcruntime:undname.obj
 0001:000023a0       ??_C@_0BN@DEGPLNFK@?$GAvector?5deleting?5destructor?8?$AA@ 00000001800033a0     libvcruntime:undname.obj
 0001:000023c0       ??_C@_0BO@OBMKPJIG@?$GAdefault?5constructor?5closure?8?$AA@ 00000001800033c0     libvcruntime:undname.obj
 0001:000023e0       ??_C@_0BN@IMDCHIKM@?$GAscalar?5deleting?5destructor?8?$AA@ 00000001800033e0     libvcruntime:undname.obj
 0001:00002400       ??_C@_0BO@PFGOCPJJ@?$GAvector?5constructor?5iterator?8?$AA@ 0000000180003400     libvcruntime:undname.obj
 0001:00002420       ??_C@_0BN@LFPFMEDL@?$GAvector?5destructor?5iterator?8?$AA@ 0000000180003420     libvcruntime:undname.obj
 0001:00002440       ??_C@_0CE@IKBNEHA@?$GAvector?5vbase?5constructor?5iterat@ 0000000180003440     libvcruntime:undname.obj
 0001:00002468       ??_C@_0BL@NILFHHPC@?$GAvirtual?5displacement?5map?8?$AA@ 0000000180003468     libvcruntime:undname.obj
 0001:00002488       ??_C@_0CB@JONCMFFK@?$GAeh?5vector?5constructor?5iterator?8@ 0000000180003488     libvcruntime:undname.obj
 0001:000024b0       ??_C@_0CA@GCEOPDGL@?$GAeh?5vector?5destructor?5iterator?8?$AA@ 00000001800034b0     libvcruntime:undname.obj
 0001:000024d0       ??_C@_0CH@OOJPLCPH@?$GAeh?5vector?5vbase?5constructor?5ite@ 00000001800034d0     libvcruntime:undname.obj
 0001:000024f8       ??_C@_0BL@LLKPOHJI@?$GAcopy?5constructor?5closure?8?$AA@ 00000001800034f8     libvcruntime:undname.obj
 0001:00002518       ??_C@_0BA@KBCDOMBN@?$GAudt?5returning?8?$AA@ 0000000180003518     libvcruntime:undname.obj
 0001:00002528       ??_C@_03KLGMFNMG@?$GAEH?$AA@ 0000000180003528     libvcruntime:undname.obj
 0001:0000252c       ??_C@_05KHLCHHI@?$GARTTI?$AA@ 000000018000352c     libvcruntime:undname.obj
 0001:00002538       ??_C@_0BA@KKLDJDLB@?$GAlocal?5vftable?8?$AA@ 0000000180003538     libvcruntime:undname.obj
 0001:00002548       ??_C@_0CE@IIHCMGGL@?$GAlocal?5vftable?5constructor?5closu@ 0000000180003548     libvcruntime:undname.obj
 0001:0000256c       ??_C@_06FHBGPFGH@?5new?$FL?$FN?$AA@ 000000018000356c     libvcruntime:undname.obj
 0001:00002578       ??_C@_09LBNFPBCA@?5delete?$FL?$FN?$AA@ 0000000180003578     libvcruntime:undname.obj
 0001:00002588       ??_C@_0P@HJKNJFNN@?$GAomni?5callsig?8?$AA@ 0000000180003588     libvcruntime:undname.obj
 0001:00002598       ??_C@_0BL@CNOONJFP@?$GAplacement?5delete?5closure?8?$AA@ 0000000180003598     libvcruntime:undname.obj
 0001:000025b8       ??_C@_0BN@CKNJLHMB@?$GAplacement?5delete?$FL?$FN?5closure?8?$AA@ 00000001800035b8     libvcruntime:undname.obj
 0001:000025d8       ??_C@_0CG@CFDHKGGD@?$GAmanaged?5vector?5constructor?5iter@ 00000001800035d8     libvcruntime:undname.obj
 0001:00002600       ??_C@_0CF@IMGKMJNO@?$GAmanaged?5vector?5destructor?5itera@ 0000000180003600     libvcruntime:undname.obj
 0001:00002628       ??_C@_0CG@HLDDJMAG@?$GAeh?5vector?5copy?5constructor?5iter@ 0000000180003628     libvcruntime:undname.obj
 0001:00002650       ??_C@_0CM@FCBBDIGB@?$GAeh?5vector?5vbase?5copy?5constructo@ 0000000180003650     libvcruntime:undname.obj
 0001:00002680       ??_C@_0BL@CLIPGLGB@?$GAdynamic?5initializer?5for?5?8?$AA@ 0000000180003680     libvcruntime:undname.obj
 0001:000026a0       ??_C@_0CB@PDBIFEP@?$GAdynamic?5atexit?5destructor?5for?5?8@ 00000001800036a0     libvcruntime:undname.obj
 0001:000026c8       ??_C@_0CD@CGAJBKEJ@?$GAvector?5copy?5constructor?5iterato@ 00000001800036c8     libvcruntime:undname.obj
 0001:000026f0       ??_C@_0CJ@GJELGAMM@?$GAvector?5vbase?5copy?5constructor?5i@ 00000001800036f0     libvcruntime:undname.obj
 0001:00002720       ??_C@_0CL@FGIJHLCE@?$GAmanaged?5vector?5copy?5constructor@ 0000000180003720     libvcruntime:undname.obj
 0001:00002750       ??_C@_0BM@PMGGMLDN@?$GAlocal?5static?5thread?5guard?8?$AA@ 0000000180003750     libvcruntime:undname.obj
 0001:00002770       ??_C@_0N@BDNMDMOL@operator?5?$CC?$CC?5?$AA@ 0000000180003770     libvcruntime:undname.obj
 0001:00002aa8       ??_C@_0BC@DAFEJGAK@?5Type?5Descriptor?8?$AA@ 0000000180003aa8     libvcruntime:undname.obj
 0001:00002ac0       ??_C@_0BM@LDKODKLH@?5Base?5Class?5Descriptor?5at?5?$CI?$AA@ 0000000180003ac0     libvcruntime:undname.obj
 0001:00002ae0       ??_C@_0BD@LGICGFMM@?5Base?5Class?5Array?8?$AA@ 0000000180003ae0     libvcruntime:undname.obj
 0001:00002af8       ??_C@_0BN@MECKDCOJ@?5Class?5Hierarchy?5Descriptor?8?$AA@ 0000000180003af8     libvcruntime:undname.obj
 0001:00002b18       ??_C@_0BK@CFCOFLF@?5Complete?5Object?5Locator?8?$AA@ 0000000180003b18     libvcruntime:undname.obj
 0001:00002b38       ??_C@_08EHJDFFNH@__based?$CI?$AA@ 0000000180003b38     libvcruntime:undname.obj
 0001:00002b48       ??_C@_07KOLFKCDI@__cdecl?$AA@ 0000000180003b48     libvcruntime:undname.obj
 0001:00002b50       ??_C@_08GHMPAG@__pascal?$AA@ 0000000180003b50     libvcruntime:undname.obj
 0001:00002b60       ??_C@_09IFJBGAPI@__stdcall?$AA@ 0000000180003b60     libvcruntime:undname.obj
 0001:00002b70       ??_C@_0L@NPHFGOKO@__thiscall?$AA@ 0000000180003b70     libvcruntime:undname.obj
 0001:00002b80       ??_C@_0L@JMKHOMEK@__fastcall?$AA@ 0000000180003b80     libvcruntime:undname.obj
 0001:00002b90       ??_C@_0N@BCKKPABJ@__vectorcall?$AA@ 0000000180003b90     libvcruntime:undname.obj
 0001:00002ba0       ??_C@_09HIJEGCPM@__clrcall?$AA@ 0000000180003ba0     libvcruntime:undname.obj
 0001:00002bac       ??_C@_06GHPCKEAG@__eabi?$AA@ 0000000180003bac     libvcruntime:undname.obj
 0001:00002bb8       ??_C@_07JOMMBBKO@__ptr64?$AA@ 0000000180003bb8     libvcruntime:undname.obj
 0001:00002bc0       ??_C@_0L@PILCLIHE@__restrict?$AA@ 0000000180003bc0     libvcruntime:undname.obj
 0001:00002bd0       ??_C@_0M@GFIIJFMG@__unaligned?$AA@ 0000000180003bd0     libvcruntime:undname.obj
 0001:00002be0       ??_C@_09DHDLOLLB@restrict?$CI?$AA@ 0000000180003be0     libvcruntime:undname.obj
 0001:00002bec       ??_C@_04NIHEBCM@?5new?$AA@ 0000000180003bec     libvcruntime:undname.obj
 0001:00002bf8       ??_C@_07FPCDHGMM@?5delete?$AA@ 0000000180003bf8     libvcruntime:undname.obj
 0001:00002c00       ??_C@_01NEMOKFLO@?$DN?$AA@ 0000000180003c00     libvcruntime:undname.obj
 0001:00002c04       ??_C@_02GPIOPFAK@?$DO?$DO?$AA@ 0000000180003c04     libvcruntime:undname.obj
 0001:00002c08       ??_C@_02FODMEDOG@?$DM?$DM?$AA@ 0000000180003c08     libvcruntime:undname.obj
 0001:00002c0c       ??_C@_01DCLJPIOD@?$CB?$AA@ 0000000180003c0c     libvcruntime:undname.obj
 0001:00002c10       ??_C@_02EGOFBIJA@?$DN?$DN?$AA@ 0000000180003c10     libvcruntime:undname.obj
 0001:00002c14       ??_C@_02FDNJECIE@?$CB?$DN?$AA@ 0000000180003c14     libvcruntime:undname.obj
 0001:00002c18       ??_C@_02GPECMEKF@?$FL?$FN?$AA@ 0000000180003c18     libvcruntime:undname.obj
 0001:00002c20       ??_C@_08LHJFAFGD@operator?$AA@ 0000000180003c20     libvcruntime:undname.obj
 0001:00002c2c       ??_C@_02HBOOOICD@?9?$DO?$AA@ 0000000180003c2c     libvcruntime:undname.obj
 0001:00002c30       ??_C@_01NBENCBCI@?$CK?$AA@ 0000000180003c30     libvcruntime:undname.obj
 0001:00002c34       ??_C@_02ECNGHCIF@?$CL?$CL?$AA@ 0000000180003c34     libvcruntime:undname.obj
 0001:00002c38       ??_C@_02BAABKJLB@?9?9?$AA@ 0000000180003c38     libvcruntime:undname.obj
 0001:00002c40       __acrt_exception_action_table 0000000180003c40     libucrt:exception_filter.obj
 0001:00002d00       __acrt_signal_action_table_count 0000000180003d00     libucrt:exception_filter.obj
 0001:00002d08       __acrt_signal_action_first_fpe_index 0000000180003d08     libucrt:exception_filter.obj
 0001:00002d10       __acrt_signal_action_fpe_count 0000000180003d10     libucrt:exception_filter.obj
 0001:00002d18       ??_C@_1BI@BGOHAHKC@?$AAm?$AAs?$AAc?$AAo?$AAr?$AAe?$AAe?$AA?4?$AAd?$AAl?$AAl?$AA?$AA@ 0000000180003d18     libucrt:exit.obj
 0001:00002d30       ??_C@_0P@MIGLKIOC@CorExitProcess?$AA@ 0000000180003d30     libucrt:exit.obj
 0001:00002fa0       __lc_time_c                0000000180003fa0     libucrt:nlsdata.obj
 0001:00003260       ??_C@_03KOEHGMDN@Sun?$AA@  0000000180004260     libucrt:nlsdata.obj
 0001:00003264       ??_C@_03PDAGKDH@Mon?$AA@   0000000180004264     libucrt:nlsdata.obj
 0001:00003268       ??_C@_03NAGEINEP@Tue?$AA@  0000000180004268     libucrt:nlsdata.obj
 0001:0000326c       ??_C@_03MHOMLAJA@Wed?$AA@  000000018000426c     libucrt:nlsdata.obj
 0001:00003270       ??_C@_03IOFIKPDN@Thu?$AA@  0000000180004270     libucrt:nlsdata.obj
 0001:00003274       ??_C@_03IDIOELNC@Fri?$AA@  0000000180004274     libucrt:nlsdata.obj
 0001:00003278       ??_C@_03FEFJNEK@Sat?$AA@   0000000180004278     libucrt:nlsdata.obj
 0001:0000327c       ??_C@_06OOPIFAJ@Sunday?$AA@ 000000018000427c     libucrt:nlsdata.obj
 0001:00003284       ??_C@_06JLEDEDGH@Monday?$AA@ 0000000180004284     libucrt:nlsdata.obj
 0001:00003290       ??_C@_07BAAGCFCM@Tuesday?$AA@ 0000000180004290     libucrt:nlsdata.obj
 0001:00003298       ??_C@_09DLIGFAKA@Wednesday?$AA@ 0000000180004298     libucrt:nlsdata.obj
 0001:000032a8       ??_C@_08HACCIKIA@Thursday?$AA@ 00000001800042a8     libucrt:nlsdata.obj
 0001:000032b4       ??_C@_06JECMNKMI@Friday?$AA@ 00000001800042b4     libucrt:nlsdata.obj
 0001:000032c0       ??_C@_08INBOOONO@Saturday?$AA@ 00000001800042c0     libucrt:nlsdata.obj
 0001:000032cc       ??_C@_03JIHJHPIE@Jan?$AA@  00000001800042cc     libucrt:nlsdata.obj
 0001:000032d0       ??_C@_03HJBDCHOM@Feb?$AA@  00000001800042d0     libucrt:nlsdata.obj
 0001:000032d4       ??_C@_03ODNJBKGA@Mar?$AA@  00000001800042d4     libucrt:nlsdata.obj
 0001:000032d8       ??_C@_03LEOLGMJP@Apr?$AA@  00000001800042d8     libucrt:nlsdata.obj
 0001:000032dc       ??_C@_03CNMDKL@May?$AA@    00000001800042dc     libucrt:nlsdata.obj
 0001:000032e0       ??_C@_03IDFGHECI@Jun?$AA@  00000001800042e0     libucrt:nlsdata.obj
 0001:000032e4       ??_C@_03LBGABGKK@Jul?$AA@  00000001800042e4     libucrt:nlsdata.obj
 0001:000032e8       ??_C@_03IFJFEIGA@Aug?$AA@  00000001800042e8     libucrt:nlsdata.obj
 0001:000032ec       ??_C@_03GGCAPAJC@Sep?$AA@  00000001800042ec     libucrt:nlsdata.obj
 0001:000032f0       ??_C@_03BMAOKBAD@Oct?$AA@  00000001800042f0     libucrt:nlsdata.obj
 0001:000032f4       ??_C@_03JPJOFNIA@Nov?$AA@  00000001800042f4     libucrt:nlsdata.obj
 0001:000032f8       ??_C@_03MKABNOCG@Dec?$AA@  00000001800042f8     libucrt:nlsdata.obj
 0001:00003300       ??_C@_07CGJPFGJA@January?$AA@ 0000000180004300     libucrt:nlsdata.obj
 0001:00003308       ??_C@_08GNJGEPFN@February?$AA@ 0000000180004308     libucrt:nlsdata.obj
 0001:00003314       ??_C@_05HPCKOFNC@March?$AA@ 0000000180004314     libucrt:nlsdata.obj
 0001:0000331c       ??_C@_05DMJDNLEJ@April?$AA@ 000000018000431c     libucrt:nlsdata.obj
 0001:00003324       ??_C@_04CNLMGBGM@June?$AA@ 0000000180004324     libucrt:nlsdata.obj
 0001:0000332c       ??_C@_04MIEPOIFP@July?$AA@ 000000018000432c     libucrt:nlsdata.obj
 0001:00003334       ??_C@_06LBBHFDDG@August?$AA@ 0000000180004334     libucrt:nlsdata.obj
 0001:00003340       ??_C@_09BHHEALKD@September?$AA@ 0000000180004340     libucrt:nlsdata.obj
 0001:00003350       ??_C@_07JJNFCEND@October?$AA@ 0000000180004350     libucrt:nlsdata.obj
 0001:00003358       ??_C@_08HCHEGEOA@November?$AA@ 0000000180004358     libucrt:nlsdata.obj
 0001:00003368       ??_C@_08EDHMEBNP@December?$AA@ 0000000180004368     libucrt:nlsdata.obj
 0001:00003374       ??_C@_02DEDBPAFC@AM?$AA@   0000000180004374     libucrt:nlsdata.obj
 0001:00003378       ??_C@_02CJNFDJBF@PM?$AA@   0000000180004378     libucrt:nlsdata.obj
 0001:00003380       ??_C@_08BPBNCDIB@MM?1dd?1yy?$AA@ 0000000180004380     libucrt:nlsdata.obj
 0001:00003390       ??_C@_0BE@CKGJFCPC@dddd?0?5MMMM?5dd?0?5yyyy?$AA@ 0000000180004390     libucrt:nlsdata.obj
 0001:000033a8       ??_C@_08JCCMCCIL@HH?3mm?3ss?$AA@ 00000001800043a8     libucrt:nlsdata.obj
 0001:000033b8       ??_C@_17MBGCMIPB@?$AAS?$AAu?$AAn?$AA?$AA@ 00000001800043b8     libucrt:nlsdata.obj
 0001:000033c0       ??_C@_17KBOMKBF@?$AAM?$AAo?$AAn?$AA?$AA@ 00000001800043c0     libucrt:nlsdata.obj
 0001:000033c8       ??_C@_17BMKGEGOJ@?$AAT?$AAu?$AAe?$AA?$AA@ 00000001800043c8     libucrt:nlsdata.obj
 0001:000033d0       ??_C@_17CJEDCEPE@?$AAW?$AAe?$AAd?$AA?$AA@ 00000001800043d0     libucrt:nlsdata.obj
 0001:000033d8       ??_C@_17PDPHAADD@?$AAT?$AAh?$AAu?$AA?$AA@ 00000001800043d8     libucrt:nlsdata.obj
 0001:000033e0       ??_C@_17HFOLPPLP@?$AAF?$AAr?$AAi?$AA?$AA@ 00000001800043e0     libucrt:nlsdata.obj
 0001:000033e8       ??_C@_17GGIBDPIH@?$AAS?$AAa?$AAt?$AA?$AA@ 00000001800043e8     libucrt:nlsdata.obj
 0001:000033f0       ??_C@_1O@IHNHDHPB@?$AAS?$AAu?$AAn?$AAd?$AAa?$AAy?$AA?$AA@ 00000001800043f0     libucrt:nlsdata.obj
 0001:00003400       ??_C@_1O@MMNBFLIA@?$AAM?$AAo?$AAn?$AAd?$AAa?$AAy?$AA?$AA@ 0000000180004400     libucrt:nlsdata.obj
 0001:00003410       ??_C@_1BA@ENFBFFEK@?$AAT?$AAu?$AAe?$AAs?$AAd?$AAa?$AAy?$AA?$AA@ 0000000180004410     libucrt:nlsdata.obj
 0001:00003420       ??_C@_1BE@EBOGMDOH@?$AAW?$AAe?$AAd?$AAn?$AAe?$AAs?$AAd?$AAa?$AAy?$AA?$AA@ 0000000180004420     libucrt:nlsdata.obj
 0001:00003438       ??_C@_1BC@HHMNLIHE@?$AAT?$AAh?$AAu?$AAr?$AAs?$AAd?$AAa?$AAy?$AA?$AA@ 0000000180004438     libucrt:nlsdata.obj
 0001:00003450       ??_C@_1O@PDICJHAG@?$AAF?$AAr?$AAi?$AAd?$AAa?$AAy?$AA?$AA@ 0000000180004450     libucrt:nlsdata.obj
 0001:00003460       ??_C@_1BC@ENMNNPAJ@?$AAS?$AAa?$AAt?$AAu?$AAr?$AAd?$AAa?$AAy?$AA?$AA@ 0000000180004460     libucrt:nlsdata.obj
 0001:00003478       ??_C@_17DKNBKCHM@?$AAJ?$AAa?$AAn?$AA?$AA@ 0000000180004478     libucrt:nlsdata.obj
 0001:00003480       ??_C@_17LMDJEKJN@?$AAF?$AAe?$AAb?$AA?$AA@ 0000000180004480     libucrt:nlsdata.obj
 0001:00003488       ??_C@_17CKNLEDEC@?$AAM?$AAa?$AAr?$AA?$AA@ 0000000180004488     libucrt:nlsdata.obj
 0001:00003490       ??_C@_17LFPOIHDD@?$AAA?$AAp?$AAr?$AA?$AA@ 0000000180004490     libucrt:nlsdata.obj
 0001:00003498       ??_C@_17PNNKMEED@?$AAM?$AAa?$AAy?$AA?$AA@ 0000000180004498     libucrt:nlsdata.obj
 0001:000034a0       ??_C@_17KCJGOCPB@?$AAJ?$AAu?$AAn?$AA?$AA@ 00000001800044a0     libucrt:nlsdata.obj
 0001:000034a8       ??_C@_17IJPCKHK@?$AAJ?$AAu?$AAl?$AA?$AA@ 00000001800044a8     libucrt:nlsdata.obj
 0001:000034b0       ??_C@_17ICPELBCN@?$AAA?$AAu?$AAg?$AA?$AA@ 00000001800044b0     libucrt:nlsdata.obj
 0001:000034b8       ??_C@_17HCHCOKMG@?$AAS?$AAe?$AAp?$AA?$AA@ 00000001800044b8     libucrt:nlsdata.obj
 0001:000034c0       ??_C@_17FNLKOI@?$AAO?$AAc?$AAt?$AA?$AA@ 00000001800044c0     libucrt:nlsdata.obj
 0001:000034c8       ??_C@_17BBDMLCIG@?$AAN?$AAo?$AAv?$AA?$AA@ 00000001800044c8     libucrt:nlsdata.obj
 0001:000034d0       ??_C@_17EGKACKIF@?$AAD?$AAe?$AAc?$AA?$AA@ 00000001800044d0     libucrt:nlsdata.obj
 0001:000034d8       ??_C@_1BA@EFMEIEBA@?$AAJ?$AAa?$AAn?$AAu?$AAa?$AAr?$AAy?$AA?$AA@ 00000001800044d8     libucrt:nlsdata.obj
 0001:000034e8       ??_C@_1BC@JGDDFFAM@?$AAF?$AAe?$AAb?$AAr?$AAu?$AAa?$AAr?$AAy?$AA?$AA@ 00000001800044e8     libucrt:nlsdata.obj
 0001:00003500       ??_C@_1M@IKEENEDF@?$AAM?$AAa?$AAr?$AAc?$AAh?$AA?$AA@ 0000000180004500     libucrt:nlsdata.obj
 0001:00003510       ??_C@_1M@GJNLMHFD@?$AAA?$AAp?$AAr?$AAi?$AAl?$AA?$AA@ 0000000180004510     libucrt:nlsdata.obj
 0001:00003520       ??_C@_19EPFLPGAP@?$AAJ?$AAu?$AAn?$AAe?$AA?$AA@ 0000000180004520     libucrt:nlsdata.obj
 0001:00003530       ??_C@_19BIFMLPCD@?$AAJ?$AAu?$AAl?$AAy?$AA?$AA@ 0000000180004530     libucrt:nlsdata.obj
 0001:00003540       ??_C@_1O@PAHLKOAC@?$AAA?$AAu?$AAg?$AAu?$AAs?$AAt?$AA?$AA@ 0000000180004540     libucrt:nlsdata.obj
 0001:00003550       ??_C@_1BE@DKAAMBJL@?$AAS?$AAe?$AAp?$AAt?$AAe?$AAm?$AAb?$AAe?$AAr?$AA?$AA@ 0000000180004550     libucrt:nlsdata.obj
 0001:00003568       ??_C@_1BA@EPANDLNG@?$AAO?$AAc?$AAt?$AAo?$AAb?$AAe?$AAr?$AA?$AA@ 0000000180004568     libucrt:nlsdata.obj
 0001:00003578       ??_C@_1BC@BGLIFPF@?$AAN?$AAo?$AAv?$AAe?$AAm?$AAb?$AAe?$AAr?$AA?$AA@ 0000000180004578     libucrt:nlsdata.obj
 0001:00003590       ??_C@_1BC@FEMKIFH@?$AAD?$AAe?$AAc?$AAe?$AAm?$AAb?$AAe?$AAr?$AA?$AA@ 0000000180004590     libucrt:nlsdata.obj
 0001:000035a4       ??_C@_15ODEHAHHF@?$AAA?$AAM?$AA?$AA@ 00000001800045a4     libucrt:nlsdata.obj
 0001:000035ac       ??_C@_15CLMNNGEL@?$AAP?$AAM?$AA?$AA@ 00000001800045ac     libucrt:nlsdata.obj
 0001:000035b8       ??_C@_1BC@IEBCMHCM@?$AAM?$AAM?$AA?1?$AAd?$AAd?$AA?1?$AAy?$AAy?$AA?$AA@ 00000001800045b8     libucrt:nlsdata.obj
 0001:000035d0       ??_C@_1CI@KNAKOEBC@?$AAd?$AAd?$AAd?$AAd?$AA?0?$AA?5?$AAM?$AAM?$AAM?$AAM?$AA?5?$AAd?$AAd?$AA?0?$AA?5?$AAy?$AAy?$AAy?$AAy?$AA?$AA@ 00000001800045d0     libucrt:nlsdata.obj
 0001:000035f8       ??_C@_1BC@GDGBMEMK@?$AAH?$AAH?$AA?3?$AAm?$AAm?$AA?3?$AAs?$AAs?$AA?$AA@ 00000001800045f8     libucrt:nlsdata.obj
 0001:00003610       ??_C@_1M@BMHNFIME@?$AAe?$AAn?$AA?9?$AAU?$AAS?$AA?$AA@ 0000000180004610     libucrt:nlsdata.obj
 0001:00003620       __newctype                 0000000180004620     libucrt:ctype.obj
 0001:00003920       __newclmap                 0000000180004920     libucrt:ctype.obj
 0001:00003aa0       __newcumap                 0000000180004aa0     libucrt:ctype.obj
 0001:00003c20       _wctype                    0000000180004c20     libucrt:ctype.obj
 0001:00003ed0       ??_C@_1EG@CNNIPFIM@?$AAa?$AAp?$AAi?$AA?9?$AAm?$AAs?$AA?9?$AAw?$AAi?$AAn?$AA?9?$AAa?$AAp?$AAp?$AAm?$AAo?$AAd?$AAe?$AAl?$AA?9?$AAr?$AAu?$AAn?$AAt?$AAi?$AAm?$AAe?$AA?9?$AAl?$AA1?$AA?9?$AA1@ 0000000180004ed0     libucrt:winapi_thunks.obj
 0001:00003f20       ??_C@_1EA@JGEFHKEI@?$AAa?$AAp?$AAi?$AA?9?$AAm?$AAs?$AA?9?$AAw?$AAi?$AAn?$AA?9?$AAc?$AAo?$AAr?$AAe?$AA?9?$AAd?$AAa?$AAt?$AAe?$AAt?$AAi?$AAm?$AAe?$AA?9?$AAl?$AA1?$AA?9?$AA1?$AA?9?$AA1?$AA?$AA@ 0000000180004f20     libucrt:winapi_thunks.obj
 0001:00003f60       ??_C@_1DI@GCIAAENM@?$AAa?$AAp?$AAi?$AA?9?$AAm?$AAs?$AA?9?$AAw?$AAi?$AAn?$AA?9?$AAc?$AAo?$AAr?$AAe?$AA?9?$AAf?$AAi?$AAl?$AAe?$AA?9?$AAl?$AA2?$AA?9?$AA1?$AA?9?$AA1?$AA?$AA@ 0000000180004f60     libucrt:winapi_thunks.obj
 0001:00003fa0       ??_C@_1EI@MPIAOHOC@?$AAa?$AAp?$AAi?$AA?9?$AAm?$AAs?$AA?9?$AAw?$AAi?$AAn?$AA?9?$AAc?$AAo?$AAr?$AAe?$AA?9?$AAl?$AAo?$AAc?$AAa?$AAl?$AAi?$AAz?$AAa?$AAt?$AAi?$AAo?$AAn?$AA?9?$AAl?$AA1?$AA?9@ 0000000180004fa0     libucrt:winapi_thunks.obj
 0001:00003ff0       ??_C@_1FK@FPHCKFIE@?$AAa?$AAp?$AAi?$AA?9?$AAm?$AAs?$AA?9?$AAw?$AAi?$AAn?$AA?9?$AAc?$AAo?$AAr?$AAe?$AA?9?$AAl?$AAo?$AAc?$AAa?$AAl?$AAi?$AAz?$AAa?$AAt?$AAi?$AAo?$AAn?$AA?9?$AAo?$AAb?$AAs@ 0000000180004ff0     libucrt:winapi_thunks.obj
 0001:00004050       ??_C@_1EM@DILCGIIO@?$AAa?$AAp?$AAi?$AA?9?$AAm?$AAs?$AA?9?$AAw?$AAi?$AAn?$AA?9?$AAc?$AAo?$AAr?$AAe?$AA?9?$AAp?$AAr?$AAo?$AAc?$AAe?$AAs?$AAs?$AAt?$AAh?$AAr?$AAe?$AAa?$AAd?$AAs?$AA?9?$AAl@ 0000000180005050     libucrt:winapi_thunks.obj
 0001:000040a0       ??_C@_1DM@LNCGDDPN@?$AAa?$AAp?$AAi?$AA?9?$AAm?$AAs?$AA?9?$AAw?$AAi?$AAn?$AA?9?$AAc?$AAo?$AAr?$AAe?$AA?9?$AAs?$AAt?$AAr?$AAi?$AAn?$AAg?$AA?9?$AAl?$AA1?$AA?9?$AA1?$AA?9?$AA0?$AA?$AA@ 00000001800050a0     libucrt:winapi_thunks.obj
 0001:000040e0       ??_C@_1DO@FPAPJEMD@?$AAa?$AAp?$AAi?$AA?9?$AAm?$AAs?$AA?9?$AAw?$AAi?$AAn?$AA?9?$AAc?$AAo?$AAr?$AAe?$AA?9?$AAs?$AAy?$AAs?$AAi?$AAn?$AAf?$AAo?$AA?9?$AAl?$AA1?$AA?9?$AA2?$AA?9?$AA1?$AA?$AA@ 00000001800050e0     libucrt:winapi_thunks.obj
 0001:00004120       ??_C@_1DK@NDHNAHIO@?$AAa?$AAp?$AAi?$AA?9?$AAm?$AAs?$AA?9?$AAw?$AAi?$AAn?$AA?9?$AAc?$AAo?$AAr?$AAe?$AA?9?$AAw?$AAi?$AAn?$AAr?$AAt?$AA?9?$AAl?$AA1?$AA?9?$AA1?$AA?9?$AA0?$AA?$AA@ 0000000180005120     libucrt:winapi_thunks.obj
 0001:00004160       ??_C@_1DM@KGHDGBCM@?$AAa?$AAp?$AAi?$AA?9?$AAm?$AAs?$AA?9?$AAw?$AAi?$AAn?$AA?9?$AAc?$AAo?$AAr?$AAe?$AA?9?$AAx?$AAs?$AAt?$AAa?$AAt?$AAe?$AA?9?$AAl?$AA2?$AA?9?$AA1?$AA?9?$AA0?$AA?$AA@ 0000000180005160     libucrt:winapi_thunks.obj
 0001:000041a0       ??_C@_1EO@IJIOEFOH@?$AAa?$AAp?$AAi?$AA?9?$AAm?$AAs?$AA?9?$AAw?$AAi?$AAn?$AA?9?$AAr?$AAt?$AAc?$AAo?$AAr?$AAe?$AA?9?$AAn?$AAt?$AAu?$AAs?$AAe?$AAr?$AA?9?$AAw?$AAi?$AAn?$AAd?$AAo?$AAw?$AA?9@ 00000001800051a0     libucrt:winapi_thunks.obj
 0001:000041f0       ??_C@_1FG@HHGEKANL@?$AAa?$AAp?$AAi?$AA?9?$AAm?$AAs?$AA?9?$AAw?$AAi?$AAn?$AA?9?$AAs?$AAe?$AAc?$AAu?$AAr?$AAi?$AAt?$AAy?$AA?9?$AAs?$AAy?$AAs?$AAt?$AAe?$AAm?$AAf?$AAu?$AAn?$AAc?$AAt?$AAi@ 00000001800051f0     libucrt:winapi_thunks.obj
 0001:00004250       ??_C@_1FG@NCKKOLKO@?$AAe?$AAx?$AAt?$AA?9?$AAm?$AAs?$AA?9?$AAw?$AAi?$AAn?$AA?9?$AAk?$AAe?$AAr?$AAn?$AAe?$AAl?$AA3?$AA2?$AA?9?$AAp?$AAa?$AAc?$AAk?$AAa?$AAg?$AAe?$AA?9?$AAc?$AAu?$AAr?$AAr@ 0000000180005250     libucrt:winapi_thunks.obj
 0001:000042b0       ??_C@_1EG@DBIOJECG@?$AAe?$AAx?$AAt?$AA?9?$AAm?$AAs?$AA?9?$AAw?$AAi?$AAn?$AA?9?$AAn?$AAt?$AAu?$AAs?$AAe?$AAr?$AA?9?$AAd?$AAi?$AAa?$AAl?$AAo?$AAg?$AAb?$AAo?$AAx?$AA?9?$AAl?$AA1?$AA?9?$AA1@ 00000001800052b0     libucrt:winapi_thunks.obj
 0001:00004300       ??_C@_1EO@FIHMJCLF@?$AAe?$AAx?$AAt?$AA?9?$AAm?$AAs?$AA?9?$AAw?$AAi?$AAn?$AA?9?$AAn?$AAt?$AAu?$AAs?$AAe?$AAr?$AA?9?$AAw?$AAi?$AAn?$AAd?$AAo?$AAw?$AAs?$AAt?$AAa?$AAt?$AAi?$AAo?$AAn?$AA?9@ 0000000180005300     libucrt:winapi_thunks.obj
 0001:00004378       ??_C@_0BE@JOGNEJCI@GetCurrentPackageId?$AA@ 0000000180005378     libucrt:winapi_thunks.obj
 0001:000043a0       ??_C@_0O@KKBNKAPF@LCMapStringEx?$AA@ 00000001800053a0     libucrt:winapi_thunks.obj
 0001:000043b8       ??_C@_0BB@HBDEELFH@LocaleNameToLCID?$AA@ 00000001800053b8     libucrt:winapi_thunks.obj
 0001:000043f0       ??_C@_1M@HPNHIDJI@?$AAj?$AAa?$AA?9?$AAJ?$AAP?$AA?$AA@ 00000001800053f0     libucrt:mbctype.obj
 0001:00004400       ??_C@_1M@BIBDDEMK@?$AAz?$AAh?$AA?9?$AAC?$AAN?$AA?$AA@ 0000000180005400     libucrt:mbctype.obj
 0001:00004410       ??_C@_1M@JLOOOEGK@?$AAk?$AAo?$AA?9?$AAK?$AAR?$AA?$AA@ 0000000180005410     libucrt:mbctype.obj
 0001:00004420       ??_C@_1M@CLNBBOPM@?$AAz?$AAh?$AA?9?$AAT?$AAW?$AA?$AA@ 0000000180005420     libucrt:mbctype.obj
 0001:0000442c       ??_C@_15PJPFLCCM@?$AAu?$AAk?$AA?$AA@ 000000018000542c     libucrt:get_qualified_locale.obj
 0001:00005280       ??_C@_15EMKDOKLE@?$AAa?$AAr?$AA?$AA@ 0000000180006280     libucrt:lcidtoname_downlevel.obj
 0001:00005288       ??_C@_15KNPADPLH@?$AAb?$AAg?$AA?$AA@ 0000000180006288     libucrt:lcidtoname_downlevel.obj
 0001:00005290       ??_C@_15EDMHLDMO@?$AAc?$AAa?$AA?$AA@ 0000000180006290     libucrt:lcidtoname_downlevel.obj
 0001:00005298       ??_C@_1O@BPEAJADD@?$AAz?$AAh?$AA?9?$AAC?$AAH?$AAS?$AA?$AA@ 0000000180006298     libucrt:lcidtoname_downlevel.obj
 0001:000052a8       ??_C@_15LJNHCMNK@?$AAc?$AAs?$AA?$AA@ 00000001800062a8     libucrt:lcidtoname_downlevel.obj
 0001:000052b0       ??_C@_15FOMCIDHG@?$AAd?$AAa?$AA?$AA@ 00000001800062b0     libucrt:lcidtoname_downlevel.obj
 0001:000052b8       ??_C@_15NBKABECB@?$AAd?$AAe?$AA?$AA@ 00000001800062b8     libucrt:lcidtoname_downlevel.obj
 0001:000052c0       ??_C@_15GHPEIIAO@?$AAe?$AAl?$AA?$AA@ 00000001800062c0     libucrt:lcidtoname_downlevel.obj
 0001:000052c8       ??_C@_15MNPNEAIF@?$AAe?$AAn?$AA?$AA@ 00000001800062c8     libucrt:lcidtoname_downlevel.obj
 0001:000052d0       ??_C@_15GPIOMPMH@?$AAe?$AAs?$AA?$AA@ 00000001800062d0     libucrt:lcidtoname_downlevel.obj
 0001:000052d8       ??_C@_15NGLOAKJC@?$AAf?$AAi?$AA?$AA@ 00000001800062d8     libucrt:lcidtoname_downlevel.obj
 0001:000052e0       ??_C@_15FBKGNKAM@?$AAf?$AAr?$AA?$AA@ 00000001800062e0     libucrt:lcidtoname_downlevel.obj
 0001:000052e8       ??_C@_15KGGCNEFK@?$AAh?$AAe?$AA?$AA@ 00000001800062e8     libucrt:lcidtoname_downlevel.obj
 0001:000052f0       ??_C@_15PGHLIDMF@?$AAh?$AAu?$AA?$AA@ 00000001800062f0     libucrt:lcidtoname_downlevel.obj
 0001:000052f8       ??_C@_15BIEMAPLM@?$AAi?$AAs?$AA?$AA@ 00000001800062f8     libucrt:lcidtoname_downlevel.obj
 0001:00005300       ??_C@_15IFJLDHAF@?$AAi?$AAt?$AA?$AA@ 0000000180006300     libucrt:lcidtoname_downlevel.obj
 0001:00005308       ??_C@_15GEMIOCAG@?$AAj?$AAa?$AA?$AA@ 0000000180006308     libucrt:lcidtoname_downlevel.obj
 0001:00005310       ??_C@_15EPELEGJA@?$AAk?$AAo?$AA?$AA@ 0000000180006310     libucrt:lcidtoname_downlevel.obj
 0001:00005318       ??_C@_15NDDHIMN@?$AAn?$AAl?$AA?$AA@ 0000000180006318     libucrt:lcidtoname_downlevel.obj
 0001:00005320       ??_C@_15BPIGNHCD@?$AAn?$AAo?$AA?$AA@ 0000000180006320     libucrt:lcidtoname_downlevel.obj
 0001:00005328       ??_C@_15DEOPBLCG@?$AAp?$AAl?$AA?$AA@ 0000000180006328     libucrt:lcidtoname_downlevel.obj
 0001:00005330       ??_C@_15KBECGEFG@?$AAp?$AAt?$AA?$AA@ 0000000180006330     libucrt:lcidtoname_downlevel.obj
 0001:00005338       ??_C@_15GLJCBFMD@?$AAr?$AAo?$AA?$AA@ 0000000180006338     libucrt:lcidtoname_downlevel.obj
 0001:00005340       ??_C@_15FEDGKCDI@?$AAr?$AAu?$AA?$AA@ 0000000180006340     libucrt:lcidtoname_downlevel.obj
 0001:00005348       ??_C@_15GLKMLLHM@?$AAh?$AAr?$AA?$AA@ 0000000180006348     libucrt:lcidtoname_downlevel.obj
 0001:00005350       ??_C@_15CPKMFBDB@?$AAs?$AAk?$AA?$AA@ 0000000180006350     libucrt:lcidtoname_downlevel.obj
 0001:00005358       ??_C@_15BAAIOGMK@?$AAs?$AAq?$AA?$AA@ 0000000180006358     libucrt:lcidtoname_downlevel.obj
 0001:00005360       ??_C@_15INNPNOHD@?$AAs?$AAv?$AA?$AA@ 0000000180006360     libucrt:lcidtoname_downlevel.obj
 0001:00005368       ??_C@_15CABMMOGH@?$AAt?$AAh?$AA?$AA@ 0000000180006368     libucrt:lcidtoname_downlevel.obj
 0001:00005370       ??_C@_15BPLIHJJM@?$AAt?$AAr?$AA?$AA@ 0000000180006370     libucrt:lcidtoname_downlevel.obj
 0001:00005378       ??_C@_15NEOEKKDJ@?$AAu?$AAr?$AA?$AA@ 0000000180006378     libucrt:lcidtoname_downlevel.obj
 0001:00005380       ??_C@_15NFICGAJK@?$AAi?$AAd?$AA?$AA@ 0000000180006380     libucrt:lcidtoname_downlevel.obj
 0001:00005388       ??_C@_15HPJPHDM@?$AAb?$AAe?$AA?$AA@ 0000000180006388     libucrt:lcidtoname_downlevel.obj
 0001:00005390       ??_C@_15LCHLGJII@?$AAs?$AAl?$AA?$AA@ 0000000180006390     libucrt:lcidtoname_downlevel.obj
 0001:00005398       ??_C@_15PCFJPHHO@?$AAe?$AAt?$AA?$AA@ 0000000180006398     libucrt:lcidtoname_downlevel.obj
 0001:000053a0       ??_C@_15HPFPGODN@?$AAl?$AAv?$AA?$AA@ 00000001800063a0     libucrt:lcidtoname_downlevel.obj
 0001:000053a8       ??_C@_15NFFGKGLG@?$AAl?$AAt?$AA?$AA@ 00000001800063a8     libucrt:lcidtoname_downlevel.obj
 0001:000053b0       ??_C@_15BDAKCCHN@?$AAf?$AAa?$AA?$AA@ 00000001800063b0     libucrt:lcidtoname_downlevel.obj
 0001:000053b8       ??_C@_15NFGIAIAJ@?$AAv?$AAi?$AA?$AA@ 00000001800063b8     libucrt:lcidtoname_downlevel.obj
 0001:000053c0       ??_C@_15LMKNDMHN@?$AAh?$AAy?$AA?$AA@ 00000001800063c0     libucrt:lcidtoname_downlevel.obj
 0001:000053c8       ??_C@_15IJBHMCFL@?$AAa?$AAz?$AA?$AA@ 00000001800063c8     libucrt:lcidtoname_downlevel.obj
 0001:000053d0       ??_C@_15EKOFJABL@?$AAe?$AAu?$AA?$AA@ 00000001800063d0     libucrt:lcidtoname_downlevel.obj
 0001:000053d8       ??_C@_15BGHADCNK@?$AAm?$AAk?$AA?$AA@ 00000001800063d8     libucrt:lcidtoname_downlevel.obj
 0001:000053e0       ??_C@_15JDNICKHM@?$AAa?$AAf?$AA?$AA@ 00000001800063e0     libucrt:lcidtoname_downlevel.obj
 0001:000053e8       ??_C@_15KPJEDBKD@?$AAk?$AAa?$AA?$AA@ 00000001800063e8     libucrt:lcidtoname_downlevel.obj
 0001:000053f0       ??_C@_15PDNFFFEO@?$AAf?$AAo?$AA?$AA@ 00000001800063f0     libucrt:lcidtoname_downlevel.obj
 0001:000053f8       ??_C@_15OMLEGLOC@?$AAh?$AAi?$AA?$AA@ 00000001800063f8     libucrt:lcidtoname_downlevel.obj
 0001:00005400       ??_C@_15IDNNENKK@?$AAm?$AAs?$AA?$AA@ 0000000180006400     libucrt:lcidtoname_downlevel.obj
 0001:00005408       ??_C@_15MACJNBMH@?$AAk?$AAk?$AA?$AA@ 0000000180006408     libucrt:lcidtoname_downlevel.obj
 0001:00005410       ??_C@_15DKDJEOND@?$AAk?$AAy?$AA?$AA@ 0000000180006410     libucrt:lcidtoname_downlevel.obj
 0001:00005418       ??_C@_15DFGDLJBG@?$AAs?$AAw?$AA?$AA@ 0000000180006418     libucrt:lcidtoname_downlevel.obj
 0001:00005420       ??_C@_15BBFAICNG@?$AAu?$AAz?$AA?$AA@ 0000000180006420     libucrt:lcidtoname_downlevel.obj
 0001:00005428       ??_C@_15DKNDCGEA@?$AAt?$AAt?$AA?$AA@ 0000000180006428     libucrt:lcidtoname_downlevel.obj
 0001:00005430       ??_C@_15MGIFMDPL@?$AAp?$AAa?$AA?$AA@ 0000000180006430     libucrt:lcidtoname_downlevel.obj
 0001:00005438       ??_C@_15HCNDBBA@?$AAg?$AAu?$AA?$AA@ 0000000180006438     libucrt:lcidtoname_downlevel.obj
 0001:00005440       ??_C@_15FNBEIBON@?$AAt?$AAa?$AA?$AA@ 0000000180006440     libucrt:lcidtoname_downlevel.obj
 0001:00005448       ??_C@_15NCHGBGLK@?$AAt?$AAe?$AA?$AA@ 0000000180006448     libucrt:lcidtoname_downlevel.obj
 0001:00005450       ??_C@_15PHPHCBPF@?$AAk?$AAn?$AA?$AA@ 0000000180006450     libucrt:lcidtoname_downlevel.obj
 0001:00005458       ??_C@_15DLGBCKMP@?$AAm?$AAr?$AA?$AA@ 0000000180006458     libucrt:lcidtoname_downlevel.obj
 0001:00005460       ??_C@_15EABBLBFF@?$AAs?$AAa?$AA?$AA@ 0000000180006460     libucrt:lcidtoname_downlevel.obj
 0001:00005468       ??_C@_15CBKOMCOI@?$AAm?$AAn?$AA?$AA@ 0000000180006468     libucrt:lcidtoname_downlevel.obj
 0001:00005470       ??_C@_15CKDMCJAF@?$AAg?$AAl?$AA?$AA@ 0000000180006470     libucrt:lcidtoname_downlevel.obj
 0001:00005478       ??_C@_17CNJFBPG@?$AAk?$AAo?$AAk?$AA?$AA@ 0000000180006478     libucrt:lcidtoname_downlevel.obj
 0001:00005480       ??_C@_17FFBJICPL@?$AAs?$AAy?$AAr?$AA?$AA@ 0000000180006480     libucrt:lcidtoname_downlevel.obj
 0001:00005488       ??_C@_17KPNDCPAF@?$AAd?$AAi?$AAv?$AA?$AA@ 0000000180006488     libucrt:lcidtoname_downlevel.obj
 0001:00005490       ??_C@_1M@OKAHONE@?$AAa?$AAr?$AA?9?$AAS?$AAA?$AA?$AA@ 0000000180006490     libucrt:lcidtoname_downlevel.obj
 0001:000054a0       ??_C@_1M@FFFIGIGK@?$AAb?$AAg?$AA?9?$AAB?$AAG?$AA?$AA@ 00000001800064a0     libucrt:lcidtoname_downlevel.obj
 0001:000054b0       ??_C@_1M@BJNKEDC@?$AAc?$AAa?$AA?9?$AAE?$AAS?$AA?$AA@ 00000001800064b0     libucrt:lcidtoname_downlevel.obj
 0001:000054c0       ??_C@_1M@IJJHFJHA@?$AAc?$AAs?$AA?9?$AAC?$AAZ?$AA?$AA@ 00000001800064c0     libucrt:lcidtoname_downlevel.obj
 0001:000054d0       ??_C@_1M@CLPEOBGI@?$AAd?$AAa?$AA?9?$AAD?$AAK?$AA?$AA@ 00000001800064d0     libucrt:lcidtoname_downlevel.obj
 0001:000054e0       ??_C@_1M@MCMADGCB@?$AAd?$AAe?$AA?9?$AAD?$AAE?$AA?$AA@ 00000001800064e0     libucrt:lcidtoname_downlevel.obj
 0001:000054f0       ??_C@_1M@OOCKEMAM@?$AAe?$AAl?$AA?9?$AAG?$AAR?$AA?$AA@ 00000001800064f0     libucrt:lcidtoname_downlevel.obj
 0001:00005500       ??_C@_1M@DDNJFGID@?$AAf?$AAi?$AA?9?$AAF?$AAI?$AA?$AA@ 0000000180006500     libucrt:lcidtoname_downlevel.obj
 0001:00005510       ??_C@_1M@GLIPPMAC@?$AAf?$AAr?$AA?9?$AAF?$AAR?$AA?$AA@ 0000000180006510     libucrt:lcidtoname_downlevel.obj
 0001:00005520       ??_C@_1M@GFMCHPE@?$AAh?$AAe?$AA?9?$AAI?$AAL?$AA?$AA@ 0000000180006520     libucrt:lcidtoname_downlevel.obj
 0001:00005530       ??_C@_1M@MHLPGNKM@?$AAh?$AAu?$AA?9?$AAH?$AAU?$AA?$AA@ 0000000180006530     libucrt:lcidtoname_downlevel.obj
 0001:00005540       ??_C@_1M@LPDDNNPN@?$AAi?$AAs?$AA?9?$AAI?$AAS?$AA?$AA@ 0000000180006540     libucrt:lcidtoname_downlevel.obj
 0001:00005550       ??_C@_1M@MADIPODN@?$AAi?$AAt?$AA?9?$AAI?$AAT?$AA?$AA@ 0000000180006550     libucrt:lcidtoname_downlevel.obj
 0001:00005560       ??_C@_1M@IHBJJGG@?$AAn?$AAl?$AA?9?$AAN?$AAL?$AA?$AA@ 0000000180006560     libucrt:lcidtoname_downlevel.obj
 0001:00005570       ??_C@_1M@EANAGDL@?$AAn?$AAb?$AA?9?$AAN?$AAO?$AA?$AA@ 0000000180006570     libucrt:lcidtoname_downlevel.obj
 0001:00005580       ??_C@_1M@NEIEMEGP@?$AAp?$AAl?$AA?9?$AAP?$AAL?$AA?$AA@ 0000000180006580     libucrt:lcidtoname_downlevel.obj
 0001:00005590       ??_C@_1M@BOCFIGEP@?$AAp?$AAt?$AA?9?$AAB?$AAR?$AA?$AA@ 0000000180006590     libucrt:lcidtoname_downlevel.obj
 0001:000055a0       ??_C@_1M@IMPFOPBG@?$AAr?$AAo?$AA?9?$AAR?$AAO?$AA?$AA@ 00000001800065a0     libucrt:lcidtoname_downlevel.obj
 0001:000055b0       ??_C@_1M@IDNNEJMM@?$AAr?$AAu?$AA?9?$AAR?$AAU?$AA?$AA@ 00000001800065b0     libucrt:lcidtoname_downlevel.obj
 0001:000055c0       ??_C@_1M@LILEEOGM@?$AAh?$AAr?$AA?9?$AAH?$AAR?$AA?$AA@ 00000001800065c0     libucrt:lcidtoname_downlevel.obj
 0001:000055d0       ??_C@_1M@FKIFEHPB@?$AAs?$AAk?$AA?9?$AAS?$AAK?$AA?$AA@ 00000001800065d0     libucrt:lcidtoname_downlevel.obj
 0001:000055e0       ??_C@_1M@LJMAMNPJ@?$AAs?$AAq?$AA?9?$AAA?$AAL?$AA?$AA@ 00000001800065e0     libucrt:lcidtoname_downlevel.obj
 0001:000055f0       ??_C@_1M@GIAKDKJK@?$AAs?$AAv?$AA?9?$AAS?$AAE?$AA?$AA@ 00000001800065f0     libucrt:lcidtoname_downlevel.obj
 0001:00005600       ??_C@_1M@MKJKIKCL@?$AAt?$AAh?$AA?9?$AAT?$AAH?$AA?$AA@ 0000000180006600     libucrt:lcidtoname_downlevel.obj
 0001:00005610       ??_C@_1M@MFLCCMPB@?$AAt?$AAr?$AA?9?$AAT?$AAR?$AA?$AA@ 0000000180006610     libucrt:lcidtoname_downlevel.obj
 0001:00005620       ??_C@_1M@OIJHDKJN@?$AAu?$AAr?$AA?9?$AAP?$AAK?$AA?$AA@ 0000000180006620     libucrt:lcidtoname_downlevel.obj
 0001:00005630       ??_C@_1M@LHIPCIEK@?$AAi?$AAd?$AA?9?$AAI?$AAD?$AA?$AA@ 0000000180006630     libucrt:lcidtoname_downlevel.obj
 0001:00005640       ??_C@_1M@MFMOBGI@?$AAu?$AAk?$AA?9?$AAU?$AAA?$AA?$AA@ 0000000180006640     libucrt:lcidtoname_downlevel.obj
 0001:00005650       ??_C@_1M@OBGLJIPL@?$AAb?$AAe?$AA?9?$AAB?$AAY?$AA?$AA@ 0000000180006650     libucrt:lcidtoname_downlevel.obj
 0001:00005660       ??_C@_1M@BCFAJEAD@?$AAs?$AAl?$AA?9?$AAS?$AAI?$AA?$AA@ 0000000180006660     libucrt:lcidtoname_downlevel.obj
 0001:00005670       ??_C@_1M@FKFFEDDN@?$AAe?$AAt?$AA?9?$AAE?$AAE?$AA?$AA@ 0000000180006670     libucrt:lcidtoname_downlevel.obj
 0001:00005680       ??_C@_1M@KGKKAACI@?$AAl?$AAv?$AA?9?$AAL?$AAV?$AA?$AA@ 0000000180006680     libucrt:lcidtoname_downlevel.obj
 0001:00005690       ??_C@_1M@IFGBIJO@?$AAl?$AAt?$AA?9?$AAL?$AAT?$AA?$AA@ 0000000180006690     libucrt:lcidtoname_downlevel.obj
 0001:000056a0       ??_C@_1M@FGEAHEDM@?$AAf?$AAa?$AA?9?$AAI?$AAR?$AA?$AA@ 00000001800066a0     libucrt:lcidtoname_downlevel.obj
 0001:000056b0       ??_C@_1M@KBMAIBFN@?$AAv?$AAi?$AA?9?$AAV?$AAN?$AA?$AA@ 00000001800066b0     libucrt:lcidtoname_downlevel.obj
 0001:000056c0       ??_C@_1M@GPCBKDJK@?$AAh?$AAy?$AA?9?$AAA?$AAM?$AA?$AA@ 00000001800066c0     libucrt:lcidtoname_downlevel.obj
 0001:000056d0       ??_C@_1BG@BECMDDJB@?$AAa?$AAz?$AA?9?$AAA?$AAZ?$AA?9?$AAL?$AAa?$AAt?$AAn?$AA?$AA@ 00000001800066d0     libucrt:lcidtoname_downlevel.obj
 0001:000056e8       ??_C@_1M@MAOFCAEA@?$AAe?$AAu?$AA?9?$AAE?$AAS?$AA?$AA@ 00000001800066e8     libucrt:lcidtoname_downlevel.obj
 0001:000056f8       ??_C@_1M@IGHABKPI@?$AAm?$AAk?$AA?9?$AAM?$AAK?$AA?$AA@ 00000001800066f8     libucrt:lcidtoname_downlevel.obj
 0001:00005708       ??_C@_1M@IAIGNEJG@?$AAt?$AAn?$AA?9?$AAZ?$AAA?$AA?$AA@ 0000000180006708     libucrt:lcidtoname_downlevel.obj
 0001:00005718       ??_C@_1M@IIJCOJFA@?$AAx?$AAh?$AA?9?$AAZ?$AAA?$AA?$AA@ 0000000180006718     libucrt:lcidtoname_downlevel.obj
 0001:00005728       ??_C@_1M@LGPJHNJH@?$AAz?$AAu?$AA?9?$AAZ?$AAA?$AA?$AA@ 0000000180006728     libucrt:lcidtoname_downlevel.obj
 0001:00005738       ??_C@_1M@HOKAOIO@?$AAa?$AAf?$AA?9?$AAZ?$AAA?$AA?$AA@ 0000000180006738     libucrt:lcidtoname_downlevel.obj
 0001:00005748       ??_C@_1M@DPCLHLIE@?$AAk?$AAa?$AA?9?$AAG?$AAE?$AA?$AA@ 0000000180006748     libucrt:lcidtoname_downlevel.obj
 0001:00005758       ??_C@_1M@BLKMHJBI@?$AAf?$AAo?$AA?9?$AAF?$AAO?$AA?$AA@ 0000000180006758     libucrt:lcidtoname_downlevel.obj
 0001:00005768       ??_C@_1M@LGGJAPPB@?$AAh?$AAi?$AA?9?$AAI?$AAN?$AA?$AA@ 0000000180006768     libucrt:lcidtoname_downlevel.obj
 0001:00005778       ??_C@_1M@FIKPIHFE@?$AAm?$AAt?$AA?9?$AAM?$AAT?$AA?$AA@ 0000000180006778     libucrt:lcidtoname_downlevel.obj
 0001:00005788       ??_C@_1M@HEGGPBFA@?$AAs?$AAe?$AA?9?$AAN?$AAO?$AA?$AA@ 0000000180006788     libucrt:lcidtoname_downlevel.obj
 0001:00005798       ??_C@_1M@EIBJEEPA@?$AAm?$AAs?$AA?9?$AAM?$AAY?$AA?$AA@ 0000000180006798     libucrt:lcidtoname_downlevel.obj
 0001:000057a8       ??_C@_1M@FHLBGMPP@?$AAk?$AAk?$AA?9?$AAK?$AAZ?$AA?$AA@ 00000001800067a8     libucrt:lcidtoname_downlevel.obj
 0001:000057b8       ??_C@_1M@NGJJLCGI@?$AAk?$AAy?$AA?9?$AAK?$AAG?$AA?$AA@ 00000001800067b8     libucrt:lcidtoname_downlevel.obj
 0001:000057c8       ??_C@_1M@GIENNBFC@?$AAs?$AAw?$AA?9?$AAK?$AAE?$AA?$AA@ 00000001800067c8     libucrt:lcidtoname_downlevel.obj
 0001:000057d8       ??_C@_1BG@NDGMJIMJ@?$AAu?$AAz?$AA?9?$AAU?$AAZ?$AA?9?$AAL?$AAa?$AAt?$AAn?$AA?$AA@ 00000001800067d8     libucrt:lcidtoname_downlevel.obj
 0001:000057f0       ??_C@_1M@IDCCIHBC@?$AAt?$AAt?$AA?9?$AAR?$AAU?$AA?$AA@ 00000001800067f0     libucrt:lcidtoname_downlevel.obj
 0001:00005800       ??_C@_1M@LOICPMOJ@?$AAb?$AAn?$AA?9?$AAI?$AAN?$AA?$AA@ 0000000180006800     libucrt:lcidtoname_downlevel.obj
 0001:00005810       ??_C@_1M@KPKKNEAH@?$AAp?$AAa?$AA?9?$AAI?$AAN?$AA?$AA@ 0000000180006810     libucrt:lcidtoname_downlevel.obj
 0001:00005820       ??_C@_1M@PJGPPBOG@?$AAg?$AAu?$AA?9?$AAI?$AAN?$AA?$AA@ 0000000180006820     libucrt:lcidtoname_downlevel.obj
 0001:00005830       ??_C@_1M@KMKMOPHI@?$AAt?$AAa?$AA?9?$AAI?$AAN?$AA?$AA@ 0000000180006830     libucrt:lcidtoname_downlevel.obj
 0001:00005840       ??_C@_1M@KFEHEPAC@?$AAt?$AAe?$AA?9?$AAI?$AAN?$AA?$AA@ 0000000180006840     libucrt:lcidtoname_downlevel.obj
 0001:00005850       ??_C@_1M@CDCLMGHI@?$AAk?$AAn?$AA?9?$AAI?$AAN?$AA?$AA@ 0000000180006850     libucrt:lcidtoname_downlevel.obj
 0001:00005860       ??_C@_1M@MIODLDKF@?$AAm?$AAl?$AA?9?$AAI?$AAN?$AA?$AA@ 0000000180006860     libucrt:lcidtoname_downlevel.obj
 0001:00005870       ??_C@_1M@PBIEACPO@?$AAm?$AAr?$AA?9?$AAI?$AAN?$AA?$AA@ 0000000180006870     libucrt:lcidtoname_downlevel.obj
 0001:00005880       ??_C@_1M@NIDEAGPH@?$AAs?$AAa?$AA?9?$AAI?$AAN?$AA?$AA@ 0000000180006880     libucrt:lcidtoname_downlevel.obj
 0001:00005890       ??_C@_1M@FHIHCBIO@?$AAm?$AAn?$AA?9?$AAM?$AAN?$AA?$AA@ 0000000180006890     libucrt:lcidtoname_downlevel.obj
 0001:000058a0       ??_C@_1M@JAIJPENP@?$AAc?$AAy?$AA?9?$AAG?$AAB?$AA?$AA@ 00000001800068a0     libucrt:lcidtoname_downlevel.obj
 0001:000058b0       ??_C@_1M@PHGFBEPN@?$AAg?$AAl?$AA?9?$AAE?$AAS?$AA?$AA@ 00000001800068b0     libucrt:lcidtoname_downlevel.obj
 0001:000058c0       ??_C@_1O@KPIPDNCP@?$AAk?$AAo?$AAk?$AA?9?$AAI?$AAN?$AA?$AA@ 00000001800068c0     libucrt:lcidtoname_downlevel.obj
 0001:000058d0       ??_C@_1O@KNHJLDJA@?$AAs?$AAy?$AAr?$AA?9?$AAS?$AAY?$AA?$AA@ 00000001800068d0     libucrt:lcidtoname_downlevel.obj
 0001:000058e0       ??_C@_1O@MKEKBLAH@?$AAd?$AAi?$AAv?$AA?9?$AAM?$AAV?$AA?$AA@ 00000001800068e0     libucrt:lcidtoname_downlevel.obj
 0001:000058f0       ??_C@_1O@OHDCKDDF@?$AAq?$AAu?$AAz?$AA?9?$AAB?$AAO?$AA?$AA@ 00000001800068f0     libucrt:lcidtoname_downlevel.obj
 0001:00005900       ??_C@_1M@LEPJNLFD@?$AAn?$AAs?$AA?9?$AAZ?$AAA?$AA?$AA@ 0000000180006900     libucrt:lcidtoname_downlevel.obj
 0001:00005910       ??_C@_1M@OMLEIIJB@?$AAm?$AAi?$AA?9?$AAN?$AAZ?$AA?$AA@ 0000000180006910     libucrt:lcidtoname_downlevel.obj
 0001:00005920       ??_C@_1M@PMPEAILG@?$AAa?$AAr?$AA?9?$AAI?$AAQ?$AA?$AA@ 0000000180006920     libucrt:lcidtoname_downlevel.obj
 0001:00005930       ??_C@_1M@CNKPNOEE@?$AAd?$AAe?$AA?9?$AAC?$AAH?$AA?$AA@ 0000000180006930     libucrt:lcidtoname_downlevel.obj
 0001:00005940       ??_C@_1M@LKMGMLKO@?$AAe?$AAn?$AA?9?$AAG?$AAB?$AA?$AA@ 0000000180006940     libucrt:lcidtoname_downlevel.obj
 0001:00005950       ??_C@_1M@PGKJFFGL@?$AAe?$AAs?$AA?9?$AAM?$AAX?$AA?$AA@ 0000000180006950     libucrt:lcidtoname_downlevel.obj
 0001:00005960       ??_C@_1M@DNNANBDC@?$AAf?$AAr?$AA?9?$AAB?$AAE?$AA?$AA@ 0000000180006960     libucrt:lcidtoname_downlevel.obj
 0001:00005970       ??_C@_1M@HLGMDFHM@?$AAi?$AAt?$AA?9?$AAC?$AAH?$AA?$AA@ 0000000180006970     libucrt:lcidtoname_downlevel.obj
 0001:00005980       ??_C@_1M@CLLBGJH@?$AAn?$AAl?$AA?9?$AAB?$AAE?$AA?$AA@ 0000000180006980     libucrt:lcidtoname_downlevel.obj
 0001:00005990       ??_C@_1M@BODBOGLF@?$AAn?$AAn?$AA?9?$AAN?$AAO?$AA?$AA@ 0000000180006990     libucrt:lcidtoname_downlevel.obj
 0001:000059a0       ??_C@_1M@HFFAHKAD@?$AAp?$AAt?$AA?9?$AAP?$AAT?$AA?$AA@ 00000001800069a0     libucrt:lcidtoname_downlevel.obj
 0001:000059b0       ??_C@_1BG@LNOAKHIE@?$AAs?$AAr?$AA?9?$AAS?$AAP?$AA?9?$AAL?$AAa?$AAt?$AAn?$AA?$AA@ 00000001800069b0     libucrt:lcidtoname_downlevel.obj
 0001:000059c8       ??_C@_1M@HBMHBGAK@?$AAs?$AAv?$AA?9?$AAF?$AAI?$AA?$AA@ 00000001800069c8     libucrt:lcidtoname_downlevel.obj
 0001:000059d8       ??_C@_1BG@DGCJGJBE@?$AAa?$AAz?$AA?9?$AAA?$AAZ?$AA?9?$AAC?$AAy?$AAr?$AAl?$AA?$AA@ 00000001800069d8     libucrt:lcidtoname_downlevel.obj
 0001:000059f0       ??_C@_1M@KEJDAAHB@?$AAs?$AAe?$AA?9?$AAS?$AAE?$AA?$AA@ 00000001800069f0     libucrt:lcidtoname_downlevel.obj
 0001:00005a00       ??_C@_1M@HEIBJJAD@?$AAm?$AAs?$AA?9?$AAB?$AAN?$AA?$AA@ 0000000180006a00     libucrt:lcidtoname_downlevel.obj
 0001:00005a10       ??_C@_1BG@PBGJMCEM@?$AAu?$AAz?$AA?9?$AAU?$AAZ?$AA?9?$AAC?$AAy?$AAr?$AAl?$AA?$AA@ 0000000180006a10     libucrt:lcidtoname_downlevel.obj
 0001:00005a28       ??_C@_1O@LAOBCMDF@?$AAq?$AAu?$AAz?$AA?9?$AAE?$AAC?$AA?$AA@ 0000000180006a28     libucrt:lcidtoname_downlevel.obj
 0001:00005a38       ??_C@_1M@POEEMAIO@?$AAa?$AAr?$AA?9?$AAE?$AAG?$AA?$AA@ 0000000180006a38     libucrt:lcidtoname_downlevel.obj
 0001:00005a48       ??_C@_1M@EFAKDEDL@?$AAz?$AAh?$AA?9?$AAH?$AAK?$AA?$AA@ 0000000180006a48     libucrt:lcidtoname_downlevel.obj
 0001:00005a58       ??_C@_1M@HKKIJHGI@?$AAd?$AAe?$AA?9?$AAA?$AAT?$AA?$AA@ 0000000180006a58     libucrt:lcidtoname_downlevel.obj
 0001:00005a68       ??_C@_1M@KBFBEHJF@?$AAe?$AAn?$AA?9?$AAA?$AAU?$AA?$AA@ 0000000180006a68     libucrt:lcidtoname_downlevel.obj
 0001:00005a78       ??_C@_1M@MNPLFAAH@?$AAe?$AAs?$AA?9?$AAE?$AAS?$AA?$AA@ 0000000180006a78     libucrt:lcidtoname_downlevel.obj
 0001:00005a88       ??_C@_1M@HJOOJFMA@?$AAf?$AAr?$AA?9?$AAC?$AAA?$AA?$AA@ 0000000180006a88     libucrt:lcidtoname_downlevel.obj
 0001:00005a98       ??_C@_1BG@JPOFPNAB@?$AAs?$AAr?$AA?9?$AAS?$AAP?$AA?9?$AAC?$AAy?$AAr?$AAl?$AA?$AA@ 0000000180006a98     libucrt:lcidtoname_downlevel.obj
 0001:00005ab0       ??_C@_1M@LNFOCMOB@?$AAs?$AAe?$AA?9?$AAF?$AAI?$AA?$AA@ 0000000180006ab0     libucrt:lcidtoname_downlevel.obj
 0001:00005ac0       ??_C@_1O@MGJBOAMB@?$AAq?$AAu?$AAz?$AA?9?$AAP?$AAE?$AA?$AA@ 0000000180006ac0     libucrt:lcidtoname_downlevel.obj
 0001:00005ad0       ??_C@_1M@GJINLBOK@?$AAa?$AAr?$AA?9?$AAL?$AAY?$AA?$AA@ 0000000180006ad0     libucrt:lcidtoname_downlevel.obj
 0001:00005ae0       ??_C@_1M@GGMNHJNL@?$AAz?$AAh?$AA?9?$AAS?$AAG?$AA?$AA@ 0000000180006ae0     libucrt:lcidtoname_downlevel.obj
 0001:00005af0       ??_C@_1M@HOIKODND@?$AAd?$AAe?$AA?9?$AAL?$AAU?$AA?$AA@ 0000000180006af0     libucrt:lcidtoname_downlevel.obj
 0001:00005b00       ??_C@_1M@DDOCCGFG@?$AAe?$AAn?$AA?9?$AAC?$AAA?$AA?$AA@ 0000000180006b00     libucrt:lcidtoname_downlevel.obj
 0001:00005b10       ??_C@_1M@BNOEMJLF@?$AAe?$AAs?$AA?9?$AAG?$AAT?$AA?$AA@ 0000000180006b10     libucrt:lcidtoname_downlevel.obj
 0001:00005b20       ??_C@_1M@EOGNKEK@?$AAf?$AAr?$AA?9?$AAC?$AAH?$AA?$AA@ 0000000180006b20     libucrt:lcidtoname_downlevel.obj
 0001:00005b30       ??_C@_1M@FLIDJFHL@?$AAh?$AAr?$AA?9?$AAB?$AAA?$AA?$AA@ 0000000180006b30     libucrt:lcidtoname_downlevel.obj
 0001:00005b40       ??_C@_1O@FMCELNAJ@?$AAs?$AAm?$AAj?$AA?9?$AAN?$AAO?$AA?$AA@ 0000000180006b40     libucrt:lcidtoname_downlevel.obj
 0001:00005b50       ??_C@_1M@JHGLJMGJ@?$AAa?$AAr?$AA?9?$AAD?$AAZ?$AA?$AA@ 0000000180006b50     libucrt:lcidtoname_downlevel.obj
 0001:00005b60       ??_C@_1M@JKKFDCNP@?$AAz?$AAh?$AA?9?$AAM?$AAO?$AA?$AA@ 0000000180006b60     libucrt:lcidtoname_downlevel.obj
 0001:00005b70       ??_C@_1M@GEEFALPE@?$AAd?$AAe?$AA?9?$AAL?$AAI?$AA?$AA@ 0000000180006b70     libucrt:lcidtoname_downlevel.obj
 0001:00005b80       ??_C@_1M@IGEOFBG@?$AAe?$AAn?$AA?9?$AAN?$AAZ?$AA?$AA@ 0000000180006b80     libucrt:lcidtoname_downlevel.obj
 0001:00005b90       ??_C@_1M@KDBONEHP@?$AAe?$AAs?$AA?9?$AAC?$AAR?$AA?$AA@ 0000000180006b90     libucrt:lcidtoname_downlevel.obj
 0001:00005ba0       ??_C@_1M@FHMDOHNN@?$AAf?$AAr?$AA?9?$AAL?$AAU?$AA?$AA@ 0000000180006ba0     libucrt:lcidtoname_downlevel.obj
 0001:00005bb0       ??_C@_1BG@NFKKMAFG@?$AAb?$AAs?$AA?9?$AAB?$AAA?$AA?9?$AAL?$AAa?$AAt?$AAn?$AA?$AA@ 0000000180006bb0     libucrt:lcidtoname_downlevel.obj
 0001:00005bc8       ??_C@_1O@IMNBEMCI@?$AAs?$AAm?$AAj?$AA?9?$AAS?$AAE?$AA?$AA@ 0000000180006bc8     libucrt:lcidtoname_downlevel.obj
 0001:00005bd8       ??_C@_1M@DHHMBNDP@?$AAa?$AAr?$AA?9?$AAM?$AAA?$AA?$AA@ 0000000180006bd8     libucrt:lcidtoname_downlevel.obj
 0001:00005be8       ??_C@_1M@BNBLJCGH@?$AAe?$AAn?$AA?9?$AAI?$AAE?$AA?$AA@ 0000000180006be8     libucrt:lcidtoname_downlevel.obj
 0001:00005bf8       ??_C@_1M@GEPAFMDL@?$AAe?$AAs?$AA?9?$AAP?$AAA?$AA?$AA@ 0000000180006bf8     libucrt:lcidtoname_downlevel.obj
 0001:00005c08       ??_C@_1M@OJONDMDL@?$AAf?$AAr?$AA?9?$AAM?$AAC?$AA?$AA@ 0000000180006c08     libucrt:lcidtoname_downlevel.obj
 0001:00005c18       ??_C@_1BG@OBCNFJB@?$AAs?$AAr?$AA?9?$AAB?$AAA?$AA?9?$AAL?$AAa?$AAt?$AAn?$AA?$AA@ 0000000180006c18     libucrt:lcidtoname_downlevel.obj
 0001:00005c30       ??_C@_1O@KEMEEGPO@?$AAs?$AAm?$AAa?$AA?9?$AAN?$AAO?$AA?$AA@ 0000000180006c30     libucrt:lcidtoname_downlevel.obj
 0001:00005c40       ??_C@_1M@ELMGFODK@?$AAa?$AAr?$AA?9?$AAT?$AAN?$AA?$AA@ 0000000180006c40     libucrt:lcidtoname_downlevel.obj
 0001:00005c50       ??_C@_1M@BHDLHFAF@?$AAe?$AAn?$AA?9?$AAZ?$AAA?$AA?$AA@ 0000000180006c50     libucrt:lcidtoname_downlevel.obj
 0001:00005c60       ??_C@_1M@BMGIGLIF@?$AAe?$AAs?$AA?9?$AAD?$AAO?$AA?$AA@ 0000000180006c60     libucrt:lcidtoname_downlevel.obj
 0001:00005c70       ??_C@_1BG@CMBHIPBE@?$AAs?$AAr?$AA?9?$AAB?$AAA?$AA?9?$AAC?$AAy?$AAr?$AAl?$AA?$AA@ 0000000180006c70     libucrt:lcidtoname_downlevel.obj
 0001:00005c88       ??_C@_1O@HEDBLHNP@?$AAs?$AAm?$AAa?$AA?9?$AAS?$AAE?$AA?$AA@ 0000000180006c88     libucrt:lcidtoname_downlevel.obj
 0001:00005c98       ??_C@_1M@DAGCADIM@?$AAa?$AAr?$AA?9?$AAO?$AAM?$AA?$AA@ 0000000180006c98     libucrt:lcidtoname_downlevel.obj
 0001:00005ca8       ??_C@_1M@FODLMICG@?$AAe?$AAn?$AA?9?$AAJ?$AAM?$AA?$AA@ 0000000180006ca8     libucrt:lcidtoname_downlevel.obj
 0001:00005cb8       ??_C@_1M@DNMLCIHB@?$AAe?$AAs?$AA?9?$AAV?$AAE?$AA?$AA@ 0000000180006cb8     libucrt:lcidtoname_downlevel.obj
 0001:00005cc8       ??_C@_1O@EOKHMKJK@?$AAs?$AAm?$AAs?$AA?9?$AAF?$AAI?$AA?$AA@ 0000000180006cc8     libucrt:lcidtoname_downlevel.obj
 0001:00005cd8       ??_C@_1M@CAFJMKOF@?$AAa?$AAr?$AA?9?$AAY?$AAE?$AA?$AA@ 0000000180006cd8     libucrt:lcidtoname_downlevel.obj
 0001:00005ce8       ??_C@_1M@CBFHIJLI@?$AAe?$AAn?$AA?9?$AAC?$AAB?$AA?$AA@ 0000000180006ce8     libucrt:lcidtoname_downlevel.obj
 0001:00005cf8       ??_C@_1M@BGNFLDN@?$AAe?$AAs?$AA?9?$AAC?$AAO?$AA?$AA@ 0000000180006cf8     libucrt:lcidtoname_downlevel.obj
 0001:00005d08       ??_C@_1O@JMPHMAMC@?$AAs?$AAm?$AAn?$AA?9?$AAF?$AAI?$AA?$AA@ 0000000180006d08     libucrt:lcidtoname_downlevel.obj
 0001:00005d18       ??_C@_1M@JLANABKE@?$AAa?$AAr?$AA?9?$AAS?$AAY?$AA?$AA@ 0000000180006d18     libucrt:lcidtoname_downlevel.obj
 0001:00005d28       ??_C@_1M@HPKGCFGN@?$AAe?$AAn?$AA?9?$AAB?$AAZ?$AA?$AA@ 0000000180006d28     libucrt:lcidtoname_downlevel.obj
 0001:00005d38       ??_C@_1M@OLJCMLGM@?$AAe?$AAs?$AA?9?$AAP?$AAE?$AA?$AA@ 0000000180006d38     libucrt:lcidtoname_downlevel.obj
 0001:00005d48       ??_C@_1M@MKKGFKLE@?$AAa?$AAr?$AA?9?$AAJ?$AAO?$AA?$AA@ 0000000180006d48     libucrt:lcidtoname_downlevel.obj
 0001:00005d58       ??_C@_1M@EKPGLDNI@?$AAe?$AAn?$AA?9?$AAT?$AAT?$AA?$AA@ 0000000180006d58     libucrt:lcidtoname_downlevel.obj
 0001:00005d68       ??_C@_1M@OONGHFHE@?$AAe?$AAs?$AA?9?$AAA?$AAR?$AA?$AA@ 0000000180006d68     libucrt:lcidtoname_downlevel.obj
 0001:00005d78       ??_C@_1M@OOJFGBHE@?$AAa?$AAr?$AA?9?$AAL?$AAB?$AA?$AA@ 0000000180006d78     libucrt:lcidtoname_downlevel.obj
 0001:00005d88       ??_C@_1M@GCEJHNEG@?$AAe?$AAn?$AA?9?$AAZ?$AAW?$AA?$AA@ 0000000180006d88     libucrt:lcidtoname_downlevel.obj
 0001:00005d98       ??_C@_1M@JNOCAHJI@?$AAe?$AAs?$AA?9?$AAE?$AAC?$AA?$AA@ 0000000180006d98     libucrt:lcidtoname_downlevel.obj
 0001:00005da8       ??_C@_1M@JEFHPGGB@?$AAa?$AAr?$AA?9?$AAK?$AAW?$AA?$AA@ 0000000180006da8     libucrt:lcidtoname_downlevel.obj
 0001:00005db8       ??_C@_1M@MLKIBJOJ@?$AAe?$AAn?$AA?9?$AAP?$AAH?$AA?$AA@ 0000000180006db8     libucrt:lcidtoname_downlevel.obj
 0001:00005dc8       ??_C@_1M@BDNIPEND@?$AAe?$AAs?$AA?9?$AAC?$AAL?$AA?$AA@ 0000000180006dc8     libucrt:lcidtoname_downlevel.obj
 0001:00005dd8       ??_C@_1M@MPNMEKBD@?$AAa?$AAr?$AA?9?$AAA?$AAE?$AA?$AA@ 0000000180006dd8     libucrt:lcidtoname_downlevel.obj
 0001:00005de8       ??_C@_1M@KBJALCPI@?$AAe?$AAs?$AA?9?$AAU?$AAY?$AA?$AA@ 0000000180006de8     libucrt:lcidtoname_downlevel.obj
 0001:00005df8       ??_C@_1M@LLCCOAGA@?$AAa?$AAr?$AA?9?$AAB?$AAH?$AA?$AA@ 0000000180006df8     libucrt:lcidtoname_downlevel.obj
 0001:00005e08       ??_C@_1M@PBFNCDEL@?$AAe?$AAs?$AA?9?$AAP?$AAY?$AA?$AA@ 0000000180006e08     libucrt:lcidtoname_downlevel.obj
 0001:00005e18       ??_C@_1M@EDGINPNP@?$AAa?$AAr?$AA?9?$AAQ?$AAA?$AA?$AA@ 0000000180006e18     libucrt:lcidtoname_downlevel.obj
 0001:00005e28       ??_C@_1M@MKDBIIJI@?$AAe?$AAs?$AA?9?$AAB?$AAO?$AA?$AA@ 0000000180006e28     libucrt:lcidtoname_downlevel.obj
 0001:00005e38       ??_C@_1M@CPKKEBLD@?$AAe?$AAs?$AA?9?$AAS?$AAV?$AA?$AA@ 0000000180006e38     libucrt:lcidtoname_downlevel.obj
 0001:00005e48       ??_C@_1M@NDBGMMJL@?$AAe?$AAs?$AA?9?$AAH?$AAN?$AA?$AA@ 0000000180006e48     libucrt:lcidtoname_downlevel.obj
 0001:00005e58       ??_C@_1M@JIJIBHDP@?$AAe?$AAs?$AA?9?$AAN?$AAI?$AA?$AA@ 0000000180006e58     libucrt:lcidtoname_downlevel.obj
 0001:00005e68       ??_C@_1M@CGFMKEEK@?$AAe?$AAs?$AA?9?$AAP?$AAR?$AA?$AA@ 0000000180006e68     libucrt:lcidtoname_downlevel.obj
 0001:00005e78       ??_C@_1O@ICJHKIIK@?$AAz?$AAh?$AA?9?$AAC?$AAH?$AAT?$AA?$AA@ 0000000180006e78     libucrt:lcidtoname_downlevel.obj
 0001:00005e88       ??_C@_15CLNEJCE@?$AAs?$AAr?$AA?$AA@ 0000000180006e88     libucrt:lcidtoname_downlevel.obj
 0001:00006cd0       ??_C@_1M@KAHEKEIG@?$AAa?$AAf?$AA?9?$AAz?$AAa?$AA?$AA@ 0000000180007cd0     libucrt:lcidtoname_downlevel.obj
 0001:00006ce0       ??_C@_1M@GIECOABL@?$AAa?$AAr?$AA?9?$AAa?$AAe?$AA?$AA@ 0000000180007ce0     libucrt:lcidtoname_downlevel.obj
 0001:00006cf0       ??_C@_1M@BMLMEKGI@?$AAa?$AAr?$AA?9?$AAb?$AAh?$AA?$AA@ 0000000180007cf0     libucrt:lcidtoname_downlevel.obj
 0001:00006d00       ??_C@_1M@DAPFDGGB@?$AAa?$AAr?$AA?9?$AAd?$AAz?$AA?$AA@ 0000000180007d00     libucrt:lcidtoname_downlevel.obj
 0001:00006d10       ??_C@_1M@FJNKGKIG@?$AAa?$AAr?$AA?9?$AAe?$AAg?$AA?$AA@ 0000000180007d10     libucrt:lcidtoname_downlevel.obj
 0001:00006d20       ??_C@_1M@FLGKKCLO@?$AAa?$AAr?$AA?9?$AAi?$AAq?$AA?$AA@ 0000000180007d20     libucrt:lcidtoname_downlevel.obj
 0001:00006d30       ??_C@_1M@GNDIPALM@?$AAa?$AAr?$AA?9?$AAj?$AAo?$AA?$AA@ 0000000180007d30     libucrt:lcidtoname_downlevel.obj
 0001:00006d40       ??_C@_1M@DDMJFMGJ@?$AAa?$AAr?$AA?9?$AAk?$AAw?$AA?$AA@ 0000000180007d40     libucrt:lcidtoname_downlevel.obj
 0001:00006d50       ??_C@_1M@EJALMLHM@?$AAa?$AAr?$AA?9?$AAl?$AAb?$AA?$AA@ 0000000180007d50     libucrt:lcidtoname_downlevel.obj
 0001:00006d60       ??_C@_1M@MOBDBLOC@?$AAa?$AAr?$AA?9?$AAl?$AAy?$AA?$AA@ 0000000180007d60     libucrt:lcidtoname_downlevel.obj
 0001:00006d70       ??_C@_1M@JAOCLHDH@?$AAa?$AAr?$AA?9?$AAm?$AAa?$AA?$AA@ 0000000180007d70     libucrt:lcidtoname_downlevel.obj
 0001:00006d80       ??_C@_1M@JHPMKJIE@?$AAa?$AAr?$AA?9?$AAo?$AAm?$AA?$AA@ 0000000180007d80     libucrt:lcidtoname_downlevel.obj
 0001:00006d90       ??_C@_1M@OEPGHFNH@?$AAa?$AAr?$AA?9?$AAq?$AAa?$AA?$AA@ 0000000180007d90     libucrt:lcidtoname_downlevel.obj
 0001:00006da0       ??_C@_1M@KJDONENM@?$AAa?$AAr?$AA?9?$AAs?$AAa?$AA?$AA@ 0000000180007da0     libucrt:lcidtoname_downlevel.obj
 0001:00006db0       ??_C@_1M@DMJDKLKM@?$AAa?$AAr?$AA?9?$AAs?$AAy?$AA?$AA@ 0000000180007db0     libucrt:lcidtoname_downlevel.obj
 0001:00006dc0       ??_C@_1M@OMFIPEDC@?$AAa?$AAr?$AA?9?$AAt?$AAn?$AA?$AA@ 0000000180007dc0     libucrt:lcidtoname_downlevel.obj
 0001:00006dd0       ??_C@_1M@IHMHGAON@?$AAa?$AAr?$AA?9?$AAy?$AAe?$AA?$AA@ 0000000180007dd0     libucrt:lcidtoname_downlevel.obj
 0001:00006de0       ??_C@_1BG@KDCPGJGB@?$AAa?$AAz?$AA?9?$AAa?$AAz?$AA?9?$AAc?$AAy?$AAr?$AAl?$AA?$AA@ 0000000180007de0     libucrt:lcidtoname_downlevel.obj
 0001:00006df8       ??_C@_1BG@IBCKDDOE@?$AAa?$AAz?$AA?9?$AAa?$AAz?$AA?9?$AAl?$AAa?$AAt?$AAn?$AA?$AA@ 0000000180007df8     libucrt:lcidtoname_downlevel.obj
 0001:00006e10       ??_C@_1M@EGPFDCPD@?$AAb?$AAe?$AA?9?$AAb?$AAy?$AA?$AA@ 0000000180007e10     libucrt:lcidtoname_downlevel.obj
 0001:00006e20       ??_C@_1M@PCMGMCGC@?$AAb?$AAg?$AA?9?$AAb?$AAg?$AA?$AA@ 0000000180007e20     libucrt:lcidtoname_downlevel.obj
 0001:00006e30       ??_C@_1M@BJBMFGOB@?$AAb?$AAn?$AA?9?$AAi?$AAn?$AA?$AA@ 0000000180007e30     libucrt:lcidtoname_downlevel.obj
 0001:00006e40       ??_C@_1BG@EAKMMACD@?$AAb?$AAs?$AA?9?$AAb?$AAa?$AA?9?$AAl?$AAa?$AAt?$AAn?$AA?$AA@ 0000000180007e40     libucrt:lcidtoname_downlevel.obj
 0001:00006e58       ??_C@_1M@KGADAODK@?$AAc?$AAa?$AA?9?$AAe?$AAs?$AA?$AA@ 0000000180007e58     libucrt:lcidtoname_downlevel.obj
 0001:00006e68       ??_C@_1M@COAJPDHI@?$AAc?$AAs?$AA?9?$AAc?$AAz?$AA?$AA@ 0000000180007e68     libucrt:lcidtoname_downlevel.obj
 0001:00006e78       ??_C@_1M@DHBHFONH@?$AAc?$AAy?$AA?9?$AAg?$AAb?$AA?$AA@ 0000000180007e78     libucrt:lcidtoname_downlevel.obj
 0001:00006e88       ??_C@_1M@IMGKELGA@?$AAd?$AAa?$AA?9?$AAd?$AAk?$AA?$AA@ 0000000180007e88     libucrt:lcidtoname_downlevel.obj
 0001:00006e98       ??_C@_1M@NNDGDNGA@?$AAd?$AAe?$AA?9?$AAa?$AAt?$AA?$AA@ 0000000180007e98     libucrt:lcidtoname_downlevel.obj
 0001:00006ea8       ??_C@_1M@IKDBHEEM@?$AAd?$AAe?$AA?9?$AAc?$AAh?$AA?$AA@ 0000000180007ea8     libucrt:lcidtoname_downlevel.obj
 0001:00006eb8       ??_C@_1M@GFFOJMCJ@?$AAd?$AAe?$AA?9?$AAd?$AAe?$AA?$AA@ 0000000180007eb8     libucrt:lcidtoname_downlevel.obj
 0001:00006ec8       ??_C@_1M@MDNLKBPM@?$AAd?$AAe?$AA?9?$AAl?$AAi?$AA?$AA@ 0000000180007ec8     libucrt:lcidtoname_downlevel.obj
 0001:00006ed8       ??_C@_1M@NJBEEJNL@?$AAd?$AAe?$AA?9?$AAl?$AAu?$AA?$AA@ 0000000180007ed8     libucrt:lcidtoname_downlevel.obj
 0001:00006ee8       ??_C@_1O@GNNELBAP@?$AAd?$AAi?$AAv?$AA?9?$AAm?$AAv?$AA?$AA@ 0000000180007ee8     libucrt:lcidtoname_downlevel.obj
 0001:00006ef8       ??_C@_1M@EJLEOGAE@?$AAe?$AAl?$AA?9?$AAg?$AAr?$AA?$AA@ 0000000180007ef8     libucrt:lcidtoname_downlevel.obj
 0001:00006f08       ??_C@_1M@GMPONJN@?$AAe?$AAn?$AA?9?$AAa?$AAu?$AA?$AA@ 0000000180007f08     libucrt:lcidtoname_downlevel.obj
 0001:00006f18       ??_C@_1M@NIDIIPGF@?$AAe?$AAn?$AA?9?$AAb?$AAz?$AA?$AA@ 0000000180007f18     libucrt:lcidtoname_downlevel.obj
 0001:00006f28       ??_C@_1M@JEHMIMFO@?$AAe?$AAn?$AA?9?$AAc?$AAa?$AA?$AA@ 0000000180007f28     libucrt:lcidtoname_downlevel.obj
 0001:00006f38       ??_C@_1M@IGMJCDLA@?$AAe?$AAn?$AA?9?$AAc?$AAb?$AA?$AA@ 0000000180007f38     libucrt:lcidtoname_downlevel.obj
 0001:00006f48       ??_C@_1M@BNFIGBKG@?$AAe?$AAn?$AA?9?$AAg?$AAb?$AA?$AA@ 0000000180007f48     libucrt:lcidtoname_downlevel.obj
 0001:00006f58       ??_C@_1M@LKIFDIGP@?$AAe?$AAn?$AA?9?$AAi?$AAe?$AA?$AA@ 0000000180007f58     libucrt:lcidtoname_downlevel.obj
 0001:00006f68       ??_C@_1M@PJKFGCCO@?$AAe?$AAn?$AA?9?$AAj?$AAm?$AA?$AA@ 0000000180007f68     libucrt:lcidtoname_downlevel.obj
 0001:00006f78       ??_C@_1M@KPPKEPBO@?$AAe?$AAn?$AA?9?$AAn?$AAz?$AA?$AA@ 0000000180007f78     libucrt:lcidtoname_downlevel.obj
 0001:00006f88       ??_C@_1M@GMDGLDOB@?$AAe?$AAn?$AA?9?$AAp?$AAh?$AA?$AA@ 0000000180007f88     libucrt:lcidtoname_downlevel.obj
 0001:00006f98       ??_C@_1M@ONGIBJNA@?$AAe?$AAn?$AA?9?$AAt?$AAt?$AA?$AA@ 0000000180007f98     libucrt:lcidtoname_downlevel.obj
 0001:00006fa8       ??_C@_1M@LLODPCMM@?$AAe?$AAn?$AA?9?$AAu?$AAs?$AA?$AA@ 0000000180007fa8     libucrt:lcidtoname_downlevel.obj
 0001:00006fb8       ??_C@_1M@LAKFNPAN@?$AAe?$AAn?$AA?9?$AAz?$AAa?$AA?$AA@ 0000000180007fb8     libucrt:lcidtoname_downlevel.obj
 0001:00006fc8       ??_C@_1M@MFNHNHEO@?$AAe?$AAn?$AA?9?$AAz?$AAw?$AA?$AA@ 0000000180007fc8     libucrt:lcidtoname_downlevel.obj
 0001:00006fd8       ??_C@_1M@EJEINPHM@?$AAe?$AAs?$AA?9?$AAa?$AAr?$AA?$AA@ 0000000180007fd8     libucrt:lcidtoname_downlevel.obj
 0001:00006fe8       ??_C@_1M@GNKPCCJA@?$AAe?$AAs?$AA?9?$AAb?$AAo?$AA?$AA@ 0000000180007fe8     libucrt:lcidtoname_downlevel.obj
 0001:00006ff8       ??_C@_1M@LEEGFONL@?$AAe?$AAs?$AA?9?$AAc?$AAl?$AA?$AA@ 0000000180007ff8     libucrt:lcidtoname_downlevel.obj
 0001:00007008       ??_C@_1M@KGPDPBDF@?$AAe?$AAs?$AA?9?$AAc?$AAo?$AA?$AA@ 0000000180008008     libucrt:lcidtoname_downlevel.obj
 0001:00007018       ??_C@_1M@EIAHOHH@?$AAe?$AAs?$AA?9?$AAc?$AAr?$AA?$AA@ 0000000180008018     libucrt:lcidtoname_downlevel.obj
 0001:00007028       ??_C@_1M@LLPGMBIN@?$AAe?$AAs?$AA?9?$AAd?$AAo?$AA?$AA@ 0000000180008028     libucrt:lcidtoname_downlevel.obj
 0001:00007038       ??_C@_1M@DKHMKNJA@?$AAe?$AAs?$AA?9?$AAe?$AAc?$AA?$AA@ 0000000180008038     libucrt:lcidtoname_downlevel.obj
 0001:00007048       ??_C@_1M@GKGFPKAP@?$AAe?$AAs?$AA?9?$AAe?$AAs?$AA?$AA@ 0000000180008048     libucrt:lcidtoname_downlevel.obj
 0001:00007058       ??_C@_1M@LKHKGDLN@?$AAe?$AAs?$AA?9?$AAg?$AAt?$AA?$AA@ 0000000180008058     libucrt:lcidtoname_downlevel.obj
 0001:00007068       ??_C@_1M@HEIIGGJD@?$AAe?$AAs?$AA?9?$AAh?$AAn?$AA?$AA@ 0000000180008068     libucrt:lcidtoname_downlevel.obj
 0001:00007078       ??_C@_1M@FBDHPPGD@?$AAe?$AAs?$AA?9?$AAm?$AAx?$AA?$AA@ 0000000180008078     libucrt:lcidtoname_downlevel.obj
 0001:00007088       ??_C@_1M@DPAGLNDH@?$AAe?$AAs?$AA?9?$AAn?$AAi?$AA?$AA@ 0000000180008088     libucrt:lcidtoname_downlevel.obj
 0001:00007098       ??_C@_1M@MDGOPGDD@?$AAe?$AAs?$AA?9?$AAp?$AAa?$AA?$AA@ 0000000180008098     libucrt:lcidtoname_downlevel.obj
 0001:000070a8       ??_C@_1M@EMAMGBGE@?$AAe?$AAs?$AA?9?$AAp?$AAe?$AA?$AA@ 00000001800080a8     libucrt:lcidtoname_downlevel.obj
 0001:000070b8       ??_C@_1M@IBMCAOEC@?$AAe?$AAs?$AA?9?$AAp?$AAr?$AA?$AA@ 00000001800080b8     libucrt:lcidtoname_downlevel.obj
 0001:000070c8       ??_C@_1M@FGMDIJED@?$AAe?$AAs?$AA?9?$AAp?$AAy?$AA?$AA@ 00000001800080c8     libucrt:lcidtoname_downlevel.obj
 0001:000070d8       ??_C@_1M@IIDEOLLL@?$AAe?$AAs?$AA?9?$AAs?$AAv?$AA?$AA@ 00000001800080d8     libucrt:lcidtoname_downlevel.obj
 0001:000070e8       ??_C@_1M@GAOBIPA@?$AAe?$AAs?$AA?9?$AAu?$AAy?$AA?$AA@ 00000001800080e8     libucrt:lcidtoname_downlevel.obj
 0001:000070f8       ??_C@_1M@JKFFICHJ@?$AAe?$AAs?$AA?9?$AAv?$AAe?$AA?$AA@ 00000001800080f8     libucrt:lcidtoname_downlevel.obj
 0001:00007108       ??_C@_1M@PNMLOJDF@?$AAe?$AAt?$AA?9?$AAe?$AAe?$AA?$AA@ 0000000180008108     libucrt:lcidtoname_downlevel.obj
 0001:00007118       ??_C@_1M@GHHLIKEI@?$AAe?$AAu?$AA?9?$AAe?$AAs?$AA?$AA@ 0000000180008118     libucrt:lcidtoname_downlevel.obj
 0001:00007128       ??_C@_1M@PBNONODE@?$AAf?$AAa?$AA?9?$AAi?$AAr?$AA?$AA@ 0000000180008128     libucrt:lcidtoname_downlevel.obj
 0001:00007138       ??_C@_1M@JEEHPMIL@?$AAf?$AAi?$AA?9?$AAf?$AAi?$AA?$AA@ 0000000180008138     libucrt:lcidtoname_downlevel.obj
 0001:00007148       ??_C@_1M@LMDCNDBA@?$AAf?$AAo?$AA?9?$AAf?$AAo?$AA?$AA@ 0000000180008148     libucrt:lcidtoname_downlevel.obj
 0001:00007158       ??_C@_1M@JKEOHLDK@?$AAf?$AAr?$AA?9?$AAb?$AAe?$AA?$AA@ 0000000180008158     libucrt:lcidtoname_downlevel.obj
 0001:00007168       ??_C@_1M@NOHADPMI@?$AAf?$AAr?$AA?9?$AAc?$AAa?$AA?$AA@ 0000000180008168     libucrt:lcidtoname_downlevel.obj
 0001:00007178       ??_C@_1M@KDHIHAEC@?$AAf?$AAr?$AA?9?$AAc?$AAh?$AA?$AA@ 0000000180008178     libucrt:lcidtoname_downlevel.obj
 0001:00007188       ??_C@_1M@MMBBFGAK@?$AAf?$AAr?$AA?9?$AAf?$AAr?$AA?$AA@ 0000000180008188     libucrt:lcidtoname_downlevel.obj
 0001:00007198       ??_C@_1M@PAFNENNF@?$AAf?$AAr?$AA?9?$AAl?$AAu?$AA?$AA@ 0000000180008198     libucrt:lcidtoname_downlevel.obj
 0001:000071a8       ??_C@_1M@EOHDJGDD@?$AAf?$AAr?$AA?9?$AAm?$AAc?$AA?$AA@ 00000001800081a8     libucrt:lcidtoname_downlevel.obj
 0001:000071b8       ??_C@_1M@FAPLLOPF@?$AAg?$AAl?$AA?9?$AAe?$AAs?$AA?$AA@ 00000001800081b8     libucrt:lcidtoname_downlevel.obj
 0001:000071c8       ??_C@_1M@FOPBFLOO@?$AAg?$AAu?$AA?9?$AAi?$AAn?$AA?$AA@ 00000001800081c8     libucrt:lcidtoname_downlevel.obj
 0001:000071d8       ??_C@_1M@KBMCINPM@?$AAh?$AAe?$AA?9?$AAi?$AAl?$AA?$AA@ 00000001800081d8     libucrt:lcidtoname_downlevel.obj
 0001:000071e8       ??_C@_1M@BBPHKFPJ@?$AAh?$AAi?$AA?9?$AAi?$AAn?$AA?$AA@ 00000001800081e8     libucrt:lcidtoname_downlevel.obj
 0001:000071f8       ??_C@_1M@PMBNDPHD@?$AAh?$AAr?$AA?9?$AAb?$AAa?$AA?$AA@ 00000001800081f8     libucrt:lcidtoname_downlevel.obj
 0001:00007208       ??_C@_1M@BPCKOEGE@?$AAh?$AAr?$AA?9?$AAh?$AAr?$AA?$AA@ 0000000180008208     libucrt:lcidtoname_downlevel.obj
 0001:00007218       ??_C@_1M@GACBMHKE@?$AAh?$AAu?$AA?9?$AAh?$AAu?$AA?$AA@ 0000000180008218     libucrt:lcidtoname_downlevel.obj
 0001:00007228       ??_C@_1M@MILPAJJC@?$AAh?$AAy?$AA?9?$AAa?$AAm?$AA?$AA@ 0000000180008228     libucrt:lcidtoname_downlevel.obj
 0001:00007238       ??_C@_1M@BABBICEC@?$AAi?$AAd?$AA?9?$AAi?$AAd?$AA?$AA@ 0000000180008238     libucrt:lcidtoname_downlevel.obj
 0001:00007248       ??_C@_1M@BIKNHHPF@?$AAi?$AAs?$AA?9?$AAi?$AAs?$AA?$AA@ 0000000180008248     libucrt:lcidtoname_downlevel.obj
 0001:00007258       ??_C@_1M@NMPCJPHE@?$AAi?$AAt?$AA?9?$AAc?$AAh?$AA?$AA@ 0000000180008258     libucrt:lcidtoname_downlevel.obj
 0001:00007268       ??_C@_1M@GHKGFEDF@?$AAi?$AAt?$AA?9?$AAi?$AAt?$AA?$AA@ 0000000180008268     libucrt:lcidtoname_downlevel.obj
 0001:00007278       ??_C@_1M@NIEJCJJA@?$AAj?$AAa?$AA?9?$AAj?$AAp?$AA?$AA@ 0000000180008278     libucrt:lcidtoname_downlevel.obj
 0001:00007288       ??_C@_1M@JILFNBIM@?$AAk?$AAa?$AA?9?$AAg?$AAe?$AA?$AA@ 0000000180008288     libucrt:lcidtoname_downlevel.obj
 0001:00007298       ??_C@_1M@PACPMGPH@?$AAk?$AAk?$AA?9?$AAk?$AAz?$AA?$AA@ 0000000180008298     libucrt:lcidtoname_downlevel.obj
 0001:000072a8       ??_C@_1M@IELFGMHA@?$AAk?$AAn?$AA?9?$AAi?$AAn?$AA?$AA@ 00000001800082a8     libucrt:lcidtoname_downlevel.obj
 0001:000072b8       ??_C@_1O@IBBJHCH@?$AAk?$AAo?$AAk?$AA?9?$AAi?$AAn?$AA?$AA@ 00000001800082b8     libucrt:lcidtoname_downlevel.obj
 0001:000072c8       ??_C@_1M@DMHAEOGC@?$AAk?$AAo?$AA?9?$AAk?$AAr?$AA?$AA@ 00000001800082c8     libucrt:lcidtoname_downlevel.obj
 0001:000072d8       ??_C@_1M@HBAHBIGA@?$AAk?$AAy?$AA?9?$AAk?$AAg?$AA?$AA@ 00000001800082d8     libucrt:lcidtoname_downlevel.obj
 0001:000072e8       ??_C@_1M@KPMILCJG@?$AAl?$AAt?$AA?9?$AAl?$AAt?$AA?$AA@ 00000001800082e8     libucrt:lcidtoname_downlevel.obj
 0001:000072f8       ??_C@_1M@BDEKKCA@?$AAl?$AAv?$AA?9?$AAl?$AAv?$AA?$AA@ 00000001800082f8     libucrt:lcidtoname_downlevel.obj
 0001:00007308       ??_C@_1M@ELCKCCJJ@?$AAm?$AAi?$AA?9?$AAn?$AAz?$AA?$AA@ 0000000180008308     libucrt:lcidtoname_downlevel.obj
 0001:00007318       ??_C@_1M@CBOOLAPA@?$AAm?$AAk?$AA?9?$AAm?$AAk?$AA?$AA@ 0000000180008318     libucrt:lcidtoname_downlevel.obj
 0001:00007328       ??_C@_1M@GPHNBJKN@?$AAm?$AAl?$AA?9?$AAi?$AAn?$AA?$AA@ 0000000180008328     libucrt:lcidtoname_downlevel.obj
 0001:00007338       ??_C@_1M@PABJILIG@?$AAm?$AAn?$AA?9?$AAm?$AAn?$AA?$AA@ 0000000180008338     libucrt:lcidtoname_downlevel.obj
 0001:00007348       ??_C@_1M@FGBKKIPG@?$AAm?$AAr?$AA?9?$AAi?$AAn?$AA?$AA@ 0000000180008348     libucrt:lcidtoname_downlevel.obj
 0001:00007358       ??_C@_1M@NDBPDDAL@?$AAm?$AAs?$AA?9?$AAb?$AAn?$AA?$AA@ 0000000180008358     libucrt:lcidtoname_downlevel.obj
 0001:00007368       ??_C@_1M@OPIHOOPI@?$AAm?$AAs?$AA?9?$AAm?$AAy?$AA?$AA@ 0000000180008368     libucrt:lcidtoname_downlevel.obj
 0001:00007378       ??_C@_1M@PPDBCNFM@?$AAm?$AAt?$AA?9?$AAm?$AAt?$AA?$AA@ 0000000180008378     libucrt:lcidtoname_downlevel.obj
 0001:00007388       ??_C@_1M@KDJDKMDD@?$AAn?$AAb?$AA?9?$AAn?$AAo?$AA?$AA@ 0000000180008388     libucrt:lcidtoname_downlevel.obj
 0001:00007398       ??_C@_1M@KFCFLMJP@?$AAn?$AAl?$AA?9?$AAb?$AAe?$AA?$AA@ 0000000180008398     libucrt:lcidtoname_downlevel.obj
 0001:000073a8       ??_C@_1M@KPOPDDGO@?$AAn?$AAl?$AA?9?$AAn?$AAl?$AA?$AA@ 00000001800083a8     libucrt:lcidtoname_downlevel.obj
 0001:000073b8       ??_C@_1M@LJKPEMLN@?$AAn?$AAn?$AA?9?$AAn?$AAo?$AA?$AA@ 00000001800083b8     libucrt:lcidtoname_downlevel.obj
 0001:000073c8       ??_C@_1M@BDGHHBFL@?$AAn?$AAs?$AA?9?$AAz?$AAa?$AA?$AA@ 00000001800083c8     libucrt:lcidtoname_downlevel.obj
 0001:000073d8       ??_C@_1M@IDEHOAP@?$AAp?$AAa?$AA?9?$AAi?$AAn?$AA?$AA@ 00000001800083d8     libucrt:lcidtoname_downlevel.obj
 0001:000073e8       ??_C@_1M@HDBKGOGH@?$AAp?$AAl?$AA?9?$AAp?$AAl?$AA?$AA@ 00000001800083e8     libucrt:lcidtoname_downlevel.obj
 0001:000073f8       ??_C@_1M@LJLLCMEH@?$AAp?$AAt?$AA?9?$AAb?$AAr?$AA?$AA@ 00000001800083f8     libucrt:lcidtoname_downlevel.obj
 0001:00007408       ??_C@_1M@NCMONAAL@?$AAp?$AAt?$AA?9?$AAp?$AAt?$AA?$AA@ 0000000180008408     libucrt:lcidtoname_downlevel.obj
 0001:00007418       ??_C@_1O@EAKMAJDN@?$AAq?$AAu?$AAz?$AA?9?$AAb?$AAo?$AA?$AA@ 0000000180008418     libucrt:lcidtoname_downlevel.obj
 0001:00007428       ??_C@_1O@BHHPIGDN@?$AAq?$AAu?$AAz?$AA?9?$AAe?$AAc?$AA?$AA@ 0000000180008428     libucrt:lcidtoname_downlevel.obj
 0001:00007438       ??_C@_1O@GBAPEKMJ@?$AAq?$AAu?$AAz?$AA?9?$AAp?$AAe?$AA?$AA@ 0000000180008438     libucrt:lcidtoname_downlevel.obj
 0001:00007448       ??_C@_1M@CLGLEFBO@?$AAr?$AAo?$AA?9?$AAr?$AAo?$AA?$AA@ 0000000180008448     libucrt:lcidtoname_downlevel.obj
 0001:00007458       ??_C@_1M@CEEDODME@?$AAr?$AAu?$AA?9?$AAr?$AAu?$AA?$AA@ 0000000180008458     libucrt:lcidtoname_downlevel.obj
 0001:00007468       ??_C@_1M@HPKKKMPP@?$AAs?$AAa?$AA?9?$AAi?$AAn?$AA?$AA@ 0000000180008468     libucrt:lcidtoname_downlevel.obj
 0001:00007478       ??_C@_1M@BKMAIGOJ@?$AAs?$AAe?$AA?9?$AAf?$AAi?$AA?$AA@ 0000000180008478     libucrt:lcidtoname_downlevel.obj
 0001:00007488       ??_C@_1M@NDPIFLFI@?$AAs?$AAe?$AA?9?$AAn?$AAo?$AA?$AA@ 0000000180008488     libucrt:lcidtoname_downlevel.obj
 0001:00007498       ??_C@_1M@DANKKHJ@?$AAs?$AAe?$AA?9?$AAs?$AAe?$AA?$AA@ 0000000180008498     libucrt:lcidtoname_downlevel.obj
 0001:000074a8       ??_C@_1M@PNBLONPJ@?$AAs?$AAk?$AA?9?$AAs?$AAk?$AA?$AA@ 00000001800084a8     libucrt:lcidtoname_downlevel.obj
 0001:000074b8       ??_C@_1M@LFMODOAL@?$AAs?$AAl?$AA?9?$AAs?$AAi?$AA?$AA@ 00000001800084b8     libucrt:lcidtoname_downlevel.obj
 0001:000074c8       ??_C@_1O@DFKOMPG@?$AAs?$AAm?$AAa?$AA?9?$AAn?$AAo?$AA?$AA@ 00000001800084c8     libucrt:lcidtoname_downlevel.obj
 0001:000074d8       ??_C@_1O@NDKPBNNH@?$AAs?$AAm?$AAa?$AA?9?$AAs?$AAe?$AA?$AA@ 00000001800084d8     libucrt:lcidtoname_downlevel.obj
 0001:000074e8       ??_C@_1O@PLLKBHAB@?$AAs?$AAm?$AAj?$AA?9?$AAn?$AAo?$AA?$AA@ 00000001800084e8     libucrt:lcidtoname_downlevel.obj
 0001:000074f8       ??_C@_1O@CLEPOGCA@?$AAs?$AAm?$AAj?$AA?9?$AAs?$AAe?$AA?$AA@ 00000001800084f8     libucrt:lcidtoname_downlevel.obj
 0001:00007508       ??_C@_1O@DLGJGKMK@?$AAs?$AAm?$AAn?$AA?9?$AAf?$AAi?$AA?$AA@ 0000000180008508     libucrt:lcidtoname_downlevel.obj
 0001:00007518       ??_C@_1O@OJDJGAJC@?$AAs?$AAm?$AAs?$AA?9?$AAf?$AAi?$AA?$AA@ 0000000180008518     libucrt:lcidtoname_downlevel.obj
 0001:00007528       ??_C@_1M@BOFOGHPB@?$AAs?$AAq?$AA?9?$AAa?$AAl?$AA?$AA@ 0000000180008528     libucrt:lcidtoname_downlevel.obj
 0001:00007538       ??_C@_1BG@LJBBIPGB@?$AAs?$AAr?$AA?9?$AAb?$AAa?$AA?9?$AAc?$AAy?$AAr?$AAl?$AA?$AA@ 0000000180008538     libucrt:lcidtoname_downlevel.obj
 0001:00007550       ??_C@_1BG@JLBENFOE@?$AAs?$AAr?$AA?9?$AAb?$AAa?$AA?9?$AAl?$AAa?$AAt?$AAn?$AA?$AA@ 0000000180008550     libucrt:lcidtoname_downlevel.obj
 0001:00007568       ??_C@_1BG@KODPNHE@?$AAs?$AAr?$AA?9?$AAs?$AAp?$AA?9?$AAc?$AAy?$AAr?$AAl?$AA?$AA@ 0000000180008568     libucrt:lcidtoname_downlevel.obj
 0001:00007580       ??_C@_1BG@CIOGKHPB@?$AAs?$AAr?$AA?9?$AAs?$AAp?$AA?9?$AAl?$AAa?$AAt?$AAn?$AA?$AA@ 0000000180008580     libucrt:lcidtoname_downlevel.obj
 0001:00007598       ??_C@_1M@NGFJLMAC@?$AAs?$AAv?$AA?9?$AAf?$AAi?$AA?$AA@ 0000000180008598     libucrt:lcidtoname_downlevel.obj
 0001:000075a8       ??_C@_1M@MPJEJAJC@?$AAs?$AAv?$AA?9?$AAs?$AAe?$AA?$AA@ 00000001800085a8     libucrt:lcidtoname_downlevel.obj
 0001:000075b8       ??_C@_1M@MPNDHLFK@?$AAs?$AAw?$AA?9?$AAk?$AAe?$AA?$AA@ 00000001800085b8     libucrt:lcidtoname_downlevel.obj
 0001:000075c8       ??_C@_1O@KOHBJJI@?$AAs?$AAy?$AAr?$AA?9?$AAs?$AAy?$AA?$AA@ 00000001800085c8     libucrt:lcidtoname_downlevel.obj
 0001:000075d8       ??_C@_1M@LDCEFHA@?$AAt?$AAa?$AA?9?$AAi?$AAn?$AA?$AA@ 00000001800085d8     libucrt:lcidtoname_downlevel.obj
 0001:000075e8       ??_C@_1M@CNJOFAK@?$AAt?$AAe?$AA?9?$AAi?$AAn?$AA?$AA@ 00000001800085e8     libucrt:lcidtoname_downlevel.obj
 0001:000075f8       ??_C@_1M@GNAECACD@?$AAt?$AAh?$AA?9?$AAt?$AAh?$AA?$AA@ 00000001800085f8     libucrt:lcidtoname_downlevel.obj
 0001:00007608       ??_C@_1M@CHBIHOJO@?$AAt?$AAn?$AA?9?$AAz?$AAa?$AA?$AA@ 0000000180008608     libucrt:lcidtoname_downlevel.obj
 0001:00007618       ??_C@_1M@GCCMIGPJ@?$AAt?$AAr?$AA?9?$AAt?$AAr?$AA?$AA@ 0000000180008618     libucrt:lcidtoname_downlevel.obj
 0001:00007628       ??_C@_1M@CELMCNBK@?$AAt?$AAt?$AA?9?$AAr?$AAu?$AA?$AA@ 0000000180008628     libucrt:lcidtoname_downlevel.obj
 0001:00007638       ??_C@_1M@KLMCELGA@?$AAu?$AAk?$AA?9?$AAu?$AAa?$AA?$AA@ 0000000180008638     libucrt:lcidtoname_downlevel.obj
 0001:00007648       ??_C@_1M@EPAJJAJF@?$AAu?$AAr?$AA?9?$AAp?$AAk?$AA?$AA@ 0000000180008648     libucrt:lcidtoname_downlevel.obj
 0001:00007658       ??_C@_1BG@GEGPMCDJ@?$AAu?$AAz?$AA?9?$AAu?$AAz?$AA?9?$AAc?$AAy?$AAr?$AAl?$AA?$AA@ 0000000180008658     libucrt:lcidtoname_downlevel.obj
 0001:00007670       ??_C@_1BG@EGGKJILM@?$AAu?$AAz?$AA?9?$AAu?$AAz?$AA?9?$AAl?$AAa?$AAt?$AAn?$AA?$AA@ 0000000180008670     libucrt:lcidtoname_downlevel.obj
 0001:00007688       ??_C@_1M@GFOCLFF@?$AAv?$AAi?$AA?9?$AAv?$AAn?$AA?$AA@ 0000000180008688     libucrt:lcidtoname_downlevel.obj
 0001:00007698       ??_C@_1M@CPAMEDFI@?$AAx?$AAh?$AA?9?$AAz?$AAa?$AA?$AA@ 0000000180008698     libucrt:lcidtoname_downlevel.obj
 0001:000076a8       ??_C@_1O@EBKIFIGN@?$AAz?$AAh?$AA?9?$AAc?$AAh?$AAs?$AA?$AA@ 00000001800086a8     libucrt:lcidtoname_downlevel.obj
 0001:000076b8       ??_C@_1O@NMHPGANE@?$AAz?$AAh?$AA?9?$AAc?$AAh?$AAt?$AA?$AA@ 00000001800086b8     libucrt:lcidtoname_downlevel.obj
 0001:000076c8       ??_C@_1M@LPINJOMC@?$AAz?$AAh?$AA?9?$AAc?$AAn?$AA?$AA@ 00000001800086c8     libucrt:lcidtoname_downlevel.obj
 0001:000076d8       ??_C@_1M@OCJEJODD@?$AAz?$AAh?$AA?9?$AAh?$AAk?$AA?$AA@ 00000001800086d8     libucrt:lcidtoname_downlevel.obj
 0001:000076e8       ??_C@_1M@DNDLJINH@?$AAz?$AAh?$AA?9?$AAm?$AAo?$AA?$AA@ 00000001800086e8     libucrt:lcidtoname_downlevel.obj
 0001:000076f8       ??_C@_1M@MBFDNDND@?$AAz?$AAh?$AA?9?$AAs?$AAg?$AA?$AA@ 00000001800086f8     libucrt:lcidtoname_downlevel.obj
 0001:00007708       ??_C@_1M@IMEPLEPE@?$AAz?$AAh?$AA?9?$AAt?$AAw?$AA?$AA@ 0000000180008708     libucrt:lcidtoname_downlevel.obj
 0001:00007718       ??_C@_1M@BBGHNHJP@?$AAz?$AAu?$AA?9?$AAz?$AAa?$AA?$AA@ 0000000180008718     libucrt:lcidtoname_downlevel.obj
 0001:00007980       __log10_256_lead           0000000180008980     libucrt:log10_256_lead_tail_table.obj
 0001:00008190       __log10_256_tail           0000000180009190     libucrt:log10_256_lead_tail_table.obj
 0001:000089a0       __log_F_inv_qword          00000001800099a0     libucrt:log_f_inv_qword_table.obj
 0001:000091b0       ??_C@_05HGHHAHAP@log10?$AA@ 000000018000a1b0     libucrt:log_special.obj
 0001:000091b8       ??_C@_1BA@BALFACEM@?$AAC?$AAO?$AAN?$AAO?$AAU?$AAT?$AA$?$AA?$AA@ 000000018000a1b8     libucrt:initcon.obj
 0001:00009210       _load_config_used          000000018000a210     LIBCMT:loadcfg.obj
 0001:000092a8       ??_R4exception@std@@6B@    000000018000a2a8     LIBCMT:throw_bad_alloc.obj
 0001:000092d0       ??_R3exception@std@@8      000000018000a2d0     LIBCMT:throw_bad_alloc.obj
 0001:000092e8       ??_R2exception@std@@8      000000018000a2e8     LIBCMT:throw_bad_alloc.obj
 0001:000092f8       ??_R1A@?0A@EA@exception@std@@8 000000018000a2f8     LIBCMT:throw_bad_alloc.obj
 0001:00009320       ??_R4bad_alloc@std@@6B@    000000018000a320     LIBCMT:throw_bad_alloc.obj
 0001:00009348       ??_R3bad_alloc@std@@8      000000018000a348     LIBCMT:throw_bad_alloc.obj
 0001:00009360       ??_R2bad_alloc@std@@8      000000018000a360     LIBCMT:throw_bad_alloc.obj
 0001:00009378       ??_R1A@?0A@EA@bad_alloc@std@@8 000000018000a378     LIBCMT:throw_bad_alloc.obj
 0001:000093a0       ??_R4bad_array_new_length@std@@6B@ 000000018000a3a0     LIBCMT:throw_bad_alloc.obj
 0001:000093c8       ??_R3bad_array_new_length@std@@8 000000018000a3c8     LIBCMT:throw_bad_alloc.obj
 0001:000093e0       ??_R2bad_array_new_length@std@@8 000000018000a3e0     LIBCMT:throw_bad_alloc.obj
 0001:00009400       ??_R1A@?0A@EA@bad_array_new_length@std@@8 000000018000a400     LIBCMT:throw_bad_alloc.obj
 0001:00009428       ??_R4type_info@@6B@        000000018000a428     LIBCMT:std_type_info_static.obj
 0001:00009450       ??_R3type_info@@8          000000018000a450     LIBCMT:std_type_info_static.obj
 0001:00009468       ??_R2type_info@@8          000000018000a468     LIBCMT:std_type_info_static.obj
 0001:00009478       ??_R1A@?0A@EA@type_info@@8 000000018000a478     LIBCMT:std_type_info_static.obj
 0001:000094a0       ?_TraceLoggingMetadata@?1??_TlgWrite@__vcrt_trace_logging_provider@@YAJPEBU_TlgProvider_t@2@PEFBXPEBU_GUID@@2IPEAU_EVENT_DATA_DESCRIPTOR@@@Z@4U_TraceLoggingMetadata_t@2@B 000000018000a4a0     libvcruntime:telemetry.obj
 0001:00009553       ?_TraceLoggingMetadataEnd@?1??_TlgWrite@__vcrt_trace_logging_provider@@YAJPEBU_TlgProvider_t@2@PEFBXPEBU_GUID@@2IPEAU_EVENT_DATA_DESCRIPTOR@@@Z@4EB 000000018000a553     libvcruntime:telemetry.obj
 0001:000098a0       __rtc_iaa                  000000018000a8a0     LIBCMT:_initsect_.obj
 0001:000098a8       __rtc_izz                  000000018000a8a8     LIBCMT:_initsect_.obj
 0001:000098b0       __rtc_taa                  000000018000a8b0     LIBCMT:_initsect_.obj
 0001:000098b8       __rtc_tzz                  000000018000a8b8     LIBCMT:_initsect_.obj
 0001:000098c0       ?TraceLoggingRegister@__vcrt_trace_logging_provider@@YAJPEBU_TlgProvider_t@1@PEBU_GUID@@P6AX1KE_K2PEAU_EVENT_FILTER_DESCRIPTOR@@PEAX@Z4@Z 000000018000a8c0 f i libvcruntime:telemetry.obj
 0001:0000993c       ?_TlgEnableCallback@__vcrt_trace_logging_provider@@YAXPEBU_GUID@@KE_K1PEAU_EVENT_FILTER_DESCRIPTOR@@PEAX@Z 000000018000a93c f i libvcruntime:telemetry.obj
 0001:00009a00       ?_TlgWrite@__vcrt_trace_logging_provider@@YAJPEBU_TlgProvider_t@1@PEFBXPEBU_GUID@@2IPEAU_EVENT_DATA_DESCRIPTOR@@@Z 000000018000aa00 f i libvcruntime:telemetry.obj
 0001:00009ab0       __chkstk                   000000018000aab0 f   chkstk.obj
 0001:00009ab0       _alloca_probe              000000018000aab0 f   chkstk.obj
 0001:00009b10       ?fputc@@YAHHPEAX@Z         000000018000ab10 f   fileio.obj
 0001:0000a110       ?PrintHandleInfo@@YA_NKPEAX_NPEAVPerfThread@@@Z 000000018000b110 f   handles.obj
 0001:0000a860       ??0PluginIntEditFieldBinding@@QEAA@AEBUPluginStartupInfo@@PEAPEAXHPEAHH@Z 000000018000b860 f i PCFG.OBJ
 0001:0000a920       ??0PluginUIntEditFieldBinding@@QEAA@AEBUPluginStartupInfo@@PEAPEAXHPEAIH@Z 000000018000b920 f i PCFG.OBJ
 0001:0000a9e0       ??1?$DialogBuilderBase@UFarDialogItem@@@@MEAA@XZ 000000018000b9e0 f i PCFG.OBJ
 0001:0000aa60       ??_E?$DialogBuilderBase@UFarDialogItem@@@@MEAAPEAXI@Z 000000018000ba60 f i PCFG.OBJ
 0001:0000aa60       ??_G?$DialogBuilderBase@UFarDialogItem@@@@MEAAPEAXI@Z 000000018000ba60 f i PCFG.OBJ
 0001:0000aaa0       ??_G?$DialogItemBinding@UFarDialogItem@@@@UEAAPEAXI@Z 000000018000baa0 f i PCFG.OBJ
 0001:0000aaa0       ??_E?$DialogItemBinding@UFarDialogItem@@@@UEAAPEAXI@Z 000000018000baa0 f i PCFG.OBJ
 0001:0000aad0       ??_EPluginEditFieldBinding@@UEAAPEAXI@Z 000000018000bad0 f i Pclass.obj
 0001:0000aad0       ??_GPluginCheckBoxBinding@@UEAAPEAXI@Z 000000018000bad0 f i PCFG.OBJ
 0001:0000aad0       ??_GPluginEditFieldBinding@@UEAAPEAXI@Z 000000018000bad0 f i Pclass.obj
 0001:0000aad0       ??_EPluginCheckBoxBinding@@UEAAPEAXI@Z 000000018000bad0 f i PCFG.OBJ
 0001:0000ab00       ??_EPluginDialogBuilder@@UEAAPEAXI@Z 000000018000bb00 f i PCFG.OBJ
 0001:0000ab00       ??_GPluginDialogBuilder@@UEAAPEAXI@Z 000000018000bb00 f i PCFG.OBJ
 0001:0000ab50       ??_EPluginRadioButtonBinding@@UEAAPEAXI@Z 000000018000bb50 f i PCFG.OBJ
 0001:0000ab50       ??_GPluginRadioButtonBinding@@UEAAPEAXI@Z 000000018000bb50 f i PCFG.OBJ
 0001:0000ab80       ??_EPluginUIntEditFieldBinding@@UEAAPEAXI@Z 000000018000bb80 f i PCFG.OBJ
 0001:0000ab80       ??_GPluginIntEditFieldBinding@@UEAAPEAXI@Z 000000018000bb80 f i PCFG.OBJ
 0001:0000ab80       ??_EPluginIntEditFieldBinding@@UEAAPEAXI@Z 000000018000bb80 f i PCFG.OBJ
 0001:0000ab80       ??_GPluginUIntEditFieldBinding@@UEAAPEAXI@Z 000000018000bb80 f i PCFG.OBJ
 0001:0000abb0       ?AddButtons@?$DialogBuilderBase@UFarDialogItem@@@@QEAAXHPEBHHH@Z 000000018000bbb0 f i PCFG.OBJ
 0001:0000ad10       ?AddDialogItem@?$DialogBuilderBase@UFarDialogItem@@@@IEAAPEAUFarDialogItem@@W4FARDIALOGITEMTYPES@@PEB_W@Z 000000018000bd10 f i PCFG.OBJ
 0001:0000ada0       ?AddIntEditField@PluginDialogBuilder@@UEAAPEAUFarDialogItem@@PEAHH@Z 000000018000bda0 f i PCFG.OBJ
 0001:0000aeb0       ?AddIntEditField@?$DialogBuilderBase@UFarDialogItem@@@@UEAAPEAUFarDialogItem@@PEAHH@Z 000000018000beb0 f i PCFG.OBJ
 0001:0000aeb0       ?CreateCheckBoxBinding@?$DialogBuilderBase@UFarDialogItem@@@@MEAAPEAU?$DialogItemBinding@UFarDialogItem@@@@PEAHH@Z 000000018000beb0 f i PCFG.OBJ
 0001:0000aeb0       ?GetLangString@?$DialogBuilderBase@UFarDialogItem@@@@MEAAPEB_WH@Z 000000018000beb0 f i PCFG.OBJ
 0001:0000aeb0       ?AddUIntEditField@?$DialogBuilderBase@UFarDialogItem@@@@UEAAPEAUFarDialogItem@@PEAIH@Z 000000018000beb0 f i PCFG.OBJ
 0001:0000aeb0       ?CreateRadioButtonBinding@?$DialogBuilderBase@UFarDialogItem@@@@MEAAPEAU?$DialogItemBinding@UFarDialogItem@@@@PEAH@Z 000000018000beb0 f i PCFG.OBJ
 0001:0000aec0       ?AddUIntEditField@PluginDialogBuilder@@UEAAPEAUFarDialogItem@@PEAIH@Z 000000018000bec0 f i PCFG.OBJ
 0001:0000afd0       ?Config@@YAHXZ             000000018000bfd0 f   PCFG.OBJ
 0001:0000bc20       ?CreateCheckBoxBinding@PluginDialogBuilder@@MEAAPEAU?$DialogItemBinding@UFarDialogItem@@@@PEAHH@Z 000000018000cc20 f i PCFG.OBJ
 0001:0000bca0       ?CreateRadioButtonBinding@PluginDialogBuilder@@MEAAPEAU?$DialogItemBinding@UFarDialogItem@@@@PEAH@Z 000000018000cca0 f i PCFG.OBJ
 0001:0000bd10       ?DoShowDialog@?$DialogBuilderBase@UFarDialogItem@@@@MEAA_JXZ 000000018000cd10 f i PCFG.OBJ
 0001:0000bd20       ?DoShowDialog@PluginDialogBuilder@@MEAA_JXZ 000000018000cd20 f i PCFG.OBJ
 0001:0000bdd0       ?GetLangString@PluginDialogBuilder@@MEAAPEB_WH@Z 000000018000cdd0 f i PCFG.OBJ
 0001:0000bde0       ?InitDialogItem@PluginDialogBuilder@@MEAAXPEAUFarDialogItem@@PEB_W@Z 000000018000cde0 f i PCFG.OBJ
 0001:0000be10       ?ItemWidth@?$DialogBuilderBase@UFarDialogItem@@@@IEAA_JAEBUFarDialogItem@@@Z 000000018000ce10 f i PCFG.OBJ
 0001:0000beb0       ?MaxTextWidth@?$DialogBuilderBase@UFarDialogItem@@@@IEAA_JXZ 000000018000ceb0 f i PCFG.OBJ
 0001:0000bfe0       ?Read@_Opt@@SAXXZ          000000018000cfe0 f   PCFG.OBJ
 0001:0000c2f0       ?ReallocDialogItems@?$DialogBuilderBase@UFarDialogItem@@@@IEAAXXZ 000000018000d2f0 f i PCFG.OBJ
 0001:0000c450       ?SaveValue@PluginCheckBoxBinding@@UEAAXPEAUFarDialogItem@@H@Z 000000018000d450 f i PCFG.OBJ
 0001:0000c4b0       ?SaveValue@PluginIntEditFieldBinding@@UEAAXPEAUFarDialogItem@@H@Z 000000018000d4b0 f i PCFG.OBJ
 0001:0000c500       ?SaveValue@PluginRadioButtonBinding@@UEAAXPEAUFarDialogItem@@H@Z 000000018000d500 f i PCFG.OBJ
 0001:0000c550       ?SaveValue@PluginUIntEditFieldBinding@@UEAAXPEAUFarDialogItem@@H@Z 000000018000d550 f i PCFG.OBJ
 0001:0000c5a0       ?SaveValues@?$DialogBuilderBase@UFarDialogItem@@@@IEAAXXZ 000000018000d5a0 f i PCFG.OBJ
 0001:0000c630       ?ShowDialog@?$DialogBuilderBase@UFarDialogItem@@@@QEAA_NXZ 000000018000d630 f i PCFG.OBJ
 0001:0000c6b0       ?TextWidth@?$DialogBuilderBase@UFarDialogItem@@@@MEAAHAEBUFarDialogItem@@@Z 000000018000d6b0 f i PCFG.OBJ
 0001:0000c6c0       ?TextWidth@PluginDialogBuilder@@MEAAHAEBUFarDialogItem@@@Z 000000018000d6c0 f i PCFG.OBJ
 0001:0000c6d0       ?UpdateBorderSize@?$DialogBuilderBase@UFarDialogItem@@@@IEAAXXZ 000000018000d6d0 f i PCFG.OBJ
 0001:0000c790       ?UpdateSecondColumnPosition@?$DialogBuilderBase@UFarDialogItem@@@@IEAAXXZ 000000018000d790 f i PCFG.OBJ
 0001:0000c800       ?Write@_Opt@@SAXXZ         000000018000d800 f   PCFG.OBJ
 0001:0000ca70       ??0Plist@@QEAA@XZ          000000018000da70 f   Pclass.obj
 0001:0000cc10       ??0ui64Table@@QEAA@XZ      000000018000dc10 f   Pclass.obj
 0001:0000cc40       ??1Plist@@QEAA@XZ          000000018000dc40 f   Pclass.obj
 0001:0000ccb0       ?AddEditField@PluginDialogBuilder@@QEAAPEAUFarDialogItem@@PEA_WHHPEB_W_N@Z 000000018000dcb0 f i Pclass.obj
 0001:0000cdb0       ?AddPasswordField@PluginDialogBuilder@@QEAAPEAUFarDialogItem@@PEA_WHH@Z 000000018000ddb0 f i Pclass.obj
 0001:0000ce90       ?Compare@Plist@@QEAAHPEBUPluginPanelItem@@0I@Z 000000018000de90 f   Pclass.obj
 0001:0000d040       ?Connect@Plist@@QEAA_NPEB_W00@Z 000000018000e040 f   Pclass.obj
 0001:0000d260       ?ConnectWMI@Plist@@AEAA_NXZ 000000018000e260 f   Pclass.obj
 0001:0000d2f0       ?DeleteFiles@Plist@@QEAAHPEAUPluginPanelItem@@H_K@Z 000000018000e2f0 f   Pclass.obj
 0001:0000d600       ?DisconnectWMI@Plist@@AEAAXXZ 000000018000e600 f   Pclass.obj
 0001:0000d650       ?EndColumns@?$DialogBuilderBase@UFarDialogItem@@@@QEAAXXZ 000000018000e650 f i Pclass.obj
 0001:0000d770       ?EnumWndProc@@YAHPEAUHWND__@@_J@Z 000000018000e770 f   Pclass.obj
 0001:0000d820       ?FileTimeToText@Plist@@AEAAXPEAU_FILETIME@@0PEA_W@Z 000000018000e820 f   Pclass.obj
 0001:0000d9e0       ?FreeFindData@Plist@@QEAAXPEAUPluginPanelItem@@H@Z 000000018000e9e0 f   Pclass.obj
 0001:0000da60       ?GeneratePanelModes@Plist@@AEAAXXZ 000000018000ea60 f   Pclass.obj
 0001:0000e120       ?GetFiles@Plist@@QEAAHPEAUPluginPanelItem@@HHPEAPEB_W_KAEAU_Opt@@@Z 000000018000f120 f   Pclass.obj
 0001:0000f000       ?GetFindData@Plist@@QEAAHAEAPEAUPluginPanelItem@@AEA_K_K@Z 0000000180010000 f   Pclass.obj
 0001:0000f820       ?GetOpenPanelInfo@Plist@@QEAAXPEAUOpenPanelInfo@@@Z 0000000180010820 f   Pclass.obj
 0001:0000f970       ?GetVersionInfo@Plist@@SA_NPEA_WAEAPEAEAEAPEA_W2@Z 0000000180010970 f   Pclass.obj
 0001:0000fad0       ?InitializePanelModes@Plist@@SAXXZ 0000000180010ad0 f   Pclass.obj
 0001:0000ff60       ?PanelModes@Plist@@QEAAPEAUPanelMode@@AEA_K@Z 0000000180010f60 f   Pclass.obj
 0001:00010020       ?PrintOwnerInfo@Plist@@AEAAXPEAXK@Z 0000000180011020 f   Pclass.obj
 0001:000102e0       ?PrintTitle@Plist@@SAPEA_WH@Z 00000001800112e0 f   Pclass.obj
 0001:00010340       ?PrintVersionInfo@Plist@@AEAAXPEAXPEA_W@Z 0000000180011340 f   Pclass.obj
 0001:00010430       ?ProcessEvent@Plist@@QEAAH_JPEAX@Z 0000000180011430 f   Pclass.obj
 0001:000105e0       ?ProcessKey@Plist@@QEAAHPEBU_INPUT_RECORD@@@Z 00000001800115e0 f   Pclass.obj
 0001:00012370       ?PutToCmdLine@Plist@@AEAAXPEA_W@Z 0000000180013370 f   Pclass.obj
 0001:00012450       ?Reread@Plist@@AEAAXXZ     0000000180013450 f   Pclass.obj
 0001:000124f0       ?SavePanelModes@Plist@@SAXXZ 00000001800134f0 f   Pclass.obj
 0001:000127a0       ?SaveValue@PluginEditFieldBinding@@UEAAXPEAUFarDialogItem@@H@Z 00000001800137a0 f i Pclass.obj
 0001:000127e0       ?TranslateMode@Plist@@CA_NPEB_WPEA_W@Z 00000001800137e0 f   Pclass.obj
 0001:00012a30       ?WmiError@Plist@@AEAAXXZ   0000000180013a30 f   Pclass.obj
 0001:00012b40       ??0PerfThread@@QEAA@AEAVPlist@@PEB_W11@Z 0000000180013b40 f   perfthread.obj
 0001:00013040       ??1PerfThread@@QEAA@XZ     0000000180014040 f   perfthread.obj
 0001:000130f0       ?GetProcessData@PerfThread@@QEBAPEAUProcessPerfData@@KK@Z 00000001800140f0 f   perfthread.obj
 0001:00013160       ?Refresh@PerfThread@@AEAAXXZ 0000000180014160 f   perfthread.obj
 0001:000139c0       ?RefreshWMIData@PerfThread@@AEAAXXZ 00000001800149c0 f   perfthread.obj
 0001:00013b30       ?SyncReread@PerfThread@@QEAAXXZ 0000000180014b30 f   perfthread.obj
 0001:00013b60       ?ThreadProc@PerfThread@@AEAAKXZ 0000000180014b60 f   perfthread.obj
 0001:00013c30       ?ThreadProc@PerfThread@@CAKPEAX@Z 0000000180014c30 f   perfthread.obj
 0001:00013c90       ?CreateToken@DebugToken@@SA_NXZ 0000000180014c90 f   Plist.obj
 0001:00013d70       ?DumpNTCounters@@YAXPEAXAEAVPerfThread@@KK@Z 0000000180014d70 f   Plist.obj
 0001:00014040       ?Enable@DebugToken@@QEAA_NXZ 0000000180015040 f   Plist.obj
 0001:000140e0       ?GetList@@YAHAEAPEAUPluginPanelItem@@AEA_KAEAVPerfThread@@@Z 00000001800150e0 f   Plist.obj
 0001:000143b0       ?GetOpenProcessData@@YAXPEAXPEA_WK1K1KPEAPEA_W2@Z 00000001800153b0 f   Plist.obj
 0001:00014820       ?GetPDataNT@@YA_NAEAUProcessDataNT@@AEAUProcessPerfData@@@Z 0000000180015820 f   Plist.obj
 0001:000148b0       ?KillProcess@@YAHKPEAUHWND__@@@Z 00000001800158b0 f   Plist.obj
 0001:000149e0       ?OpenProcessForced@@YAPEAXPEAVDebugToken@@KKH@Z 00000001800159e0 f   Plist.obj
 0001:00014a60       ?PrintModuleVersion@@YAXPEAXPEA_W1H@Z 0000000180015a60 f   Plist.obj
 0001:00014b70       ?PrintModules@@YAXPEAXKAEAU_Opt@@@Z 0000000180015b70 f   Plist.obj
 0001:00014f10       ?PrintNTCurDirAndEnv@@YAXPEAX0H@Z 0000000180015f10 f   Plist.obj
 0001:000150c0       ?PrintTime@@YAPEA_WK_N@Z   00000001800160c0 f   Plist.obj
 0001:00015170       ?PrintTime@@YAPEA_W_K_N@Z  0000000180016170 f   Plist.obj
 0001:00015210       ?Revert@DebugToken@@QEAA_NXZ 0000000180016210 f   Plist.obj
 0001:00015260       ?ConvertDate@@YAXAEBU_FILETIME@@PEA_W1@Z 0000000180016260 f   Pmix.obj
 0001:00015310       ?GetMsg@@YAPEB_WH@Z        0000000180016310 f   Pmix.obj
 0001:00015330       ?WinError@@YAHPEA_W@Z      0000000180016330 f   Pmix.obj
 0001:00015520       ??0WMIConnection@@QEAA@XZ  0000000180016520 f   WMI.obj
 0001:00015550       ??1WMIConnection@@QEAA@XZ  0000000180016550 f   WMI.obj
 0001:00015580       ?Connect@WMIConnection@@QEAA_NPEB_W00@Z 0000000180016580 f   WMI.obj
 0001:00015740       ?Disconnect@WMIConnection@@QEAAXXZ 0000000180016740 f   WMI.obj
 0001:00015770       ?ExecMethod@WMIConnection@@AEAAHKPEB_W0K@Z 0000000180016770 f   WMI.obj
 0001:000159e0       ?GetProcessExecutablePath@WMIConnection@@QEAAXKPEA_W@Z 00000001800169e0 f   WMI.obj
 0001:00015ae0       ?GetProcessOwner@WMIConnection@@QEAAXKPEA_W0@Z 0000000180016ae0 f   WMI.obj
 0001:00015ca0       ?GetProcessPriority@WMIConnection@@QEAAKK@Z 0000000180016ca0 f   WMI.obj
 0001:00015d90       ?GetProcessSessionId@WMIConnection@@QEAAHK@Z 0000000180016d90 f   WMI.obj
 0001:00015e80       ?GetProcessUserSid@WMIConnection@@QEAAXKPEA_W@Z 0000000180016e80 f   WMI.obj
 0001:00015fe0       ?SetProcessPriority@WMIConnection@@QEAAHKK@Z 0000000180016fe0 f   WMI.obj
 0001:00016010       ?TerminateProcess@WMIConnection@@QEAAHK@Z 0000000180017010 f   WMI.obj
 0001:00016060       ?Message@@YAHIPEA_WPEAPEB_WHH@Z 0000000180017060 f   Proclist.obj
 0001:00016320       ClosePanelW                0000000180017320 f   Proclist.obj
 0001:00016350       CompareW                   0000000180017350 f   Proclist.obj
 0001:00016370       ConfigureW                 0000000180017370 f   Proclist.obj
 0001:00016380       DeleteFilesW               0000000180017380 f   Proclist.obj
 0001:000163a0       ExitFARW                   00000001800173a0 f   Proclist.obj
 0001:000163d0       FreeFindDataW              00000001800173d0 f   Proclist.obj
 0001:000163f0       GetFilesW                  00000001800173f0 f   Proclist.obj
 0001:00016430       GetFindDataW               0000000180017430 f   Proclist.obj
 0001:00016450       GetGlobalInfoW             0000000180017450 f   Proclist.obj
 0001:000164d0       GetOpenPanelInfoW          00000001800174d0 f   Proclist.obj
 0001:000164e0       GetPluginInfoW             00000001800174e0 f   Proclist.obj
 0001:000165b0       OpenW                      00000001800175b0 f   Proclist.obj
 0001:00016650       ProcessPanelEventW         0000000180017650 f   Proclist.obj
 0001:00016670       ProcessPanelInputW         0000000180017670 f   Proclist.obj
 0001:00016690       SetStartupInfoW            0000000180017690 f   Proclist.obj
 0001:000167c2       WNetAddConnection2W        00000001800177c2 f   mpr:MPR.dll
 0001:000167c8       WNetCancelConnection2W     00000001800177c8 f   mpr:MPR.dll
 0001:000167ce       GetFileVersionInfoSizeW    00000001800177ce f   version:VERSION.dll
 0001:000167d4       GetFileVersionInfoW        00000001800177d4 f   version:VERSION.dll
 0001:000167da       VerQueryValueW             00000001800177da f   version:VERSION.dll
 0001:000167e0       ??_U@YAPEAX_K@Z            00000001800177e0 f   LIBCMT:new_array.obj
 0001:000167e8       ??_V@YAXPEAX@Z             00000001800177e8 f   LIBCMT:delete_array.obj
 0001:000167e8       ??3@YAXPEAX_K@Z            00000001800177e8 f   LIBCMT:delete_scalar_size.obj
 0001:000167f0       ??2@YAPEAX_K@Z             00000001800177f0 f   LIBCMT:new_scalar.obj
 0001:00016b88       _DllMainCRTStartup         0000000180017b88 f   LIBCMT:dll_dllmain.obj
 0001:00016bc8       ??3@YAXPEAX@Z              0000000180017bc8 f   LIBCMT:delete_scalar.obj
 0001:00016bd0       ??0bad_alloc@std@@QEAA@AEBV01@@Z 0000000180017bd0 f i LIBCMT:throw_bad_alloc.obj
 0001:00016c10       ??0bad_alloc@std@@QEAA@XZ  0000000180017c10 f i LIBCMT:throw_bad_alloc.obj
 0001:00016c30       ??0bad_array_new_length@std@@QEAA@AEBV01@@Z 0000000180017c30 f i LIBCMT:throw_bad_alloc.obj
 0001:00016c70       ??0bad_array_new_length@std@@QEAA@XZ 0000000180017c70 f i LIBCMT:throw_bad_alloc.obj
 0001:00016c90       ??0exception@std@@QEAA@AEBV01@@Z 0000000180017c90 f i LIBCMT:throw_bad_alloc.obj
 0001:00016cc8       ??1bad_array_new_length@std@@UEAA@XZ 0000000180017cc8 f i LIBCMT:throw_bad_alloc.obj
 0001:00016cc8       ??1bad_alloc@std@@UEAA@XZ  0000000180017cc8 f i LIBCMT:throw_bad_alloc.obj
 0001:00016cdc       ??_Gbad_array_new_length@std@@UEAAPEAXI@Z 0000000180017cdc f i LIBCMT:throw_bad_alloc.obj
 0001:00016cdc       ??_Gbad_alloc@std@@UEAAPEAXI@Z 0000000180017cdc f i LIBCMT:throw_bad_alloc.obj
 0001:00016cdc       ??_Gexception@std@@UEAAPEAXI@Z 0000000180017cdc f i LIBCMT:throw_bad_alloc.obj
 0001:00016cdc       ??_Eexception@std@@UEAAPEAXI@Z 0000000180017cdc f i LIBCMT:throw_bad_alloc.obj
 0001:00016cdc       ??_Ebad_array_new_length@std@@UEAAPEAXI@Z 0000000180017cdc f i LIBCMT:throw_bad_alloc.obj
 0001:00016cdc       ??_Ebad_alloc@std@@UEAAPEAXI@Z 0000000180017cdc f i LIBCMT:throw_bad_alloc.obj
 0001:00016d20       ?__scrt_throw_std_bad_alloc@@YAXXZ 0000000180017d20 f   LIBCMT:throw_bad_alloc.obj
 0001:00016d40       ?__scrt_throw_std_bad_array_new_length@@YAXXZ 0000000180017d40 f   LIBCMT:throw_bad_alloc.obj
 0001:00016d60       ?what@exception@std@@UEBAPEBDXZ 0000000180017d60 f i LIBCMT:throw_bad_alloc.obj
 0001:00016d74       __scrt_acquire_startup_lock 0000000180017d74 f   LIBCMT:utility.obj
 0001:00016db0       __scrt_dllmain_after_initialize_c 0000000180017db0 f   LIBCMT:utility.obj
 0001:00016dd0       __scrt_dllmain_before_initialize_c 0000000180017dd0 f   LIBCMT:utility.obj
 0001:00016de8       __scrt_dllmain_crt_thread_attach 0000000180017de8 f   LIBCMT:utility.obj
 0001:00016e10       __scrt_dllmain_crt_thread_detach 0000000180017e10 f   LIBCMT:utility.obj
 0001:00016e28       __scrt_dllmain_exception_filter 0000000180017e28 f   LIBCMT:utility.obj
 0001:00016e8c       __scrt_dllmain_uninitialize_c 0000000180017e8c f   LIBCMT:utility.obj
 0001:00016ebc       __scrt_dllmain_uninitialize_critical 0000000180017ebc f   LIBCMT:utility.obj
 0001:00016ed0       __scrt_initialize_crt      0000000180017ed0 f   LIBCMT:utility.obj
 0001:00016f1c       __scrt_initialize_onexit_tables 0000000180017f1c f   LIBCMT:utility.obj
 0001:00016fe8       __scrt_is_nonwritable_in_current_image 0000000180017fe8 f   LIBCMT:utility.obj
 0001:00017084       __scrt_release_startup_lock 0000000180018084 f   LIBCMT:utility.obj
 0001:000170a8       __scrt_uninitialize_crt    00000001800180a8 f   LIBCMT:utility.obj
 0001:000170d4       _onexit                    00000001800180d4 f   LIBCMT:utility.obj
 0001:00017124       atexit                     0000000180018124 f   LIBCMT:utility.obj
 0001:0001713c       __security_init_cookie     000000018001813c f   LIBCMT:gs_support.obj
 0001:000171e8       DllMain                    00000001800181e8 f   LIBCMT:dll_dllmain_stub.obj
 0001:000171f0       ?__scrt_initialize_type_info@@YAXXZ 00000001800181f0 f   LIBCMT:tncleanup.obj
 0001:00017200       ?__scrt_uninitialize_type_info@@YAXXZ 0000000180018200 f   LIBCMT:tncleanup.obj
 0001:0001720c       __local_stdio_printf_options 000000018001820c f i LIBCMT:default_local_stdio_options.obj
 0001:00017214       __local_stdio_scanf_options 0000000180018214 f i LIBCMT:default_local_stdio_options.obj
 0001:0001721c       __scrt_initialize_default_local_stdio_options 000000018001821c f   LIBCMT:default_local_stdio_options.obj
 0001:00017238       __scrt_get_dyn_tls_init_callback 0000000180018238 f   LIBCMT:dyn_tls_init.obj
 0001:00017240       __crt_debugger_hook        0000000180018240 f   LIBCMT:utility_desktop.obj
 0001:00017248       __scrt_fastfail            0000000180018248 f   LIBCMT:utility_desktop.obj
 0001:00017390       _RTC_Initialize            0000000180018390 f   LIBCMT:_initsect_.obj
 0001:000173dc       _RTC_Terminate             00000001800183dc f   LIBCMT:_initsect_.obj
 0001:00017428       _guard_check_icall         0000000180018428 f i LIBCMT:checkcfg.obj
 0001:00017430       ??_Etype_info@@UEAAPEAXI@Z 0000000180018430 f i LIBCMT:std_type_info_static.obj
 0001:00017430       ??_Gtype_info@@UEAAPEAXI@Z 0000000180018430 f i LIBCMT:std_type_info_static.obj
 0001:0001745c       __isa_available_init       000000018001845c f   LIBCMT:_cpu_disp_.obj
 0001:00017620       __scrt_is_ucrt_dll_in_use  0000000180018620 f   LIBCMT:ucrt_detection.obj
 0001:00017640       memset                     0000000180018640 f   libvcruntime:memset.obj
 0001:000177f0       memcpy                     00000001800187f0 f   libvcruntime:memcpy.obj
 0001:000177f0       memmove                    00000001800187f0 f   libvcruntime:memcpy.obj
 0001:00017c28       wcschr                     0000000180018c28 f   libvcruntime:wcschr.obj
 0001:00017cb4       wcsrchr                    0000000180018cb4 f   libvcruntime:wcsrchr.obj
 0001:00017d68       __telemetry_main_invoke_trigger 0000000180018d68 f   libvcruntime:telemetry.obj
 0001:00017e80       __telemetry_main_return_trigger 0000000180018e80 f   libvcruntime:telemetry.obj
 0001:00017f98       __vcrt_initialize_telemetry_provider 0000000180018f98 f   libvcruntime:telemetry.obj
 0001:00017fac       __vcrt_uninitialize_telemetry_provider 0000000180018fac f   libvcruntime:telemetry.obj
 0001:00017fcc       __C_specific_handler       0000000180018fcc f   libvcruntime:_chandler_.obj
 0001:000181bc       __std_exception_copy       00000001800191bc f   libvcruntime:std_exception.obj
 0001:0001824c       __std_exception_destroy    000000018001924c f   libvcruntime:std_exception.obj
 0001:00018274       _CxxThrowException         0000000180019274 f   libvcruntime:throw.obj
 0001:0001834c       __vcrt_initialize          000000018001934c f   libvcruntime:initialization.obj
 0001:00018384       __vcrt_thread_attach       0000000180019384 f   libvcruntime:initialization.obj
 0001:00018398       __vcrt_thread_detach       0000000180019398 f   libvcruntime:initialization.obj
 0001:000183ac       __vcrt_uninitialize        00000001800193ac f   libvcruntime:initialization.obj
 0001:000183d8       __vcrt_uninitialize_critical 00000001800193d8 f   libvcruntime:initialization.obj
 0001:000183e8       __std_type_info_destroy_list 00000001800193e8 f   libvcruntime:std_type_info.obj
 0001:000185dc       __vcrt_EventRegister       00000001800195dc f   libvcruntime:winapi_downlevel.obj
 0001:00018660       __vcrt_EventSetInformation 0000000180019660 f   libvcruntime:winapi_downlevel.obj
 0001:000186e4       __vcrt_EventUnregister     00000001800196e4 f   libvcruntime:winapi_downlevel.obj
 0001:00018738       __vcrt_EventWriteTransfer  0000000180019738 f   libvcruntime:winapi_downlevel.obj
 0001:000187d0       __vcrt_FlsAlloc            00000001800197d0 f   libvcruntime:winapi_downlevel.obj
 0001:00018824       __vcrt_FlsFree             0000000180019824 f   libvcruntime:winapi_downlevel.obj
 0001:00018878       __vcrt_FlsGetValue         0000000180019878 f   libvcruntime:winapi_downlevel.obj
 0001:000188cc       __vcrt_FlsSetValue         00000001800198cc f   libvcruntime:winapi_downlevel.obj
 0001:00018934       __vcrt_InitializeCriticalSectionEx 0000000180019934 f   libvcruntime:winapi_downlevel.obj
 0001:000189ac       __vcrt_initialize_winapi_thunks 00000001800199ac f   libvcruntime:winapi_downlevel.obj
 0001:000189e4       __vcrt_uninitialize_winapi_thunks 00000001800199e4 f   libvcruntime:winapi_downlevel.obj
 0001:00018a40       _local_unwind              0000000180019a40 f   libvcruntime:_jmpuwind_.obj
 0001:00018a70       _NLG_Notify                0000000180019a70 f   libvcruntime:_jmpuwind_.obj
 0001:00018a90       __NLG_Dispatch2            0000000180019a90 f   libvcruntime:_jmpuwind_.obj
 0001:00018aa0       __NLG_Return2              0000000180019aa0 f   libvcruntime:_jmpuwind_.obj
 0001:00018ab0       __except_validate_context_record 0000000180019ab0 f   libvcruntime:jbcxrval.obj
 0001:00018ab0       ?SaveValue@?$DialogItemBinding@UFarDialogItem@@@@UEAAXPEAUFarDialogItem@@H@Z 0000000180019ab0 f   PCFG.OBJ
 0001:00018ab0       ?InitDialogItem@?$DialogBuilderBase@UFarDialogItem@@@@MEAAXPEAUFarDialogItem@@PEB_W@Z 0000000180019ab0 f   PCFG.OBJ
 0001:00018ab0       _guard_check_icall_nop     0000000180019ab0 f   LIBCMT:guard_support.obj
 0001:00018ab4       __vcrt_freefls             0000000180019ab4 f   libvcruntime:per_thread_data.obj
 0001:00018ad4       __vcrt_freeptd             0000000180019ad4 f   libvcruntime:per_thread_data.obj
 0001:00018b24       __vcrt_getptd_noexit       0000000180019b24 f   libvcruntime:per_thread_data.obj
 0001:00018bcc       __vcrt_initialize_ptd      0000000180019bcc f   libvcruntime:per_thread_data.obj
 0001:00018c0c       __vcrt_uninitialize_ptd    0000000180019c0c f   libvcruntime:per_thread_data.obj
 0001:00018c30       __vcrt_initialize_locks    0000000180019c30 f   libvcruntime:locks.obj
 0001:00018c78       __vcrt_uninitialize_locks  0000000180019c78 f   libvcruntime:locks.obj
 0001:00018cb0       __vcrt_initialize_pure_virtual_call_handler 0000000180019cb0 f   libvcruntime:purevirt_data.obj
 0001:00018cd4       ??0_LocaleUpdate@@QEAA@QEAU__crt_locale_pointers@@@Z 0000000180019cd4 f i libucrt:memicmp.obj
 0001:00018d64       __ascii_memicmp            0000000180019d64 f   libucrt:memicmp.obj
 0001:00018db0       _memicmp                   0000000180019db0 f   libucrt:memicmp.obj
 0001:00018e04       _memicmp_l                 0000000180019e04 f   libucrt:memicmp.obj
 0001:00018ee4       free                       0000000180019ee4 f   libucrt:free.obj
 0001:00018eec       malloc                     0000000180019eec f   libucrt:malloc.obj
 0001:00018ef4       ??$is_overflow_condition@K@__crt_strtox@@YA_NIK@Z 0000000180019ef4 f i libucrt:strtox.obj
 0001:00018f20       ??$make_c_string_character_source@_WPEAPEA_W@__crt_strtox@@YA?AV?$c_string_character_source@_W@0@QEB_WQEAPEA_W@Z 0000000180019f20 f i libucrt:strtox.obj
 0001:00018f34       ??$parse_integer@KV?$c_string_character_source@_W@__crt_strtox@@@__crt_strtox@@YAKQEAU__crt_locale_pointers@@V?$c_string_character_source@_W@0@H_N@Z 0000000180019f34 f i libucrt:strtox.obj
 0001:00019608       wcstol                     000000018001a608 f   libucrt:strtox.obj
 0001:000196e8       _ui64tow                   000000018001a6e8 f   libucrt:xtoa.obj
 0001:0001970c       wcscspn                    000000018001a70c f   libucrt:wcscspn.obj
 0001:0001974c       wcsncat                    000000018001a74c f   libucrt:wcsncat.obj
 0001:00019794       wcspbrk                    000000018001a794 f   libucrt:wcspbrk.obj
 0001:000197cc       wcstok                     000000018001a7cc f   libucrt:wcstok.obj
 0001:00019808       _isleadbyte_l              000000018001a808 f i libucrt:_wctype.obj
 0001:00019848       iswdigit                   000000018001a848 f i libucrt:_wctype.obj
 0001:00019854       __acrt_initialize_new_handler 000000018001a854 f   libucrt:new_handler.obj
 0001:0001985c       _callnewh                  000000018001a85c f   libucrt:new_handler.obj
 0001:0001989c       _query_new_handler         000000018001a89c f   libucrt:new_handler.obj
 0001:000198d0       _initterm                  000000018001a8d0 f   libucrt:initterm.obj
 0001:00019948       _initterm_e                000000018001a948 f   libucrt:initterm.obj
 0001:00019994       _seh_filter_dll            000000018001a994 f   libucrt:exception_filter.obj
 0001:000199a8       _seh_filter_exe            000000018001a9a8 f   libucrt:exception_filter.obj
 0001:00019d68       __acrt_initialize_thread_local_exit_callback 000000018001ad68 f   libucrt:exit.obj
 0001:00019d70       _cexit                     000000018001ad70 f   libucrt:exit.obj
 0001:00019d80       _exit                      000000018001ad80 f   libucrt:exit.obj
 0001:00019d8c       _is_c_termination_complete 000000018001ad8c f   libucrt:exit.obj
 0001:00019f78       __dcrt_uninitialize_environments_nolock 000000018001af78 f   libucrt:environment_initialization.obj
 0001:00019fb0       _initialize_narrow_environment 000000018001afb0 f   libucrt:environment_initialization.obj
 0001:00019fb8       ??$?RV<lambda_b8c45f8f788dd370798f47cfe8ac3a86>@@AEAV<lambda_4e60a939b0d047cfe11ddc22648dfba9>@@V<lambda_332c3edc96d0294ec56c57d38c1cdfd5>@@@?$__crt_seh_guarded_call@H@@QEAAH$$QEAV<lambda_b8c45f8f788dd370798f47cfe8ac3a86>@@AEAV<lambda_4e60a939b0d047cfe11ddc22648dfba9>@@$$QEAV<lambda_332c3edc96d0294ec56c57d38c1cdfd5>@@@Z 000000018001afb8 f i libucrt:onexit.obj
 0001:00019ff4       ??$?RV<lambda_e24bbb7b643b32fcea6fa61b31d4c984>@@AEAV<lambda_275893d493268fdec8709772e3fcec0e>@@V<lambda_9d71df4d7cf3f480f8d633942495c3b0>@@@?$__crt_seh_guarded_call@H@@QEAAH$$QEAV<lambda_e24bbb7b643b32fcea6fa61b31d4c984>@@AEAV<lambda_275893d493268fdec8709772e3fcec0e>@@$$QEAV<lambda_9d71df4d7cf3f480f8d633942495c3b0>@@@Z 000000018001aff4 f i libucrt:onexit.obj
 0001:0001a370       _crt_atexit                000000018001b370 f   libucrt:onexit.obj
 0001:0001a380       _execute_onexit_table      000000018001b380 f   libucrt:onexit.obj
 0001:0001a3bc       _initialize_onexit_table   000000018001b3bc f   libucrt:onexit.obj
 0001:0001a3fc       _register_onexit_function  000000018001b3fc f   libucrt:onexit.obj
 0001:0001a578       __acrt_initialize          000000018001b578 f   libucrt:initialization.obj
 0001:0001a58c       __acrt_thread_attach       000000018001b58c f   libucrt:initialization.obj
 0001:0001a5a0       __acrt_thread_detach       000000018001b5a0 f   libucrt:initialization.obj
 0001:0001a5b0       __acrt_uninitialize        000000018001b5b0 f   libucrt:initialization.obj
 0001:0001a5c4       __acrt_uninitialize_critical 000000018001b5c4 f   libucrt:initialization.obj
 0001:0001a5d4       terminate                  000000018001b5d4 f   libucrt:terminate.obj
 0001:0001a5fc       wcsdup                     000000018001b5fc f   libucrt:wcsdup.obj
 0001:0001a5fc       _wcsdup                    000000018001b5fc f   libucrt:wcsdup.obj
 0001:0001a680       strcpy_s                   000000018001b680 f   libucrt:strcpy_s.obj
 0001:0001a6e0       _free_base                 000000018001b6e0 f   libucrt:free_base.obj
 0001:0001a720       _malloc_base               000000018001b720 f   libucrt:malloc_base.obj
 0001:0001a780       abort                      000000018001b780 f   libucrt:abort.obj
 0001:0001a7d8       _calloc_base               000000018001b7d8 f   libucrt:calloc_base.obj
 0001:0001a850       __acrt_call_reportfault    000000018001b850 f   libucrt:invalid_parameter.obj
 0001:0001a9ac       __acrt_initialize_invalid_parameter_handler 000000018001b9ac f   libucrt:invalid_parameter.obj
 0001:0001a9b4       _invalid_parameter         000000018001b9b4 f   libucrt:invalid_parameter.obj
 0001:0001aa5c       _invalid_parameter_noinfo  000000018001ba5c f   libucrt:invalid_parameter.obj
 0001:0001aa7c       _invoke_watson             000000018001ba7c f   libucrt:invalid_parameter.obj
 0001:0001aac4       __acrt_errno_from_os_error 000000018001bac4 f   libucrt:errno.obj
 0001:0001ab0c       __acrt_errno_map_os_error  000000018001bb0c f   libucrt:errno.obj
 0001:0001ab5c       __doserrno                 000000018001bb5c f   libucrt:errno.obj
 0001:0001ab7c       _errno                     000000018001bb7c f   libucrt:errno.obj
 0001:0001abec       _tolower_l                 000000018001bbec f   libucrt:tolower_toupper.obj
 0001:0001ad2c       ??$?RV<lambda_46352004c1216016012b18bd6f87e700>@@AEAV<lambda_3bd07e1a1191394380780325891bf33f>@@V<lambda_334532d3f185bcaa59b5be82d7d22bff>@@@?$__crt_seh_guarded_call@X@@QEAAX$$QEAV<lambda_46352004c1216016012b18bd6f87e700>@@AEAV<lambda_3bd07e1a1191394380780325891bf33f>@@$$QEAV<lambda_334532d3f185bcaa59b5be82d7d22bff>@@@Z 000000018001bd2c f i libucrt:per_thread_data.obj
 0001:0001ad8c       ??$?RV<lambda_5e887d1dcbef67a5eb4283622ba103bf>@@AEAV<lambda_4466841279450cc726390878d4a41900>@@V<lambda_341c25c0346d94847f1f3c463c57e077>@@@?$__crt_seh_guarded_call@X@@QEAAX$$QEAV<lambda_5e887d1dcbef67a5eb4283622ba103bf>@@AEAV<lambda_4466841279450cc726390878d4a41900>@@$$QEAV<lambda_341c25c0346d94847f1f3c463c57e077>@@@Z 000000018001bd8c f i libucrt:per_thread_data.obj
 0001:0001add4       ??$?RV<lambda_72d1df2b273a38828b1ce30cbf4cdab5>@@AEAV<lambda_876a65b173b8412d3a47c70a915b0cf4>@@V<lambda_41932305e351933ebe8f8be3ed8bb5dc>@@@?$__crt_seh_guarded_call@X@@QEAAX$$QEAV<lambda_72d1df2b273a38828b1ce30cbf4cdab5>@@AEAV<lambda_876a65b173b8412d3a47c70a915b0cf4>@@$$QEAV<lambda_41932305e351933ebe8f8be3ed8bb5dc>@@@Z 000000018001bdd4 f i libucrt:per_thread_data.obj
 0001:0001ae14       ??$?RV<lambda_fb3a7dec4e47f37f22dae91bb15c9095>@@AEAV<lambda_698284760c8add0bfb0756c19673e34b>@@V<lambda_dfb8eca1e75fef3034a8fb18dd509707>@@@?$__crt_seh_guarded_call@X@@QEAAX$$QEAV<lambda_fb3a7dec4e47f37f22dae91bb15c9095>@@AEAV<lambda_698284760c8add0bfb0756c19673e34b>@@$$QEAV<lambda_dfb8eca1e75fef3034a8fb18dd509707>@@@Z 000000018001be14 f i libucrt:per_thread_data.obj
 0001:0001b0a4       __acrt_freeptd             000000018001c0a4 f   libucrt:per_thread_data.obj
 0001:0001b0e8       __acrt_getptd              000000018001c0e8 f   libucrt:per_thread_data.obj
 0001:0001b17c       __acrt_getptd_noexit       000000018001c17c f   libucrt:per_thread_data.obj
 0001:0001b21c       __acrt_initialize_ptd      000000018001c21c f   libucrt:per_thread_data.obj
 0001:0001b258       __acrt_uninitialize_ptd    000000018001c258 f   libucrt:per_thread_data.obj
 0001:0001b27c       __acrt_update_locale_info  000000018001c27c f   libucrt:locale_update.obj
 0001:0001b2b0       __acrt_update_multibyte_info 000000018001c2b0 f   libucrt:locale_update.obj
 0001:0001b2e4       __acrt_set_locale_changed  000000018001c2e4 f   libucrt:wsetlocale.obj
 0001:0001b2f0       __acrt_uninitialize_locale 000000018001c2f0 f   libucrt:wsetlocale.obj
 0001:0001b338       __pctype_func              000000018001c338 f   libucrt:ctype.obj
 0001:0001b368       iswctype                   000000018001c368 f   libucrt:iswctype.obj
 0001:0001b3d8       _isctype_l                 000000018001c3d8 f   libucrt:isctype.obj
 0001:0001b4e8       __acrt_wcstok_s_novalidation 000000018001c4e8 f   libucrt:wcstok_s.obj
 0001:0001b578       __acrt_initialize_locks    000000018001c578 f   libucrt:locks.obj
 0001:0001b5c0       __acrt_lock                000000018001c5c0 f   libucrt:locks.obj
 0001:0001b5dc       __acrt_uninitialize_locks  000000018001c5dc f   libucrt:locks.obj
 0001:0001b614       __acrt_unlock              000000018001c614 f   libucrt:locks.obj
 0001:0001b7d0       __acrt_FlsAlloc            000000018001c7d0 f   libucrt:winapi_thunks.obj
 0001:0001b828       __acrt_FlsFree             000000018001c828 f   libucrt:winapi_thunks.obj
 0001:0001b880       __acrt_FlsGetValue         000000018001c880 f   libucrt:winapi_thunks.obj
 0001:0001b8d8       __acrt_FlsSetValue         000000018001c8d8 f   libucrt:winapi_thunks.obj
 0001:0001b940       __acrt_InitializeCriticalSectionEx 000000018001c940 f   libucrt:winapi_thunks.obj
 0001:0001b9b8       __acrt_LCMapStringEx       000000018001c9b8 f   libucrt:winapi_thunks.obj
 0001:0001baa8       __acrt_LocaleNameToLCID    000000018001caa8 f   libucrt:winapi_thunks.obj
 0001:0001bb10       __acrt_initialize_winapi_thunks 000000018001cb10 f   libucrt:winapi_thunks.obj
 0001:0001bb48       __acrt_is_packaged_app     000000018001cb48 f   libucrt:winapi_thunks.obj
 0001:0001bbd0       __acrt_uninitialize_winapi_thunks 000000018001cbd0 f   libucrt:winapi_thunks.obj
 0001:0001bc14       wcscpy_s                   000000018001cc14 f   libucrt:wcscpy_s.obj
 0001:0001bc7c       ??$?RV<lambda_99476a1ad63dd22509b5d3e65b0ffc95>@@AEAV<lambda_ad1ced32f4ac17aa236e5ef05d6b3b7c>@@V<lambda_f7424dd8d45958661754dc4f2697e9c3>@@@?$__crt_seh_guarded_call@X@@QEAAX$$QEAV<lambda_99476a1ad63dd22509b5d3e65b0ffc95>@@AEAV<lambda_ad1ced32f4ac17aa236e5ef05d6b3b7c>@@$$QEAV<lambda_f7424dd8d45958661754dc4f2697e9c3>@@@Z 000000018001cc7c f i libucrt:mbctype.obj
 0001:0001c378       __acrt_initialize_multibyte 000000018001d378 f   libucrt:mbctype.obj
 0001:0001c3a0       __acrt_update_thread_multibyte_data 000000018001d3a0 f   libucrt:mbctype.obj
 0001:0001c460       _setmbcp_nolock            000000018001d460 f   libucrt:mbctype.obj
 0001:0001c708       __dcrt_get_narrow_environment_from_os 000000018001d708 f   libucrt:get_environment_from_os.obj
 0001:0001c80c       _recalloc                  000000018001d80c f   libucrt:recalloc.obj
 0001:0001c814       _recalloc_base             000000018001d814 f   libucrt:recalloc.obj
 0001:0001c8ac       __acrt_initialize_heap     000000018001d8ac f   libucrt:heap_handle.obj
 0001:0001c8c8       __acrt_uninitialize_heap   000000018001d8c8 f   libucrt:heap_handle.obj
 0001:0001cabc       __acrt_initialize_lowio    000000018001dabc f   libucrt:ioinit.obj
 0001:0001caf8       __acrt_uninitialize_lowio  000000018001daf8 f   libucrt:ioinit.obj
 0001:0001cb38       __acrt_initialize_command_line 000000018001db38 f   libucrt:argv_data.obj
 0001:0001cb60       __acrt_uninitialize_command_line 000000018001db60 f   libucrt:argv_data.obj
 0001:0001cb64       __acrt_execute_initializers 000000018001db64 f   libucrt:shared_initialization.obj
 0001:0001cbf8       __acrt_execute_uninitializers 000000018001dbf8 f   libucrt:shared_initialization.obj
 0001:0001cc48       ??$?RV<lambda_c36588078e9f5dfd39652860aa6b3aaf>@@AEAV<lambda_ec61778202f4f5fc7e7711acc23c3bca>@@V<lambda_dc9d2797ccde5d239b4a0efae8ebd7db>@@@?$__crt_seh_guarded_call@P6AXH@Z@@QEAAP6AXH@Z$$QEAV<lambda_c36588078e9f5dfd39652860aa6b3aaf>@@AEAV<lambda_ec61778202f4f5fc7e7711acc23c3bca>@@$$QEAV<lambda_dc9d2797ccde5d239b4a0efae8ebd7db>@@@Z 000000018001dc48 f i libucrt:signal.obj
 0001:0001cc90       __acrt_get_sigabrt_handler 000000018001dc90 f   libucrt:signal.obj
 0001:0001ccc0       __acrt_initialize_signal_handlers 000000018001dcc0 f   libucrt:signal.obj
 0001:0001cce0       raise                      000000018001dce0 f   libucrt:signal.obj
 0001:0001cf7c       __acrt_has_user_matherr    000000018001df7c f   libucrt:matherr.obj
 0001:0001cf9c       __acrt_initialize_user_matherr 000000018001df9c f   libucrt:matherr.obj
 0001:0001cfa4       __acrt_invoke_user_matherr 000000018001dfa4 f   libucrt:matherr.obj
 0001:0001cfec       _query_new_mode            000000018001dfec f   libucrt:new_mode.obj
 0001:0001cff4       _mbtowc_l                  000000018001dff4 f   libucrt:mbtowc.obj
 0001:0001d13c       mbtowc                     000000018001e13c f   libucrt:mbtowc.obj
 0001:0001d144       _fileno                    000000018001e144 f   libucrt:fileno.obj
 0001:0001d16c       __acrt_initialize_stdio    000000018001e16c f   libucrt:_file.obj
 0001:0001d28c       __acrt_uninitialize_stdio  000000018001e28c f   libucrt:_file.obj
 0001:0001d2e8       _lock_file                 000000018001e2e8 f   libucrt:_file.obj
 0001:0001d2f4       _unlock_file               000000018001e2f4 f   libucrt:_file.obj
 0001:0001d65c       __acrt_LCMapStringA        000000018001e65c f   libucrt:lcmapstringa.obj
 0001:0001d6f4       __acrt_add_locale_ref      000000018001e6f4 f   libucrt:locale_refcounting.obj
 0001:0001d780       __acrt_free_locale         000000018001e780 f   libucrt:locale_refcounting.obj
 0001:0001d8f8       __acrt_locale_add_lc_time_reference 000000018001e8f8 f   libucrt:locale_refcounting.obj
 0001:0001d920       __acrt_locale_free_lc_time_if_unreferenced 000000018001e920 f   libucrt:locale_refcounting.obj
 0001:0001d958       __acrt_locale_release_lc_time_reference 000000018001e958 f   libucrt:locale_refcounting.obj
 0001:0001d980       __acrt_release_locale_ref  000000018001e980 f   libucrt:locale_refcounting.obj
 0001:0001da28       __acrt_update_thread_locale_data 000000018001ea28 f   libucrt:locale_refcounting.obj
 0001:0001da98       _updatetlocinfoEx_nolock   000000018001ea98 f   libucrt:locale_refcounting.obj
 0001:0001db00       __acrt_locale_free_monetary 000000018001eb00 f   libucrt:initmon.obj
 0001:0001dc0c       __acrt_locale_free_numeric 000000018001ec0c f   libucrt:initnum.obj
 0001:0001dcd0       __acrt_locale_free_time    000000018001ecd0 f   libucrt:inittime.obj
 0001:0001ddd8       __acrt_GetStringTypeA      000000018001edd8 f   libucrt:getstringtypea.obj
 0001:0001e054       __acrt_DownlevelLocaleNameToLCID 000000018001f054 f   libucrt:lcidtoname_downlevel.obj
 0001:0001e0a0       _msize                     000000018001f0a0 f   libucrt:msize.obj
 0001:0001e0dc       _realloc_base              000000018001f0dc f   libucrt:realloc_base.obj
 0001:0001e160       __acrt_lowio_create_handle_array 000000018001f160 f   libucrt:osfinfo.obj
 0001:0001e1f8       __acrt_lowio_destroy_handle_array 000000018001f1f8 f   libucrt:osfinfo.obj
 0001:0001e248       __acrt_lowio_ensure_fh_exists 000000018001f248 f   libucrt:osfinfo.obj
 0001:0001e300       __acrt_lowio_lock_fh       000000018001f300 f   libucrt:osfinfo.obj
 0001:0001e324       __acrt_lowio_unlock_fh     000000018001f324 f   libucrt:osfinfo.obj
 0001:0001e348       _free_osfhnd               000000018001f348 f   libucrt:osfinfo.obj
 0001:0001e404       _get_osfhandle             000000018001f404 f   libucrt:osfinfo.obj
 0001:0001e47c       _isatty                    000000018001f47c f   libucrt:isatty.obj
 0001:0001e4dc       __acrt_stdio_flush_nolock  000000018001f4dc f   libucrt:fflush.obj
 0001:0001e554       _fflush_nolock             000000018001f554 f   libucrt:fflush.obj
 0001:0001e5a0       _flushall                  000000018001f5a0 f   libucrt:fflush.obj
 0001:0001e690       _fcloseall                 000000018001f690 f   libucrt:closeall.obj
 0001:0001e744       __acrt_stdio_free_buffer_nolock 000000018001f744 f   libucrt:_freebuf.obj
 0001:0001e784       __strncnt                  000000018001f784 f   libucrt:strncnt.obj
 0001:0001e79c       _query_app_type            000000018001f79c f   libucrt:report_runtime_error.obj
 0001:0001e7a4       ??$?RV<lambda_b521505b218e5242e90febf6bfebc422>@@AEAV<lambda_6978c1fb23f02e42e1d9e99668cc68aa>@@V<lambda_314360699dd331753a4119843814e9a7>@@@?$__crt_seh_guarded_call@H@@QEAAH$$QEAV<lambda_b521505b218e5242e90febf6bfebc422>@@AEAV<lambda_6978c1fb23f02e42e1d9e99668cc68aa>@@$$QEAV<lambda_314360699dd331753a4119843814e9a7>@@@Z 000000018001f7a4 f i libucrt:commit.obj
 0001:0001e830       _commit                    000000018001f830 f   libucrt:commit.obj
 0001:0001ee64       _write                     000000018001fe64 f   libucrt:write.obj
 0001:0001ef50       _write_nolock              000000018001ff50 f   libucrt:write.obj
 0001:0001f240       log10                      0000000180020240 f   libucrt:log10.obj
 0001:0001f888       _lseeki64_nolock           0000000180020888 f   libucrt:lseek.obj
 0001:0001f890       _fclose_nolock             0000000180020890 f   libucrt:fclose.obj
 0001:0001f914       fclose                     0000000180020914 f   libucrt:fclose.obj
 0001:0001f980       _putwch_nolock             0000000180020980 f   libucrt:putwch.obj
 0001:0001fb00       _handle_error              0000000180020b00 f   libucrt:libm_error.obj
 0001:0001fc30       __acrt_initialize_fma3     0000000180020c30 f   libucrt:fma3_available.obj
 0001:0001fca0       _log10_special             0000000180020ca0 f   libucrt:log_special.obj
 0001:0001fd58       ??$?RV<lambda_bfedae4ebbf01fab1bb6dcc6a9e276e0>@@AEAV<lambda_2fe9b910cf3cbf4a0ab98a02ba45b3ec>@@V<lambda_237c231691f317818eb88cc1d5d642d6>@@@?$__crt_seh_guarded_call@H@@QEAAH$$QEAV<lambda_bfedae4ebbf01fab1bb6dcc6a9e276e0>@@AEAV<lambda_2fe9b910cf3cbf4a0ab98a02ba45b3ec>@@$$QEAV<lambda_237c231691f317818eb88cc1d5d642d6>@@@Z 0000000180020d58 f i libucrt:close.obj
 0001:0001fdcc       _close                     0000000180020dcc f   libucrt:close.obj
 0001:0001fe70       _close_nolock              0000000180020e70 f   libucrt:close.obj
 0001:0001ff2c       ?__acrt_stdio_free_stream@@YAXV__crt_stdio_stream@@@Z 0000000180020f2c f   libucrt:stream.obj
 0001:0001ff70       __dcrt_lowio_initialize_console_output 0000000180020f70 f   libucrt:initcon.obj
 0001:0001ffac       __dcrt_terminate_console_output 0000000180020fac f   libucrt:initcon.obj
 0001:0001ffe0       _get_fpsr                  0000000180020fe0 f   libucrt:fpsr.obj
 0001:0001fff0       _set_fpsr                  0000000180020ff0 f   libucrt:fpsr.obj
 0001:0001fffa       _fclrf                     0000000180020ffa f   libucrt:fpsr.obj
 0001:0002000e       _frnd                      000000018002100e f   libucrt:fpsr.obj
 0001:00020030       _raise_exc                 0000000180021030 f   libucrt:fpexcept.obj
 0001:00020058       _raise_exc_ex              0000000180021058 f   libucrt:fpexcept.obj
 0001:00020360       _set_errno_from_matherr    0000000180021360 f   libucrt:fpexcept.obj
 0001:00020390       _clrfp                     0000000180021390 f   libucrt:fpctrl.obj
 0001:000203b0       _ctrlfp                    00000001800213b0 f   libucrt:fpctrl.obj
 0001:0002042c       _set_statfp                000000018002142c f   libucrt:fpctrl.obj
 0001:0002044c       _statfp                    000000018002144c f   libucrt:fpctrl.obj
 0001:0002045e       IsProcessorFeaturePresent  000000018002145e f   kernel32:KERNEL32.dll
 0001:00020464       RtlUnwindEx                0000000180021464 f   kernel32:KERNEL32.dll
 0001:0002046a       SystemFunction036          000000018002146a f   advapi32:ADVAPI32.dll
 0001:00020470       __GSHandlerCheck           0000000180021470 f   LIBCMT:_gshandler_.obj
 0001:00020490       __GSHandlerCheckCommon     0000000180021490 f   LIBCMT:_gshandler_.obj
 0001:00020500       __security_check_cookie    0000000180021500 f   LIBCMT:_amdsecgs_.obj
 0001:00020530       _FindPESection             0000000180021530 f   LIBCMT:pesect.obj
 0001:00020580       _IsNonwritableInCurrentImage 0000000180021580 f   LIBCMT:pesect.obj
 0001:000205d0       _ValidateImageBase         00000001800215d0 f   LIBCMT:pesect.obj
 0001:00020600       __raise_securityfailure    0000000180021600 f   LIBCMT:gs_report.obj
 0001:00020634       __report_gsfailure         0000000180021634 f   LIBCMT:gs_report.obj
 0001:00020790       memcmp                     0000000180021790 f   libvcruntime:memcmp.obj
 0001:00020870       _guard_dispatch_icall_nop  0000000180021870 f   LIBCMT:_guard_dispatch_.obj
 0001:00022028       _TI2?AVbad_alloc@std@@     0000000180023028     LIBCMT:throw_bad_alloc.obj
 0001:00022048       _CTA2?AVbad_alloc@std@@    0000000180023048     LIBCMT:throw_bad_alloc.obj
 0001:00022060       _CT??_R0?AVbad_alloc@std@@@8??0bad_alloc@std@@QEAA@AEBV01@@Z24 0000000180023060     LIBCMT:throw_bad_alloc.obj
 0001:00022088       _CT??_R0?AVexception@std@@@8??0exception@std@@QEAA@AEBV01@@Z24 0000000180023088     LIBCMT:throw_bad_alloc.obj
 0001:000220b0       _TI3?AVbad_array_new_length@std@@ 00000001800230b0     LIBCMT:throw_bad_alloc.obj
 0001:000220d0       _CTA3?AVbad_array_new_length@std@@ 00000001800230d0     LIBCMT:throw_bad_alloc.obj
 0001:000220f0       _CT??_R0?AVbad_array_new_length@std@@@8??0bad_array_new_length@std@@QEAA@AEBV01@@Z24 00000001800230f0     LIBCMT:throw_bad_alloc.obj
 0002:00000000       ?DescIDs@@3PAHA            0000000180024000     Pclass.obj
 0002:000000a0       ?Counters@@3PAU_Counters@@A 00000001800240a0     perfthread.obj
 0002:00000200       ?pNtQueryInformationProcess@@3P6AJPEAXW4_PROCESSINFOCLASS@@0KPEAK@ZEA 0000000180024200     Proclist.obj
 0002:00000208       ?pNtQueryInformationThread@@3P6AJPEAXK0KPEAK@ZEA 0000000180024208     Proclist.obj
 0002:00000210       ?pNtQueryObject@@3P6AJPEAXK0K0@ZEA 0000000180024210     Proclist.obj
 0002:00000218       ?pNtQuerySystemInformation@@3P6AJKPEAXKPEAK@ZEA 0000000180024218     Proclist.obj
 0002:00000220       ?pNtQueryInformationFile@@3P6AJPEAX00KK@ZEA 0000000180024220     Proclist.obj
 0002:00000228       ?pIsValidSid@@3P6AHPEAX@ZEA 0000000180024228     Proclist.obj
 0002:00000230       ?pGetSidIdentifierAuthority@@3P6APEAU_SID_IDENTIFIER_AUTHORITY@@PEAX@ZEA 0000000180024230     Proclist.obj
 0002:00000238       ?pGetSidSubAuthorityCount@@3P6APEAEPEAX@ZEA 0000000180024238     Proclist.obj
 0002:00000240       ?pGetSidSubAuthority@@3P6APEAKPEAXK@ZEA 0000000180024240     Proclist.obj
 0002:00000248       ?pLookupAccountName@@3P6AHPEB_W0PEAXPEAKPEA_W2PEAW4_SID_NAME_USE@@@ZEA 0000000180024248     Proclist.obj
 0002:00000250       ?pIsWow64Process@@3P6AHPEAXPEAH@ZEA 0000000180024250     Proclist.obj
 0002:00000258       ?pGetGuiResources@@3P6AKPEAXK@ZEA 0000000180024258     Proclist.obj
 0002:00000260       ?pCoSetProxyBlanket@@3P6AJPEAUIUnknown@@KKPEA_WKKPEAXK@ZEA 0000000180024260     Proclist.obj
 0002:00000268       __scrt_native_dllmain_reason 0000000180024268     LIBCMT:utility.obj
 0002:00000270       __isa_available            0000000180024270     LIBCMT:_cpu_disp_.obj
 0002:00000274       __isa_enabled              0000000180024274     LIBCMT:_cpu_disp_.obj
 0002:00000278       __memcpy_nt_iters          0000000180024278     LIBCMT:_cpu_disp_.obj
 0002:00000280       __security_cookie          0000000180024280     LIBCMT:gs_cookie.obj
 0002:00000288       __security_cookie_complement 0000000180024288     LIBCMT:gs_cookie.obj
 0002:000002e4       __abort_behavior           00000001800242e4     libucrt:abort.obj
 0002:00000300       __acrt_initial_locale_data 0000000180024300     libucrt:nlsdata.obj
 0002:00000458       __acrt_initial_locale_pointers 0000000180024458     libucrt:nlsdata.obj
 0002:00000468       __acrt_wide_c_locale_string 0000000180024468     libucrt:nlsdata.obj
 0002:00000470       _pwctype                   0000000180024470     libucrt:ctype.obj
 0002:00000480       __acrt_initial_multibyte_data 0000000180024480     libucrt:mbctype.obj
 0002:000006a8       __acrt_current_multibyte_data 00000001800246a8     libucrt:mbctype.obj
 0002:000007b0       _mbctype                   00000001800247b0     libucrt:mbctype.obj
 0002:000008c0       _mbcasemap                 00000001800248c0     libucrt:mbctype.obj
 0002:000009c0       _iob                       00000001800249c0     libucrt:_file.obj
 0002:00000ac8       __globallocalestatus       0000000180024ac8     libucrt:glstatus.obj
 0002:00000ad0       __acrt_lconv_c             0000000180024ad0     libucrt:localeconv.obj
 0002:00000b68       __acrt_lconv_static_decimal 0000000180024b68     libucrt:localeconv.obj
 0002:00000b6c       __acrt_lconv_static_W_decimal 0000000180024b6c     libucrt:localeconv.obj
 0002:00000b70       __dcrt_lowio_console_output_handle 0000000180024b70     libucrt:initcon.obj
 0002:00000b90       _fltused                   0000000180024b90     LIBCMT:fltused.obj
 0002:00000ba0       ??_R0?AVbad_alloc@std@@@8  0000000180024ba0     LIBCMT:throw_bad_alloc.obj
 0002:00000bc8       ??_R0?AVexception@std@@@8  0000000180024bc8     LIBCMT:throw_bad_alloc.obj
 0002:00000bf0       ??_R0?AVbad_array_new_length@std@@@8 0000000180024bf0     LIBCMT:throw_bad_alloc.obj
 0002:00000c20       ??_R0?AVtype_info@@@8      0000000180024c20     LIBCMT:std_type_info_static.obj
 0002:00000c40       ?FPRINTFbuffer@@3PA_WA     0000000180024c40     fileio.obj
 0002:00020e50       ?bInit@Plist@@2_NA         0000000180044e50     Pclass.obj
 0002:00020e60       ?PanelModesLocal@Plist@@2PAUPanelMode@@A 0000000180044e60     Pclass.obj
 0002:00021040       ?PanelModesRemote@Plist@@2PAUPanelMode@@A 0000000180045040     Pclass.obj
 0002:00021220       ?ProcPanelModesLocal@Plist@@2PAY0FA@_WA 0000000180045220     Pclass.obj
 0002:00021860       ?ProcPanelModesRemote@Plist@@2PAY0FA@_WA 0000000180045860     Pclass.obj
 0002:00021ea0       ?PanelModeBuffer@Plist@@2PA_WA 0000000180045ea0     Pclass.obj
 0002:00026390       ?hDebugToken@DebugToken@@0REAXEA 000000018004a390     Plist.obj
 0002:00026400       ?PluginRootKey@@3PEA_WEA   000000018004a400     Proclist.obj
 0002:00026408       ?Opt@@3U_Opt@@A            000000018004a408     Proclist.obj
 0002:00026430       ?Info@@3UPluginStartupInfo@@A 000000018004a430     Proclist.obj
 0002:00026540       ?FSF@@3UFarStandardFunctions@@A 000000018004a540     Proclist.obj
 0002:000266c0       ?_ui64Table@@3PEAVui64Table@@EA 000000018004a6c0     Proclist.obj
 0002:000266f0       __scrt_current_native_startup_state 000000018004a6f0     LIBCMT:utility.obj
 0002:000266f8       __scrt_native_startup_lock 000000018004a6f8     LIBCMT:utility.obj
 0002:00026740       ?__type_info_root_node@@3U__type_info_node@@A 000000018004a740     LIBCMT:tncleanup.obj
 0002:00026750       ?_OptionsStorage@?1??__local_stdio_printf_options@@9@4_KA 000000018004a750     LIBCMT:default_local_stdio_options.obj
 0002:00026758       ?_OptionsStorage@?1??__local_stdio_scanf_options@@9@4_KA 000000018004a758     LIBCMT:default_local_stdio_options.obj
 0002:00026760       __scrt_debugger_hook_flag  000000018004a760     LIBCMT:utility_desktop.obj
 0002:00026764       __favor                    000000018004a764     LIBCMT:_cpu_disp_.obj
 0002:00026888       __pPurecall                000000018004a888     libvcruntime:purevirt_data.obj
 0002:00026890       ?pArgList@UnDecorator@@0PEAVReplicator@@EA 000000018004a890     libvcruntime:undname.obj
 0002:00026898       ?pZNameList@UnDecorator@@0PEAVReplicator@@EA 000000018004a898     libvcruntime:undname.obj
 0002:000268a0       ?pTemplateArgList@UnDecorator@@0PEAVReplicator@@EA 000000018004a8a0     libvcruntime:undname.obj
 0002:000268a8       ?gName@UnDecorator@@0PEBDEB 000000018004a8a8     libvcruntime:undname.obj
 0002:000268b0       ?name@UnDecorator@@0PEBDEB 000000018004a8b0     libvcruntime:undname.obj
 0002:000268b8       ?outputString@UnDecorator@@0PEADEA 000000018004a8b8     libvcruntime:undname.obj
 0002:000268c0       ?maxStringLength@UnDecorator@@0HA 000000018004a8c0     libvcruntime:undname.obj
 0002:000268c4       ?disableFlags@UnDecorator@@0KA 000000018004a8c4     libvcruntime:undname.obj
 0002:000268c8       ?fExplicitTemplateParams@UnDecorator@@0_NA 000000018004a8c8     libvcruntime:undname.obj
 0002:000268c9       ?fGetTemplateArgumentList@UnDecorator@@0_NA 000000018004a8c9     libvcruntime:undname.obj
 0002:000268d0       ?m_pGetParameter@UnDecorator@@0P6APEADJ@ZEA 000000018004a8d0     libvcruntime:undname.obj
 0002:00026920       _environ_table             000000018004a920     libucrt:environment_initialization.obj
 0002:00026928       _wenviron_table            000000018004a928     libucrt:environment_initialization.obj
 0002:00026930       __dcrt_initial_wide_environment 000000018004a930     libucrt:environment_initialization.obj
 0002:00026938       __dcrt_initial_narrow_environment 000000018004a938     libucrt:environment_initialization.obj
 0002:00026940       __acrt_atexit_table        000000018004a940     libucrt:onexit.obj
 0002:00026958       __acrt_at_quick_exit_table 000000018004a958     libucrt:onexit.obj
 0002:00026978       __acrt_locale_changed_data 000000018004a978     libucrt:wsetlocale.obj
 0002:00026980       __acrt_current_locale_data 000000018004a980     libucrt:nlsdata.obj
 0002:00026d44       __mbcodepage               000000018004ad44     libucrt:mbctype.obj
 0002:00026d48       __ismbcodepage             000000018004ad48     libucrt:mbctype.obj
 0002:00026d50       __mbulinfo                 000000018004ad50     libucrt:mbctype.obj
 0002:00026d60       __mblocalename             000000018004ad60     libucrt:mbctype.obj
 0002:00026d70       __acrt_heap                000000018004ad70     libucrt:heap_handle.obj
 0002:00026d80       __pioinfo                  000000018004ad80     libucrt:ioinit.obj
 0002:00027180       _nhandle                   000000018004b180     libucrt:ioinit.obj
 0002:00027188       __argv                     000000018004b188     libucrt:argv_data.obj
 0002:00027190       __wargv                    000000018004b190     libucrt:argv_data.obj
 0002:00027198       _acmdln                    000000018004b198     libucrt:argv_data.obj
 0002:000271a0       _wcmdln                    000000018004b1a0     libucrt:argv_data.obj
 0002:000271d0       __acrt_stdout_buffer       000000018004b1d0     libucrt:_sftbuf.obj
 0002:000271d8       __acrt_stderr_buffer       000000018004b1d8     libucrt:_sftbuf.obj
 0002:000271e8       _nstream                   000000018004b1e8     libucrt:_file.obj
 0002:000271f0       __piob                     000000018004b1f0     libucrt:_file.obj
 0002:000271f8       __acrt_lconv_static_null   000000018004b1f8     libucrt:localeconv.obj
 0002:000271fc       __acrt_lconv_static_W_null 000000018004b1fc     libucrt:localeconv.obj
 0002:00027204       __fma3_is_available        000000018004b204     libucrt:fma3_available.obj
 0002:00027208       __use_fma3_lib             000000018004b208     libucrt:fma3_available.obj
 0002:00027780       __scrt_ucrt_dll_is_in_use  000000018004b780     <common>
 0002:00027788       __dyn_tls_init_callback    000000018004b788     <common>
 0002:00027790       _pDestructExceptionObject  000000018004b790     <common>
 0004:00000000       __imp_SystemFunction036    000000018004e000     advapi32:ADVAPI32.dll
 0004:00000008       __imp_LookupPrivilegeValueW 000000018004e008     advapi32:ADVAPI32.dll
 0004:00000010       __imp_DuplicateTokenEx     000000018004e010     advapi32:ADVAPI32.dll
 0004:00000018       __imp_AdjustTokenPrivileges 000000018004e018     advapi32:ADVAPI32.dll
 0004:00000020       __imp_OpenThreadToken      000000018004e020     advapi32:ADVAPI32.dll
 0004:00000028       __imp_OpenProcessToken     000000018004e028     advapi32:ADVAPI32.dll
 0004:00000030       __imp_SetThreadToken       000000018004e030     advapi32:ADVAPI32.dll
 0004:00000038       __imp_RegQueryValueExW     000000018004e038     advapi32:ADVAPI32.dll
 0004:00000040       __imp_RegOpenKeyExW        000000018004e040     advapi32:ADVAPI32.dll
 0004:00000048       __imp_RegConnectRegistryW  000000018004e048     advapi32:ADVAPI32.dll
 0004:00000050       __imp_RegCloseKey          000000018004e050     advapi32:ADVAPI32.dll
 0004:00000058       __imp_GetUserNameW         000000018004e058     advapi32:ADVAPI32.dll
 0004:00000060       \177ADVAPI32_NULL_THUNK_DATA 000000018004e060     advapi32:ADVAPI32.dll
 0004:00000068       __imp_lstrcpynW            000000018004e068     kernel32:KERNEL32.dll
 0004:00000070       __imp_lstrlenW             000000018004e070     kernel32:KERNEL32.dll
 0004:00000078       __imp_CreateFileW          000000018004e078     kernel32:KERNEL32.dll
 0004:00000080       __imp_SetEvent             000000018004e080     kernel32:KERNEL32.dll
 0004:00000088       __imp_GetCurrentThreadId   000000018004e088     kernel32:KERNEL32.dll
 0004:00000090       __imp_SetPriorityClass     000000018004e090     kernel32:KERNEL32.dll
 0004:00000098       __imp_GetPriorityClass     000000018004e098     kernel32:KERNEL32.dll
 0004:000000a0       __imp_GetSystemTimeAsFileTime 000000018004e0a0     kernel32:KERNEL32.dll
 0004:000000a8       __imp_GetLocalTime         000000018004e0a8     kernel32:KERNEL32.dll
 0004:000000b0       __imp_GetTickCount         000000018004e0b0     kernel32:KERNEL32.dll
 0004:000000b8       __imp_lstrcmpW             000000018004e0b8     kernel32:KERNEL32.dll
 0004:000000c0       __imp_lstrcmpiW            000000018004e0c0     kernel32:KERNEL32.dll
 0004:000000c8       __imp_lstrcpyW             000000018004e0c8     kernel32:KERNEL32.dll
 0004:000000d0       __imp_lstrcatW             000000018004e0d0     kernel32:KERNEL32.dll
 0004:000000d8       __imp_SystemTimeToTzSpecificLocalTime 000000018004e0d8     kernel32:KERNEL32.dll
 0004:000000e0       __imp_FileTimeToSystemTime 000000018004e0e0     kernel32:KERNEL32.dll
 0004:000000e8       __imp_ResetEvent           000000018004e0e8     kernel32:KERNEL32.dll
 0004:000000f0       __imp_CreateMutexW         000000018004e0f0     kernel32:KERNEL32.dll
 0004:000000f8       __imp_CreateEventW         000000018004e0f8     kernel32:KERNEL32.dll
 0004:00000100       __imp_GetProcessTimes      000000018004e100     kernel32:KERNEL32.dll
 0004:00000108       __imp_WaitForMultipleObjects 000000018004e108     kernel32:KERNEL32.dll
 0004:00000110       __imp_GetLastError         000000018004e110     kernel32:KERNEL32.dll
 0004:00000118       __imp_TerminateProcess     000000018004e118     kernel32:KERNEL32.dll
 0004:00000120       __imp_VirtualFree          000000018004e120     kernel32:KERNEL32.dll
 0004:00000128       __imp_OpenProcess          000000018004e128     kernel32:KERNEL32.dll
 0004:00000130       __imp_ReadProcessMemory    000000018004e130     kernel32:KERNEL32.dll
 0004:00000138       __imp_FileTimeToLocalFileTime 000000018004e138     kernel32:KERNEL32.dll
 0004:00000140       __imp_GetModuleHandleW     000000018004e140     kernel32:KERNEL32.dll
 0004:00000148       __imp_LocalFree            000000018004e148     kernel32:KERNEL32.dll
 0004:00000150       __imp_FormatMessageW       000000018004e150     kernel32:KERNEL32.dll
 0004:00000158       __imp_GetDateFormatW       000000018004e158     kernel32:KERNEL32.dll
 0004:00000160       __imp_GetTimeFormatW       000000018004e160     kernel32:KERNEL32.dll
 0004:00000168       __imp_GetProcAddress       000000018004e168     kernel32:KERNEL32.dll
 0004:00000170       __imp_WriteConsoleW        000000018004e170     kernel32:KERNEL32.dll
 0004:00000178       __imp_SetFilePointerEx     000000018004e178     kernel32:KERNEL32.dll
 0004:00000180       __imp_GetConsoleMode       000000018004e180     kernel32:KERNEL32.dll
 0004:00000188       __imp_GetConsoleCP         000000018004e188     kernel32:KERNEL32.dll
 0004:00000190       __imp_FlushFileBuffers     000000018004e190     kernel32:KERNEL32.dll
 0004:00000198       __imp_SetStdHandle         000000018004e198     kernel32:KERNEL32.dll
 0004:000001a0       __imp_HeapReAlloc          000000018004e1a0     kernel32:KERNEL32.dll
 0004:000001a8       __imp_HeapSize             000000018004e1a8     kernel32:KERNEL32.dll
 0004:000001b0       __imp_GetCommandLineW      000000018004e1b0     kernel32:KERNEL32.dll
 0004:000001b8       __imp_VirtualAlloc         000000018004e1b8     kernel32:KERNEL32.dll
 0004:000001c0       __imp_TerminateThread      000000018004e1c0     kernel32:KERNEL32.dll
 0004:000001c8       __imp_CreateThread         000000018004e1c8     kernel32:KERNEL32.dll
 0004:000001d0       __imp_GetCurrentProcessId  000000018004e1d0     kernel32:KERNEL32.dll
 0004:000001d8       __imp_GetCurrentProcess    000000018004e1d8     kernel32:KERNEL32.dll
 0004:000001e0       __imp_Sleep                000000018004e1e0     kernel32:KERNEL32.dll
 0004:000001e8       __imp_WaitForSingleObject  000000018004e1e8     kernel32:KERNEL32.dll
 0004:000001f0       __imp_ReleaseMutex         000000018004e1f0     kernel32:KERNEL32.dll
 0004:000001f8       __imp_SetLastError         000000018004e1f8     kernel32:KERNEL32.dll
 0004:00000200       __imp_DuplicateHandle      000000018004e200     kernel32:KERNEL32.dll
 0004:00000208       __imp_CloseHandle          000000018004e208     kernel32:KERNEL32.dll
 0004:00000210       __imp_GetCurrentThread     000000018004e210     kernel32:KERNEL32.dll
 0004:00000218       __imp_GetCommandLineA      000000018004e218     kernel32:KERNEL32.dll
 0004:00000220       __imp_GetFileType          000000018004e220     kernel32:KERNEL32.dll
 0004:00000228       __imp_GetStdHandle         000000018004e228     kernel32:KERNEL32.dll
 0004:00000230       __imp_GetProcessHeap       000000018004e230     kernel32:KERNEL32.dll
 0004:00000238       __imp_WriteFile            000000018004e238     kernel32:KERNEL32.dll
 0004:00000240       __imp_FreeEnvironmentStringsW 000000018004e240     kernel32:KERNEL32.dll
 0004:00000248       __imp_GetEnvironmentStringsW 000000018004e248     kernel32:KERNEL32.dll
 0004:00000250       __imp_GetCPInfo            000000018004e250     kernel32:KERNEL32.dll
 0004:00000258       __imp_GetOEMCP             000000018004e258     kernel32:KERNEL32.dll
 0004:00000260       __imp_IsValidCodePage      000000018004e260     kernel32:KERNEL32.dll
 0004:00000268       __imp_QueryPerformanceCounter 000000018004e268     kernel32:KERNEL32.dll
 0004:00000270       __imp_InitializeSListHead  000000018004e270     kernel32:KERNEL32.dll
 0004:00000278       __imp_RtlCaptureContext    000000018004e278     kernel32:KERNEL32.dll
 0004:00000280       __imp_RtlLookupFunctionEntry 000000018004e280     kernel32:KERNEL32.dll
 0004:00000288       __imp_RtlVirtualUnwind     000000018004e288     kernel32:KERNEL32.dll
 0004:00000290       __imp_IsDebuggerPresent    000000018004e290     kernel32:KERNEL32.dll
 0004:00000298       __imp_UnhandledExceptionFilter 000000018004e298     kernel32:KERNEL32.dll
 0004:000002a0       __imp_SetUnhandledExceptionFilter 000000018004e2a0     kernel32:KERNEL32.dll
 0004:000002a8       __imp_GetStartupInfoW      000000018004e2a8     kernel32:KERNEL32.dll
 0004:000002b0       __imp_IsProcessorFeaturePresent 000000018004e2b0     kernel32:KERNEL32.dll
 0004:000002b8       __imp_GetModuleFileNameW   000000018004e2b8     kernel32:KERNEL32.dll
 0004:000002c0       __imp_RtlUnwindEx          000000018004e2c0     kernel32:KERNEL32.dll
 0004:000002c8       __imp_RtlPcToFileHeader    000000018004e2c8     kernel32:KERNEL32.dll
 0004:000002d0       __imp_RaiseException       000000018004e2d0     kernel32:KERNEL32.dll
 0004:000002d8       __imp_InterlockedFlushSList 000000018004e2d8     kernel32:KERNEL32.dll
 0004:000002e0       __imp_InitializeCriticalSectionAndSpinCount 000000018004e2e0     kernel32:KERNEL32.dll
 0004:000002e8       __imp_TlsAlloc             000000018004e2e8     kernel32:KERNEL32.dll
 0004:000002f0       __imp_TlsGetValue          000000018004e2f0     kernel32:KERNEL32.dll
 0004:000002f8       __imp_TlsSetValue          000000018004e2f8     kernel32:KERNEL32.dll
 0004:00000300       __imp_TlsFree              000000018004e300     kernel32:KERNEL32.dll
 0004:00000308       __imp_FreeLibrary          000000018004e308     kernel32:KERNEL32.dll
 0004:00000310       __imp_LoadLibraryExW       000000018004e310     kernel32:KERNEL32.dll
 0004:00000318       __imp_EnterCriticalSection 000000018004e318     kernel32:KERNEL32.dll
 0004:00000320       __imp_LeaveCriticalSection 000000018004e320     kernel32:KERNEL32.dll
 0004:00000328       __imp_DeleteCriticalSection 000000018004e328     kernel32:KERNEL32.dll
 0004:00000330       __imp_ExitProcess          000000018004e330     kernel32:KERNEL32.dll
 0004:00000338       __imp_GetModuleHandleExW   000000018004e338     kernel32:KERNEL32.dll
 0004:00000340       __imp_MultiByteToWideChar  000000018004e340     kernel32:KERNEL32.dll
 0004:00000348       __imp_WideCharToMultiByte  000000018004e348     kernel32:KERNEL32.dll
 0004:00000350       __imp_HeapFree             000000018004e350     kernel32:KERNEL32.dll
 0004:00000358       __imp_HeapAlloc            000000018004e358     kernel32:KERNEL32.dll
 0004:00000360       __imp_GetACP               000000018004e360     kernel32:KERNEL32.dll
 0004:00000368       __imp_GetStringTypeW       000000018004e368     kernel32:KERNEL32.dll
 0004:00000370       __imp_LCMapStringW         000000018004e370     kernel32:KERNEL32.dll
 0004:00000378       \177KERNEL32_NULL_THUNK_DATA 000000018004e378     kernel32:KERNEL32.dll
 0004:00000380       __imp_WNetCancelConnection2W 000000018004e380     mpr:MPR.dll
 0004:00000388       __imp_WNetAddConnection2W  000000018004e388     mpr:MPR.dll
 0004:00000390       \177MPR_NULL_THUNK_DATA    000000018004e390     mpr:MPR.dll
 0004:00000398       __imp_SysAllocString       000000018004e398     oleaut32:OLEAUT32.dll
 0004:000003a0       __imp_SysFreeString        000000018004e3a0     oleaut32:OLEAUT32.dll
 0004:000003a8       __imp_VariantClear         000000018004e3a8     oleaut32:OLEAUT32.dll
 0004:000003b0       \177OLEAUT32_NULL_THUNK_DATA 000000018004e3b0     oleaut32:OLEAUT32.dll
 0004:000003b8       __imp_EnumWindows          000000018004e3b8     user32:USER32.dll
 0004:000003c0       __imp_wsprintfW            000000018004e3c0     user32:USER32.dll
 0004:000003c8       __imp_ShowWindowAsync      000000018004e3c8     user32:USER32.dll
 0004:000003d0       __imp_GetWindowPlacement   000000018004e3d0     user32:USER32.dll
 0004:000003d8       __imp_IsWindowVisible      000000018004e3d8     user32:USER32.dll
 0004:000003e0       __imp_IsIconic             000000018004e3e0     user32:USER32.dll
 0004:000003e8       __imp_SetForegroundWindow  000000018004e3e8     user32:USER32.dll
 0004:000003f0       __imp_GetWindowTextW       000000018004e3f0     user32:USER32.dll
 0004:000003f8       __imp_SystemParametersInfoW 000000018004e3f8     user32:USER32.dll
 0004:00000400       __imp_GetWindowThreadProcessId 000000018004e400     user32:USER32.dll
 0004:00000408       __imp_GetParent            000000018004e408     user32:USER32.dll
 0004:00000410       __imp_GetWindowLongW       000000018004e410     user32:USER32.dll
 0004:00000418       \177USER32_NULL_THUNK_DATA 000000018004e418     user32:USER32.dll
 0004:00000420       __imp_GetFileVersionInfoSizeW 000000018004e420     version:VERSION.dll
 0004:00000428       __imp_GetFileVersionInfoW  000000018004e428     version:VERSION.dll
 0004:00000430       __imp_VerQueryValueW       000000018004e430     version:VERSION.dll
 0004:00000438       \177VERSION_NULL_THUNK_DATA 000000018004e438     version:VERSION.dll
 0004:00000440       __imp_CoCreateInstance     000000018004e440     ole32:ole32.dll
 0004:00000448       __imp_CoInitialize         000000018004e448     ole32:ole32.dll
 0004:00000450       __imp_CoUninitialize       000000018004e450     ole32:ole32.dll
 0004:00000458       \177ole32_NULL_THUNK_DATA  000000018004e458     ole32:ole32.dll
 0004:00000460       __IMPORT_DESCRIPTOR_KERNEL32 000000018004e460     kernel32:KERNEL32.dll
 0004:00000474       __IMPORT_DESCRIPTOR_USER32 000000018004e474     user32:USER32.dll
 0004:00000488       __IMPORT_DESCRIPTOR_ADVAPI32 000000018004e488     advapi32:ADVAPI32.dll
 0004:0000049c       __IMPORT_DESCRIPTOR_ole32  000000018004e49c     ole32:ole32.dll
 0004:000004b0       __IMPORT_DESCRIPTOR_MPR    000000018004e4b0     mpr:MPR.dll
 0004:000004c4       __IMPORT_DESCRIPTOR_VERSION 000000018004e4c4     version:VERSION.dll
 0004:000004d8       __IMPORT_DESCRIPTOR_OLEAUT32 000000018004e4d8     oleaut32:OLEAUT32.dll
 0004:000004ec       __NULL_IMPORT_DESCRIPTOR   000000018004e4ec     kernel32:KERNEL32.dll

 entry point at        0001:00016b88

 Static symbols

 0001:00000080       ?constStrTypes@@3QBQEB_WB  0000000180001080     handles.obj
 0001:00000770       ?StatusWidth@?1??InitializePanelModes@Plist@@SAXXZ@4QB_WB 0000000180001770     Pclass.obj
 0001:00000780       ?StatusCols@?1??InitializePanelModes@Plist@@SAXXZ@4QB_WB 0000000180001780     Pclass.obj
 0001:00000790       ?DefaultModes@?1??InitializePanelModes@Plist@@SAXXZ@4QBU<unnamed-type-DefaultModes>@?1??12@SAXXZ@B 0000000180001790     Pclass.obj
 0001:00000a60       ?DefaultModesRemote@?1??InitializePanelModes@Plist@@SAXXZ@4QBU<unnamed-type-DefaultModes>@?1??12@SAXXZ@B 0000000180001a60     Pclass.obj
 0001:00000c30       ?invalid_chars@?1??GetFiles@Plist@@QEAAHPEAUPluginPanelItem@@HHPEAPEB_W_KAEAU_Opt@@@Z@4QB_WB 0000000180001c30     Pclass.obj
 0001:00000c50       ?Styles@?JJ@??GetFiles@Plist@@QEAAHPEAUPluginPanelItem@@HHPEAPEB_W_KAEAU_Opt@@@Z@4QBIB 0000000180001c50     Pclass.obj
 0001:00000c90       ?StrStyles@?JJ@??GetFiles@Plist@@QEAAHPEAUPluginPanelItem@@HHPEAPEB_W_KAEAU_Opt@@@Z@4QBQEB_WB 0000000180001c90     Pclass.obj
 0001:00000ec0       ?ExtStyles@?JJ@??GetFiles@Plist@@QEAAHPEAUPluginPanelItem@@HHPEAPEB_W_KAEAU_Opt@@@Z@4QBHB 0000000180001ec0     Pclass.obj
 0001:00000f10       ?StrExtStyles@?JJ@??GetFiles@Plist@@QEAAHPEAUPluginPanelItem@@HHPEAPEB_W_KAEAU_Opt@@@Z@4QBQEB_WB 0000000180001f10     Pclass.obj
 0001:00001418       ?PrClasses@?FA@??ProcessKey@Plist@@QEAAHPEBU_INPUT_RECORD@@@Z@4QBGB 0000000180002418     Pclass.obj
 0001:00001424       ?Pr@?IA@??ProcessKey@Plist@@QEAAHPEBU_INPUT_RECORD@@@Z@4QBEB 0000000180002424     Pclass.obj
 0001:000014f8       ?MonthDays@?O@??FileTimeToText@Plist@@AEAAXPEAU_FILETIME@@0PEA_W@Z@4QBHB 00000001800024f8     Pclass.obj
 0001:00001578       ?WSFI@?1??GetVersionInfo@Plist@@SA_NPEA_WAEAPEAEAEAPEA_W2@Z@4QB_WB 0000000180002578     Pclass.obj
 0001:00002100       ?ExceptionTemplate@?1??_CxxThrowException@@9@4UEHExceptionRecord@@B 0000000180003100     libvcruntime:throw.obj
 0001:00002140       ?module_names@?A0x61ce2399@@3QBQEB_WB 0000000180003140     libvcruntime:winapi_downlevel.obj
 0001:000021dc       ?candidate_modules@?1??try_get_EventRegister@@YAP6AKPEBU_GUID@@P6AX0KE_K1PEAU_EVENT_FILTER_DESCRIPTOR@@PEAX@Z3PEA_K@ZXZ@4QBW4module_id@?A0x61ce2399@@B 00000001800031dc     libvcruntime:winapi_downlevel.obj
 0001:000021f0       ?candidate_modules@?1??try_get_EventSetInformation@@YAP6AK_KW4_EVENT_INFO_CLASS@@PEAXK@ZXZ@4QBW4module_id@?A0x61ce2399@@B 00000001800031f0     libvcruntime:winapi_downlevel.obj
 0001:0000220c       ?candidate_modules@?1??try_get_EventUnregister@@YAP6AK_K@ZXZ@4QBW4module_id@?A0x61ce2399@@B 000000018000320c     libvcruntime:winapi_downlevel.obj
 0001:00002220       ?candidate_modules@?1??try_get_EventWriteTransfer@@YAP6AK_KPEBU_EVENT_DESCRIPTOR@@PEBU_GUID@@2KPEAU_EVENT_DATA_DESCRIPTOR@@@ZXZ@4QBW4module_id@?A0x61ce2399@@B 0000000180003220     libvcruntime:winapi_downlevel.obj
 0001:00002240       ?candidate_modules@?1??try_get_FlsAlloc@@YAP6AKP6AXPEAX@Z@ZXZ@4QBW4module_id@?A0x61ce2399@@B 0000000180003240     libvcruntime:winapi_downlevel.obj
 0001:00002258       ?candidate_modules@?1??try_get_FlsFree@@YAP6AHK@ZXZ@4QBW4module_id@?A0x61ce2399@@B 0000000180003258     libvcruntime:winapi_downlevel.obj
 0001:00002268       ?candidate_modules@?1??try_get_FlsGetValue@@YAP6APEAXK@ZXZ@4QBW4module_id@?A0x61ce2399@@B 0000000180003268     libvcruntime:winapi_downlevel.obj
 0001:00002280       ?candidate_modules@?1??try_get_FlsSetValue@@YAP6AHKPEAX@ZXZ@4QBW4module_id@?A0x61ce2399@@B 0000000180003280     libvcruntime:winapi_downlevel.obj
 0001:00002298       ?candidate_modules@?1??try_get_InitializeCriticalSectionEx@@YAP6AHPEAU_RTL_CRITICAL_SECTION@@KK@ZXZ@4QBW4module_id@?A0x61ce2399@@B 0000000180003298     libvcruntime:winapi_downlevel.obj
 0001:00002780       ?rttiTable@@3QBQEBDB       0000000180003780     libvcruntime:undname.obj
 0001:000027b0       ?tokenTable@@3QBQEBDB      00000001800037b0     libvcruntime:undname.obj
 0001:00002820       ?nameTable@@3QBQEBDB       0000000180003820     libvcruntime:undname.obj
 0001:00002d40       __acrt_initializers        0000000180003d40     libucrt:initialization.obj
 0001:00002e30       errtable                   0000000180003e30     libucrt:errno.obj
 0001:00003e30       module_names               0000000180004e30     libucrt:winapi_thunks.obj
 0001:00004350       ?candidate_modules@?1??try_get_FlsAlloc@@YAP6AKP6AXPEAX@Z@ZXZ@4QBW4module_id@?A0x63058377@@B 0000000180005350     libucrt:winapi_thunks.obj
 0001:00004358       ?candidate_modules@?1??try_get_FlsFree@@YAP6AHK@ZXZ@4QBW4module_id@?A0x63058377@@B 0000000180005358     libucrt:winapi_thunks.obj
 0001:00004360       ?candidate_modules@?1??try_get_FlsGetValue@@YAP6APEAXK@ZXZ@4QBW4module_id@?A0x63058377@@B 0000000180005360     libucrt:winapi_thunks.obj
 0001:00004368       ?candidate_modules@?1??try_get_FlsSetValue@@YAP6AHKPEAX@ZXZ@4QBW4module_id@?A0x63058377@@B 0000000180005368     libucrt:winapi_thunks.obj
 0001:00004370       ?candidate_modules@?1??try_get_GetCurrentPackageId@@YAP6AJPEAIPEAE@ZXZ@4QBW4module_id@?A0x63058377@@B 0000000180005370     libucrt:winapi_thunks.obj
 0001:00004390       ?candidate_modules@?1??try_get_InitializeCriticalSectionEx@@YAP6AHPEAU_RTL_CRITICAL_SECTION@@KK@ZXZ@4QBW4module_id@?A0x63058377@@B 0000000180005390     libucrt:winapi_thunks.obj
 0001:00004398       ?candidate_modules@?1??try_get_LCMapStringEx@@YAP6AHPEB_WK0HPEA_WHPEAU_nlsversioninfo@@PEAX_J@ZXZ@4QBW4module_id@?A0x63058377@@B 0000000180005398     libucrt:winapi_thunks.obj
 0001:000043b0       ?candidate_modules@?1??try_get_LocaleNameToLCID@@YAP6AKPEB_WK@ZXZ@4QBW4module_id@?A0x63058377@@B 00000001800053b0     libucrt:winapi_thunks.obj
 0001:000043d0       _mb_locale_names           00000001800053d0     libucrt:mbctype.obj
 0001:00004440       LcidToLocaleNameTable      0000000180005440     libucrt:lcidtoname_downlevel.obj
 0001:00005e90       LocaleNameToIndexTable     0000000180006e90     libucrt:lcidtoname_downlevel.obj
 0001:00007730       __real_ninf                0000000180008730     libucrt:log10.obj
 0001:00007740       __real_inf                 0000000180008740     libucrt:log10.obj
 0001:00007750       __real_neg_qnan            0000000180008750     libucrt:log10.obj
 0001:00007760       __real_qnanbit             0000000180008760     libucrt:log10.obj
 0001:00007770       __int_1023                 0000000180008770     libucrt:log10.obj
 0001:00007780       __mask_001                 0000000180008780     libucrt:log10.obj
 0001:00007790       __mask_mant                0000000180008790     libucrt:log10.obj
 0001:000077a0       __mask_mant_top8           00000001800087a0     libucrt:log10.obj
 0001:000077b0       __mask_mant9               00000001800087b0     libucrt:log10.obj
 0001:000077c0       __real_log10_e             00000001800087c0     libucrt:log10.obj
 0001:000077d0       __real_log10_e_lead        00000001800087d0     libucrt:log10.obj
 0001:000077e0       __real_log10_e_tail        00000001800087e0     libucrt:log10.obj
 0001:000077f0       __real_log10_2_lead        00000001800087f0     libucrt:log10.obj
 0001:00007800       __real_log10_2_tail        0000000180008800     libucrt:log10.obj
 0001:00007810       __real_two                 0000000180008810     libucrt:log10.obj
 0001:00007820       __real_one                 0000000180008820     libucrt:log10.obj
 0001:00007830       __real_half                0000000180008830     libucrt:log10.obj
 0001:00007840       __mask_100                 0000000180008840     libucrt:log10.obj
 0001:00007850       __real_1_over_512          0000000180008850     libucrt:log10.obj
 0001:00007860       __real_1_over_2            0000000180008860     libucrt:log10.obj
 0001:00007870       __real_1_over_3            0000000180008870     libucrt:log10.obj
 0001:00007880       __real_1_over_4            0000000180008880     libucrt:log10.obj
 0001:00007890       __real_1_over_5            0000000180008890     libucrt:log10.obj
 0001:000078a0       __real_1_over_6            00000001800088a0     libucrt:log10.obj
 0001:000078b0       __real_neg_1023            00000001800088b0     libucrt:log10.obj
 0001:000078c0       __mask_2045                00000001800088c0     libucrt:log10.obj
 0001:000078d0       __real_threshold           00000001800088d0     libucrt:log10.obj
 0001:000078e0       __real_near_one_lt         00000001800088e0     libucrt:log10.obj
 0001:000078f0       __real_near_one_gt         00000001800088f0     libucrt:log10.obj
 0001:00007900       __real_min_norm            0000000180008900     libucrt:log10.obj
 0001:00007910       __real_notsign             0000000180008910     libucrt:log10.obj
 0001:00007920       __real_ca1                 0000000180008920     libucrt:log10.obj
 0001:00007930       __real_ca2                 0000000180008930     libucrt:log10.obj
 0001:00007940       __real_ca3                 0000000180008940     libucrt:log10.obj
 0001:00007950       __real_ca4                 0000000180008950     libucrt:log10.obj
 0001:00007960       __mask_lower               0000000180008960     libucrt:log10.obj
 0001:00007970       __flag_x_zero              0000000180008970     libucrt:log10.obj
 0001:00007974       __flag_x_neg               0000000180008974     libucrt:log10.obj
 0001:00007978       __flag_x_nan               0000000180008978     libucrt:log10.obj
 0001:000091d0       __real@433fffffffffffff    000000018000a1d0     libucrt:fpsr.obj
 0001:000091d8       __real@c33fffffffffffff    000000018000a1d8     libucrt:fpsr.obj
 0001:000091e0       GS_ExceptionPointers       000000018000a1e0     LIBCMT:gs_report.obj
 0001:000094b0       ?_TlgEvent@?3??__telemetry_main_invoke_trigger@@9@4U<unnamed-type-_TlgEvent>@?3??1@YAXQEAUHINSTANCE__@@@Z@B 000000018000a4b0     libvcruntime:telemetry.obj
 0001:000094ec       ?_TlgEvent@?3??__telemetry_main_return_trigger@@9@4U<unnamed-type-_TlgEvent>@?3??1@YAXQEAUHINSTANCE__@@@Z@B 000000018000a4ec     libvcruntime:telemetry.obj
 0001:00009527       ?_Tlg_Microsoft_CRTProviderProv_Meta@@3U<unnamed-type-_Tlg_Microsoft_CRTProviderProv_Meta>@@B 000000018000a527     libvcruntime:telemetry.obj
 0001:00009aa0       $$000000                   000000018000aaa0     chkstk.obj
 0001:00009b50       ?ConvertSid@@YAHPEAXPEA_WPEAK@Z 000000018000ab50 f   handles.obj
 0001:00009d40       ?GetFileNameThread@@YAKPEAX@Z 000000018000ad40 f   handles.obj
 0001:00009d90       ?GetType@@YAGPEAX@Z        000000018000ad90 f   handles.obj
 0001:00009e90       ?GetUserAccountID@@YAPEB_WXZ 000000018000ae90 f   handles.obj
 0001:00009fc0       ?PrintFileName@@YA_NPEAX0@Z 000000018000afc0 f   handles.obj
 0001:0000a330       ?PrintNameAndType@@YA_NPEAXK0PEAVPerfThread@@@Z 000000018000b330 f   handles.obj
 0001:0000a4c0       ?PrintNameByType@@YA_NPEAXG0PEAVPerfThread@@@Z 000000018000b4c0 f   handles.obj
 0001:0000aeb0       ?fGetSidSubAuthorityCount@@YAPEAEPEAX@Z 000000018000beb0 f i Proclist.obj
 0001:0000aeb0       ?fGetSidSubAuthority@@YAPEAKPEAXK@Z 000000018000beb0 f i Proclist.obj
 0001:0000aeb0       ?fLookupAccountName@@YAHPEB_W0PEAXPEAKPEA_W2PEAW4_SID_NAME_USE@@@Z 000000018000beb0 f i Proclist.obj
 0001:0000aeb0       ?fGetSidIdentifierAuthority@@YAPEAU_SID_IDENTIFIER_AUTHORITY@@PEAX@Z 000000018000beb0 f i Proclist.obj
 0001:0000aeb0       ?fIsValidSid@@YAHPEAX@Z    000000018000beb0 f i Proclist.obj
 0001:0000aeb0       ?fGetGuiResources@@YAKPEAXK@Z 000000018000beb0 f i Proclist.obj
 0001:0000aeb0       ?fIsWow64Process@@YAHPEAXPEAH@Z 000000018000beb0 f i Proclist.obj
 0001:0000bacc       $LN246                     000000018000cacc     PCFG.OBJ
 0001:0000bafc       $LN245                     000000018000cafc     PCFG.OBJ
 0001:0000bb2c       $LN244                     000000018000cb2c     PCFG.OBJ
 0001:0000bb5c       $LN243                     000000018000cb5c     PCFG.OBJ
 0001:0000bb8c       $LN242                     000000018000cb8c     PCFG.OBJ
 0001:0000bbbc       $LN241                     000000018000cbbc     PCFG.OBJ
 0001:0000bbec       $LN240                     000000018000cbec     PCFG.OBJ
 0001:0000be74       $LN10                      000000018000ce74     PCFG.OBJ
 0001:0000bfa8       $LN22                      000000018000cfa8     PCFG.OBJ
 0001:0000d738       $LN22                      000000018000e738     Pclass.obj
 0001:0000dc9c       $LN58                      000000018000ec9c     Pclass.obj
 0001:0000dca4       $LN57                      000000018000eca4     Pclass.obj
 0001:0000dcdc       $LN56                      000000018000ecdc     Pclass.obj
 0001:0000dce4       $LN55                      000000018000ece4     Pclass.obj
 0001:0000dd20       ?GenerateTitles@@YAXQEAY0FA@_WPEAUPanelMode@@QEAY0BI@PEA_W@Z 000000018000ed20 f   Pclass.obj
 0001:0000e034       $LN75                      000000018000f034     Pclass.obj
 0001:0000e044       $LN74                      000000018000f044     Pclass.obj
 0001:0000e074       $LN73                      000000018000f074     Pclass.obj
 0001:0000e088       $LN72                      000000018000f088     Pclass.obj
 0001:0000e0c0       $LN71                      000000018000f0c0     Pclass.obj
 0001:0000e0e0       $LN70                      000000018000f0e0     Pclass.obj
 0001:0000f780       $LN168                     0000000180010780     Pclass.obj
 0001:0000f794       $LN167                     0000000180010794     Pclass.obj
 0001:0000f7cc       $LN166                     00000001800107cc     Pclass.obj
 0001:0000f7ec       $LN165                     00000001800107ec     Pclass.obj
 0001:0001227c       $LN538                     000000018001327c     Pclass.obj
 0001:000122ac       $LN537                     00000001800132ac     Pclass.obj
 0001:000122dc       $LN536                     00000001800132dc     Pclass.obj
 0001:0001230c       $LN535                     000000018001330c     Pclass.obj
 0001:0001233c       $LN534                     000000018001333c     Pclass.obj
 0001:000129b0       $LN50                      00000001800139b0     Pclass.obj
 0001:000129b8       $LN49                      00000001800139b8     Pclass.obj
 0001:000129f0       $LN48                      00000001800139f0     Pclass.obj
 0001:000129f8       $LN47                      00000001800139f8     Pclass.obj
 0001:00012a80       ?ui64toa_width@@YAX_KPEA_WI_N@Z 0000000180013a80 f   Pclass.obj
 0001:00013c40       ?getcounter@@YAHPEA_W@Z    0000000180014c40 f   perfthread.obj
 0001:000140d0       ?FreeUserData@@YAXPEAXPEBUFarPanelItemFreeInfo@@@Z 00000001800150d0 f   Plist.obj
 0001:00016040       ?fNtQueryObject@@YAJPEAXK0K0@Z 0000000180017040 f   Proclist.obj
 0001:00016040       ?fNtQueryInformationFile@@YAJPEAX00KK@Z 0000000180017040 f   Proclist.obj
 0001:00016040       ?fNtQueryInformationThread@@YAJPEAXK0KPEAK@Z 0000000180017040 f   Proclist.obj
 0001:00016040       ?fNtQuerySystemInformation@@YAJKPEAXKPEAK@Z 0000000180017040 f   Proclist.obj
 0001:00016040       ?fNtQueryInformationProcess@@YAJPEAXW4_PROCESSINFOCLASS@@0KPEAK@Z 0000000180017040 f   Proclist.obj
 0001:00016050       ?fCoSetProxyBlanket@@YAJPEAUIUnknown@@KKPEA_WKKPEAXK@Z 0000000180017050 f   Proclist.obj
 0001:000160a0       ?dynamic_bind@@YAXXZ       00000001800170a0 f   Proclist.obj
 0001:0001682c       ?dllmain_crt_dispatch@@YAHQEAUHINSTANCE__@@KQEAX@Z 000000018001782c f   LIBCMT:dll_dllmain.obj
 0001:0001687c       ?dllmain_crt_process_attach@@YAHQEAUHINSTANCE__@@QEAX@Z 000000018001787c f   LIBCMT:dll_dllmain.obj
 0001:000169a8       ?dllmain_crt_process_detach@@YAH_N@Z 00000001800179a8 f   LIBCMT:dll_dllmain.obj
 0001:00016a2c       ?dllmain_dispatch@@YAHQEAUHINSTANCE__@@KQEAX@Z 0000000180017a2c f   LIBCMT:dll_dllmain.obj
 0001:00016b34       ?dllmain_raw@@YAHQEAUHINSTANCE__@@KQEAX@Z 0000000180017b34 f   LIBCMT:dll_dllmain.obj
 0001:00017630       $$000000                   0000000180018630     libvcruntime:memset.obj
 0001:0001771c       MsetTab                    000000018001871c     libvcruntime:memset.obj
 0001:000177e0       $$000000                   00000001800187e0     libvcruntime:memcpy.obj
 0001:00017887       MoveSmall                  0000000180018887     libvcruntime:memcpy.obj
 0001:00017d64       _TlgDefineProvider_annotation__Tlg_Microsoft_CRTProviderProv 0000000180018d64 f   libvcruntime:telemetry.obj
 0001:00018414       ?try_get_function@@YAPEAXW4function_id@?A0x61ce2399@@QEBDQEBW4module_id@2@2@Z 0000000180019414 f   libvcruntime:winapi_downlevel.obj
 0001:00018a30       $$000000                   0000000180019a30     libvcruntime:_jmpuwind_.obj
 0001:00019638       ??$common_xtox@_K_W@@YAH_KQEA_W0I_N@Z 000000018001a638 f   libucrt:xtoa.obj
 0001:00019b38       ?atexit_exception_filter@@YAHK@Z 000000018001ab38 f   libucrt:exit.obj
 0001:00019b44       ?common_exit@@YAXHW4_crt_exit_cleanup_mode@@W4_crt_exit_return_mode@@@Z 000000018001ab44 f   libucrt:exit.obj
 0001:00019cb0       ?exit_or_terminate_process@@YAXI@Z 000000018001acb0 f   libucrt:exit.obj
 0001:00019cfc       ?try_cor_exit_process@@YAXI@Z 000000018001acfc f   libucrt:exit.obj
 0001:00019d94       ??$common_initialize_environment_nolock@D@@YAHXZ 000000018001ad94 f   libucrt:environment_initialization.obj
 0001:00019e00       ??$create_environment@D@@YAQEAPEADQEAD@Z 000000018001ae00 f   libucrt:environment_initialization.obj
 0001:00019efc       ??$free_environment@D@@YAXQEAPEAD@Z 000000018001aefc f   libucrt:environment_initialization.obj
 0001:00019efc       ??$free_environment@_W@@YAXQEAPEA_W@Z 000000018001aefc f   libucrt:environment_initialization.obj
 0001:00019f40       ??$uninitialize_environment_internal@D@@YAXAEAPEAPEAD@Z 000000018001af40 f   libucrt:environment_initialization.obj
 0001:00019f5c       ??$uninitialize_environment_internal@_W@@YAXAEAPEAPEA_W@Z 000000018001af5c f   libucrt:environment_initialization.obj
 0001:0001a194       ??R<lambda_4e60a939b0d047cfe11ddc22648dfba9>@@QEBAHXZ 000000018001b194 f   libucrt:onexit.obj
 0001:0001a444       initialize_global_variables 000000018001b444 f   libucrt:initialization.obj
 0001:0001a458       initialize_c               000000018001b458 f   libucrt:initialization.obj
 0001:0001a47c       uninitialize_environment   000000018001b47c f   libucrt:initialization.obj
 0001:0001a48c       initialize_pointers        000000018001b48c f   libucrt:initialization.obj
 0001:0001a4e0       uninitialize_vcruntime     000000018001b4e0 f   libucrt:initialization.obj
 0001:0001a4e8       uninitialize_allocated_memory 000000018001b4e8 f   libucrt:initialization.obj
 0001:0001ab9c       ?internal_isupper_l@@YA_NHQEAU__crt_locale_pointers@@@Z 000000018001bb9c f   libucrt:tolower_toupper.obj
 0001:0001ae54       ?construct_ptd_array@@YAXQEAU__acrt_ptd@@@Z 000000018001be54 f   libucrt:per_thread_data.obj
 0001:0001af24       ?destroy_fls@@YAXPEAX@Z    000000018001bf24 f   libucrt:per_thread_data.obj
 0001:0001af44       ?destroy_ptd_array@@YAXQEAU__acrt_ptd@@@Z 000000018001bf44 f   libucrt:per_thread_data.obj
 0001:0001b03c       ?replace_current_thread_locale_nolock@@YAXQEAU__acrt_ptd@@QEAU__crt_locale_data@@@Z 000000018001c03c f   libucrt:per_thread_data.obj
 0001:0001b630       ?try_get_function@@YAPEAXW4function_id@?A0x63058377@@QEBDQEBW4module_id@2@2@Z 000000018001c630 f   libucrt:winapi_thunks.obj
 0001:0001bcb4       ??R<lambda_ad1ced32f4ac17aa236e5ef05d6b3b7c>@@QEBAXXZ 000000018001ccb4 f   libucrt:mbctype.obj
 0001:0001becc       ?getSystemCP@@YAHH@Z       000000018001cecc f   libucrt:mbctype.obj
 0001:0001bf4c       ?setSBCS@@YAXPEAU__crt_multibyte_data@@@Z 000000018001cf4c f   libucrt:mbctype.obj
 0001:0001bfdc       ?setSBUpLow@@YAXPEAU__crt_multibyte_data@@@Z 000000018001cfdc f   libucrt:mbctype.obj
 0001:0001c1c0       ?setmbcp_internal@@YAHH_N@Z 000000018001d1c0 f   libucrt:mbctype.obj
 0001:0001c8d4       ?initialize_inherited_file_handles_nolock@@YAXXZ 000000018001d8d4 f   libucrt:ioinit.obj
 0001:0001c9c0       ?initialize_stdio_handles_nolock@@YAXXZ 000000018001d9c0 f   libucrt:ioinit.obj
 0001:0001cb60       initialize_global_state_isolation 000000018001db60 f   libucrt:initialization.obj
 0001:0001cb60       initialize_environment     000000018001db60 f   libucrt:initialization.obj
 0001:0001cb60       report_memory_leaks        000000018001db60 f   libucrt:initialization.obj
 0001:0001cb60       uninitialize_global_state_isolation 000000018001db60 f   libucrt:initialization.obj
 0001:0001cb60       uninitialize_c             000000018001db60 f   libucrt:initialization.obj
 0001:0001d300       ?__acrt_LCMapStringA_stat@@YAHPEAU__crt_locale_pointers@@PEB_WKPEBDHPEADHHH@Z 000000018001e300 f   libucrt:lcmapstringa.obj
 0001:0001dc78       ?free_crt_array_internal@@YAXQEAPEBX_K@Z 000000018001ec78 f   libucrt:inittime.obj
 0001:0001df8c       ?GetTableIndexFromLocaleName@@YAHPEB_W@Z 000000018001ef8c f   libucrt:lcidtoname_downlevel.obj
 0001:0001e088       ?initialize_multibyte@@YAHXZ 000000018001f088 f   libucrt:multibyte_initializer.obj
 0001:0001e5ac       common_flush_all           000000018001f5ac f   libucrt:fflush.obj
 0001:0001e8c4       ?write_double_translated_ansi_nolock@@YA?AUwrite_result@?A0x9c548279@@HQEBDI@Z 000000018001f8c4 f   libucrt:write.obj
 0001:0001eacc       ?write_text_ansi_nolock@@YA?AUwrite_result@?A0x9c548279@@HQEBDI@Z 000000018001facc f   libucrt:write.obj
 0001:0001ebd4       ?write_text_utf16le_nolock@@YA?AUwrite_result@?A0x9c548279@@HQEBDI@Z 000000018001fbd4 f   libucrt:write.obj
 0001:0001ecf0       ?write_text_utf8_nolock@@YA?AUwrite_result@?A0x9c548279@@HQEBDI@Z 000000018001fcf0 f   libucrt:write.obj
 0001:0001f240       $$000000                   0000000180020240     libucrt:log10.obj
 0001:0001f7ec       ??$common_lseek_nolock@_J@@YA_JH_JH@Z 00000001800207ec f   libucrt:lseek.obj
 0001:0001f9dc       _call_matherr              00000001800209dc f   libucrt:libm_error.obj
 0001:0001fa44       _exception_enabled         0000000180020a44 f   libucrt:libm_error.obj
 0001:0001fcc0       _log_special_common        0000000180020cc0 f   libucrt:log_special.obj
 0001:0001ffd0       $$000000                   0000000180020fd0     libucrt:fpsr.obj
 0001:000204f0       $$000000                   00000001800214f0     LIBCMT:_amdsecgs_.obj
 0001:00020708       capture_previous_context   0000000180021708 f   LIBCMT:gs_report.obj
 0001:00020780       $$000000                   0000000180021780     libvcruntime:memcmp.obj
 0001:00020860       $$000000                   0000000180021860     LIBCMT:_guard_dispatch_.obj
 0001:00020880       ?fin$0@?0??dllmain_crt_process_attach@@YAHQEAUHINSTANCE__@@QEAX@Z@4HA 0000000180021880 f   LIBCMT:dll_dllmain.obj
 0001:00020897       ?fin$0@?0??dllmain_crt_process_detach@@YAH_N@Z@4HA 0000000180021897 f   LIBCMT:dll_dllmain.obj
 0001:000208b3       ?filt$0@?0??dllmain_dispatch@@YAHQEAUHINSTANCE__@@KQEAX@Z@4HA 00000001800218b3 f   LIBCMT:dll_dllmain.obj
 0001:000208e9       __scrt_is_nonwritable_in_current_image$filt$0 00000001800218e9 f   LIBCMT:utility.obj
 0001:00020901       _query_new_handler$fin$0   0000000180021901 f   libucrt:new_handler.obj
 0001:00020917       ?filt$0@?0??common_exit@@YAXHW4_crt_exit_cleanup_mode@@W4_crt_exit_return_mode@@@Z@4HA 0000000180021917 f   libucrt:exit.obj
 0001:00020932       ?fin$1@?0??common_exit@@YAXHW4_crt_exit_cleanup_mode@@W4_crt_exit_return_mode@@@Z@4HA 0000000180021932 f   libucrt:exit.obj
 0001:0002094b       ?fin$0@?0???$?RV<lambda_e24bbb7b643b32fcea6fa61b31d4c984>@@AEAV<lambda_275893d493268fdec8709772e3fcec0e>@@V<lambda_9d71df4d7cf3f480f8d633942495c3b0>@@@?$__crt_seh_guarded_call@H@@QEAAH$$QEAV<lambda_e24bbb7b643b32fcea6fa61b31d4c984>@@AEAV<lambda_275893d493268fdec8709772e3fcec0e>@@$$QEAV<lambda_9d71df4d7cf3f480f8d633942495c3b0>@@@Z@4HA 000000018002194b f   libucrt:onexit.obj
 0001:00020968       ?fin$0@?0???$?RV<lambda_fb3a7dec4e47f37f22dae91bb15c9095>@@AEAV<lambda_698284760c8add0bfb0756c19673e34b>@@V<lambda_dfb8eca1e75fef3034a8fb18dd509707>@@@?$__crt_seh_guarded_call@X@@QEAAX$$QEAV<lambda_fb3a7dec4e47f37f22dae91bb15c9095>@@AEAV<lambda_698284760c8add0bfb0756c19673e34b>@@$$QEAV<lambda_dfb8eca1e75fef3034a8fb18dd509707>@@@Z@4HA 0000000180021968 f   libucrt:per_thread_data.obj
 0001:00020968       ?fin$0@?0???$?RV<lambda_46352004c1216016012b18bd6f87e700>@@AEAV<lambda_3bd07e1a1191394380780325891bf33f>@@V<lambda_334532d3f185bcaa59b5be82d7d22bff>@@@?$__crt_seh_guarded_call@X@@QEAAX$$QEAV<lambda_46352004c1216016012b18bd6f87e700>@@AEAV<lambda_3bd07e1a1191394380780325891bf33f>@@$$QEAV<lambda_334532d3f185bcaa59b5be82d7d22bff>@@@Z@4HA 0000000180021968 f   libucrt:per_thread_data.obj
 0001:00020968       ?fin$0@?0???$?RV<lambda_72d1df2b273a38828b1ce30cbf4cdab5>@@AEAV<lambda_876a65b173b8412d3a47c70a915b0cf4>@@V<lambda_41932305e351933ebe8f8be3ed8bb5dc>@@@?$__crt_seh_guarded_call@X@@QEAAX$$QEAV<lambda_72d1df2b273a38828b1ce30cbf4cdab5>@@AEAV<lambda_876a65b173b8412d3a47c70a915b0cf4>@@$$QEAV<lambda_41932305e351933ebe8f8be3ed8bb5dc>@@@Z@4HA 0000000180021968 f   libucrt:per_thread_data.obj
 0001:00020968       ?fin$0@?0???$?RV<lambda_c36588078e9f5dfd39652860aa6b3aaf>@@AEAV<lambda_ec61778202f4f5fc7e7711acc23c3bca>@@V<lambda_dc9d2797ccde5d239b4a0efae8ebd7db>@@@?$__crt_seh_guarded_call@P6AXH@Z@@QEAAP6AXH@Z$$QEAV<lambda_c36588078e9f5dfd39652860aa6b3aaf>@@AEAV<lambda_ec61778202f4f5fc7e7711acc23c3bca>@@$$QEAV<lambda_dc9d2797ccde5d239b4a0efae8ebd7db>@@@Z@4HA 0000000180021968 f   libucrt:signal.obj
 0001:00020968       ?fin$0@?0???$?RV<lambda_b8c45f8f788dd370798f47cfe8ac3a86>@@AEAV<lambda_4e60a939b0d047cfe11ddc22648dfba9>@@V<lambda_332c3edc96d0294ec56c57d38c1cdfd5>@@@?$__crt_seh_guarded_call@H@@QEAAH$$QEAV<lambda_b8c45f8f788dd370798f47cfe8ac3a86>@@AEAV<lambda_4e60a939b0d047cfe11ddc22648dfba9>@@$$QEAV<lambda_332c3edc96d0294ec56c57d38c1cdfd5>@@@Z@4HA 0000000180021968 f   libucrt:onexit.obj
 0001:00020968       ?fin$0@?0???$?RV<lambda_99476a1ad63dd22509b5d3e65b0ffc95>@@AEAV<lambda_ad1ced32f4ac17aa236e5ef05d6b3b7c>@@V<lambda_f7424dd8d45958661754dc4f2697e9c3>@@@?$__crt_seh_guarded_call@X@@QEAAX$$QEAV<lambda_99476a1ad63dd22509b5d3e65b0ffc95>@@AEAV<lambda_ad1ced32f4ac17aa236e5ef05d6b3b7c>@@$$QEAV<lambda_f7424dd8d45958661754dc4f2697e9c3>@@@Z@4HA 0000000180021968 f   libucrt:mbctype.obj
 0001:00020968       ?fin$0@?0???$?RV<lambda_5e887d1dcbef67a5eb4283622ba103bf>@@AEAV<lambda_4466841279450cc726390878d4a41900>@@V<lambda_341c25c0346d94847f1f3c463c57e077>@@@?$__crt_seh_guarded_call@X@@QEAAX$$QEAV<lambda_5e887d1dcbef67a5eb4283622ba103bf>@@AEAV<lambda_4466841279450cc726390878d4a41900>@@$$QEAV<lambda_341c25c0346d94847f1f3c463c57e077>@@@Z@4HA 0000000180021968 f   libucrt:per_thread_data.obj
 0001:00020982       __acrt_update_thread_multibyte_data$fin$0 0000000180021982 f   libucrt:mbctype.obj
 0001:0002099b       __acrt_initialize_lowio$fin$0 000000018002199b f   libucrt:ioinit.obj
 0001:0002099b       __acrt_lowio_ensure_fh_exists$fin$0 000000018002199b f   libucrt:osfinfo.obj
 0001:000209b4       raise$fin$0                00000001800219b4 f   libucrt:signal.obj
 0001:000209d8       __acrt_uninitialize_locale$fin$0 00000001800219d8 f   libucrt:wsetlocale.obj
 0001:000209d8       __acrt_update_thread_locale_data$fin$0 00000001800219d8 f   libucrt:locale_refcounting.obj
 0001:000209f1       common_flush_all$fin$0     00000001800219f1 f   libucrt:fflush.obj
 0001:00020a0b       common_flush_all$fin$1     0000000180021a0b f   libucrt:fflush.obj
 0001:00020a24       _fcloseall$fin$0           0000000180021a24 f   libucrt:closeall.obj
 0001:00020a3d       ?fin$0@?0???$?RV<lambda_bfedae4ebbf01fab1bb6dcc6a9e276e0>@@AEAV<lambda_2fe9b910cf3cbf4a0ab98a02ba45b3ec>@@V<lambda_237c231691f317818eb88cc1d5d642d6>@@@?$__crt_seh_guarded_call@H@@QEAAH$$QEAV<lambda_bfedae4ebbf01fab1bb6dcc6a9e276e0>@@AEAV<lambda_2fe9b910cf3cbf4a0ab98a02ba45b3ec>@@$$QEAV<lambda_237c231691f317818eb88cc1d5d642d6>@@@Z@4HA 0000000180021a3d f   libucrt:close.obj
 0001:00020a3d       ?fin$0@?0???$?RV<lambda_b521505b218e5242e90febf6bfebc422>@@AEAV<lambda_6978c1fb23f02e42e1d9e99668cc68aa>@@V<lambda_314360699dd331753a4119843814e9a7>@@@?$__crt_seh_guarded_call@H@@QEAAH$$QEAV<lambda_b521505b218e5242e90febf6bfebc422>@@AEAV<lambda_6978c1fb23f02e42e1d9e99668cc68aa>@@$$QEAV<lambda_314360699dd331753a4119843814e9a7>@@@Z@4HA 0000000180021a3d f   libucrt:commit.obj
 0001:00020a57       _write$fin$0               0000000180021a57 f   libucrt:write.obj
 0001:00020a6e       fclose$fin$0               0000000180021a6e f   libucrt:fclose.obj
 0001:00020a86       _ctrlfp$filt$0             0000000180021a86 f   libucrt:fpctrl.obj
 0001:00020ac0       _IsNonwritableInCurrentImage$filt$0 0000000180021ac0 f   LIBCMT:pesect.obj
 0001:00020ae0       $xdatasym                  0000000180021ae0     chkstk.obj
 0001:00020ae8       $unwind$?PrintHandleInfo@@YA_NKPEAX_NPEAVPerfThread@@@Z 0000000180021ae8     handles.obj
 0001:00020b00       $chain$0$?PrintHandleInfo@@YA_NKPEAX_NPEAVPerfThread@@@Z 0000000180021b00     handles.obj
 0001:00020b14       $chain$1$?PrintHandleInfo@@YA_NKPEAX_NPEAVPerfThread@@@Z 0000000180021b14     handles.obj
 0001:00020b24       $unwind$?GetUserAccountID@@YAPEB_WXZ 0000000180021b24     handles.obj
 0001:00020b2c       $chain$1$?GetUserAccountID@@YAPEB_WXZ 0000000180021b2c     handles.obj
 0001:00020b44       $chain$2$?GetUserAccountID@@YAPEB_WXZ 0000000180021b44     handles.obj
 0001:00020b54       $unwind$?GetFileNameThread@@YAKPEAX@Z 0000000180021b54     handles.obj
 0001:00020b5c       $unwind$?PrintFileName@@YA_NPEAX0@Z 0000000180021b5c     handles.obj
 0001:00020b6c       $chain$0$?PrintFileName@@YA_NPEAX0@Z 0000000180021b6c     handles.obj
 0001:00020b80       $chain$1$?PrintFileName@@YA_NPEAX0@Z 0000000180021b80     handles.obj
 0001:00020b90       $unwind$?GetType@@YAGPEAX@Z 0000000180021b90     handles.obj
 0001:00020ba8       $unwind$?PrintNameByType@@YA_NPEAXG0PEAVPerfThread@@@Z 0000000180021ba8     handles.obj
 0001:00020bc0       $unwind$?PrintNameAndType@@YA_NPEAXK0PEAVPerfThread@@@Z 0000000180021bc0     handles.obj
 0001:00020bd8       $unwind$?ConvertSid@@YAHPEAXPEA_WPEAK@Z 0000000180021bd8     handles.obj
 0001:00020be4       $chain$0$?ConvertSid@@YAHPEAXPEA_WPEAK@Z 0000000180021be4     handles.obj
 0001:00020bf8       $chain$3$?ConvertSid@@YAHPEAXPEA_WPEAK@Z 0000000180021bf8     handles.obj
 0001:00020c10       $chain$5$?ConvertSid@@YAHPEAXPEA_WPEAK@Z 0000000180021c10     handles.obj
 0001:00020c28       $chain$6$?ConvertSid@@YAHPEAXPEA_WPEAK@Z 0000000180021c28     handles.obj
 0001:00020c3c       $chain$7$?ConvertSid@@YAHPEAXPEA_WPEAK@Z 0000000180021c3c     handles.obj
 0001:00020c4c       $chain$8$?ConvertSid@@YAHPEAXPEA_WPEAK@Z 0000000180021c4c     handles.obj
 0001:00020c5c       $unwind$?ReallocDialogItems@?$DialogBuilderBase@UFarDialogItem@@@@IEAAXXZ 0000000180021c5c     PCFG.OBJ
 0001:00020c6c       $unwind$?MaxTextWidth@?$DialogBuilderBase@UFarDialogItem@@@@IEAA_JXZ 0000000180021c6c     PCFG.OBJ
 0001:00020c7c       $chain$1$?MaxTextWidth@?$DialogBuilderBase@UFarDialogItem@@@@IEAA_JXZ 0000000180021c7c     PCFG.OBJ
 0001:00020c94       $chain$2$?MaxTextWidth@?$DialogBuilderBase@UFarDialogItem@@@@IEAA_JXZ 0000000180021c94     PCFG.OBJ
 0001:00020ca4       $unwind$?SaveValues@?$DialogBuilderBase@UFarDialogItem@@@@IEAAXXZ 0000000180021ca4     PCFG.OBJ
 0001:00020cb4       $chain$1$?SaveValues@?$DialogBuilderBase@UFarDialogItem@@@@IEAAXXZ 0000000180021cb4     PCFG.OBJ
 0001:00020ccc       $chain$2$?SaveValues@?$DialogBuilderBase@UFarDialogItem@@@@IEAAXXZ 0000000180021ccc     PCFG.OBJ
 0001:00020cdc       $chain$0$??1?$DialogBuilderBase@UFarDialogItem@@@@MEAA@XZ 0000000180021cdc     PCFG.OBJ
 0001:00020cf0       $chain$1$??1?$DialogBuilderBase@UFarDialogItem@@@@MEAA@XZ 0000000180021cf0     PCFG.OBJ
 0001:00020d00       $unwind$?AddButtons@?$DialogBuilderBase@UFarDialogItem@@@@QEAAXHPEBHHH@Z 0000000180021d00     PCFG.OBJ
 0001:00020d10       $chain$3$?AddButtons@?$DialogBuilderBase@UFarDialogItem@@@@QEAAXHPEBHHH@Z 0000000180021d10     PCFG.OBJ
 0001:00020d30       $chain$4$?AddButtons@?$DialogBuilderBase@UFarDialogItem@@@@QEAAXHPEBHHH@Z 0000000180021d30     PCFG.OBJ
 0001:00020d40       $unwind$?DoShowDialog@PluginDialogBuilder@@MEAA_JXZ 0000000180021d40     PCFG.OBJ
 0001:00020d4c       $unwind$?AddUIntEditField@PluginDialogBuilder@@UEAAPEAUFarDialogItem@@PEAIH@Z 0000000180021d4c     PCFG.OBJ
 0001:00020d4c       $unwind$?AddIntEditField@PluginDialogBuilder@@UEAAPEAUFarDialogItem@@PEAHH@Z 0000000180021d4c     PCFG.OBJ
 0001:00020d4c       $unwind$??$create_environment@D@@YAQEAPEADQEAD@Z 0000000180021d4c     libucrt:environment_initialization.obj
 0001:00020d64       $unwind$?Write@_Opt@@SAXXZ 0000000180021d64     PCFG.OBJ
 0001:00020d64       $unwind$?Read@_Opt@@SAXXZ  0000000180021d64     PCFG.OBJ
 0001:00020d78       $unwind$?Config@@YAHXZ     0000000180021d78     PCFG.OBJ
 0001:00020d98       $unwind$?PrintVersionInfo@Plist@@AEAAXPEAXPEA_W@Z 0000000180021d98     Pclass.obj
 0001:00020da0       $unwind$?Reread@Plist@@AEAAXXZ 0000000180021da0     Pclass.obj
 0001:00020dac       $chain$0$?FileTimeToText@Plist@@AEAAXPEAU_FILETIME@@0PEA_W@Z 0000000180021dac     Pclass.obj
 0001:00020dc0       $chain$1$?FileTimeToText@Plist@@AEAAXPEAU_FILETIME@@0PEA_W@Z 0000000180021dc0     Pclass.obj
 0001:00020dd0       $unwind$?PutToCmdLine@Plist@@AEAAXPEA_W@Z 0000000180021dd0     Pclass.obj
 0001:00020de8       $unwind$?GeneratePanelModes@Plist@@AEAAXXZ 0000000180021de8     Pclass.obj
 0001:00020e04       $unwind$?TranslateMode@Plist@@CA_NPEB_WPEA_W@Z 0000000180021e04     Pclass.obj
 0001:00020e10       $chain$4$?TranslateMode@Plist@@CA_NPEB_WPEA_W@Z 0000000180021e10     Pclass.obj
 0001:00020e34       $chain$6$?TranslateMode@Plist@@CA_NPEB_WPEA_W@Z 0000000180021e34     Pclass.obj
 0001:00020e58       $unwind$?PrintOwnerInfo@Plist@@AEAAXPEAXK@Z 0000000180021e58     Pclass.obj
 0001:00020e6c       $chain$0$?PrintOwnerInfo@Plist@@AEAAXPEAXK@Z 0000000180021e6c     Pclass.obj
 0001:00020e80       $chain$1$?PrintOwnerInfo@Plist@@AEAAXPEAXK@Z 0000000180021e80     Pclass.obj
 0001:00020e90       $chain$0$?WmiError@Plist@@AEAAXXZ 0000000180021e90     Pclass.obj
 0001:00020ea4       $chain$1$?WmiError@Plist@@AEAAXXZ 0000000180021ea4     Pclass.obj
 0001:00020ea4       $chain$2$?WmiError@Plist@@AEAAXXZ 0000000180021ea4     Pclass.obj
 0001:00020eb4       $unwind$??0Plist@@QEAA@XZ  0000000180021eb4     Pclass.obj
 0001:00020ec8       $unwind$?Connect@Plist@@QEAA_NPEB_W00@Z 0000000180021ec8     Pclass.obj
 0001:00020ee0       $unwind$?GetFindData@Plist@@QEAAHAEAPEAUPluginPanelItem@@AEA_K_K@Z 0000000180021ee0     Pclass.obj
 0001:00020ef0       $chain$2$?GetFindData@Plist@@QEAAHAEAPEAUPluginPanelItem@@AEA_K_K@Z 0000000180021ef0     Pclass.obj
 0001:00020f0c       $chain$3$?GetFindData@Plist@@QEAAHAEAPEAUPluginPanelItem@@AEA_K_K@Z 0000000180021f0c     Pclass.obj
 0001:00020f20       $chain$4$?GetFindData@Plist@@QEAAHAEAPEAUPluginPanelItem@@AEA_K_K@Z 0000000180021f20     Pclass.obj
 0001:00020f34       $chain$5$?GetFindData@Plist@@QEAAHAEAPEAUPluginPanelItem@@AEA_K_K@Z 0000000180021f34     Pclass.obj
 0001:00020f44       $chain$6$?GetFindData@Plist@@QEAAHAEAPEAUPluginPanelItem@@AEA_K_K@Z 0000000180021f44     Pclass.obj
 0001:00020f54       $chain$7$?GetFindData@Plist@@QEAAHAEAPEAUPluginPanelItem@@AEA_K_K@Z 0000000180021f54     Pclass.obj
 0001:00020f64       $chain$8$?GetFindData@Plist@@QEAAHAEAPEAUPluginPanelItem@@AEA_K_K@Z 0000000180021f64     Pclass.obj
 0001:00020f88       $unwind$?FreeFindData@Plist@@QEAAXPEAUPluginPanelItem@@H@Z 0000000180021f88     Pclass.obj
 0001:00020f94       $chain$0$?FreeFindData@Plist@@QEAAXPEAUPluginPanelItem@@H@Z 0000000180021f94     Pclass.obj
 0001:00020fa8       $chain$1$?FreeFindData@Plist@@QEAAXPEAUPluginPanelItem@@H@Z 0000000180021fa8     Pclass.obj
 0001:00020fb8       $unwind$?GetOpenPanelInfo@Plist@@QEAAXPEAUOpenPanelInfo@@@Z 0000000180021fb8     Pclass.obj
 0001:00020fd0       $unwind$?GetFiles@Plist@@QEAAHPEAUPluginPanelItem@@HHPEAPEB_W_KAEAU_Opt@@@Z 0000000180021fd0     Pclass.obj
 0001:00020fe0       $chain$4$?GetFiles@Plist@@QEAAHPEAUPluginPanelItem@@HHPEAPEB_W_KAEAU_Opt@@@Z 0000000180021fe0     Pclass.obj
 0001:00021004       $chain$6$?GetFiles@Plist@@QEAAHPEAUPluginPanelItem@@HHPEAPEB_W_KAEAU_Opt@@@Z 0000000180022004     Pclass.obj
 0001:00021028       $unwind$?DeleteFiles@Plist@@QEAAHPEAUPluginPanelItem@@H_K@Z 0000000180022028     Pclass.obj
 0001:0002103c       $chain$3$?DeleteFiles@Plist@@QEAAHPEAUPluginPanelItem@@H_K@Z 000000018002203c     Pclass.obj
 0001:00021058       $chain$4$?DeleteFiles@Plist@@QEAAHPEAUPluginPanelItem@@H_K@Z 0000000180022058     Pclass.obj
 0001:00021068       $unwind$?ProcessEvent@Plist@@QEAAH_JPEAX@Z 0000000180022068     Pclass.obj
 0001:0002107c       $chain$0$?ProcessEvent@Plist@@QEAAH_JPEAX@Z 000000018002207c     Pclass.obj
 0001:00021090       $chain$1$?ProcessEvent@Plist@@QEAAH_JPEAX@Z 0000000180022090     Pclass.obj
 0001:000210a0       $unwind$?Compare@Plist@@QEAAHPEBUPluginPanelItem@@0I@Z 00000001800220a0     Pclass.obj
 0001:000210b0       $chain$0$?Compare@Plist@@QEAAHPEBUPluginPanelItem@@0I@Z 00000001800220b0     Pclass.obj
 0001:000210c4       $chain$1$?Compare@Plist@@QEAAHPEBUPluginPanelItem@@0I@Z 00000001800220c4     Pclass.obj
 0001:000210d8       $chain$2$?Compare@Plist@@QEAAHPEBUPluginPanelItem@@0I@Z 00000001800220d8     Pclass.obj
 0001:000210e8       $chain$4$?Compare@Plist@@QEAAHPEBUPluginPanelItem@@0I@Z 00000001800220e8     Pclass.obj
 0001:00021100       $chain$5$?Compare@Plist@@QEAAHPEBUPluginPanelItem@@0I@Z 0000000180022100     Pclass.obj
 0001:00021114       $chain$6$?Compare@Plist@@QEAAHPEBUPluginPanelItem@@0I@Z 0000000180022114     Pclass.obj
 0001:00021124       $unwind$?ProcessKey@Plist@@QEAAHPEBU_INPUT_RECORD@@@Z 0000000180022124     Pclass.obj
 0001:00021130       $chain$0$?ProcessKey@Plist@@QEAAHPEBU_INPUT_RECORD@@@Z 0000000180022130     Pclass.obj
 0001:00021144       $chain$2$?ProcessKey@Plist@@QEAAHPEBU_INPUT_RECORD@@@Z 0000000180022144     Pclass.obj
 0001:00021158       $chain$9$?ProcessKey@Plist@@QEAAHPEBU_INPUT_RECORD@@@Z 0000000180022158     Pclass.obj
 0001:00021180       $chain$11$?ProcessKey@Plist@@QEAAHPEBU_INPUT_RECORD@@@Z 0000000180022180     Pclass.obj
 0001:000211a8       $chain$12$?ProcessKey@Plist@@QEAAHPEBU_INPUT_RECORD@@@Z 00000001800221a8     Pclass.obj
 0001:000211b8       $unwind$?PrintTitle@Plist@@SAPEA_WH@Z 00000001800221b8     Pclass.obj
 0001:000211c0       $unwind$?GetVersionInfo@Plist@@SA_NPEA_WAEAPEAEAEAPEA_W2@Z 00000001800221c0     Pclass.obj
 0001:000211d8       $chain$0$?GetVersionInfo@Plist@@SA_NPEA_WAEAPEAEAEAPEA_W2@Z 00000001800221d8     Pclass.obj
 0001:000211ec       $chain$1$?GetVersionInfo@Plist@@SA_NPEA_WAEAPEAEAEAPEA_W2@Z 00000001800221ec     Pclass.obj
 0001:000211fc       $chain$2$?GetVersionInfo@Plist@@SA_NPEA_WAEAPEAEAEAPEA_W2@Z 00000001800221fc     Pclass.obj
 0001:00021210       $unwind$?SavePanelModes@Plist@@SAXXZ 0000000180022210     Pclass.obj
 0001:00021230       $unwind$?InitializePanelModes@Plist@@SAXXZ 0000000180022230     Pclass.obj
 0001:0002124c       $chain$0$?EndColumns@?$DialogBuilderBase@UFarDialogItem@@@@QEAAXXZ 000000018002224c     Pclass.obj
 0001:00021260       $chain$2$?EndColumns@?$DialogBuilderBase@UFarDialogItem@@@@QEAAXXZ 0000000180022260     Pclass.obj
 0001:00021278       $chain$3$?EndColumns@?$DialogBuilderBase@UFarDialogItem@@@@QEAAXXZ 0000000180022278     Pclass.obj
 0001:00021288       $chain$4$?EndColumns@?$DialogBuilderBase@UFarDialogItem@@@@QEAAXXZ 0000000180022288     Pclass.obj
 0001:00021298       $unwind$?ui64toa_width@@YAX_KPEA_WI_N@Z 0000000180022298     Pclass.obj
 0001:000212a0       $chain$0$?ui64toa_width@@YAX_KPEA_WI_N@Z 00000001800222a0     Pclass.obj
 0001:000212b4       $chain$1$?ui64toa_width@@YAX_KPEA_WI_N@Z 00000001800222b4     Pclass.obj
 0001:000212c8       $chain$2$?ui64toa_width@@YAX_KPEA_WI_N@Z 00000001800222c8     Pclass.obj
 0001:000212d8       $chain$3$?ui64toa_width@@YAX_KPEA_WI_N@Z 00000001800222d8     Pclass.obj
 0001:000212e8       $unwind$?GenerateTitles@@YAXQEAY0FA@_WPEAUPanelMode@@QEAY0BI@PEA_W@Z 00000001800222e8     Pclass.obj
 0001:00021308       $unwind$?EnumWndProc@@YAHPEAUHWND__@@_J@Z 0000000180022308     Pclass.obj
 0001:00021314       $chain$0$?EnumWndProc@@YAHPEAUHWND__@@_J@Z 0000000180022314     Pclass.obj
 0001:00021328       $chain$1$?EnumWndProc@@YAHPEAUHWND__@@_J@Z 0000000180022328     Pclass.obj
 0001:00021338       $unwind$wcstol             0000000180022338     libucrt:strtox.obj
 0001:00021338       $unwind$_ui64tow           0000000180022338     libucrt:xtoa.obj
 0001:00021338       $unwind$?ThreadProc@PerfThread@@AEAAKXZ 0000000180022338     perfthread.obj
 0001:00021338       $unwind$?fputc@@YAHHPEAX@Z 0000000180022338     fileio.obj
 0001:00021338       $unwind$?PrintTime@@YAPEA_WK_N@Z 0000000180022338     Plist.obj
 0001:00021340       $unwind$?Refresh@PerfThread@@AEAAXXZ 0000000180022340     perfthread.obj
 0001:0002135c       $unwind$?RefreshWMIData@PerfThread@@AEAAXXZ 000000018002235c     perfthread.obj
 0001:00021368       $chain$5$?RefreshWMIData@PerfThread@@AEAAXXZ 0000000180022368     perfthread.obj
 0001:00021390       $chain$6$?RefreshWMIData@PerfThread@@AEAAXXZ 0000000180022390     perfthread.obj
 0001:000213a0       $unwind$??0PerfThread@@QEAA@AEAVPlist@@PEB_W11@Z 00000001800223a0     perfthread.obj
 0001:000213b0       $chain$0$??0PerfThread@@QEAA@AEAVPlist@@PEB_W11@Z 00000001800223b0     perfthread.obj
 0001:000213c4       $chain$1$??0PerfThread@@QEAA@AEAVPlist@@PEB_W11@Z 00000001800223c4     perfthread.obj
 0001:000213d8       $chain$2$??0PerfThread@@QEAA@AEAVPlist@@PEB_W11@Z 00000001800223d8     perfthread.obj
 0001:000213ec       $chain$3$??0PerfThread@@QEAA@AEAVPlist@@PEB_W11@Z 00000001800223ec     perfthread.obj
 0001:000213fc       $chain$4$??0PerfThread@@QEAA@AEAVPlist@@PEB_W11@Z 00000001800223fc     perfthread.obj
 0001:0002140c       $chain$5$??0PerfThread@@QEAA@AEAVPlist@@PEB_W11@Z 000000018002240c     perfthread.obj
 0001:0002141c       $unwind$?GetOpenProcessData@@YAXPEAXPEA_WK1K1KPEAPEA_W2@Z 000000018002241c     Plist.obj
 0001:00021438       $chain$0$?GetOpenProcessData@@YAXPEAXPEA_WK1K1KPEAPEA_W2@Z 0000000180022438     Plist.obj
 0001:0002144c       $chain$1$?GetOpenProcessData@@YAXPEAXPEA_WK1K1KPEAPEA_W2@Z 000000018002244c     Plist.obj
 0001:0002145c       $chain$2$?GetOpenProcessData@@YAXPEAXPEA_WK1K1KPEAPEA_W2@Z 000000018002245c     Plist.obj
 0001:00021470       $unwind$?OpenProcessForced@@YAPEAXPEAVDebugToken@@KKH@Z 0000000180022470     Plist.obj
 0001:00021470       $unwind$?AddEditField@PluginDialogBuilder@@QEAAPEAUFarDialogItem@@PEA_WHHPEB_W_N@Z 0000000180022470     Pclass.obj
 0001:00021470       $unwind$?AddPasswordField@PluginDialogBuilder@@QEAAPEAUFarDialogItem@@PEA_WHH@Z 0000000180022470     Pclass.obj
 0001:00021470       $unwind$?AddDialogItem@?$DialogBuilderBase@UFarDialogItem@@@@IEAAPEAUFarDialogItem@@W4FARDIALOGITEMTYPES@@PEB_W@Z 0000000180022470     PCFG.OBJ
 0001:00021488       $unwind$?GetList@@YAHAEAPEAUPluginPanelItem@@AEA_KAEAVPerfThread@@@Z 0000000180022488     Plist.obj
 0001:0002149c       $chain$1$?GetList@@YAHAEAPEAUPluginPanelItem@@AEA_KAEAVPerfThread@@@Z 000000018002249c     Plist.obj
 0001:000214b4       $chain$2$?GetList@@YAHAEAPEAUPluginPanelItem@@AEA_KAEAVPerfThread@@@Z 00000001800224b4     Plist.obj
 0001:000214c4       $unwind$?DumpNTCounters@@YAXPEAXAEAVPerfThread@@KK@Z 00000001800224c4     Plist.obj
 0001:000214d0       $chain$4$?DumpNTCounters@@YAXPEAXAEAVPerfThread@@KK@Z 00000001800224d0     Plist.obj
 0001:000214f4       $chain$5$?DumpNTCounters@@YAXPEAXAEAVPerfThread@@KK@Z 00000001800224f4     Plist.obj
 0001:00021508       $chain$6$?DumpNTCounters@@YAXPEAXAEAVPerfThread@@KK@Z 0000000180022508     Plist.obj
 0001:00021518       $chain$7$?DumpNTCounters@@YAXPEAXAEAVPerfThread@@KK@Z 0000000180022518     Plist.obj
 0001:00021528       $unwind$?PrintNTCurDirAndEnv@@YAXPEAX0H@Z 0000000180022528     Plist.obj
 0001:00021538       $unwind$?PrintModules@@YAXPEAXKAEAU_Opt@@@Z 0000000180022538     Plist.obj
 0001:00021544       $chain$4$?PrintModules@@YAXPEAXKAEAU_Opt@@@Z 0000000180022544     Plist.obj
 0001:00021568       $chain$5$?PrintModules@@YAXPEAXKAEAU_Opt@@@Z 0000000180022568     Plist.obj
 0001:0002157c       $chain$6$?PrintModules@@YAXPEAXKAEAU_Opt@@@Z 000000018002257c     Plist.obj
 0001:00021590       $chain$7$?PrintModules@@YAXPEAXKAEAU_Opt@@@Z 0000000180022590     Plist.obj
 0001:000215a0       $chain$8$?PrintModules@@YAXPEAXKAEAU_Opt@@@Z 00000001800225a0     Plist.obj
 0001:000215b0       $chain$9$?PrintModules@@YAXPEAXKAEAU_Opt@@@Z 00000001800225b0     Plist.obj
 0001:000215c4       $chain$10$?PrintModules@@YAXPEAXKAEAU_Opt@@@Z 00000001800225c4     Plist.obj
 0001:000215d4       $unwind$?ConvertDate@@YAXAEBU_FILETIME@@PEA_W1@Z 00000001800225d4     Pmix.obj
 0001:000215e0       $unwind$?WinError@@YAHPEA_W@Z 00000001800225e0     Pmix.obj
 0001:000215f4       $unwind$?ExecMethod@WMIConnection@@AEAAHKPEB_W0K@Z 00000001800225f4     WMI.obj
 0001:00021614       $unwind$?Connect@WMIConnection@@QEAA_NPEB_W00@Z 0000000180022614     WMI.obj
 0001:0002162c       $chain$0$?Connect@WMIConnection@@QEAA_NPEB_W00@Z 000000018002262c     WMI.obj
 0001:00021640       $chain$1$?Connect@WMIConnection@@QEAA_NPEB_W00@Z 0000000180022640     WMI.obj
 0001:00021650       $unwind$?GetProcessSessionId@WMIConnection@@QEAAHK@Z 0000000180022650     WMI.obj
 0001:00021650       $unwind$?GetProcessPriority@WMIConnection@@QEAAKK@Z 0000000180022650     WMI.obj
 0001:00021664       $unwind$?TerminateProcess@WMIConnection@@QEAAHK@Z 0000000180022664     WMI.obj
 0001:00021664       $unwind$?SetProcessPriority@WMIConnection@@QEAAHKK@Z 0000000180022664     WMI.obj
 0001:00021664       $unwind$_invalid_parameter_noinfo 0000000180022664     libucrt:invalid_parameter.obj
 0001:00021664       $unwind$_log10_special     0000000180022664     libucrt:log_special.obj
 0001:0002166c       $unwind$?GetProcessOwner@WMIConnection@@QEAAXKPEA_W0@Z 000000018002266c     WMI.obj
 0001:00021688       $unwind$?GetProcessUserSid@WMIConnection@@QEAAXKPEA_W@Z 0000000180022688     WMI.obj
 0001:000216a4       $unwind$?GetProcessExecutablePath@WMIConnection@@QEAAXKPEA_W@Z 00000001800226a4     WMI.obj
 0001:000216bc       $unwind$__dcrt_lowio_initialize_console_output 00000001800226bc     libucrt:initcon.obj
 0001:000216bc       $unwind$?__scrt_throw_std_bad_alloc@@YAXXZ 00000001800226bc     LIBCMT:throw_bad_alloc.obj
 0001:000216bc       $unwind$?__scrt_throw_std_bad_array_new_length@@YAXXZ 00000001800226bc     LIBCMT:throw_bad_alloc.obj
 0001:000216bc       $unwind$GetFilesW          00000001800226bc     Proclist.obj
 0001:000216bc       $unwind$?Message@@YAHIPEA_WPEAPEB_WHH@Z 00000001800226bc     Proclist.obj
 0001:000216bc       $unwind$_raise_exc         00000001800226bc     libucrt:fpexcept.obj
 0001:000216c4       $chain$0$?dynamic_bind@@YAXXZ 00000001800226c4     Proclist.obj
 0001:000216d8       $chain$1$?dynamic_bind@@YAXXZ 00000001800226d8     Proclist.obj
 0001:000216e8       $unwind$?dllmain_crt_process_attach@@YAHQEAUHINSTANCE__@@QEAX@Z 00000001800226e8     LIBCMT:dll_dllmain.obj
 0001:00021714       $unwind$?dllmain_crt_process_detach@@YAH_N@Z 0000000180022714     LIBCMT:dll_dllmain.obj
 0001:0002173c       $unwind$?dllmain_dispatch@@YAHQEAUHINSTANCE__@@KQEAX@Z 000000018002273c     LIBCMT:dll_dllmain.obj
 0001:00021764       $unwind$?filt$0@?0??dllmain_dispatch@@YAHQEAUHINSTANCE__@@KQEAX@Z@4HA 0000000180022764     LIBCMT:dll_dllmain.obj
 0001:0002176c       $unwind$__scrt_is_nonwritable_in_current_image 000000018002276c     LIBCMT:utility.obj
 0001:0002178c       $unwind$__scrt_is_nonwritable_in_current_image$filt$0 000000018002278c     LIBCMT:utility.obj
 0001:00021794       $unwind$__vcrt_thread_detach 0000000180022794     libvcruntime:initialization.obj
 0001:00021794       $unwind$__vcrt_thread_attach 0000000180022794     libvcruntime:initialization.obj
 0001:00021794       $unwind$_msize             0000000180022794     libucrt:msize.obj
 0001:00021794       $unwind$__vcrt_uninitialize_telemetry_provider 0000000180022794     libvcruntime:telemetry.obj
 0001:00021794       $unwind$uninitialize_environment 0000000180022794     libucrt:initialization.obj
 0001:00021794       $unwind$_errno             0000000180022794     libucrt:errno.obj
 0001:00021794       $unwind$__dcrt_uninitialize_environments_nolock 0000000180022794     libucrt:environment_initialization.obj
 0001:00021794       $unwind$??$uninitialize_environment_internal@D@@YAXAEAPEAPEAD@Z 0000000180022794     libucrt:environment_initialization.obj
 0001:00021794       $unwind$__vcrt_uninitialize_critical 0000000180022794     libvcruntime:initialization.obj
 0001:00021794       $unwind$ConfigureW         0000000180022794     Proclist.obj
 0001:00021794       $unwind$__GSHandlerCheck   0000000180022794     LIBCMT:_gshandler_.obj
 0001:00021794       $unwind$__vcrt_initialize  0000000180022794     libvcruntime:initialization.obj
 0001:00021794       $unwind$atexit             0000000180022794     LIBCMT:utility.obj
 0001:00021794       $unwind$_statfp            0000000180022794     libucrt:fpctrl.obj
 0001:00021794       $unwind$_isatty            0000000180022794     libucrt:isatty.obj
 0001:00021794       $unwind$__acrt_uninitialize_critical 0000000180022794     libucrt:initialization.obj
 0001:00021794       $unwind$__doserrno         0000000180022794     libucrt:errno.obj
 0001:00021794       $unwind$__vcrt_initialize_ptd 0000000180022794     libvcruntime:per_thread_data.obj
 0001:00021794       $unwind$CompareW           0000000180022794     Proclist.obj
 0001:00021794       $unwind$ProcessPanelEventW 0000000180022794     Proclist.obj
 0001:00021794       $unwind$__acrt_initialize_multibyte 0000000180022794     libucrt:mbctype.obj
 0001:00021794       $unwind$ProcessPanelInputW 0000000180022794     Proclist.obj
 0001:00021794       $unwind$?ItemWidth@?$DialogBuilderBase@UFarDialogItem@@@@IEAA_JAEBUFarDialogItem@@@Z 0000000180022794     PCFG.OBJ
 0001:00021794       $unwind$_fileno            0000000180022794     libucrt:fileno.obj
 0001:00021794       $unwind$GetGlobalInfoW     0000000180022794     Proclist.obj
 0001:00021794       $unwind$__acrt_thread_attach 0000000180022794     libucrt:initialization.obj
 0001:00021794       $unwind$__acrt_initialize_heap 0000000180022794     libucrt:heap_handle.obj
 0001:00021794       $unwind$__dcrt_terminate_console_output 0000000180022794     libucrt:initcon.obj
 0001:00021794       $unwind$__scrt_acquire_startup_lock 0000000180022794     LIBCMT:utility.obj
 0001:00021794       $unwind$GetFindDataW       0000000180022794     Proclist.obj
 0001:00021794       $unwind$__acrt_initialize_command_line 0000000180022794     libucrt:argv_data.obj
 0001:00021794       $unwind$initialize_c       0000000180022794     libucrt:initialization.obj
 0001:00021794       $unwind$abort              0000000180022794     libucrt:abort.obj
 0001:00021794       $unwind$__acrt_thread_detach 0000000180022794     libucrt:initialization.obj
 0001:00021794       $unwind$?initialize_multibyte@@YAHXZ 0000000180022794     libucrt:multibyte_initializer.obj
 0001:00021794       $unwind$_set_errno_from_matherr 0000000180022794     libucrt:fpexcept.obj
 0001:00021794       $unwind$__vcrt_freefls     0000000180022794     libvcruntime:per_thread_data.obj
 0001:00021794       $unwind$__acrt_release_locale_ref 0000000180022794     libucrt:locale_refcounting.obj
 0001:00021794       $unwind$__vcrt_uninitialize_ptd 0000000180022794     libvcruntime:per_thread_data.obj
 0001:00021794       $unwind$?dllmain_crt_dispatch@@YAHQEAUHINSTANCE__@@KQEAX@Z 0000000180022794     LIBCMT:dll_dllmain.obj
 0001:00021794       $unwind$ExitFARW           0000000180022794     Proclist.obj
 0001:00021794       $unwind$DeleteFilesW       0000000180022794     Proclist.obj
 0001:00021794       $unwind$__pctype_func      0000000180022794     libucrt:ctype.obj
 0001:00021794       $unwind$__acrt_initialize_ptd 0000000180022794     libucrt:per_thread_data.obj
 0001:00021794       $unwind$__scrt_initialize_default_local_stdio_options 0000000180022794     LIBCMT:default_local_stdio_options.obj
 0001:00021794       $unwind$_memicmp           0000000180022794     libucrt:memicmp.obj
 0001:00021794       $unwind$_invoke_watson     0000000180022794     libucrt:invalid_parameter.obj
 0001:00021794       $unwind$__acrt_uninitialize_ptd 0000000180022794     libucrt:per_thread_data.obj
 0001:00021794       $unwind$__scrt_dllmain_before_initialize_c 0000000180022794     LIBCMT:utility.obj
 0001:00021794       $unwind$__acrt_DownlevelLocaleNameToLCID 0000000180022794     libucrt:lcidtoname_downlevel.obj
 0001:00021794       $unwind$?WmiError@Plist@@AEAAXXZ 0000000180022794     Pclass.obj
 0001:00021794       $unwind$_get_osfhandle     0000000180022794     libucrt:osfinfo.obj
 0001:00021794       $unwind$__scrt_dllmain_crt_thread_attach 0000000180022794     LIBCMT:utility.obj
 0001:00021794       $unwind$__scrt_dllmain_uninitialize_critical 0000000180022794     LIBCMT:utility.obj
 0001:00021794       $unwind$??$uninitialize_environment_internal@_W@@YAXAEAPEAPEA_W@Z 0000000180022794     libucrt:environment_initialization.obj
 0001:00021794       $unwind$__scrt_dllmain_after_initialize_c 0000000180022794     LIBCMT:utility.obj
 0001:00021794       $unwind$__scrt_dllmain_crt_thread_detach 0000000180022794     LIBCMT:utility.obj
 0001:00021794       $unwind$__scrt_dllmain_uninitialize_c 0000000180022794     LIBCMT:utility.obj
 0001:00021794       $unwind$?dynamic_bind@@YAXXZ 0000000180022794     Proclist.obj
 0001:0002179c       $unwind$__scrt_initialize_onexit_tables 000000018002279c     LIBCMT:utility.obj
 0001:000217a8       $unwind$?PanelModes@Plist@@QEAAPEAUPanelMode@@AEA_K@Z 00000001800227a8     Pclass.obj
 0001:000217a8       $unwind$__scrt_dllmain_exception_filter 00000001800227a8     LIBCMT:utility.obj
 0001:000217a8       $unwind$__acrt_lowio_create_handle_array 00000001800227a8     libucrt:osfinfo.obj
 0001:000217a8       $unwind$__acrt_execute_initializers 00000001800227a8     libucrt:shared_initialization.obj
 0001:000217a8       $unwind$__acrt_InitializeCriticalSectionEx 00000001800227a8     libucrt:winapi_thunks.obj
 0001:000217a8       $unwind$_seh_filter_exe    00000001800227a8     libucrt:exception_filter.obj
 0001:000217a8       $unwind$?dllmain_raw@@YAHQEAUHINSTANCE__@@KQEAX@Z 00000001800227a8     LIBCMT:dll_dllmain.obj
 0001:000217a8       $unwind$_recalloc_base     00000001800227a8     libucrt:recalloc.obj
 0001:000217a8       $unwind$?setSBCS@@YAXPEAU__crt_multibyte_data@@@Z 00000001800227a8     libucrt:mbctype.obj
 0001:000217a8       $unwind$__acrt_free_locale 00000001800227a8     libucrt:locale_refcounting.obj
 0001:000217a8       $unwind$__vcrt_InitializeCriticalSectionEx 00000001800227a8     libvcruntime:winapi_downlevel.obj
 0001:000217bc       $unwind$__security_init_cookie 00000001800227bc     LIBCMT:gs_support.obj
 0001:000217c8       $unwind$__scrt_fastfail    00000001800227c8     LIBCMT:utility_desktop.obj
 0001:000217d8       $unwind$__isa_available_init 00000001800227d8     LIBCMT:_cpu_disp_.obj
 0001:000217e8       $xdatasym                  00000001800227e8     LIBCMT:_guard_dispatch_.obj
 0001:000217f0       $xdatasym                  00000001800227f0     libvcruntime:memset.obj
 0001:000217f8       $xdatasym                  00000001800227f8     libvcruntime:memcpy.obj
 0001:000217fc       $unwind$wcschr             00000001800227fc     libvcruntime:wcschr.obj
 0001:00021804       $unwind$__telemetry_main_invoke_trigger 0000000180022804     libvcruntime:telemetry.obj
 0001:00021804       $unwind$__telemetry_main_return_trigger 0000000180022804     libvcruntime:telemetry.obj
 0001:0002181c       $unwind$?_TlgEnableCallback@__vcrt_trace_logging_provider@@YAXPEBU_GUID@@KE_K1PEAU_EVENT_FILTER_DESCRIPTOR@@PEAX@Z 000000018002281c     libvcruntime:telemetry.obj
 0001:00021838       $unwind$__C_specific_handler 0000000180022838     libvcruntime:_chandler_.obj
 0001:00021854       $unwind$_CxxThrowException 0000000180022854     libvcruntime:throw.obj
 0001:00021868       $unwind$_invalid_parameter 0000000180022868     libucrt:invalid_parameter.obj
 0001:00021868       $unwind$__vcrt_EventWriteTransfer 0000000180022868     libvcruntime:winapi_downlevel.obj
 0001:00021880       $unwind$__vcrt_initialize_winapi_thunks 0000000180022880     libvcruntime:winapi_downlevel.obj
 0001:00021880       $unwind$__acrt_initialize_winapi_thunks 0000000180022880     libucrt:winapi_thunks.obj
 0001:00021888       $unwind$__vcrt_uninitialize_winapi_thunks 0000000180022888     libvcruntime:winapi_downlevel.obj
 0001:00021890       $xdatasym                  0000000180022890     libvcruntime:_jmpuwind_.obj
 0001:000218a4       $unwind$__dcrt_get_narrow_environment_from_os 00000001800228a4     libucrt:get_environment_from_os.obj
 0001:000218a4       $unwind$_memicmp_l         00000001800228a4     libucrt:memicmp.obj
 0001:000218bc       $unwind$??$parse_integer@KV?$c_string_character_source@_W@__crt_strtox@@@__crt_strtox@@YAKQEAU__crt_locale_pointers@@V?$c_string_character_source@_W@0@H_N@Z 00000001800228bc     libucrt:strtox.obj
 0001:000218d8       $unwind$?CreateToken@DebugToken@@SA_NXZ 00000001800228d8     Plist.obj
 0001:000218d8       $unwind$?_TlgWrite@__vcrt_trace_logging_provider@@YAJPEBU_TlgProvider_t@1@PEFBXPEBU_GUID@@2IPEAU_EVENT_DATA_DESCRIPTOR@@@Z 00000001800228d8     libvcruntime:telemetry.obj
 0001:000218d8       $unwind$_isleadbyte_l      00000001800228d8     libucrt:_wctype.obj
 0001:000218d8       $unwind$?getSystemCP@@YAHH@Z 00000001800228d8     libucrt:mbctype.obj
 0001:000218d8       $unwind$?FileTimeToText@Plist@@AEAAXPEAU_FILETIME@@0PEA_W@Z 00000001800228d8     Pclass.obj
 0001:000218e0       $unwind$_query_new_handler 00000001800228e0     libucrt:new_handler.obj
 0001:00021900       $unwind$?common_exit@@YAXHW4_crt_exit_cleanup_mode@@W4_crt_exit_return_mode@@@Z 0000000180022900     libucrt:exit.obj
 0001:00021940       $unwind$?fin$0@?0???$?RV<lambda_72d1df2b273a38828b1ce30cbf4cdab5>@@AEAV<lambda_876a65b173b8412d3a47c70a915b0cf4>@@V<lambda_41932305e351933ebe8f8be3ed8bb5dc>@@@?$__crt_seh_guarded_call@X@@QEAAX$$QEAV<lambda_72d1df2b273a38828b1ce30cbf4cdab5>@@AEAV<lambda_876a65b173b8412d3a47c70a915b0cf4>@@$$QEAV<lambda_41932305e351933ebe8f8be3ed8bb5dc>@@@Z@4HA 0000000180022940     libucrt:per_thread_data.obj
 0001:00021940       $unwind$__acrt_uninitialize_locale$fin$0 0000000180022940     libucrt:wsetlocale.obj
 0001:00021940       $unwind$?fin$0@?0???$?RV<lambda_5e887d1dcbef67a5eb4283622ba103bf>@@AEAV<lambda_4466841279450cc726390878d4a41900>@@V<lambda_341c25c0346d94847f1f3c463c57e077>@@@?$__crt_seh_guarded_call@X@@QEAAX$$QEAV<lambda_5e887d1dcbef67a5eb4283622ba103bf>@@AEAV<lambda_4466841279450cc726390878d4a41900>@@$$QEAV<lambda_341c25c0346d94847f1f3c463c57e077>@@@Z@4HA 0000000180022940     libucrt:per_thread_data.obj
 0001:00021940       $unwind$?fin$0@?0??dllmain_crt_process_attach@@YAHQEAUHINSTANCE__@@QEAX@Z@4HA 0000000180022940     LIBCMT:dll_dllmain.obj
 0001:00021940       $unwind$_fcloseall$fin$0   0000000180022940     libucrt:closeall.obj
 0001:00021940       $unwind$_write$fin$0       0000000180022940     libucrt:write.obj
 0001:00021940       $unwind$__acrt_update_thread_multibyte_data$fin$0 0000000180022940     libucrt:mbctype.obj
 0001:00021940       $unwind$?filt$0@?0??common_exit@@YAXHW4_crt_exit_cleanup_mode@@W4_crt_exit_return_mode@@@Z@4HA 0000000180022940     libucrt:exit.obj
 0001:00021940       $unwind$?fin$0@?0???$?RV<lambda_46352004c1216016012b18bd6f87e700>@@AEAV<lambda_3bd07e1a1191394380780325891bf33f>@@V<lambda_334532d3f185bcaa59b5be82d7d22bff>@@@?$__crt_seh_guarded_call@X@@QEAAX$$QEAV<lambda_46352004c1216016012b18bd6f87e700>@@AEAV<lambda_3bd07e1a1191394380780325891bf33f>@@$$QEAV<lambda_334532d3f185bcaa59b5be82d7d22bff>@@@Z@4HA 0000000180022940     libucrt:per_thread_data.obj
 0001:00021940       $unwind$?fin$0@?0???$?RV<lambda_b8c45f8f788dd370798f47cfe8ac3a86>@@AEAV<lambda_4e60a939b0d047cfe11ddc22648dfba9>@@V<lambda_332c3edc96d0294ec56c57d38c1cdfd5>@@@?$__crt_seh_guarded_call@H@@QEAAH$$QEAV<lambda_b8c45f8f788dd370798f47cfe8ac3a86>@@AEAV<lambda_4e60a939b0d047cfe11ddc22648dfba9>@@$$QEAV<lambda_332c3edc96d0294ec56c57d38c1cdfd5>@@@Z@4HA 0000000180022940     libucrt:onexit.obj
 0001:00021940       $unwind$_query_new_handler$fin$0 0000000180022940     libucrt:new_handler.obj
 0001:00021940       $unwind$?fin$0@?0???$?RV<lambda_99476a1ad63dd22509b5d3e65b0ffc95>@@AEAV<lambda_ad1ced32f4ac17aa236e5ef05d6b3b7c>@@V<lambda_f7424dd8d45958661754dc4f2697e9c3>@@@?$__crt_seh_guarded_call@X@@QEAAX$$QEAV<lambda_99476a1ad63dd22509b5d3e65b0ffc95>@@AEAV<lambda_ad1ced32f4ac17aa236e5ef05d6b3b7c>@@$$QEAV<lambda_f7424dd8d45958661754dc4f2697e9c3>@@@Z@4HA 0000000180022940     libucrt:mbctype.obj
 0001:00021940       $unwind$?fin$0@?0??dllmain_crt_process_detach@@YAH_N@Z@4HA 0000000180022940     LIBCMT:dll_dllmain.obj
 0001:00021940       $unwind$?fin$0@?0???$?RV<lambda_c36588078e9f5dfd39652860aa6b3aaf>@@AEAV<lambda_ec61778202f4f5fc7e7711acc23c3bca>@@V<lambda_dc9d2797ccde5d239b4a0efae8ebd7db>@@@?$__crt_seh_guarded_call@P6AXH@Z@@QEAAP6AXH@Z$$QEAV<lambda_c36588078e9f5dfd39652860aa6b3aaf>@@AEAV<lambda_ec61778202f4f5fc7e7711acc23c3bca>@@$$QEAV<lambda_dc9d2797ccde5d239b4a0efae8ebd7db>@@@Z@4HA 0000000180022940     libucrt:signal.obj
 0001:00021940       $unwind$__acrt_initialize_lowio$fin$0 0000000180022940     libucrt:ioinit.obj
 0001:00021940       $unwind$?fin$0@?0???$?RV<lambda_bfedae4ebbf01fab1bb6dcc6a9e276e0>@@AEAV<lambda_2fe9b910cf3cbf4a0ab98a02ba45b3ec>@@V<lambda_237c231691f317818eb88cc1d5d642d6>@@@?$__crt_seh_guarded_call@H@@QEAAH$$QEAV<lambda_bfedae4ebbf01fab1bb6dcc6a9e276e0>@@AEAV<lambda_2fe9b910cf3cbf4a0ab98a02ba45b3ec>@@$$QEAV<lambda_237c231691f317818eb88cc1d5d642d6>@@@Z@4HA 0000000180022940     libucrt:close.obj
 0001:00021940       $unwind$__acrt_lowio_ensure_fh_exists$fin$0 0000000180022940     libucrt:osfinfo.obj
 0001:00021940       $unwind$?fin$0@?0???$?RV<lambda_e24bbb7b643b32fcea6fa61b31d4c984>@@AEAV<lambda_275893d493268fdec8709772e3fcec0e>@@V<lambda_9d71df4d7cf3f480f8d633942495c3b0>@@@?$__crt_seh_guarded_call@H@@QEAAH$$QEAV<lambda_e24bbb7b643b32fcea6fa61b31d4c984>@@AEAV<lambda_275893d493268fdec8709772e3fcec0e>@@$$QEAV<lambda_9d71df4d7cf3f480f8d633942495c3b0>@@@Z@4HA 0000000180022940     libucrt:onexit.obj
 0001:00021940       $unwind$_ctrlfp$filt$0     0000000180022940     libucrt:fpctrl.obj
 0001:00021940       $unwind$__acrt_update_thread_locale_data$fin$0 0000000180022940     libucrt:locale_refcounting.obj
 0001:00021940       $unwind$fclose$fin$0       0000000180022940     libucrt:fclose.obj
 0001:00021940       $unwind$raise$fin$0        0000000180022940     libucrt:signal.obj
 0001:00021940       $unwind$?fin$1@?0??common_exit@@YAXHW4_crt_exit_cleanup_mode@@W4_crt_exit_return_mode@@@Z@4HA 0000000180022940     libucrt:exit.obj
 0001:00021940       $unwind$common_flush_all$fin$0 0000000180022940     libucrt:fflush.obj
 0001:00021940       $unwind$_IsNonwritableInCurrentImage$filt$0 0000000180022940     LIBCMT:pesect.obj
 0001:00021940       $unwind$common_flush_all$fin$1 0000000180022940     libucrt:fflush.obj
 0001:00021940       $unwind$?fin$0@?0???$?RV<lambda_b521505b218e5242e90febf6bfebc422>@@AEAV<lambda_6978c1fb23f02e42e1d9e99668cc68aa>@@V<lambda_314360699dd331753a4119843814e9a7>@@@?$__crt_seh_guarded_call@H@@QEAAH$$QEAV<lambda_b521505b218e5242e90febf6bfebc422>@@AEAV<lambda_6978c1fb23f02e42e1d9e99668cc68aa>@@$$QEAV<lambda_314360699dd331753a4119843814e9a7>@@@Z@4HA 0000000180022940     libucrt:commit.obj
 0001:00021940       $unwind$?fin$0@?0???$?RV<lambda_fb3a7dec4e47f37f22dae91bb15c9095>@@AEAV<lambda_698284760c8add0bfb0756c19673e34b>@@V<lambda_dfb8eca1e75fef3034a8fb18dd509707>@@@?$__crt_seh_guarded_call@X@@QEAAX$$QEAV<lambda_fb3a7dec4e47f37f22dae91bb15c9095>@@AEAV<lambda_698284760c8add0bfb0756c19673e34b>@@$$QEAV<lambda_dfb8eca1e75fef3034a8fb18dd509707>@@@Z@4HA 0000000180022940     libucrt:per_thread_data.obj
 0001:00021948       $unwind$??$free_environment@_W@@YAXQEAPEA_W@Z 0000000180022948     libucrt:environment_initialization.obj
 0001:00021948       $unwind$??$free_environment@D@@YAXQEAPEAD@Z 0000000180022948     libucrt:environment_initialization.obj
 0001:00021954       $unwind$_register_onexit_function 0000000180022954     libucrt:onexit.obj
 0001:0002195c       $unwind$_execute_onexit_table 000000018002295c     libucrt:onexit.obj
 0001:00021964       $unwind$??R<lambda_4e60a939b0d047cfe11ddc22648dfba9>@@QEBAHXZ 0000000180022964     libucrt:onexit.obj
 0001:00021980       $unwind$??$?RV<lambda_b8c45f8f788dd370798f47cfe8ac3a86>@@AEAV<lambda_4e60a939b0d047cfe11ddc22648dfba9>@@V<lambda_332c3edc96d0294ec56c57d38c1cdfd5>@@@?$__crt_seh_guarded_call@H@@QEAAH$$QEAV<lambda_b8c45f8f788dd370798f47cfe8ac3a86>@@AEAV<lambda_4e60a939b0d047cfe11ddc22648dfba9>@@$$QEAV<lambda_332c3edc96d0294ec56c57d38c1cdfd5>@@@Z 0000000180022980     libucrt:onexit.obj
 0001:000219a4       $unwind$??$?RV<lambda_e24bbb7b643b32fcea6fa61b31d4c984>@@AEAV<lambda_275893d493268fdec8709772e3fcec0e>@@V<lambda_9d71df4d7cf3f480f8d633942495c3b0>@@@?$__crt_seh_guarded_call@H@@QEAAH$$QEAV<lambda_e24bbb7b643b32fcea6fa61b31d4c984>@@AEAV<lambda_275893d493268fdec8709772e3fcec0e>@@$$QEAV<lambda_9d71df4d7cf3f480f8d633942495c3b0>@@@Z 00000001800229a4     libucrt:onexit.obj
 0001:000219d4       $unwind$terminate          00000001800229d4     libucrt:terminate.obj
 0001:000219f4       $unwind$_wcsdup            00000001800229f4     libucrt:wcsdup.obj
 0001:000219f4       $unwind$?PrintModuleVersion@@YAXPEAXPEA_W1H@Z 00000001800229f4     Plist.obj
 0001:00021a08       $unwind$__acrt_locale_free_numeric 0000000180022a08     libucrt:initnum.obj
 0001:00021a08       $unwind$__acrt_locale_free_lc_time_if_unreferenced 0000000180022a08     libucrt:locale_refcounting.obj
 0001:00021a08       $unwind$_free_base         0000000180022a08     libucrt:free_base.obj
 0001:00021a08       $unwind$?destroy_fls@@YAXPEAX@Z 0000000180022a08     libucrt:per_thread_data.obj
 0001:00021a10       $unwind$__acrt_call_reportfault 0000000180022a10     libucrt:invalid_parameter.obj
 0001:00021a30       $unwind$_fclose_nolock     0000000180022a30     libucrt:fclose.obj
 0001:00021a30       $unwind$??0PluginIntEditFieldBinding@@QEAA@AEBUPluginStartupInfo@@PEAPEAXHPEAHH@Z 0000000180022a30     PCFG.OBJ
 0001:00021a30       $unwind$GetPluginInfoW     0000000180022a30     Proclist.obj
 0001:00021a30       $unwind$??0PluginUIntEditFieldBinding@@QEAA@AEBUPluginStartupInfo@@PEAPEAXHPEAIH@Z 0000000180022a30     PCFG.OBJ
 0001:00021a30       $unwind$__acrt_errno_map_os_error 0000000180022a30     libucrt:errno.obj
 0001:00021a30       $unwind$__vcrt_EventUnregister 0000000180022a30     libvcruntime:winapi_downlevel.obj
 0001:00021a30       $unwind$__acrt_FlsAlloc    0000000180022a30     libucrt:winapi_thunks.obj
 0001:00021a30       $unwind$?try_cor_exit_process@@YAXI@Z 0000000180022a30     libucrt:exit.obj
 0001:00021a30       $unwind$__vcrt_FlsAlloc    0000000180022a30     libvcruntime:winapi_downlevel.obj
 0001:00021a30       $unwind$?UpdateBorderSize@?$DialogBuilderBase@UFarDialogItem@@@@IEAAXXZ 0000000180022a30     PCFG.OBJ
 0001:00021a30       $unwind$__vcrt_FlsFree     0000000180022a30     libvcruntime:winapi_downlevel.obj
 0001:00021a30       $unwind$OpenW              0000000180022a30     Proclist.obj
 0001:00021a30       $unwind$__acrt_FlsFree     0000000180022a30     libucrt:winapi_thunks.obj
 0001:00021a30       $unwind$??$common_initialize_environment_nolock@D@@YAHXZ 0000000180022a30     libucrt:environment_initialization.obj
 0001:00021a30       $unwind$??1PerfThread@@QEAA@XZ 0000000180022a30     perfthread.obj
 0001:00021a30       $unwind$??0_LocaleUpdate@@QEAA@QEAU__crt_locale_pointers@@@Z 0000000180022a30     libucrt:memicmp.obj
 0001:00021a30       $unwind$__acrt_getptd      0000000180022a30     libucrt:per_thread_data.obj
 0001:00021a30       $unwind$__vcrt_FlsGetValue 0000000180022a30     libvcruntime:winapi_downlevel.obj
 0001:00021a30       $unwind$_close_nolock      0000000180022a30     libucrt:close.obj
 0001:00021a30       $unwind$?PrintTime@@YAPEA_W_K_N@Z 0000000180022a30     Plist.obj
 0001:00021a30       $unwind$_realloc_base      0000000180022a30     libucrt:realloc_base.obj
 0001:00021a30       $unwind$??1Plist@@QEAA@XZ  0000000180022a30     Pclass.obj
 0001:00021a30       $unwind$?GetPDataNT@@YA_NAEAUProcessDataNT@@AEAUProcessPerfData@@@Z 0000000180022a30     Plist.obj
 0001:00021a30       $unwind$?ShowDialog@?$DialogBuilderBase@UFarDialogItem@@@@QEAA_NXZ 0000000180022a30     PCFG.OBJ
 0001:00021a30       $unwind$??$common_xtox@_K_W@@YAH_KQEA_W0I_N@Z 0000000180022a30     libucrt:xtoa.obj
 0001:00021a30       $unwind$?DisconnectWMI@Plist@@AEAAXXZ 0000000180022a30     Pclass.obj
 0001:00021a30       $unwind$__acrt_invoke_user_matherr 0000000180022a30     libucrt:matherr.obj
 0001:00021a30       $unwind$??_G?$DialogBuilderBase@UFarDialogItem@@@@MEAAPEAXI@Z 0000000180022a30     PCFG.OBJ
 0001:00021a30       $unwind$?InitDialogItem@PluginDialogBuilder@@MEAAXPEAUFarDialogItem@@PEB_W@Z 0000000180022a30     PCFG.OBJ
 0001:00021a30       $unwind$__acrt_FlsGetValue 0000000180022a30     libucrt:winapi_thunks.obj
 0001:00021a30       $unwind$__acrt_uninitialize_lowio 0000000180022a30     libucrt:ioinit.obj
 0001:00021a30       $unwind$_updatetlocinfoEx_nolock 0000000180022a30     libucrt:locale_refcounting.obj
 0001:00021a30       $unwind$wcstok             0000000180022a30     libucrt:wcstok.obj
 0001:00021a30       $unwind$_callnewh          0000000180022a30     libucrt:new_handler.obj
 0001:00021a30       $unwind$??_Gexception@std@@UEAAPEAXI@Z 0000000180022a30     LIBCMT:throw_bad_alloc.obj
 0001:00021a30       $unwind$?internal_isupper_l@@YA_NHQEAU__crt_locale_pointers@@@Z 0000000180022a30     libucrt:tolower_toupper.obj
 0001:00021a30       $unwind$?CreateRadioButtonBinding@PluginDialogBuilder@@MEAAPEAU?$DialogItemBinding@UFarDialogItem@@@@PEAH@Z 0000000180022a30     PCFG.OBJ
 0001:00021a30       $unwind$?SaveValue@PluginRadioButtonBinding@@UEAAXPEAUFarDialogItem@@H@Z 0000000180022a30     PCFG.OBJ
 0001:00021a30       $unwind$??_Gbad_alloc@std@@UEAAPEAXI@Z 0000000180022a30     LIBCMT:throw_bad_alloc.obj
 0001:00021a30       $unwind$??_GPluginDialogBuilder@@UEAAPEAXI@Z 0000000180022a30     PCFG.OBJ
 0001:00021a30       $unwind$??_Gbad_array_new_length@std@@UEAAPEAXI@Z 0000000180022a30     LIBCMT:throw_bad_alloc.obj
 0001:00021a30       $unwind$?replace_current_thread_locale_nolock@@YAXQEAU__acrt_ptd@@QEAU__crt_locale_data@@@Z 0000000180022a30     libucrt:per_thread_data.obj
 0001:00021a3c       $unwind$_tolower_l         0000000180022a3c     libucrt:tolower_toupper.obj
 0001:00021a4c       $unwind$?construct_ptd_array@@YAXQEAU__acrt_ptd@@@Z 0000000180022a4c     libucrt:per_thread_data.obj
 0001:00021a54       $unwind$?destroy_ptd_array@@YAXQEAU__acrt_ptd@@@Z 0000000180022a54     libucrt:per_thread_data.obj
 0001:00021a5c       $unwind$??$?RV<lambda_72d1df2b273a38828b1ce30cbf4cdab5>@@AEAV<lambda_876a65b173b8412d3a47c70a915b0cf4>@@V<lambda_41932305e351933ebe8f8be3ed8bb5dc>@@@?$__crt_seh_guarded_call@X@@QEAAX$$QEAV<lambda_72d1df2b273a38828b1ce30cbf4cdab5>@@AEAV<lambda_876a65b173b8412d3a47c70a915b0cf4>@@$$QEAV<lambda_41932305e351933ebe8f8be3ed8bb5dc>@@@Z 0000000180022a5c     libucrt:per_thread_data.obj
 0001:00021a80       $unwind$??$?RV<lambda_5e887d1dcbef67a5eb4283622ba103bf>@@AEAV<lambda_4466841279450cc726390878d4a41900>@@V<lambda_341c25c0346d94847f1f3c463c57e077>@@@?$__crt_seh_guarded_call@X@@QEAAX$$QEAV<lambda_5e887d1dcbef67a5eb4283622ba103bf>@@AEAV<lambda_4466841279450cc726390878d4a41900>@@$$QEAV<lambda_341c25c0346d94847f1f3c463c57e077>@@@Z 0000000180022a80     libucrt:per_thread_data.obj
 0001:00021aa4       $unwind$??$?RV<lambda_46352004c1216016012b18bd6f87e700>@@AEAV<lambda_3bd07e1a1191394380780325891bf33f>@@V<lambda_334532d3f185bcaa59b5be82d7d22bff>@@@?$__crt_seh_guarded_call@X@@QEAAX$$QEAV<lambda_46352004c1216016012b18bd6f87e700>@@AEAV<lambda_3bd07e1a1191394380780325891bf33f>@@$$QEAV<lambda_334532d3f185bcaa59b5be82d7d22bff>@@@Z 0000000180022aa4     libucrt:per_thread_data.obj
 0001:00021ac8       $unwind$??$?RV<lambda_fb3a7dec4e47f37f22dae91bb15c9095>@@AEAV<lambda_698284760c8add0bfb0756c19673e34b>@@V<lambda_dfb8eca1e75fef3034a8fb18dd509707>@@@?$__crt_seh_guarded_call@X@@QEAAX$$QEAV<lambda_fb3a7dec4e47f37f22dae91bb15c9095>@@AEAV<lambda_698284760c8add0bfb0756c19673e34b>@@$$QEAV<lambda_dfb8eca1e75fef3034a8fb18dd509707>@@@Z 0000000180022ac8     libucrt:per_thread_data.obj
 0001:00021aec       $unwind$__acrt_uninitialize_locale 0000000180022aec     libucrt:wsetlocale.obj
 0001:00021b0c       $unwind$??1?$DialogBuilderBase@UFarDialogItem@@@@MEAA@XZ 0000000180022b0c     PCFG.OBJ
 0001:00021b0c       $unwind$__acrt_is_packaged_app 0000000180022b0c     libucrt:winapi_thunks.obj
 0001:00021b0c       $unwind$iswctype           0000000180022b0c     libucrt:iswctype.obj
 0001:00021b18       $unwind$_isctype_l         0000000180022b18     libucrt:isctype.obj
 0001:00021b34       $unwind$?exit_or_terminate_process@@YAXI@Z 0000000180022b34     libucrt:exit.obj
 0001:00021b34       $unwind$??_Gtype_info@@UEAAPEAXI@Z 0000000180022b34     LIBCMT:std_type_info_static.obj
 0001:00021b34       $unwind$__vcrt_uninitialize_locks 0000000180022b34     libvcruntime:locks.obj
 0001:00021b34       $unwind$??_G?$DialogItemBinding@UFarDialogItem@@@@UEAAPEAXI@Z 0000000180022b34     PCFG.OBJ
 0001:00021b34       $unwind$__vcrt_initialize_locks 0000000180022b34     libvcruntime:locks.obj
 0001:00021b34       $unwind$__acrt_update_locale_info 0000000180022b34     libucrt:locale_update.obj
 0001:00021b34       $unwind$__acrt_update_multibyte_info 0000000180022b34     libucrt:locale_update.obj
 0001:00021b34       $unwind$??2@YAPEAX_K@Z     0000000180022b34     LIBCMT:new_scalar.obj
 0001:00021b34       $unwind$__raise_securityfailure 0000000180022b34     LIBCMT:gs_report.obj
 0001:00021b34       $unwind$?SaveValue@PluginCheckBoxBinding@@UEAAXPEAUFarDialogItem@@H@Z 0000000180022b34     PCFG.OBJ
 0001:00021b34       $unwind$ClosePanelW        0000000180022b34     Proclist.obj
 0001:00021b34       $unwind$??_GPluginCheckBoxBinding@@UEAAPEAXI@Z 0000000180022b34     PCFG.OBJ
 0001:00021b34       $unwind$??_GPluginRadioButtonBinding@@UEAAPEAXI@Z 0000000180022b34     PCFG.OBJ
 0001:00021b34       $unwind$?SaveValue@PluginIntEditFieldBinding@@UEAAXPEAUFarDialogItem@@H@Z 0000000180022b34     PCFG.OBJ
 0001:00021b34       $unwind$_calloc_base       0000000180022b34     libucrt:calloc_base.obj
 0001:00021b34       $unwind$??_GPluginIntEditFieldBinding@@UEAAPEAXI@Z 0000000180022b34     PCFG.OBJ
 0001:00021b34       $unwind$__vcrt_uninitialize 0000000180022b34     libvcruntime:initialization.obj
 0001:00021b34       $unwind$?SaveValue@PluginUIntEditFieldBinding@@UEAAXPEAUFarDialogItem@@H@Z 0000000180022b34     PCFG.OBJ
 0001:00021b34       $unwind$__acrt_uninitialize_winapi_thunks 0000000180022b34     libucrt:winapi_thunks.obj
 0001:00021b34       $unwind$??_GPluginUIntEditFieldBinding@@UEAAPEAXI@Z 0000000180022b34     PCFG.OBJ
 0001:00021b34       $unwind$_set_statfp        0000000180022b34     libucrt:fpctrl.obj
 0001:00021b34       $unwind$?ConnectWMI@Plist@@AEAA_NXZ 0000000180022b34     Pclass.obj
 0001:00021b34       $unwind$?Revert@DebugToken@@QEAA_NXZ 0000000180022b34     Plist.obj
 0001:00021b34       $unwind$__std_type_info_destroy_list 0000000180022b34     libvcruntime:std_type_info.obj
 0001:00021b34       $unwind$_fflush_nolock     0000000180022b34     libucrt:fflush.obj
 0001:00021b34       $unwind$__std_exception_destroy 0000000180022b34     libvcruntime:std_exception.obj
 0001:00021b34       $unwind$__acrt_uninitialize_stdio 0000000180022b34     libucrt:_file.obj
 0001:00021b34       $unwind$SetStartupInfoW    0000000180022b34     Proclist.obj
 0001:00021b34       $unwind$_malloc_base       0000000180022b34     libucrt:malloc_base.obj
 0001:00021b34       $unwind$?Enable@DebugToken@@QEAA_NXZ 0000000180022b34     Plist.obj
 0001:00021b34       $unwind$__acrt_stdio_free_buffer_nolock 0000000180022b34     libucrt:_freebuf.obj
 0001:00021b34       $unwind$_onexit            0000000180022b34     LIBCMT:utility.obj
 0001:00021b34       $unwind$?EndColumns@?$DialogBuilderBase@UFarDialogItem@@@@QEAAXXZ 0000000180022b34     Pclass.obj
 0001:00021b34       $unwind$uninitialize_allocated_memory 0000000180022b34     libucrt:initialization.obj
 0001:00021b34       $unwind$??0exception@std@@QEAA@AEBV01@@Z 0000000180022b34     LIBCMT:throw_bad_alloc.obj
 0001:00021b34       $unwind$??_GPluginEditFieldBinding@@UEAAPEAXI@Z 0000000180022b34     Pclass.obj
 0001:00021b34       $unwind$??0bad_alloc@std@@QEAA@AEBV01@@Z 0000000180022b34     LIBCMT:throw_bad_alloc.obj
 0001:00021b34       $unwind$initialize_pointers 0000000180022b34     libucrt:initialization.obj
 0001:00021b34       $unwind$_clrfp             0000000180022b34     libucrt:fpctrl.obj
 0001:00021b34       $unwind$__scrt_release_startup_lock 0000000180022b34     LIBCMT:utility.obj
 0001:00021b34       $unwind$__acrt_freeptd     0000000180022b34     libucrt:per_thread_data.obj
 0001:00021b34       $unwind$__scrt_initialize_crt 0000000180022b34     LIBCMT:utility.obj
 0001:00021b34       $unwind$__vcrt_freeptd     0000000180022b34     libvcruntime:per_thread_data.obj
 0001:00021b34       $unwind$__scrt_uninitialize_crt 0000000180022b34     LIBCMT:utility.obj
 0001:00021b34       $unwind$?SaveValue@PluginEditFieldBinding@@UEAAXPEAUFarDialogItem@@H@Z 0000000180022b34     Pclass.obj
 0001:00021b34       $unwind$strcpy_s           0000000180022b34     libucrt:strcpy_s.obj
 0001:00021b34       $unwind$wcscpy_s           0000000180022b34     libucrt:wcscpy_s.obj
 0001:00021b34       $unwind$?SyncReread@PerfThread@@QEAAXXZ 0000000180022b34     perfthread.obj
 0001:00021b34       $unwind$?getcounter@@YAHPEA_W@Z 0000000180022b34     perfthread.obj
 0001:00021b34       $unwind$?Disconnect@WMIConnection@@QEAAXXZ 0000000180022b34     WMI.obj
 0001:00021b34       $unwind$__acrt_uninitialize_locks 0000000180022b34     libucrt:locks.obj
 0001:00021b34       $unwind$??1WMIConnection@@QEAA@XZ 0000000180022b34     WMI.obj
 0001:00021b34       $unwind$??0WMIConnection@@QEAA@XZ 0000000180022b34     WMI.obj
 0001:00021b34       $unwind$??0bad_array_new_length@std@@QEAA@AEBV01@@Z 0000000180022b34     LIBCMT:throw_bad_alloc.obj
 0001:00021b34       $unwind$__acrt_initialize_locks 0000000180022b34     libucrt:locks.obj
 0001:00021b3c       $unwind$_mbtowc_l          0000000180022b3c     libucrt:mbtowc.obj
 0001:00021b3c       $unwind$__acrt_LCMapStringEx 0000000180022b3c     libucrt:winapi_thunks.obj
 0001:00021b54       $unwind$?try_get_function@@YAPEAXW4function_id@?A0x61ce2399@@QEBDQEBW4module_id@2@2@Z 0000000180022b54     libvcruntime:winapi_downlevel.obj
 0001:00021b54       $unwind$?try_get_function@@YAPEAXW4function_id@?A0x63058377@@QEBDQEBW4module_id@2@2@Z 0000000180022b54     libucrt:winapi_thunks.obj
 0001:00021b70       $unwind$__acrt_update_thread_multibyte_data 0000000180022b70     libucrt:mbctype.obj
 0001:00021b94       $unwind$_setmbcp_nolock    0000000180022b94     libucrt:mbctype.obj
 0001:00021bb4       $unwind$?setSBUpLow@@YAXPEAU__crt_multibyte_data@@@Z 0000000180022bb4     libucrt:mbctype.obj
 0001:00021bd0       $unwind$?setmbcp_internal@@YAHH_N@Z 0000000180022bd0     libucrt:mbctype.obj
 0001:00021be0       $unwind$??$?RV<lambda_99476a1ad63dd22509b5d3e65b0ffc95>@@AEAV<lambda_ad1ced32f4ac17aa236e5ef05d6b3b7c>@@V<lambda_f7424dd8d45958661754dc4f2697e9c3>@@@?$__crt_seh_guarded_call@X@@QEAAX$$QEAV<lambda_99476a1ad63dd22509b5d3e65b0ffc95>@@AEAV<lambda_ad1ced32f4ac17aa236e5ef05d6b3b7c>@@$$QEAV<lambda_f7424dd8d45958661754dc4f2697e9c3>@@@Z 0000000180022be0     libucrt:mbctype.obj
 0001:00021c04       $unwind$__acrt_initialize_lowio 0000000180022c04     libucrt:ioinit.obj
 0001:00021c24       $unwind$?initialize_inherited_file_handles_nolock@@YAXXZ 0000000180022c24     libucrt:ioinit.obj
 0001:00021c40       $unwind$__std_exception_copy 0000000180022c40     libvcruntime:std_exception.obj
 0001:00021c40       $unwind$?initialize_stdio_handles_nolock@@YAXXZ 0000000180022c40     libucrt:ioinit.obj
 0001:00021c40       $unwind$_free_osfhnd       0000000180022c40     libucrt:osfinfo.obj
 0001:00021c54       $unwind$__acrt_get_sigabrt_handler 0000000180022c54     libucrt:signal.obj
 0001:00021c5c       $unwind$raise              0000000180022c5c     libucrt:signal.obj
 0001:00021c88       $unwind$??$?RV<lambda_c36588078e9f5dfd39652860aa6b3aaf>@@AEAV<lambda_ec61778202f4f5fc7e7711acc23c3bca>@@V<lambda_dc9d2797ccde5d239b4a0efae8ebd7db>@@@?$__crt_seh_guarded_call@P6AXH@Z@@QEAAP6AXH@Z$$QEAV<lambda_c36588078e9f5dfd39652860aa6b3aaf>@@AEAV<lambda_ec61778202f4f5fc7e7711acc23c3bca>@@$$QEAV<lambda_dc9d2797ccde5d239b4a0efae8ebd7db>@@@Z 0000000180022c88     libucrt:signal.obj
 0001:00021cac       $unwind$__vcrt_EventRegister 0000000180022cac     libvcruntime:winapi_downlevel.obj
 0001:00021cac       $unwind$__acrt_initialize_stdio 0000000180022cac     libucrt:_file.obj
 0001:00021cac       $unwind$_initterm          0000000180022cac     libucrt:initterm.obj
 0001:00021cac       $unwind$__vcrt_EventSetInformation 0000000180022cac     libvcruntime:winapi_downlevel.obj
 0001:00021cc4       $unwind$?KillProcess@@YAHKPEAUHWND__@@@Z 0000000180022cc4     Plist.obj
 0001:00021cc4       $unwind$__acrt_LCMapStringA 0000000180022cc4     libucrt:lcmapstringa.obj
 0001:00021cd4       $unwind$?__acrt_LCMapStringA_stat@@YAHPEAU__crt_locale_pointers@@PEB_WKPEBDHPEADHHH@Z 0000000180022cd4     libucrt:lcmapstringa.obj
 0001:00021cfc       $unwind$__acrt_update_thread_locale_data 0000000180022cfc     libucrt:locale_refcounting.obj
 0001:00021d20       $unwind$__acrt_locale_free_monetary 0000000180022d20     libucrt:initmon.obj
 0001:00021d28       $unwind$__acrt_locale_free_time 0000000180022d28     libucrt:inittime.obj
 0001:00021d38       $unwind$__acrt_GetStringTypeA 0000000180022d38     libucrt:getstringtypea.obj
 0001:00021d60       $unwind$?GetTableIndexFromLocaleName@@YAHPEB_W@Z 0000000180022d60     libucrt:lcidtoname_downlevel.obj
 0001:00021d78       $unwind$__acrt_lowio_destroy_handle_array 0000000180022d78     libucrt:osfinfo.obj
 0001:00021d88       $unwind$__acrt_lowio_ensure_fh_exists 0000000180022d88     libucrt:osfinfo.obj
 0001:00021db4       $unwind$common_flush_all   0000000180022db4     libucrt:fflush.obj
 0001:00021df0       $unwind$_fcloseall         0000000180022df0     libucrt:closeall.obj
 0001:00021e14       $unwind$_commit            0000000180022e14     libucrt:commit.obj
 0001:00021e14       $unwind$_close             0000000180022e14     libucrt:close.obj
 0001:00021e1c       $unwind$??$?RV<lambda_b521505b218e5242e90febf6bfebc422>@@AEAV<lambda_6978c1fb23f02e42e1d9e99668cc68aa>@@V<lambda_314360699dd331753a4119843814e9a7>@@@?$__crt_seh_guarded_call@H@@QEAAH$$QEAV<lambda_b521505b218e5242e90febf6bfebc422>@@AEAV<lambda_6978c1fb23f02e42e1d9e99668cc68aa>@@$$QEAV<lambda_314360699dd331753a4119843814e9a7>@@@Z 0000000180022e1c     libucrt:commit.obj
 0001:00021e40       $unwind$_write             0000000180022e40     libucrt:write.obj
 0001:00021e70       $unwind$_write_nolock      0000000180022e70     libucrt:write.obj
 0001:00021e88       $unwind$?write_double_translated_ansi_nolock@@YA?AUwrite_result@?A0x9c548279@@HQEBDI@Z 0000000180022e88     libucrt:write.obj
 0001:00021ea8       $unwind$?write_text_utf16le_nolock@@YA?AUwrite_result@?A0x9c548279@@HQEBDI@Z 0000000180022ea8     libucrt:write.obj
 0001:00021ea8       $unwind$?write_text_ansi_nolock@@YA?AUwrite_result@?A0x9c548279@@HQEBDI@Z 0000000180022ea8     libucrt:write.obj
 0001:00021ec8       $unwind$?write_text_utf8_nolock@@YA?AUwrite_result@?A0x9c548279@@HQEBDI@Z 0000000180022ec8     libucrt:write.obj
 0001:00021ef0       $xdatasym                  0000000180022ef0     libucrt:log10.obj
 0001:00021efc       $unwind$fclose             0000000180022efc     libucrt:fclose.obj
 0001:00021f20       $unwind$_call_matherr      0000000180022f20     libucrt:libm_error.obj
 0001:00021f28       $unwind$_exception_enabled 0000000180022f28     libucrt:libm_error.obj
 0001:00021f28       $unwind$?free_crt_array_internal@@YAXQEAPEBX_K@Z 0000000180022f28     libucrt:inittime.obj
 0001:00021f28       $unwind$__acrt_LocaleNameToLCID 0000000180022f28     libucrt:winapi_thunks.obj
 0001:00021f28       $unwind$?TraceLoggingRegister@__vcrt_trace_logging_provider@@YAJPEBU_TlgProvider_t@1@PEBU_GUID@@P6AX1KE_K2PEAU_EVENT_FILTER_DESCRIPTOR@@PEAX@Z4@Z 0000000180022f28     libvcruntime:telemetry.obj
 0001:00021f28       $unwind$__vcrt_FlsSetValue 0000000180022f28     libvcruntime:winapi_downlevel.obj
 0001:00021f28       $unwind$_RTC_Terminate     0000000180022f28     LIBCMT:_initsect_.obj
 0001:00021f28       $unwind$??R<lambda_ad1ced32f4ac17aa236e5ef05d6b3b7c>@@QEBAXXZ 0000000180022f28     libucrt:mbctype.obj
 0001:00021f28       $unwind$__acrt_FlsSetValue 0000000180022f28     libucrt:winapi_thunks.obj
 0001:00021f28       $unwind$__acrt_execute_uninitializers 0000000180022f28     libucrt:shared_initialization.obj
 0001:00021f28       $unwind$__vcrt_getptd_noexit 0000000180022f28     libvcruntime:per_thread_data.obj
 0001:00021f28       $unwind$??$common_lseek_nolock@_J@@YA_JH_JH@Z 0000000180022f28     libucrt:lseek.obj
 0001:00021f28       $unwind$_DllMainCRTStartup 0000000180022f28     LIBCMT:dll_dllmain.obj
 0001:00021f28       $unwind$_RTC_Initialize    0000000180022f28     LIBCMT:_initsect_.obj
 0001:00021f28       $unwind$?CreateCheckBoxBinding@PluginDialogBuilder@@MEAAPEAU?$DialogItemBinding@UFarDialogItem@@@@PEAHH@Z 0000000180022f28     PCFG.OBJ
 0001:00021f28       $unwind$_initterm_e        0000000180022f28     libucrt:initterm.obj
 0001:00021f28       $unwind$__acrt_getptd_noexit 0000000180022f28     libucrt:per_thread_data.obj
 0001:00021f28       $unwind$__acrt_stdio_flush_nolock 0000000180022f28     libucrt:fflush.obj
 0001:00021f38       $unwind$_handle_error      0000000180022f38     libucrt:libm_error.obj
 0001:00021f58       $unwind$__acrt_initialize_fma3 0000000180022f58     libucrt:fma3_available.obj
 0001:00021f60       $unwind$_log_special_common 0000000180022f60     libucrt:log_special.obj
 0001:00021f6c       $unwind$??$?RV<lambda_bfedae4ebbf01fab1bb6dcc6a9e276e0>@@AEAV<lambda_2fe9b910cf3cbf4a0ab98a02ba45b3ec>@@V<lambda_237c231691f317818eb88cc1d5d642d6>@@@?$__crt_seh_guarded_call@H@@QEAAH$$QEAV<lambda_bfedae4ebbf01fab1bb6dcc6a9e276e0>@@AEAV<lambda_2fe9b910cf3cbf4a0ab98a02ba45b3ec>@@$$QEAV<lambda_237c231691f317818eb88cc1d5d642d6>@@@Z 0000000180022f6c     libucrt:close.obj
 0001:00021f90       $xdatasym                  0000000180022f90     libucrt:fpsr.obj
 0001:00021f98       $unwind$_raise_exc_ex      0000000180022f98     libucrt:fpexcept.obj
 0001:00021fac       $unwind$_ctrlfp            0000000180022fac     libucrt:fpctrl.obj
 0001:00021fd4       $unwind$__GSHandlerCheckCommon 0000000180022fd4     LIBCMT:_gshandler_.obj
 0001:00021fe0       $xdatasym                  0000000180022fe0     LIBCMT:_amdsecgs_.obj
 0001:00021fe4       $unwind$_IsNonwritableInCurrentImage 0000000180022fe4     LIBCMT:pesect.obj
 0001:00022008       $unwind$__report_gsfailure 0000000180023008     LIBCMT:gs_report.obj
 0001:00022008       $unwind$_putwch_nolock     0000000180023008     libucrt:putwch.obj
 0001:00022010       $unwind$capture_previous_context 0000000180023010     LIBCMT:gs_report.obj
 0001:00022020       $xdatasym                  0000000180023020     libvcruntime:memcmp.obj
 0001:00022120       .edata                     0000000180023120     Proclist.exp
 0001:00022148       rgpv                       0000000180023148     Proclist.exp
 0001:00022184       rgszName                   0000000180023184     Proclist.exp
 0001:000221c0       rgwOrd                     00000001800231c0     Proclist.exp
 0001:000221de       szName                     00000001800231de     Proclist.exp
 0001:000221eb       $N00001                    00000001800231eb     Proclist.exp
 0001:000221f7       $N00002                    00000001800231f7     Proclist.exp
 0001:00022200       $N00003                    0000000180023200     Proclist.exp
 0001:0002220b       $N00004                    000000018002320b     Proclist.exp
 0001:00022218       $N00005                    0000000180023218     Proclist.exp
 0001:00022221       $N00006                    0000000180023221     Proclist.exp
 0001:0002222f       $N00007                    000000018002322f     Proclist.exp
 0001:00022239       $N00008                    0000000180023239     Proclist.exp
 0001:00022246       $N00009                    0000000180023246     Proclist.exp
 0001:00022255       $N00010                    0000000180023255     Proclist.exp
 0001:00022267       $N00011                    0000000180023267     Proclist.exp
 0001:00022276       $N00012                    0000000180023276     Proclist.exp
 0001:0002227c       $N00013                    000000018002327c     Proclist.exp
 0001:0002228f       $N00014                    000000018002328f     Proclist.exp
 0001:000222a2       $N00015                    00000001800232a2     Proclist.exp
 0002:00000010       ?FKeys@?1??GetOpenPanelInfo@Plist@@QEAAXPEAUOpenPanelInfo@@@Z@4PAGA 0000000180024010     Pclass.obj
 0002:00000058       ?kbt@?1??GetOpenPanelInfo@Plist@@QEAAXPEAUOpenPanelInfo@@@Z@4UKeyBarTitles@@A 0000000180024058     Pclass.obj
 0002:00000068       ?nr@?7??Connect@Plist@@QEAA_NPEB_W00@Z@4U_NETRESOURCEW@@A 0000000180024068     Pclass.obj
 0002:00000290       ?_Tlg_Microsoft_CRTProviderProv@@3U_TlgProvider_t@__vcrt_trace_logging_provider@@A 0000000180024290     libvcruntime:telemetry.obj
 0002:000002e0       ?__vcrt_flsindex@@3KA      00000001800242e0     libvcruntime:per_thread_data.obj
 0002:000002e8       errno_no_memory            00000001800242e8     libucrt:errno.obj
 0002:000002ec       doserrno_no_memory         00000001800242ec     libucrt:errno.obj
 0002:000002f0       __acrt_flsindex            00000001800242f0     libucrt:per_thread_data.obj
 0002:000006b0       __rgctypeflag              00000001800246b0     libucrt:mbctype.obj
 0002:000006c0       __rgcode_page_info         00000001800246c0     libucrt:mbctype.obj
 0002:00000b80       ?dazSupported@?1??_ctrlfp@@9@9 0000000180024b80     libucrt:fpctrl.obj
 0002:00020c40       ?pUserAccountID@@3PEB_WEB  0000000180044c40     handles.obj
 0002:00020c50       ?UserAccountID@?1??GetUserAccountID@@YAPEB_WXZ@4PA_WA 0000000180044c50     handles.obj
 0002:000250a0       ?TitlesLocal@?1??PanelModes@Plist@@QEAAPEAUPanelMode@@AEA_K@Z@4PAY0BI@PEA_WA 00000001800490a0     Pclass.obj
 0002:00025820       ?TitlesRemote@?1??PanelModes@Plist@@QEAAPEAUPanelMode@@AEA_K@Z@4PAY0BI@PEA_WA 0000000180049820     Pclass.obj
 0002:00025fa0       ?OldMsg0@?1??PanelModes@Plist@@QEAAPEAUPanelMode@@AEA_K@Z@4PEB_WEB 0000000180049fa0     Pclass.obj
 0002:00025fb0       ?Title@?1??GetOpenPanelInfo@Plist@@QEAAXPEAUOpenPanelInfo@@@Z@4PA_WA 0000000180049fb0     Pclass.obj
 0002:00026080       ?kbl@?1??GetOpenPanelInfo@Plist@@QEAAXPEAUOpenPanelInfo@@@Z@4PAUKeyBarLabel@@A 000000018004a080     Pclass.obj
 0002:00026190       ?FullStr@?1??PrintTitle@Plist@@SAPEA_WH@Z@4PA_WA 000000018004a190     Pclass.obj
 0002:000263a0       ?buf@?1??PrintTime@@YAPEA_WK_N@Z@4PA_WA 000000018004a3a0     Plist.obj
 0002:000263e0       ?items@?1??WinError@@YAHPEA_W@Z@4PAPEB_WA 000000018004a3e0     Pmix.obj
 0002:000266c8       ?Inited@?1??dynamic_bind@@YAXXZ@4HA 000000018004a6c8     Proclist.obj
 0002:000266d0       ?PluginMenuStrings@?4??GetPluginInfoW@@9@4PAPEB_WA 000000018004a6d0     Proclist.obj
 0002:000266d8       ?DiskMenuStrings@?7??GetPluginInfoW@@9@4PAPEB_WA 000000018004a6d8     Proclist.obj
 0002:000266e0       ?PluginCfgStrings@?1??GetPluginInfoW@@9@4PAPEB_WA 000000018004a6e0     Proclist.obj
 0002:000266e8       ?__proc_attached@@3HA      000000018004a6e8     LIBCMT:dll_dllmain.obj
 0002:00026700       ?module_local_atexit_table@@3U_onexit_table_t@@A 000000018004a700     LIBCMT:utility.obj
 0002:00026718       ?module_local_at_quick_exit_table@@3U_onexit_table_t@@A 000000018004a718     LIBCMT:utility.obj
 0002:00026730       ?is_initialized_as_dll@@3_NA 000000018004a730     LIBCMT:utility.obj
 0002:00026770       ?module_handles@@3PAPEAUHINSTANCE__@@A 000000018004a770     libvcruntime:winapi_downlevel.obj
 0002:00026790       ?encoded_function_pointers@@3PAPEAXA 000000018004a790     libvcruntime:winapi_downlevel.obj
 0002:000267e0       ?__vcrt_startup_thread_ptd@@3U__vcrt_ptd@@A 000000018004a7e0     libvcruntime:per_thread_data.obj
 0002:00026858       __vcrt_lock_table          000000018004a858     libvcruntime:locks.obj
 0002:00026880       __vcrt_locks_initialized   000000018004a880     libvcruntime:locks.obj
 0002:000268d8       ?heap@@3V_HeapManager@@A   000000018004a8d8     libvcruntime:undname.obj
 0002:00026900       __acrt_new_handler         000000018004a900     libucrt:new_handler.obj
 0002:00026908       c_termination_complete     000000018004a908     libucrt:exit.obj
 0002:00026910       thread_local_exit_callback_func 000000018004a910     libucrt:exit.obj
 0002:00026918       ?c_exit_complete@?5??common_exit@@YAXHW4_crt_exit_cleanup_mode@@W4_crt_exit_return_mode@@@Z@4_NA 000000018004a918     libucrt:exit.obj
 0002:00026970       __acrt_invalid_parameter_handler 000000018004a970     libucrt:invalid_parameter.obj
 0002:00026990       __acrt_lock_table          000000018004a990     libucrt:locks.obj
 0002:00026b98       __acrt_locks_initialized   000000018004ab98     libucrt:locks.obj
 0002:00026ba0       module_handles             000000018004aba0     libucrt:winapi_thunks.obj
 0002:00026c40       encoded_function_pointers  000000018004ac40     libucrt:winapi_thunks.obj
 0002:00026d40       ?state_cache@?1??__acrt_is_packaged_app@@9@4JA 000000018004ad40     libucrt:winapi_thunks.obj
 0002:00026d5c       fSystemSet                 000000018004ad5c     libucrt:mbctype.obj
 0002:00026d68       ?initialized@?1??__acrt_initialize_multibyte@@9@4_NA 000000018004ad68     libucrt:mbctype.obj
 0002:000271a8       ctrlc_action               000000018004b1a8     libucrt:signal.obj
 0002:000271b0       ctrlbreak_action           000000018004b1b0     libucrt:signal.obj
 0002:000271b8       abort_action               000000018004b1b8     libucrt:signal.obj
 0002:000271c0       term_action                000000018004b1c0     libucrt:signal.obj
 0002:000271c8       user_matherr               000000018004b1c8     libucrt:matherr.obj
 0002:000271e0       __acrt_global_new_mode     000000018004b1e0     libucrt:new_mode.obj
 0002:00027200       __acrt_app_type            000000018004b200     libucrt:report_runtime_error.obj
 0002:00027210       GS_ExceptionRecord         000000018004b210     LIBCMT:gs_report.obj
 0002:000272b0       GS_ContextRecord           000000018004b2b0     LIBCMT:gs_report.obj
 0003:00000000       $pdata$?TraceLoggingRegister@__vcrt_trace_logging_provider@@YAJPEBU_TlgProvider_t@1@PEBU_GUID@@P6AX1KE_K2PEAU_EVENT_FILTER_DESCRIPTOR@@PEAX@Z4@Z 000000018004c000     libvcruntime:telemetry.obj
 0003:0000000c       $pdata$?_TlgEnableCallback@__vcrt_trace_logging_provider@@YAXPEBU_GUID@@KE_K1PEAU_EVENT_FILTER_DESCRIPTOR@@PEAX@Z 000000018004c00c     libvcruntime:telemetry.obj
 0003:00000018       $pdata$?_TlgWrite@__vcrt_trace_logging_provider@@YAJPEBU_TlgProvider_t@1@PEFBXPEBU_GUID@@2IPEAU_EVENT_DATA_DESCRIPTOR@@@Z 000000018004c018     libvcruntime:telemetry.obj
 0003:00000030       $pdata$?fputc@@YAHHPEAX@Z  000000018004c030     fileio.obj
 0003:0000003c       $pdata$?ConvertSid@@YAHPEAXPEA_WPEAK@Z 000000018004c03c     handles.obj
 0003:00000048       $pdata$0$?ConvertSid@@YAHPEAXPEA_WPEAK@Z 000000018004c048     handles.obj
 0003:00000054       $pdata$3$?ConvertSid@@YAHPEAXPEA_WPEAK@Z 000000018004c054     handles.obj
 0003:00000060       $pdata$5$?ConvertSid@@YAHPEAXPEA_WPEAK@Z 000000018004c060     handles.obj
 0003:0000006c       $pdata$6$?ConvertSid@@YAHPEAXPEA_WPEAK@Z 000000018004c06c     handles.obj
 0003:00000078       $pdata$7$?ConvertSid@@YAHPEAXPEA_WPEAK@Z 000000018004c078     handles.obj
 0003:00000084       $pdata$8$?ConvertSid@@YAHPEAXPEA_WPEAK@Z 000000018004c084     handles.obj
 0003:00000090       $pdata$?GetFileNameThread@@YAKPEAX@Z 000000018004c090     handles.obj
 0003:0000009c       $pdata$?GetType@@YAGPEAX@Z 000000018004c09c     handles.obj
 0003:000000a8       $pdata$?GetUserAccountID@@YAPEB_WXZ 000000018004c0a8     handles.obj
 0003:000000b4       $pdata$1$?GetUserAccountID@@YAPEB_WXZ 000000018004c0b4     handles.obj
 0003:000000c0       $pdata$2$?GetUserAccountID@@YAPEB_WXZ 000000018004c0c0     handles.obj
 0003:000000cc       $pdata$?PrintFileName@@YA_NPEAX0@Z 000000018004c0cc     handles.obj
 0003:000000d8       $pdata$0$?PrintFileName@@YA_NPEAX0@Z 000000018004c0d8     handles.obj
 0003:000000e4       $pdata$1$?PrintFileName@@YA_NPEAX0@Z 000000018004c0e4     handles.obj
 0003:000000f0       $pdata$?PrintHandleInfo@@YA_NKPEAX_NPEAVPerfThread@@@Z 000000018004c0f0     handles.obj
 0003:000000fc       $pdata$0$?PrintHandleInfo@@YA_NKPEAX_NPEAVPerfThread@@@Z 000000018004c0fc     handles.obj
 0003:00000108       $pdata$1$?PrintHandleInfo@@YA_NKPEAX_NPEAVPerfThread@@@Z 000000018004c108     handles.obj
 0003:00000114       $pdata$?PrintNameAndType@@YA_NPEAXK0PEAVPerfThread@@@Z 000000018004c114     handles.obj
 0003:00000120       $pdata$?PrintNameByType@@YA_NPEAXG0PEAVPerfThread@@@Z 000000018004c120     handles.obj
 0003:0000012c       $pdata$??0PluginIntEditFieldBinding@@QEAA@AEBUPluginStartupInfo@@PEAPEAXHPEAHH@Z 000000018004c12c     PCFG.OBJ
 0003:00000138       $pdata$??0PluginUIntEditFieldBinding@@QEAA@AEBUPluginStartupInfo@@PEAPEAXHPEAIH@Z 000000018004c138     PCFG.OBJ
 0003:00000144       $pdata$??1?$DialogBuilderBase@UFarDialogItem@@@@MEAA@XZ 000000018004c144     PCFG.OBJ
 0003:00000150       $pdata$0$??1?$DialogBuilderBase@UFarDialogItem@@@@MEAA@XZ 000000018004c150     PCFG.OBJ
 0003:0000015c       $pdata$1$??1?$DialogBuilderBase@UFarDialogItem@@@@MEAA@XZ 000000018004c15c     PCFG.OBJ
 0003:00000168       $pdata$??_G?$DialogBuilderBase@UFarDialogItem@@@@MEAAPEAXI@Z 000000018004c168     PCFG.OBJ
 0003:00000174       $pdata$??_G?$DialogItemBinding@UFarDialogItem@@@@UEAAPEAXI@Z 000000018004c174     PCFG.OBJ
 0003:00000180       $pdata$??_GPluginCheckBoxBinding@@UEAAPEAXI@Z 000000018004c180     PCFG.OBJ
 0003:00000180       $pdata$??_GPluginEditFieldBinding@@UEAAPEAXI@Z 000000018004c180     Pclass.obj
 0003:0000018c       $pdata$??_GPluginDialogBuilder@@UEAAPEAXI@Z 000000018004c18c     PCFG.OBJ
 0003:00000198       $pdata$??_GPluginRadioButtonBinding@@UEAAPEAXI@Z 000000018004c198     PCFG.OBJ
 0003:000001a4       $pdata$??_GPluginUIntEditFieldBinding@@UEAAPEAXI@Z 000000018004c1a4     PCFG.OBJ
 0003:000001a4       $pdata$??_GPluginIntEditFieldBinding@@UEAAPEAXI@Z 000000018004c1a4     PCFG.OBJ
 0003:000001b0       $pdata$?AddButtons@?$DialogBuilderBase@UFarDialogItem@@@@QEAAXHPEBHHH@Z 000000018004c1b0     PCFG.OBJ
 0003:000001bc       $pdata$3$?AddButtons@?$DialogBuilderBase@UFarDialogItem@@@@QEAAXHPEBHHH@Z 000000018004c1bc     PCFG.OBJ
 0003:000001c8       $pdata$4$?AddButtons@?$DialogBuilderBase@UFarDialogItem@@@@QEAAXHPEBHHH@Z 000000018004c1c8     PCFG.OBJ
 0003:000001d4       $pdata$?AddDialogItem@?$DialogBuilderBase@UFarDialogItem@@@@IEAAPEAUFarDialogItem@@W4FARDIALOGITEMTYPES@@PEB_W@Z 000000018004c1d4     PCFG.OBJ
 0003:000001e0       $pdata$?AddIntEditField@PluginDialogBuilder@@UEAAPEAUFarDialogItem@@PEAHH@Z 000000018004c1e0     PCFG.OBJ
 0003:000001ec       $pdata$?AddUIntEditField@PluginDialogBuilder@@UEAAPEAUFarDialogItem@@PEAIH@Z 000000018004c1ec     PCFG.OBJ
 0003:000001f8       $pdata$?Config@@YAHXZ      000000018004c1f8     PCFG.OBJ
 0003:00000204       $pdata$?CreateCheckBoxBinding@PluginDialogBuilder@@MEAAPEAU?$DialogItemBinding@UFarDialogItem@@@@PEAHH@Z 000000018004c204     PCFG.OBJ
 0003:00000210       $pdata$?CreateRadioButtonBinding@PluginDialogBuilder@@MEAAPEAU?$DialogItemBinding@UFarDialogItem@@@@PEAH@Z 000000018004c210     PCFG.OBJ
 0003:0000021c       $pdata$?DoShowDialog@PluginDialogBuilder@@MEAA_JXZ 000000018004c21c     PCFG.OBJ
 0003:00000228       $pdata$?InitDialogItem@PluginDialogBuilder@@MEAAXPEAUFarDialogItem@@PEB_W@Z 000000018004c228     PCFG.OBJ
 0003:00000234       $pdata$?ItemWidth@?$DialogBuilderBase@UFarDialogItem@@@@IEAA_JAEBUFarDialogItem@@@Z 000000018004c234     PCFG.OBJ
 0003:00000240       $pdata$?MaxTextWidth@?$DialogBuilderBase@UFarDialogItem@@@@IEAA_JXZ 000000018004c240     PCFG.OBJ
 0003:0000024c       $pdata$1$?MaxTextWidth@?$DialogBuilderBase@UFarDialogItem@@@@IEAA_JXZ 000000018004c24c     PCFG.OBJ
 0003:00000258       $pdata$2$?MaxTextWidth@?$DialogBuilderBase@UFarDialogItem@@@@IEAA_JXZ 000000018004c258     PCFG.OBJ
 0003:00000264       $pdata$?Read@_Opt@@SAXXZ   000000018004c264     PCFG.OBJ
 0003:00000270       $pdata$?ReallocDialogItems@?$DialogBuilderBase@UFarDialogItem@@@@IEAAXXZ 000000018004c270     PCFG.OBJ
 0003:0000027c       $pdata$?SaveValue@PluginCheckBoxBinding@@UEAAXPEAUFarDialogItem@@H@Z 000000018004c27c     PCFG.OBJ
 0003:00000288       $pdata$?SaveValue@PluginIntEditFieldBinding@@UEAAXPEAUFarDialogItem@@H@Z 000000018004c288     PCFG.OBJ
 0003:00000294       $pdata$?SaveValue@PluginRadioButtonBinding@@UEAAXPEAUFarDialogItem@@H@Z 000000018004c294     PCFG.OBJ
 0003:000002a0       $pdata$?SaveValue@PluginUIntEditFieldBinding@@UEAAXPEAUFarDialogItem@@H@Z 000000018004c2a0     PCFG.OBJ
 0003:000002ac       $pdata$?SaveValues@?$DialogBuilderBase@UFarDialogItem@@@@IEAAXXZ 000000018004c2ac     PCFG.OBJ
 0003:000002b8       $pdata$1$?SaveValues@?$DialogBuilderBase@UFarDialogItem@@@@IEAAXXZ 000000018004c2b8     PCFG.OBJ
 0003:000002c4       $pdata$2$?SaveValues@?$DialogBuilderBase@UFarDialogItem@@@@IEAAXXZ 000000018004c2c4     PCFG.OBJ
 0003:000002d0       $pdata$?ShowDialog@?$DialogBuilderBase@UFarDialogItem@@@@QEAA_NXZ 000000018004c2d0     PCFG.OBJ
 0003:000002dc       $pdata$?UpdateBorderSize@?$DialogBuilderBase@UFarDialogItem@@@@IEAAXXZ 000000018004c2dc     PCFG.OBJ
 0003:000002e8       $pdata$?Write@_Opt@@SAXXZ  000000018004c2e8     PCFG.OBJ
 0003:000002f4       $pdata$??0Plist@@QEAA@XZ   000000018004c2f4     Pclass.obj
 0003:00000300       $pdata$??1Plist@@QEAA@XZ   000000018004c300     Pclass.obj
 0003:0000030c       $pdata$?AddEditField@PluginDialogBuilder@@QEAAPEAUFarDialogItem@@PEA_WHHPEB_W_N@Z 000000018004c30c     Pclass.obj
 0003:00000318       $pdata$?AddPasswordField@PluginDialogBuilder@@QEAAPEAUFarDialogItem@@PEA_WHH@Z 000000018004c318     Pclass.obj
 0003:00000324       $pdata$?Compare@Plist@@QEAAHPEBUPluginPanelItem@@0I@Z 000000018004c324     Pclass.obj
 0003:00000330       $pdata$0$?Compare@Plist@@QEAAHPEBUPluginPanelItem@@0I@Z 000000018004c330     Pclass.obj
 0003:0000033c       $pdata$1$?Compare@Plist@@QEAAHPEBUPluginPanelItem@@0I@Z 000000018004c33c     Pclass.obj
 0003:00000348       $pdata$2$?Compare@Plist@@QEAAHPEBUPluginPanelItem@@0I@Z 000000018004c348     Pclass.obj
 0003:00000354       $pdata$4$?Compare@Plist@@QEAAHPEBUPluginPanelItem@@0I@Z 000000018004c354     Pclass.obj
 0003:00000360       $pdata$5$?Compare@Plist@@QEAAHPEBUPluginPanelItem@@0I@Z 000000018004c360     Pclass.obj
 0003:0000036c       $pdata$6$?Compare@Plist@@QEAAHPEBUPluginPanelItem@@0I@Z 000000018004c36c     Pclass.obj
 0003:00000378       $pdata$?Connect@Plist@@QEAA_NPEB_W00@Z 000000018004c378     Pclass.obj
 0003:00000384       $pdata$?ConnectWMI@Plist@@AEAA_NXZ 000000018004c384     Pclass.obj
 0003:00000390       $pdata$?DeleteFiles@Plist@@QEAAHPEAUPluginPanelItem@@H_K@Z 000000018004c390     Pclass.obj
 0003:0000039c       $pdata$3$?DeleteFiles@Plist@@QEAAHPEAUPluginPanelItem@@H_K@Z 000000018004c39c     Pclass.obj
 0003:000003a8       $pdata$4$?DeleteFiles@Plist@@QEAAHPEAUPluginPanelItem@@H_K@Z 000000018004c3a8     Pclass.obj
 0003:000003b4       $pdata$?DisconnectWMI@Plist@@AEAAXXZ 000000018004c3b4     Pclass.obj
 0003:000003c0       $pdata$?EndColumns@?$DialogBuilderBase@UFarDialogItem@@@@QEAAXXZ 000000018004c3c0     Pclass.obj
 0003:000003cc       $pdata$0$?EndColumns@?$DialogBuilderBase@UFarDialogItem@@@@QEAAXXZ 000000018004c3cc     Pclass.obj
 0003:000003d8       $pdata$2$?EndColumns@?$DialogBuilderBase@UFarDialogItem@@@@QEAAXXZ 000000018004c3d8     Pclass.obj
 0003:000003e4       $pdata$3$?EndColumns@?$DialogBuilderBase@UFarDialogItem@@@@QEAAXXZ 000000018004c3e4     Pclass.obj
 0003:000003f0       $pdata$4$?EndColumns@?$DialogBuilderBase@UFarDialogItem@@@@QEAAXXZ 000000018004c3f0     Pclass.obj
 0003:000003fc       $pdata$?EnumWndProc@@YAHPEAUHWND__@@_J@Z 000000018004c3fc     Pclass.obj
 0003:00000408       $pdata$0$?EnumWndProc@@YAHPEAUHWND__@@_J@Z 000000018004c408     Pclass.obj
 0003:00000414       $pdata$1$?EnumWndProc@@YAHPEAUHWND__@@_J@Z 000000018004c414     Pclass.obj
 0003:00000420       $pdata$?FileTimeToText@Plist@@AEAAXPEAU_FILETIME@@0PEA_W@Z 000000018004c420     Pclass.obj
 0003:0000042c       $pdata$0$?FileTimeToText@Plist@@AEAAXPEAU_FILETIME@@0PEA_W@Z 000000018004c42c     Pclass.obj
 0003:00000438       $pdata$1$?FileTimeToText@Plist@@AEAAXPEAU_FILETIME@@0PEA_W@Z 000000018004c438     Pclass.obj
 0003:00000444       $pdata$?FreeFindData@Plist@@QEAAXPEAUPluginPanelItem@@H@Z 000000018004c444     Pclass.obj
 0003:00000450       $pdata$0$?FreeFindData@Plist@@QEAAXPEAUPluginPanelItem@@H@Z 000000018004c450     Pclass.obj
 0003:0000045c       $pdata$1$?FreeFindData@Plist@@QEAAXPEAUPluginPanelItem@@H@Z 000000018004c45c     Pclass.obj
 0003:00000468       $pdata$?GeneratePanelModes@Plist@@AEAAXXZ 000000018004c468     Pclass.obj
 0003:00000474       $pdata$?GenerateTitles@@YAXQEAY0FA@_WPEAUPanelMode@@QEAY0BI@PEA_W@Z 000000018004c474     Pclass.obj
 0003:00000480       $pdata$?GetFiles@Plist@@QEAAHPEAUPluginPanelItem@@HHPEAPEB_W_KAEAU_Opt@@@Z 000000018004c480     Pclass.obj
 0003:0000048c       $pdata$4$?GetFiles@Plist@@QEAAHPEAUPluginPanelItem@@HHPEAPEB_W_KAEAU_Opt@@@Z 000000018004c48c     Pclass.obj
 0003:00000498       $pdata$6$?GetFiles@Plist@@QEAAHPEAUPluginPanelItem@@HHPEAPEB_W_KAEAU_Opt@@@Z 000000018004c498     Pclass.obj
 0003:000004a4       $pdata$?GetFindData@Plist@@QEAAHAEAPEAUPluginPanelItem@@AEA_K_K@Z 000000018004c4a4     Pclass.obj
 0003:000004b0       $pdata$2$?GetFindData@Plist@@QEAAHAEAPEAUPluginPanelItem@@AEA_K_K@Z 000000018004c4b0     Pclass.obj
 0003:000004bc       $pdata$3$?GetFindData@Plist@@QEAAHAEAPEAUPluginPanelItem@@AEA_K_K@Z 000000018004c4bc     Pclass.obj
 0003:000004c8       $pdata$4$?GetFindData@Plist@@QEAAHAEAPEAUPluginPanelItem@@AEA_K_K@Z 000000018004c4c8     Pclass.obj
 0003:000004d4       $pdata$5$?GetFindData@Plist@@QEAAHAEAPEAUPluginPanelItem@@AEA_K_K@Z 000000018004c4d4     Pclass.obj
 0003:000004e0       $pdata$6$?GetFindData@Plist@@QEAAHAEAPEAUPluginPanelItem@@AEA_K_K@Z 000000018004c4e0     Pclass.obj
 0003:000004ec       $pdata$7$?GetFindData@Plist@@QEAAHAEAPEAUPluginPanelItem@@AEA_K_K@Z 000000018004c4ec     Pclass.obj
 0003:000004f8       $pdata$8$?GetFindData@Plist@@QEAAHAEAPEAUPluginPanelItem@@AEA_K_K@Z 000000018004c4f8     Pclass.obj
 0003:00000504       $pdata$?GetOpenPanelInfo@Plist@@QEAAXPEAUOpenPanelInfo@@@Z 000000018004c504     Pclass.obj
 0003:00000510       $pdata$?GetVersionInfo@Plist@@SA_NPEA_WAEAPEAEAEAPEA_W2@Z 000000018004c510     Pclass.obj
 0003:0000051c       $pdata$0$?GetVersionInfo@Plist@@SA_NPEA_WAEAPEAEAEAPEA_W2@Z 000000018004c51c     Pclass.obj
 0003:00000528       $pdata$1$?GetVersionInfo@Plist@@SA_NPEA_WAEAPEAEAEAPEA_W2@Z 000000018004c528     Pclass.obj
 0003:00000534       $pdata$2$?GetVersionInfo@Plist@@SA_NPEA_WAEAPEAEAEAPEA_W2@Z 000000018004c534     Pclass.obj
 0003:00000540       $pdata$?InitializePanelModes@Plist@@SAXXZ 000000018004c540     Pclass.obj
 0003:0000054c       $pdata$?PanelModes@Plist@@QEAAPEAUPanelMode@@AEA_K@Z 000000018004c54c     Pclass.obj
 0003:00000558       $pdata$?PrintOwnerInfo@Plist@@AEAAXPEAXK@Z 000000018004c558     Pclass.obj
 0003:00000564       $pdata$0$?PrintOwnerInfo@Plist@@AEAAXPEAXK@Z 000000018004c564     Pclass.obj
 0003:00000570       $pdata$1$?PrintOwnerInfo@Plist@@AEAAXPEAXK@Z 000000018004c570     Pclass.obj
 0003:0000057c       $pdata$?PrintTitle@Plist@@SAPEA_WH@Z 000000018004c57c     Pclass.obj
 0003:00000588       $pdata$?PrintVersionInfo@Plist@@AEAAXPEAXPEA_W@Z 000000018004c588     Pclass.obj
 0003:00000594       $pdata$?ProcessEvent@Plist@@QEAAH_JPEAX@Z 000000018004c594     Pclass.obj
 0003:000005a0       $pdata$0$?ProcessEvent@Plist@@QEAAH_JPEAX@Z 000000018004c5a0     Pclass.obj
 0003:000005ac       $pdata$1$?ProcessEvent@Plist@@QEAAH_JPEAX@Z 000000018004c5ac     Pclass.obj
 0003:000005b8       $pdata$?ProcessKey@Plist@@QEAAHPEBU_INPUT_RECORD@@@Z 000000018004c5b8     Pclass.obj
 0003:000005c4       $pdata$0$?ProcessKey@Plist@@QEAAHPEBU_INPUT_RECORD@@@Z 000000018004c5c4     Pclass.obj
 0003:000005d0       $pdata$2$?ProcessKey@Plist@@QEAAHPEBU_INPUT_RECORD@@@Z 000000018004c5d0     Pclass.obj
 0003:000005dc       $pdata$9$?ProcessKey@Plist@@QEAAHPEBU_INPUT_RECORD@@@Z 000000018004c5dc     Pclass.obj
 0003:000005e8       $pdata$11$?ProcessKey@Plist@@QEAAHPEBU_INPUT_RECORD@@@Z 000000018004c5e8     Pclass.obj
 0003:000005f4       $pdata$12$?ProcessKey@Plist@@QEAAHPEBU_INPUT_RECORD@@@Z 000000018004c5f4     Pclass.obj
 0003:00000600       $pdata$?PutToCmdLine@Plist@@AEAAXPEA_W@Z 000000018004c600     Pclass.obj
 0003:0000060c       $pdata$?Reread@Plist@@AEAAXXZ 000000018004c60c     Pclass.obj
 0003:00000618       $pdata$?SavePanelModes@Plist@@SAXXZ 000000018004c618     Pclass.obj
 0003:00000624       $pdata$?SaveValue@PluginEditFieldBinding@@UEAAXPEAUFarDialogItem@@H@Z 000000018004c624     Pclass.obj
 0003:00000630       $pdata$?TranslateMode@Plist@@CA_NPEB_WPEA_W@Z 000000018004c630     Pclass.obj
 0003:0000063c       $pdata$4$?TranslateMode@Plist@@CA_NPEB_WPEA_W@Z 000000018004c63c     Pclass.obj
 0003:00000648       $pdata$6$?TranslateMode@Plist@@CA_NPEB_WPEA_W@Z 000000018004c648     Pclass.obj
 0003:00000654       $pdata$?WmiError@Plist@@AEAAXXZ 000000018004c654     Pclass.obj
 0003:00000660       $pdata$0$?WmiError@Plist@@AEAAXXZ 000000018004c660     Pclass.obj
 0003:0000066c       $pdata$1$?WmiError@Plist@@AEAAXXZ 000000018004c66c     Pclass.obj
 0003:00000678       $pdata$2$?WmiError@Plist@@AEAAXXZ 000000018004c678     Pclass.obj
 0003:00000684       $pdata$?ui64toa_width@@YAX_KPEA_WI_N@Z 000000018004c684     Pclass.obj
 0003:00000690       $pdata$0$?ui64toa_width@@YAX_KPEA_WI_N@Z 000000018004c690     Pclass.obj
 0003:0000069c       $pdata$1$?ui64toa_width@@YAX_KPEA_WI_N@Z 000000018004c69c     Pclass.obj
 0003:000006a8       $pdata$2$?ui64toa_width@@YAX_KPEA_WI_N@Z 000000018004c6a8     Pclass.obj
 0003:000006b4       $pdata$3$?ui64toa_width@@YAX_KPEA_WI_N@Z 000000018004c6b4     Pclass.obj
 0003:000006c0       $pdata$??0PerfThread@@QEAA@AEAVPlist@@PEB_W11@Z 000000018004c6c0     perfthread.obj
 0003:000006cc       $pdata$0$??0PerfThread@@QEAA@AEAVPlist@@PEB_W11@Z 000000018004c6cc     perfthread.obj
 0003:000006d8       $pdata$1$??0PerfThread@@QEAA@AEAVPlist@@PEB_W11@Z 000000018004c6d8     perfthread.obj
 0003:000006e4       $pdata$2$??0PerfThread@@QEAA@AEAVPlist@@PEB_W11@Z 000000018004c6e4     perfthread.obj
 0003:000006f0       $pdata$3$??0PerfThread@@QEAA@AEAVPlist@@PEB_W11@Z 000000018004c6f0     perfthread.obj
 0003:000006fc       $pdata$4$??0PerfThread@@QEAA@AEAVPlist@@PEB_W11@Z 000000018004c6fc     perfthread.obj
 0003:00000708       $pdata$5$??0PerfThread@@QEAA@AEAVPlist@@PEB_W11@Z 000000018004c708     perfthread.obj
 0003:00000714       $pdata$??1PerfThread@@QEAA@XZ 000000018004c714     perfthread.obj
 0003:00000720       $pdata$?Refresh@PerfThread@@AEAAXXZ 000000018004c720     perfthread.obj
 0003:0000072c       $pdata$?RefreshWMIData@PerfThread@@AEAAXXZ 000000018004c72c     perfthread.obj
 0003:00000738       $pdata$5$?RefreshWMIData@PerfThread@@AEAAXXZ 000000018004c738     perfthread.obj
 0003:00000744       $pdata$6$?RefreshWMIData@PerfThread@@AEAAXXZ 000000018004c744     perfthread.obj
 0003:00000750       $pdata$?SyncReread@PerfThread@@QEAAXXZ 000000018004c750     perfthread.obj
 0003:0000075c       $pdata$?ThreadProc@PerfThread@@AEAAKXZ 000000018004c75c     perfthread.obj
 0003:00000768       $pdata$?getcounter@@YAHPEA_W@Z 000000018004c768     perfthread.obj
 0003:00000774       $pdata$?CreateToken@DebugToken@@SA_NXZ 000000018004c774     Plist.obj
 0003:00000780       $pdata$?DumpNTCounters@@YAXPEAXAEAVPerfThread@@KK@Z 000000018004c780     Plist.obj
 0003:0000078c       $pdata$4$?DumpNTCounters@@YAXPEAXAEAVPerfThread@@KK@Z 000000018004c78c     Plist.obj
 0003:00000798       $pdata$5$?DumpNTCounters@@YAXPEAXAEAVPerfThread@@KK@Z 000000018004c798     Plist.obj
 0003:000007a4       $pdata$6$?DumpNTCounters@@YAXPEAXAEAVPerfThread@@KK@Z 000000018004c7a4     Plist.obj
 0003:000007b0       $pdata$7$?DumpNTCounters@@YAXPEAXAEAVPerfThread@@KK@Z 000000018004c7b0     Plist.obj
 0003:000007bc       $pdata$?Enable@DebugToken@@QEAA_NXZ 000000018004c7bc     Plist.obj
 0003:000007c8       $pdata$?GetList@@YAHAEAPEAUPluginPanelItem@@AEA_KAEAVPerfThread@@@Z 000000018004c7c8     Plist.obj
 0003:000007d4       $pdata$1$?GetList@@YAHAEAPEAUPluginPanelItem@@AEA_KAEAVPerfThread@@@Z 000000018004c7d4     Plist.obj
 0003:000007e0       $pdata$2$?GetList@@YAHAEAPEAUPluginPanelItem@@AEA_KAEAVPerfThread@@@Z 000000018004c7e0     Plist.obj
 0003:000007ec       $pdata$?GetOpenProcessData@@YAXPEAXPEA_WK1K1KPEAPEA_W2@Z 000000018004c7ec     Plist.obj
 0003:000007f8       $pdata$0$?GetOpenProcessData@@YAXPEAXPEA_WK1K1KPEAPEA_W2@Z 000000018004c7f8     Plist.obj
 0003:00000804       $pdata$1$?GetOpenProcessData@@YAXPEAXPEA_WK1K1KPEAPEA_W2@Z 000000018004c804     Plist.obj
 0003:00000810       $pdata$2$?GetOpenProcessData@@YAXPEAXPEA_WK1K1KPEAPEA_W2@Z 000000018004c810     Plist.obj
 0003:0000081c       $pdata$?GetPDataNT@@YA_NAEAUProcessDataNT@@AEAUProcessPerfData@@@Z 000000018004c81c     Plist.obj
 0003:00000828       $pdata$?KillProcess@@YAHKPEAUHWND__@@@Z 000000018004c828     Plist.obj
 0003:00000834       $pdata$?OpenProcessForced@@YAPEAXPEAVDebugToken@@KKH@Z 000000018004c834     Plist.obj
 0003:00000840       $pdata$?PrintModuleVersion@@YAXPEAXPEA_W1H@Z 000000018004c840     Plist.obj
 0003:0000084c       $pdata$?PrintModules@@YAXPEAXKAEAU_Opt@@@Z 000000018004c84c     Plist.obj
 0003:00000858       $pdata$4$?PrintModules@@YAXPEAXKAEAU_Opt@@@Z 000000018004c858     Plist.obj
 0003:00000864       $pdata$5$?PrintModules@@YAXPEAXKAEAU_Opt@@@Z 000000018004c864     Plist.obj
 0003:00000870       $pdata$6$?PrintModules@@YAXPEAXKAEAU_Opt@@@Z 000000018004c870     Plist.obj
 0003:0000087c       $pdata$7$?PrintModules@@YAXPEAXKAEAU_Opt@@@Z 000000018004c87c     Plist.obj
 0003:00000888       $pdata$8$?PrintModules@@YAXPEAXKAEAU_Opt@@@Z 000000018004c888     Plist.obj
 0003:00000894       $pdata$9$?PrintModules@@YAXPEAXKAEAU_Opt@@@Z 000000018004c894     Plist.obj
 0003:000008a0       $pdata$10$?PrintModules@@YAXPEAXKAEAU_Opt@@@Z 000000018004c8a0     Plist.obj
 0003:000008ac       $pdata$?PrintNTCurDirAndEnv@@YAXPEAX0H@Z 000000018004c8ac     Plist.obj
 0003:000008b8       $pdata$?PrintTime@@YAPEA_WK_N@Z 000000018004c8b8     Plist.obj
 0003:000008c4       $pdata$?PrintTime@@YAPEA_W_K_N@Z 000000018004c8c4     Plist.obj
 0003:000008d0       $pdata$?Revert@DebugToken@@QEAA_NXZ 000000018004c8d0     Plist.obj
 0003:000008dc       $pdata$?ConvertDate@@YAXAEBU_FILETIME@@PEA_W1@Z 000000018004c8dc     Pmix.obj
 0003:000008e8       $pdata$?WinError@@YAHPEA_W@Z 000000018004c8e8     Pmix.obj
 0003:000008f4       $pdata$??0WMIConnection@@QEAA@XZ 000000018004c8f4     WMI.obj
 0003:00000900       $pdata$??1WMIConnection@@QEAA@XZ 000000018004c900     WMI.obj
 0003:0000090c       $pdata$?Connect@WMIConnection@@QEAA_NPEB_W00@Z 000000018004c90c     WMI.obj
 0003:00000918       $pdata$0$?Connect@WMIConnection@@QEAA_NPEB_W00@Z 000000018004c918     WMI.obj
 0003:00000924       $pdata$1$?Connect@WMIConnection@@QEAA_NPEB_W00@Z 000000018004c924     WMI.obj
 0003:00000930       $pdata$?Disconnect@WMIConnection@@QEAAXXZ 000000018004c930     WMI.obj
 0003:0000093c       $pdata$?ExecMethod@WMIConnection@@AEAAHKPEB_W0K@Z 000000018004c93c     WMI.obj
 0003:00000948       $pdata$?GetProcessExecutablePath@WMIConnection@@QEAAXKPEA_W@Z 000000018004c948     WMI.obj
 0003:00000954       $pdata$?GetProcessOwner@WMIConnection@@QEAAXKPEA_W0@Z 000000018004c954     WMI.obj
 0003:00000960       $pdata$?GetProcessPriority@WMIConnection@@QEAAKK@Z 000000018004c960     WMI.obj
 0003:0000096c       $pdata$?GetProcessSessionId@WMIConnection@@QEAAHK@Z 000000018004c96c     WMI.obj
 0003:00000978       $pdata$?GetProcessUserSid@WMIConnection@@QEAAXKPEA_W@Z 000000018004c978     WMI.obj
 0003:00000984       $pdata$?SetProcessPriority@WMIConnection@@QEAAHKK@Z 000000018004c984     WMI.obj
 0003:00000990       $pdata$?TerminateProcess@WMIConnection@@QEAAHK@Z 000000018004c990     WMI.obj
 0003:0000099c       $pdata$?Message@@YAHIPEA_WPEAPEB_WHH@Z 000000018004c99c     Proclist.obj
 0003:000009a8       $pdata$?dynamic_bind@@YAXXZ 000000018004c9a8     Proclist.obj
 0003:000009b4       $pdata$0$?dynamic_bind@@YAXXZ 000000018004c9b4     Proclist.obj
 0003:000009c0       $pdata$1$?dynamic_bind@@YAXXZ 000000018004c9c0     Proclist.obj
 0003:000009cc       $pdata$ClosePanelW         000000018004c9cc     Proclist.obj
 0003:000009d8       $pdata$CompareW            000000018004c9d8     Proclist.obj
 0003:000009e4       $pdata$ConfigureW          000000018004c9e4     Proclist.obj
 0003:000009f0       $pdata$DeleteFilesW        000000018004c9f0     Proclist.obj
 0003:000009fc       $pdata$ExitFARW            000000018004c9fc     Proclist.obj
 0003:00000a08       $pdata$GetFilesW           000000018004ca08     Proclist.obj
 0003:00000a14       $pdata$GetFindDataW        000000018004ca14     Proclist.obj
 0003:00000a20       $pdata$GetGlobalInfoW      000000018004ca20     Proclist.obj
 0003:00000a2c       $pdata$GetPluginInfoW      000000018004ca2c     Proclist.obj
 0003:00000a38       $pdata$OpenW               000000018004ca38     Proclist.obj
 0003:00000a44       $pdata$ProcessPanelEventW  000000018004ca44     Proclist.obj
 0003:00000a50       $pdata$ProcessPanelInputW  000000018004ca50     Proclist.obj
 0003:00000a5c       $pdata$SetStartupInfoW     000000018004ca5c     Proclist.obj
 0003:00000a68       $pdata$??2@YAPEAX_K@Z      000000018004ca68     LIBCMT:new_scalar.obj
 0003:00000a74       $pdata$?dllmain_crt_dispatch@@YAHQEAUHINSTANCE__@@KQEAX@Z 000000018004ca74     LIBCMT:dll_dllmain.obj
 0003:00000a80       $pdata$?dllmain_crt_process_attach@@YAHQEAUHINSTANCE__@@QEAX@Z 000000018004ca80     LIBCMT:dll_dllmain.obj
 0003:00000a8c       $pdata$?dllmain_crt_process_detach@@YAH_N@Z 000000018004ca8c     LIBCMT:dll_dllmain.obj
 0003:00000a98       $pdata$?dllmain_dispatch@@YAHQEAUHINSTANCE__@@KQEAX@Z 000000018004ca98     LIBCMT:dll_dllmain.obj
 0003:00000aa4       $pdata$?dllmain_raw@@YAHQEAUHINSTANCE__@@KQEAX@Z 000000018004caa4     LIBCMT:dll_dllmain.obj
 0003:00000ab0       $pdata$_DllMainCRTStartup  000000018004cab0     LIBCMT:dll_dllmain.obj
 0003:00000abc       $pdata$??0bad_alloc@std@@QEAA@AEBV01@@Z 000000018004cabc     LIBCMT:throw_bad_alloc.obj
 0003:00000ac8       $pdata$??0bad_array_new_length@std@@QEAA@AEBV01@@Z 000000018004cac8     LIBCMT:throw_bad_alloc.obj
 0003:00000ad4       $pdata$??0exception@std@@QEAA@AEBV01@@Z 000000018004cad4     LIBCMT:throw_bad_alloc.obj
 0003:00000ae0       $pdata$??_Gbad_array_new_length@std@@UEAAPEAXI@Z 000000018004cae0     LIBCMT:throw_bad_alloc.obj
 0003:00000ae0       $pdata$??_Gexception@std@@UEAAPEAXI@Z 000000018004cae0     LIBCMT:throw_bad_alloc.obj
 0003:00000ae0       $pdata$??_Gbad_alloc@std@@UEAAPEAXI@Z 000000018004cae0     LIBCMT:throw_bad_alloc.obj
 0003:00000aec       $pdata$?__scrt_throw_std_bad_alloc@@YAXXZ 000000018004caec     LIBCMT:throw_bad_alloc.obj
 0003:00000af8       $pdata$?__scrt_throw_std_bad_array_new_length@@YAXXZ 000000018004caf8     LIBCMT:throw_bad_alloc.obj
 0003:00000b04       $pdata$__scrt_acquire_startup_lock 000000018004cb04     LIBCMT:utility.obj
 0003:00000b10       $pdata$__scrt_dllmain_after_initialize_c 000000018004cb10     LIBCMT:utility.obj
 0003:00000b1c       $pdata$__scrt_dllmain_before_initialize_c 000000018004cb1c     LIBCMT:utility.obj
 0003:00000b28       $pdata$__scrt_dllmain_crt_thread_attach 000000018004cb28     LIBCMT:utility.obj
 0003:00000b34       $pdata$__scrt_dllmain_crt_thread_detach 000000018004cb34     LIBCMT:utility.obj
 0003:00000b40       $pdata$__scrt_dllmain_exception_filter 000000018004cb40     LIBCMT:utility.obj
 0003:00000b4c       $pdata$__scrt_dllmain_uninitialize_c 000000018004cb4c     LIBCMT:utility.obj
 0003:00000b58       $pdata$__scrt_dllmain_uninitialize_critical 000000018004cb58     LIBCMT:utility.obj
 0003:00000b64       $pdata$__scrt_initialize_crt 000000018004cb64     LIBCMT:utility.obj
 0003:00000b70       $pdata$__scrt_initialize_onexit_tables 000000018004cb70     LIBCMT:utility.obj
 0003:00000b7c       $pdata$__scrt_is_nonwritable_in_current_image 000000018004cb7c     LIBCMT:utility.obj
 0003:00000b88       $pdata$__scrt_release_startup_lock 000000018004cb88     LIBCMT:utility.obj
 0003:00000b94       $pdata$__scrt_uninitialize_crt 000000018004cb94     LIBCMT:utility.obj
 0003:00000ba0       $pdata$_onexit             000000018004cba0     LIBCMT:utility.obj
 0003:00000bac       $pdata$atexit              000000018004cbac     LIBCMT:utility.obj
 0003:00000bb8       $pdata$__security_init_cookie 000000018004cbb8     LIBCMT:gs_support.obj
 0003:00000bc4       $pdata$__scrt_initialize_default_local_stdio_options 000000018004cbc4     LIBCMT:default_local_stdio_options.obj
 0003:00000bd0       $pdata$__scrt_fastfail     000000018004cbd0     LIBCMT:utility_desktop.obj
 0003:00000bdc       $pdata$_RTC_Initialize     000000018004cbdc     LIBCMT:_initsect_.obj
 0003:00000be8       $pdata$_RTC_Terminate      000000018004cbe8     LIBCMT:_initsect_.obj
 0003:00000bf4       $pdata$??_Gtype_info@@UEAAPEAXI@Z 000000018004cbf4     LIBCMT:std_type_info_static.obj
 0003:00000c00       $pdata$__isa_available_init 000000018004cc00     LIBCMT:_cpu_disp_.obj
 0003:00000c24       $pdata$wcschr              000000018004cc24     libvcruntime:wcschr.obj
 0003:00000c30       $pdata$__telemetry_main_invoke_trigger 000000018004cc30     libvcruntime:telemetry.obj
 0003:00000c3c       $pdata$__telemetry_main_return_trigger 000000018004cc3c     libvcruntime:telemetry.obj
 0003:00000c48       $pdata$__vcrt_uninitialize_telemetry_provider 000000018004cc48     libvcruntime:telemetry.obj
 0003:00000c54       $pdata$__C_specific_handler 000000018004cc54     libvcruntime:_chandler_.obj
 0003:00000c60       $pdata$__std_exception_copy 000000018004cc60     libvcruntime:std_exception.obj
 0003:00000c6c       $pdata$__std_exception_destroy 000000018004cc6c     libvcruntime:std_exception.obj
 0003:00000c78       $pdata$_CxxThrowException  000000018004cc78     libvcruntime:throw.obj
 0003:00000c84       $pdata$__vcrt_initialize   000000018004cc84     libvcruntime:initialization.obj
 0003:00000c90       $pdata$__vcrt_thread_attach 000000018004cc90     libvcruntime:initialization.obj
 0003:00000c9c       $pdata$__vcrt_thread_detach 000000018004cc9c     libvcruntime:initialization.obj
 0003:00000ca8       $pdata$__vcrt_uninitialize 000000018004cca8     libvcruntime:initialization.obj
 0003:00000cb4       $pdata$__vcrt_uninitialize_critical 000000018004ccb4     libvcruntime:initialization.obj
 0003:00000cc0       $pdata$__std_type_info_destroy_list 000000018004ccc0     libvcruntime:std_type_info.obj
 0003:00000ccc       $pdata$?try_get_function@@YAPEAXW4function_id@?A0x61ce2399@@QEBDQEBW4module_id@2@2@Z 000000018004cccc     libvcruntime:winapi_downlevel.obj
 0003:00000cd8       $pdata$__vcrt_EventRegister 000000018004ccd8     libvcruntime:winapi_downlevel.obj
 0003:00000ce4       $pdata$__vcrt_EventSetInformation 000000018004cce4     libvcruntime:winapi_downlevel.obj
 0003:00000cf0       $pdata$__vcrt_EventUnregister 000000018004ccf0     libvcruntime:winapi_downlevel.obj
 0003:00000cfc       $pdata$__vcrt_EventWriteTransfer 000000018004ccfc     libvcruntime:winapi_downlevel.obj
 0003:00000d08       $pdata$__vcrt_FlsAlloc     000000018004cd08     libvcruntime:winapi_downlevel.obj
 0003:00000d14       $pdata$__vcrt_FlsFree      000000018004cd14     libvcruntime:winapi_downlevel.obj
 0003:00000d20       $pdata$__vcrt_FlsGetValue  000000018004cd20     libvcruntime:winapi_downlevel.obj
 0003:00000d2c       $pdata$__vcrt_FlsSetValue  000000018004cd2c     libvcruntime:winapi_downlevel.obj
 0003:00000d38       $pdata$__vcrt_InitializeCriticalSectionEx 000000018004cd38     libvcruntime:winapi_downlevel.obj
 0003:00000d44       $pdata$__vcrt_initialize_winapi_thunks 000000018004cd44     libvcruntime:winapi_downlevel.obj
 0003:00000d50       $pdata$__vcrt_uninitialize_winapi_thunks 000000018004cd50     libvcruntime:winapi_downlevel.obj
 0003:00000d8c       $pdata$__vcrt_freefls      000000018004cd8c     libvcruntime:per_thread_data.obj
 0003:00000d98       $pdata$__vcrt_freeptd      000000018004cd98     libvcruntime:per_thread_data.obj
 0003:00000da4       $pdata$__vcrt_getptd_noexit 000000018004cda4     libvcruntime:per_thread_data.obj
 0003:00000db0       $pdata$__vcrt_initialize_ptd 000000018004cdb0     libvcruntime:per_thread_data.obj
 0003:00000dbc       $pdata$__vcrt_uninitialize_ptd 000000018004cdbc     libvcruntime:per_thread_data.obj
 0003:00000dc8       $pdata$__vcrt_initialize_locks 000000018004cdc8     libvcruntime:locks.obj
 0003:00000dd4       $pdata$__vcrt_uninitialize_locks 000000018004cdd4     libvcruntime:locks.obj
 0003:00000de0       $pdata$??0_LocaleUpdate@@QEAA@QEAU__crt_locale_pointers@@@Z 000000018004cde0     libucrt:memicmp.obj
 0003:00000dec       $pdata$_memicmp            000000018004cdec     libucrt:memicmp.obj
 0003:00000df8       $pdata$_memicmp_l          000000018004cdf8     libucrt:memicmp.obj
 0003:00000e04       $pdata$??$parse_integer@KV?$c_string_character_source@_W@__crt_strtox@@@__crt_strtox@@YAKQEAU__crt_locale_pointers@@V?$c_string_character_source@_W@0@H_N@Z 000000018004ce04     libucrt:strtox.obj
 0003:00000e10       $pdata$wcstol              000000018004ce10     libucrt:strtox.obj
 0003:00000e1c       $pdata$??$common_xtox@_K_W@@YAH_KQEA_W0I_N@Z 000000018004ce1c     libucrt:xtoa.obj
 0003:00000e28       $pdata$_ui64tow            000000018004ce28     libucrt:xtoa.obj
 0003:00000e34       $pdata$wcstok              000000018004ce34     libucrt:wcstok.obj
 0003:00000e40       $pdata$_isleadbyte_l       000000018004ce40     libucrt:_wctype.obj
 0003:00000e4c       $pdata$_callnewh           000000018004ce4c     libucrt:new_handler.obj
 0003:00000e58       $pdata$_query_new_handler  000000018004ce58     libucrt:new_handler.obj
 0003:00000e64       $pdata$_initterm           000000018004ce64     libucrt:initterm.obj
 0003:00000e70       $pdata$_initterm_e         000000018004ce70     libucrt:initterm.obj
 0003:00000e7c       $pdata$_seh_filter_exe     000000018004ce7c     libucrt:exception_filter.obj
 0003:00000e88       $pdata$?common_exit@@YAXHW4_crt_exit_cleanup_mode@@W4_crt_exit_return_mode@@@Z 000000018004ce88     libucrt:exit.obj
 0003:00000e94       $pdata$?exit_or_terminate_process@@YAXI@Z 000000018004ce94     libucrt:exit.obj
 0003:00000ea0       $pdata$?try_cor_exit_process@@YAXI@Z 000000018004cea0     libucrt:exit.obj
 0003:00000eac       $pdata$??$common_initialize_environment_nolock@D@@YAHXZ 000000018004ceac     libucrt:environment_initialization.obj
 0003:00000eb8       $pdata$??$create_environment@D@@YAQEAPEADQEAD@Z 000000018004ceb8     libucrt:environment_initialization.obj
 0003:00000ec4       $pdata$??$free_environment@D@@YAXQEAPEAD@Z 000000018004cec4     libucrt:environment_initialization.obj
 0003:00000ec4       $pdata$??$free_environment@_W@@YAXQEAPEA_W@Z 000000018004cec4     libucrt:environment_initialization.obj
 0003:00000ed0       $pdata$??$uninitialize_environment_internal@D@@YAXAEAPEAPEAD@Z 000000018004ced0     libucrt:environment_initialization.obj
 0003:00000edc       $pdata$??$uninitialize_environment_internal@_W@@YAXAEAPEAPEA_W@Z 000000018004cedc     libucrt:environment_initialization.obj
 0003:00000ee8       $pdata$__dcrt_uninitialize_environments_nolock 000000018004cee8     libucrt:environment_initialization.obj
 0003:00000ef4       $pdata$??$?RV<lambda_b8c45f8f788dd370798f47cfe8ac3a86>@@AEAV<lambda_4e60a939b0d047cfe11ddc22648dfba9>@@V<lambda_332c3edc96d0294ec56c57d38c1cdfd5>@@@?$__crt_seh_guarded_call@H@@QEAAH$$QEAV<lambda_b8c45f8f788dd370798f47cfe8ac3a86>@@AEAV<lambda_4e60a939b0d047cfe11ddc22648dfba9>@@$$QEAV<lambda_332c3edc96d0294ec56c57d38c1cdfd5>@@@Z 000000018004cef4     libucrt:onexit.obj
 0003:00000f00       $pdata$??$?RV<lambda_e24bbb7b643b32fcea6fa61b31d4c984>@@AEAV<lambda_275893d493268fdec8709772e3fcec0e>@@V<lambda_9d71df4d7cf3f480f8d633942495c3b0>@@@?$__crt_seh_guarded_call@H@@QEAAH$$QEAV<lambda_e24bbb7b643b32fcea6fa61b31d4c984>@@AEAV<lambda_275893d493268fdec8709772e3fcec0e>@@$$QEAV<lambda_9d71df4d7cf3f480f8d633942495c3b0>@@@Z 000000018004cf00     libucrt:onexit.obj
 0003:00000f0c       $pdata$??R<lambda_4e60a939b0d047cfe11ddc22648dfba9>@@QEBAHXZ 000000018004cf0c     libucrt:onexit.obj
 0003:00000f18       $pdata$_execute_onexit_table 000000018004cf18     libucrt:onexit.obj
 0003:00000f24       $pdata$_register_onexit_function 000000018004cf24     libucrt:onexit.obj
 0003:00000f30       $pdata$initialize_c        000000018004cf30     libucrt:initialization.obj
 0003:00000f3c       $pdata$uninitialize_environment 000000018004cf3c     libucrt:initialization.obj
 0003:00000f48       $pdata$initialize_pointers 000000018004cf48     libucrt:initialization.obj
 0003:00000f54       $pdata$uninitialize_allocated_memory 000000018004cf54     libucrt:initialization.obj
 0003:00000f60       $pdata$__acrt_thread_attach 000000018004cf60     libucrt:initialization.obj
 0003:00000f6c       $pdata$__acrt_thread_detach 000000018004cf6c     libucrt:initialization.obj
 0003:00000f78       $pdata$__acrt_uninitialize_critical 000000018004cf78     libucrt:initialization.obj
 0003:00000f84       $pdata$terminate           000000018004cf84     libucrt:terminate.obj
 0003:00000f90       $pdata$_wcsdup             000000018004cf90     libucrt:wcsdup.obj
 0003:00000f9c       $pdata$strcpy_s            000000018004cf9c     libucrt:strcpy_s.obj
 0003:00000fa8       $pdata$_free_base          000000018004cfa8     libucrt:free_base.obj
 0003:00000fb4       $pdata$_malloc_base        000000018004cfb4     libucrt:malloc_base.obj
 0003:00000fc0       $pdata$abort               000000018004cfc0     libucrt:abort.obj
 0003:00000fcc       $pdata$_calloc_base        000000018004cfcc     libucrt:calloc_base.obj
 0003:00000fd8       $pdata$__acrt_call_reportfault 000000018004cfd8     libucrt:invalid_parameter.obj
 0003:00000fe4       $pdata$_invalid_parameter  000000018004cfe4     libucrt:invalid_parameter.obj
 0003:00000ff0       $pdata$_invalid_parameter_noinfo 000000018004cff0     libucrt:invalid_parameter.obj
 0003:00000ffc       $pdata$_invoke_watson      000000018004cffc     libucrt:invalid_parameter.obj
 0003:00001008       $pdata$__acrt_errno_map_os_error 000000018004d008     libucrt:errno.obj
 0003:00001014       $pdata$__doserrno          000000018004d014     libucrt:errno.obj
 0003:00001020       $pdata$_errno              000000018004d020     libucrt:errno.obj
 0003:0000102c       $pdata$?internal_isupper_l@@YA_NHQEAU__crt_locale_pointers@@@Z 000000018004d02c     libucrt:tolower_toupper.obj
 0003:00001038       $pdata$_tolower_l          000000018004d038     libucrt:tolower_toupper.obj
 0003:00001044       $pdata$??$?RV<lambda_46352004c1216016012b18bd6f87e700>@@AEAV<lambda_3bd07e1a1191394380780325891bf33f>@@V<lambda_334532d3f185bcaa59b5be82d7d22bff>@@@?$__crt_seh_guarded_call@X@@QEAAX$$QEAV<lambda_46352004c1216016012b18bd6f87e700>@@AEAV<lambda_3bd07e1a1191394380780325891bf33f>@@$$QEAV<lambda_334532d3f185bcaa59b5be82d7d22bff>@@@Z 000000018004d044     libucrt:per_thread_data.obj
 0003:00001050       $pdata$??$?RV<lambda_5e887d1dcbef67a5eb4283622ba103bf>@@AEAV<lambda_4466841279450cc726390878d4a41900>@@V<lambda_341c25c0346d94847f1f3c463c57e077>@@@?$__crt_seh_guarded_call@X@@QEAAX$$QEAV<lambda_5e887d1dcbef67a5eb4283622ba103bf>@@AEAV<lambda_4466841279450cc726390878d4a41900>@@$$QEAV<lambda_341c25c0346d94847f1f3c463c57e077>@@@Z 000000018004d050     libucrt:per_thread_data.obj
 0003:0000105c       $pdata$??$?RV<lambda_72d1df2b273a38828b1ce30cbf4cdab5>@@AEAV<lambda_876a65b173b8412d3a47c70a915b0cf4>@@V<lambda_41932305e351933ebe8f8be3ed8bb5dc>@@@?$__crt_seh_guarded_call@X@@QEAAX$$QEAV<lambda_72d1df2b273a38828b1ce30cbf4cdab5>@@AEAV<lambda_876a65b173b8412d3a47c70a915b0cf4>@@$$QEAV<lambda_41932305e351933ebe8f8be3ed8bb5dc>@@@Z 000000018004d05c     libucrt:per_thread_data.obj
 0003:00001068       $pdata$??$?RV<lambda_fb3a7dec4e47f37f22dae91bb15c9095>@@AEAV<lambda_698284760c8add0bfb0756c19673e34b>@@V<lambda_dfb8eca1e75fef3034a8fb18dd509707>@@@?$__crt_seh_guarded_call@X@@QEAAX$$QEAV<lambda_fb3a7dec4e47f37f22dae91bb15c9095>@@AEAV<lambda_698284760c8add0bfb0756c19673e34b>@@$$QEAV<lambda_dfb8eca1e75fef3034a8fb18dd509707>@@@Z 000000018004d068     libucrt:per_thread_data.obj
 0003:00001074       $pdata$?construct_ptd_array@@YAXQEAU__acrt_ptd@@@Z 000000018004d074     libucrt:per_thread_data.obj
 0003:00001080       $pdata$?destroy_fls@@YAXPEAX@Z 000000018004d080     libucrt:per_thread_data.obj
 0003:0000108c       $pdata$?destroy_ptd_array@@YAXQEAU__acrt_ptd@@@Z 000000018004d08c     libucrt:per_thread_data.obj
 0003:00001098       $pdata$?replace_current_thread_locale_nolock@@YAXQEAU__acrt_ptd@@QEAU__crt_locale_data@@@Z 000000018004d098     libucrt:per_thread_data.obj
 0003:000010a4       $pdata$__acrt_freeptd      000000018004d0a4     libucrt:per_thread_data.obj
 0003:000010b0       $pdata$__acrt_getptd       000000018004d0b0     libucrt:per_thread_data.obj
 0003:000010bc       $pdata$__acrt_getptd_noexit 000000018004d0bc     libucrt:per_thread_data.obj
 0003:000010c8       $pdata$__acrt_initialize_ptd 000000018004d0c8     libucrt:per_thread_data.obj
 0003:000010d4       $pdata$__acrt_uninitialize_ptd 000000018004d0d4     libucrt:per_thread_data.obj
 0003:000010e0       $pdata$__acrt_update_locale_info 000000018004d0e0     libucrt:locale_update.obj
 0003:000010ec       $pdata$__acrt_update_multibyte_info 000000018004d0ec     libucrt:locale_update.obj
 0003:000010f8       $pdata$__acrt_uninitialize_locale 000000018004d0f8     libucrt:wsetlocale.obj
 0003:00001104       $pdata$__pctype_func       000000018004d104     libucrt:ctype.obj
 0003:00001110       $pdata$iswctype            000000018004d110     libucrt:iswctype.obj
 0003:0000111c       $pdata$_isctype_l          000000018004d11c     libucrt:isctype.obj
 0003:00001128       $pdata$__acrt_initialize_locks 000000018004d128     libucrt:locks.obj
 0003:00001134       $pdata$__acrt_uninitialize_locks 000000018004d134     libucrt:locks.obj
 0003:00001140       $pdata$?try_get_function@@YAPEAXW4function_id@?A0x63058377@@QEBDQEBW4module_id@2@2@Z 000000018004d140     libucrt:winapi_thunks.obj
 0003:0000114c       $pdata$__acrt_FlsAlloc     000000018004d14c     libucrt:winapi_thunks.obj
 0003:00001158       $pdata$__acrt_FlsFree      000000018004d158     libucrt:winapi_thunks.obj
 0003:00001164       $pdata$__acrt_FlsGetValue  000000018004d164     libucrt:winapi_thunks.obj
 0003:00001170       $pdata$__acrt_FlsSetValue  000000018004d170     libucrt:winapi_thunks.obj
 0003:0000117c       $pdata$__acrt_InitializeCriticalSectionEx 000000018004d17c     libucrt:winapi_thunks.obj
 0003:00001188       $pdata$__acrt_LCMapStringEx 000000018004d188     libucrt:winapi_thunks.obj
 0003:00001194       $pdata$__acrt_LocaleNameToLCID 000000018004d194     libucrt:winapi_thunks.obj
 0003:000011a0       $pdata$__acrt_initialize_winapi_thunks 000000018004d1a0     libucrt:winapi_thunks.obj
 0003:000011ac       $pdata$__acrt_is_packaged_app 000000018004d1ac     libucrt:winapi_thunks.obj
 0003:000011b8       $pdata$__acrt_uninitialize_winapi_thunks 000000018004d1b8     libucrt:winapi_thunks.obj
 0003:000011c4       $pdata$wcscpy_s            000000018004d1c4     libucrt:wcscpy_s.obj
 0003:000011d0       $pdata$??$?RV<lambda_99476a1ad63dd22509b5d3e65b0ffc95>@@AEAV<lambda_ad1ced32f4ac17aa236e5ef05d6b3b7c>@@V<lambda_f7424dd8d45958661754dc4f2697e9c3>@@@?$__crt_seh_guarded_call@X@@QEAAX$$QEAV<lambda_99476a1ad63dd22509b5d3e65b0ffc95>@@AEAV<lambda_ad1ced32f4ac17aa236e5ef05d6b3b7c>@@$$QEAV<lambda_f7424dd8d45958661754dc4f2697e9c3>@@@Z 000000018004d1d0     libucrt:mbctype.obj
 0003:000011dc       $pdata$??R<lambda_ad1ced32f4ac17aa236e5ef05d6b3b7c>@@QEBAXXZ 000000018004d1dc     libucrt:mbctype.obj
 0003:000011e8       $pdata$?getSystemCP@@YAHH@Z 000000018004d1e8     libucrt:mbctype.obj
 0003:000011f4       $pdata$?setSBCS@@YAXPEAU__crt_multibyte_data@@@Z 000000018004d1f4     libucrt:mbctype.obj
 0003:00001200       $pdata$?setSBUpLow@@YAXPEAU__crt_multibyte_data@@@Z 000000018004d200     libucrt:mbctype.obj
 0003:0000120c       $pdata$?setmbcp_internal@@YAHH_N@Z 000000018004d20c     libucrt:mbctype.obj
 0003:00001218       $pdata$__acrt_initialize_multibyte 000000018004d218     libucrt:mbctype.obj
 0003:00001224       $pdata$__acrt_update_thread_multibyte_data 000000018004d224     libucrt:mbctype.obj
 0003:00001230       $pdata$_setmbcp_nolock     000000018004d230     libucrt:mbctype.obj
 0003:0000123c       $pdata$__dcrt_get_narrow_environment_from_os 000000018004d23c     libucrt:get_environment_from_os.obj
 0003:00001248       $pdata$_recalloc_base      000000018004d248     libucrt:recalloc.obj
 0003:00001254       $pdata$__acrt_initialize_heap 000000018004d254     libucrt:heap_handle.obj
 0003:00001260       $pdata$?initialize_inherited_file_handles_nolock@@YAXXZ 000000018004d260     libucrt:ioinit.obj
 0003:0000126c       $pdata$?initialize_stdio_handles_nolock@@YAXXZ 000000018004d26c     libucrt:ioinit.obj
 0003:00001278       $pdata$__acrt_initialize_lowio 000000018004d278     libucrt:ioinit.obj
 0003:00001284       $pdata$__acrt_uninitialize_lowio 000000018004d284     libucrt:ioinit.obj
 0003:00001290       $pdata$__acrt_initialize_command_line 000000018004d290     libucrt:argv_data.obj
 0003:0000129c       $pdata$__acrt_execute_initializers 000000018004d29c     libucrt:shared_initialization.obj
 0003:000012a8       $pdata$__acrt_execute_uninitializers 000000018004d2a8     libucrt:shared_initialization.obj
 0003:000012b4       $pdata$??$?RV<lambda_c36588078e9f5dfd39652860aa6b3aaf>@@AEAV<lambda_ec61778202f4f5fc7e7711acc23c3bca>@@V<lambda_dc9d2797ccde5d239b4a0efae8ebd7db>@@@?$__crt_seh_guarded_call@P6AXH@Z@@QEAAP6AXH@Z$$QEAV<lambda_c36588078e9f5dfd39652860aa6b3aaf>@@AEAV<lambda_ec61778202f4f5fc7e7711acc23c3bca>@@$$QEAV<lambda_dc9d2797ccde5d239b4a0efae8ebd7db>@@@Z 000000018004d2b4     libucrt:signal.obj
 0003:000012c0       $pdata$__acrt_get_sigabrt_handler 000000018004d2c0     libucrt:signal.obj
 0003:000012cc       $pdata$raise               000000018004d2cc     libucrt:signal.obj
 0003:000012d8       $pdata$__acrt_invoke_user_matherr 000000018004d2d8     libucrt:matherr.obj
 0003:000012e4       $pdata$_mbtowc_l           000000018004d2e4     libucrt:mbtowc.obj
 0003:000012f0       $pdata$_fileno             000000018004d2f0     libucrt:fileno.obj
 0003:000012fc       $pdata$__acrt_initialize_stdio 000000018004d2fc     libucrt:_file.obj
 0003:00001308       $pdata$__acrt_uninitialize_stdio 000000018004d308     libucrt:_file.obj
 0003:00001314       $pdata$?__acrt_LCMapStringA_stat@@YAHPEAU__crt_locale_pointers@@PEB_WKPEBDHPEADHHH@Z 000000018004d314     libucrt:lcmapstringa.obj
 0003:00001320       $pdata$__acrt_LCMapStringA 000000018004d320     libucrt:lcmapstringa.obj
 0003:0000132c       $pdata$__acrt_free_locale  000000018004d32c     libucrt:locale_refcounting.obj
 0003:00001338       $pdata$__acrt_locale_free_lc_time_if_unreferenced 000000018004d338     libucrt:locale_refcounting.obj
 0003:00001344       $pdata$__acrt_release_locale_ref 000000018004d344     libucrt:locale_refcounting.obj
 0003:00001350       $pdata$__acrt_update_thread_locale_data 000000018004d350     libucrt:locale_refcounting.obj
 0003:0000135c       $pdata$_updatetlocinfoEx_nolock 000000018004d35c     libucrt:locale_refcounting.obj
 0003:00001368       $pdata$__acrt_locale_free_monetary 000000018004d368     libucrt:initmon.obj
 0003:00001374       $pdata$__acrt_locale_free_numeric 000000018004d374     libucrt:initnum.obj
 0003:00001380       $pdata$?free_crt_array_internal@@YAXQEAPEBX_K@Z 000000018004d380     libucrt:inittime.obj
 0003:0000138c       $pdata$__acrt_locale_free_time 000000018004d38c     libucrt:inittime.obj
 0003:00001398       $pdata$__acrt_GetStringTypeA 000000018004d398     libucrt:getstringtypea.obj
 0003:000013a4       $pdata$?GetTableIndexFromLocaleName@@YAHPEB_W@Z 000000018004d3a4     libucrt:lcidtoname_downlevel.obj
 0003:000013b0       $pdata$__acrt_DownlevelLocaleNameToLCID 000000018004d3b0     libucrt:lcidtoname_downlevel.obj
 0003:000013bc       $pdata$?initialize_multibyte@@YAHXZ 000000018004d3bc     libucrt:multibyte_initializer.obj
 0003:000013c8       $pdata$_msize              000000018004d3c8     libucrt:msize.obj
 0003:000013d4       $pdata$_realloc_base       000000018004d3d4     libucrt:realloc_base.obj
 0003:000013e0       $pdata$__acrt_lowio_create_handle_array 000000018004d3e0     libucrt:osfinfo.obj
 0003:000013ec       $pdata$__acrt_lowio_destroy_handle_array 000000018004d3ec     libucrt:osfinfo.obj
 0003:000013f8       $pdata$__acrt_lowio_ensure_fh_exists 000000018004d3f8     libucrt:osfinfo.obj
 0003:00001404       $pdata$_free_osfhnd        000000018004d404     libucrt:osfinfo.obj
 0003:00001410       $pdata$_get_osfhandle      000000018004d410     libucrt:osfinfo.obj
 0003:0000141c       $pdata$_isatty             000000018004d41c     libucrt:isatty.obj
 0003:00001428       $pdata$__acrt_stdio_flush_nolock 000000018004d428     libucrt:fflush.obj
 0003:00001434       $pdata$_fflush_nolock      000000018004d434     libucrt:fflush.obj
 0003:00001440       $pdata$common_flush_all    000000018004d440     libucrt:fflush.obj
 0003:0000144c       $pdata$_fcloseall          000000018004d44c     libucrt:closeall.obj
 0003:00001458       $pdata$__acrt_stdio_free_buffer_nolock 000000018004d458     libucrt:_freebuf.obj
 0003:00001464       $pdata$??$?RV<lambda_b521505b218e5242e90febf6bfebc422>@@AEAV<lambda_6978c1fb23f02e42e1d9e99668cc68aa>@@V<lambda_314360699dd331753a4119843814e9a7>@@@?$__crt_seh_guarded_call@H@@QEAAH$$QEAV<lambda_b521505b218e5242e90febf6bfebc422>@@AEAV<lambda_6978c1fb23f02e42e1d9e99668cc68aa>@@$$QEAV<lambda_314360699dd331753a4119843814e9a7>@@@Z 000000018004d464     libucrt:commit.obj
 0003:00001470       $pdata$_commit             000000018004d470     libucrt:commit.obj
 0003:0000147c       $pdata$?write_double_translated_ansi_nolock@@YA?AUwrite_result@?A0x9c548279@@HQEBDI@Z 000000018004d47c     libucrt:write.obj
 0003:00001488       $pdata$?write_text_ansi_nolock@@YA?AUwrite_result@?A0x9c548279@@HQEBDI@Z 000000018004d488     libucrt:write.obj
 0003:00001494       $pdata$?write_text_utf16le_nolock@@YA?AUwrite_result@?A0x9c548279@@HQEBDI@Z 000000018004d494     libucrt:write.obj
 0003:000014a0       $pdata$?write_text_utf8_nolock@@YA?AUwrite_result@?A0x9c548279@@HQEBDI@Z 000000018004d4a0     libucrt:write.obj
 0003:000014ac       $pdata$_write              000000018004d4ac     libucrt:write.obj
 0003:000014b8       $pdata$_write_nolock       000000018004d4b8     libucrt:write.obj
 0003:000014d0       $pdata$??$common_lseek_nolock@_J@@YA_JH_JH@Z 000000018004d4d0     libucrt:lseek.obj
 0003:000014dc       $pdata$_fclose_nolock      000000018004d4dc     libucrt:fclose.obj
 0003:000014e8       $pdata$fclose              000000018004d4e8     libucrt:fclose.obj
 0003:000014f4       $pdata$_putwch_nolock      000000018004d4f4     libucrt:putwch.obj
 0003:00001500       $pdata$_call_matherr       000000018004d500     libucrt:libm_error.obj
 0003:0000150c       $pdata$_exception_enabled  000000018004d50c     libucrt:libm_error.obj
 0003:00001518       $pdata$_handle_error       000000018004d518     libucrt:libm_error.obj
 0003:00001524       $pdata$__acrt_initialize_fma3 000000018004d524     libucrt:fma3_available.obj
 0003:00001530       $pdata$_log10_special      000000018004d530     libucrt:log_special.obj
 0003:0000153c       $pdata$_log_special_common 000000018004d53c     libucrt:log_special.obj
 0003:00001548       $pdata$??$?RV<lambda_bfedae4ebbf01fab1bb6dcc6a9e276e0>@@AEAV<lambda_2fe9b910cf3cbf4a0ab98a02ba45b3ec>@@V<lambda_237c231691f317818eb88cc1d5d642d6>@@@?$__crt_seh_guarded_call@H@@QEAAH$$QEAV<lambda_bfedae4ebbf01fab1bb6dcc6a9e276e0>@@AEAV<lambda_2fe9b910cf3cbf4a0ab98a02ba45b3ec>@@$$QEAV<lambda_237c231691f317818eb88cc1d5d642d6>@@@Z 000000018004d548     libucrt:close.obj
 0003:00001554       $pdata$_close              000000018004d554     libucrt:close.obj
 0003:00001560       $pdata$_close_nolock       000000018004d560     libucrt:close.obj
 0003:0000156c       $pdata$__dcrt_lowio_initialize_console_output 000000018004d56c     libucrt:initcon.obj
 0003:00001578       $pdata$__dcrt_terminate_console_output 000000018004d578     libucrt:initcon.obj
 0003:00001590       $pdata$_raise_exc          000000018004d590     libucrt:fpexcept.obj
 0003:0000159c       $pdata$_raise_exc_ex       000000018004d59c     libucrt:fpexcept.obj
 0003:000015a8       $pdata$_set_errno_from_matherr 000000018004d5a8     libucrt:fpexcept.obj
 0003:000015b4       $pdata$_clrfp              000000018004d5b4     libucrt:fpctrl.obj
 0003:000015c0       $pdata$_ctrlfp             000000018004d5c0     libucrt:fpctrl.obj
 0003:000015cc       $pdata$_set_statfp         000000018004d5cc     libucrt:fpctrl.obj
 0003:000015d8       $pdata$_statfp             000000018004d5d8     libucrt:fpctrl.obj
 0003:000015e4       $pdata$__GSHandlerCheck    000000018004d5e4     LIBCMT:_gshandler_.obj
 0003:000015f0       $pdata$__GSHandlerCheckCommon 000000018004d5f0     LIBCMT:_gshandler_.obj
 0003:00001608       $pdata$_IsNonwritableInCurrentImage 000000018004d608     LIBCMT:pesect.obj
 0003:00001614       $pdata$__raise_securityfailure 000000018004d614     LIBCMT:gs_report.obj
 0003:00001620       $pdata$__report_gsfailure  000000018004d620     LIBCMT:gs_report.obj
 0003:0000162c       $pdata$capture_previous_context 000000018004d62c     LIBCMT:gs_report.obj
 0003:00001650       $pdata$?fin$0@?0??dllmain_crt_process_attach@@YAHQEAUHINSTANCE__@@QEAX@Z@4HA 000000018004d650     LIBCMT:dll_dllmain.obj
 0003:0000165c       $pdata$?fin$0@?0??dllmain_crt_process_detach@@YAH_N@Z@4HA 000000018004d65c     LIBCMT:dll_dllmain.obj
 0003:00001668       $pdata$?filt$0@?0??dllmain_dispatch@@YAHQEAUHINSTANCE__@@KQEAX@Z@4HA 000000018004d668     LIBCMT:dll_dllmain.obj
 0003:00001674       $pdata$__scrt_is_nonwritable_in_current_image$filt$0 000000018004d674     LIBCMT:utility.obj
 0003:00001680       $pdata$_query_new_handler$fin$0 000000018004d680     libucrt:new_handler.obj
 0003:0000168c       $pdata$?filt$0@?0??common_exit@@YAXHW4_crt_exit_cleanup_mode@@W4_crt_exit_return_mode@@@Z@4HA 000000018004d68c     libucrt:exit.obj
 0003:00001698       $pdata$?fin$1@?0??common_exit@@YAXHW4_crt_exit_cleanup_mode@@W4_crt_exit_return_mode@@@Z@4HA 000000018004d698     libucrt:exit.obj
 0003:000016a4       $pdata$?fin$0@?0???$?RV<lambda_e24bbb7b643b32fcea6fa61b31d4c984>@@AEAV<lambda_275893d493268fdec8709772e3fcec0e>@@V<lambda_9d71df4d7cf3f480f8d633942495c3b0>@@@?$__crt_seh_guarded_call@H@@QEAAH$$QEAV<lambda_e24bbb7b643b32fcea6fa61b31d4c984>@@AEAV<lambda_275893d493268fdec8709772e3fcec0e>@@$$QEAV<lambda_9d71df4d7cf3f480f8d633942495c3b0>@@@Z@4HA 000000018004d6a4     libucrt:onexit.obj
 0003:000016b0       $pdata$?fin$0@?0???$?RV<lambda_72d1df2b273a38828b1ce30cbf4cdab5>@@AEAV<lambda_876a65b173b8412d3a47c70a915b0cf4>@@V<lambda_41932305e351933ebe8f8be3ed8bb5dc>@@@?$__crt_seh_guarded_call@X@@QEAAX$$QEAV<lambda_72d1df2b273a38828b1ce30cbf4cdab5>@@AEAV<lambda_876a65b173b8412d3a47c70a915b0cf4>@@$$QEAV<lambda_41932305e351933ebe8f8be3ed8bb5dc>@@@Z@4HA 000000018004d6b0     libucrt:per_thread_data.obj
 0003:000016b0       $pdata$?fin$0@?0???$?RV<lambda_5e887d1dcbef67a5eb4283622ba103bf>@@AEAV<lambda_4466841279450cc726390878d4a41900>@@V<lambda_341c25c0346d94847f1f3c463c57e077>@@@?$__crt_seh_guarded_call@X@@QEAAX$$QEAV<lambda_5e887d1dcbef67a5eb4283622ba103bf>@@AEAV<lambda_4466841279450cc726390878d4a41900>@@$$QEAV<lambda_341c25c0346d94847f1f3c463c57e077>@@@Z@4HA 000000018004d6b0     libucrt:per_thread_data.obj
 0003:000016b0       $pdata$?fin$0@?0???$?RV<lambda_46352004c1216016012b18bd6f87e700>@@AEAV<lambda_3bd07e1a1191394380780325891bf33f>@@V<lambda_334532d3f185bcaa59b5be82d7d22bff>@@@?$__crt_seh_guarded_call@X@@QEAAX$$QEAV<lambda_46352004c1216016012b18bd6f87e700>@@AEAV<lambda_3bd07e1a1191394380780325891bf33f>@@$$QEAV<lambda_334532d3f185bcaa59b5be82d7d22bff>@@@Z@4HA 000000018004d6b0     libucrt:per_thread_data.obj
 0003:000016b0       $pdata$?fin$0@?0???$?RV<lambda_c36588078e9f5dfd39652860aa6b3aaf>@@AEAV<lambda_ec61778202f4f5fc7e7711acc23c3bca>@@V<lambda_dc9d2797ccde5d239b4a0efae8ebd7db>@@@?$__crt_seh_guarded_call@P6AXH@Z@@QEAAP6AXH@Z$$QEAV<lambda_c36588078e9f5dfd39652860aa6b3aaf>@@AEAV<lambda_ec61778202f4f5fc7e7711acc23c3bca>@@$$QEAV<lambda_dc9d2797ccde5d239b4a0efae8ebd7db>@@@Z@4HA 000000018004d6b0     libucrt:signal.obj
 0003:000016b0       $pdata$?fin$0@?0???$?RV<lambda_fb3a7dec4e47f37f22dae91bb15c9095>@@AEAV<lambda_698284760c8add0bfb0756c19673e34b>@@V<lambda_dfb8eca1e75fef3034a8fb18dd509707>@@@?$__crt_seh_guarded_call@X@@QEAAX$$QEAV<lambda_fb3a7dec4e47f37f22dae91bb15c9095>@@AEAV<lambda_698284760c8add0bfb0756c19673e34b>@@$$QEAV<lambda_dfb8eca1e75fef3034a8fb18dd509707>@@@Z@4HA 000000018004d6b0     libucrt:per_thread_data.obj
 0003:000016b0       $pdata$?fin$0@?0???$?RV<lambda_99476a1ad63dd22509b5d3e65b0ffc95>@@AEAV<lambda_ad1ced32f4ac17aa236e5ef05d6b3b7c>@@V<lambda_f7424dd8d45958661754dc4f2697e9c3>@@@?$__crt_seh_guarded_call@X@@QEAAX$$QEAV<lambda_99476a1ad63dd22509b5d3e65b0ffc95>@@AEAV<lambda_ad1ced32f4ac17aa236e5ef05d6b3b7c>@@$$QEAV<lambda_f7424dd8d45958661754dc4f2697e9c3>@@@Z@4HA 000000018004d6b0     libucrt:mbctype.obj
 0003:000016b0       $pdata$?fin$0@?0???$?RV<lambda_b8c45f8f788dd370798f47cfe8ac3a86>@@AEAV<lambda_4e60a939b0d047cfe11ddc22648dfba9>@@V<lambda_332c3edc96d0294ec56c57d38c1cdfd5>@@@?$__crt_seh_guarded_call@H@@QEAAH$$QEAV<lambda_b8c45f8f788dd370798f47cfe8ac3a86>@@AEAV<lambda_4e60a939b0d047cfe11ddc22648dfba9>@@$$QEAV<lambda_332c3edc96d0294ec56c57d38c1cdfd5>@@@Z@4HA 000000018004d6b0     libucrt:onexit.obj
 0003:000016bc       $pdata$__acrt_update_thread_multibyte_data$fin$0 000000018004d6bc     libucrt:mbctype.obj
 0003:000016c8       $pdata$__acrt_initialize_lowio$fin$0 000000018004d6c8     libucrt:ioinit.obj
 0003:000016c8       $pdata$__acrt_lowio_ensure_fh_exists$fin$0 000000018004d6c8     libucrt:osfinfo.obj
 0003:000016d4       $pdata$raise$fin$0         000000018004d6d4     libucrt:signal.obj
 0003:000016e0       $pdata$__acrt_update_thread_locale_data$fin$0 000000018004d6e0     libucrt:locale_refcounting.obj
 0003:000016e0       $pdata$__acrt_uninitialize_locale$fin$0 000000018004d6e0     libucrt:wsetlocale.obj
 0003:000016ec       $pdata$common_flush_all$fin$0 000000018004d6ec     libucrt:fflush.obj
 0003:000016f8       $pdata$common_flush_all$fin$1 000000018004d6f8     libucrt:fflush.obj
 0003:00001704       $pdata$_fcloseall$fin$0    000000018004d704     libucrt:closeall.obj
 0003:00001710       $pdata$?fin$0@?0???$?RV<lambda_b521505b218e5242e90febf6bfebc422>@@AEAV<lambda_6978c1fb23f02e42e1d9e99668cc68aa>@@V<lambda_314360699dd331753a4119843814e9a7>@@@?$__crt_seh_guarded_call@H@@QEAAH$$QEAV<lambda_b521505b218e5242e90febf6bfebc422>@@AEAV<lambda_6978c1fb23f02e42e1d9e99668cc68aa>@@$$QEAV<lambda_314360699dd331753a4119843814e9a7>@@@Z@4HA 000000018004d710     libucrt:commit.obj
 0003:00001710       $pdata$?fin$0@?0???$?RV<lambda_bfedae4ebbf01fab1bb6dcc6a9e276e0>@@AEAV<lambda_2fe9b910cf3cbf4a0ab98a02ba45b3ec>@@V<lambda_237c231691f317818eb88cc1d5d642d6>@@@?$__crt_seh_guarded_call@H@@QEAAH$$QEAV<lambda_bfedae4ebbf01fab1bb6dcc6a9e276e0>@@AEAV<lambda_2fe9b910cf3cbf4a0ab98a02ba45b3ec>@@$$QEAV<lambda_237c231691f317818eb88cc1d5d642d6>@@@Z@4HA 000000018004d710     libucrt:close.obj
 0003:0000171c       $pdata$_write$fin$0        000000018004d71c     libucrt:write.obj
 0003:00001728       $pdata$fclose$fin$0        000000018004d728     libucrt:fclose.obj
 0003:00001734       $pdata$_ctrlfp$filt$0      000000018004d734     libucrt:fpctrl.obj
 0003:00001740       $pdata$_IsNonwritableInCurrentImage$filt$0 000000018004d740     LIBCMT:pesect.obj
 0004:00000c7e       .idata$6                   000000018004ec7e     kernel32:KERNEL32.dll
 0004:00000d66       .idata$6                   000000018004ed66     user32:USER32.dll
 0004:00000e46       .idata$6                   000000018004ee46     advapi32:ADVAPI32.dll
 0004:00000e8a       .idata$6                   000000018004ee8a     ole32:ole32.dll
 0004:00000ec4       .idata$6                   000000018004eec4     mpr:MPR.dll
 0004:00000f0e       .idata$6                   000000018004ef0e     version:VERSION.dll
 0004:00000f1a       .idata$6                   000000018004ef1a     oleaut32:OLEAUT32.dll
 0005:00000000       __guard_fids__             0000000180050000     libucrt:initialization.obj
 0005:00000060       __guard_fids___acrt_initialize_ptd 0000000180050060     libucrt:per_thread_data.obj
 0005:00000064       __guard_fids__             0000000180050064     libucrt:locale_initializer.obj
 0005:00000068       __guard_fids__             0000000180050068     libucrt:multibyte_initializer.obj
 0005:0000006c       __guard_fids__             000000018005006c     libucrt:stdio_initializer.obj
 0005:00000070       __guard_fids__             0000000180050070     libucrt:stdio_initializer.obj
 0005:00000074       __guard_fids__             0000000180050074     libucrt:fma3_initializer.obj
 0005:00000078       __guard_fids__             0000000180050078     libucrt:console_output_initializer.obj
 0005:0000007c       __guard_fids_?dllmain_crt_process_attach@@YAHQEAUHINSTANCE__@@QEAX@Z 000000018005007c     LIBCMT:dll_dllmain.obj
 0005:00000084       __guard_fids_?dllmain_dispatch@@YAHQEAUHINSTANCE__@@KQEAX@Z 0000000180050084     LIBCMT:dll_dllmain.obj
 0005:00000088       __guard_fids__             0000000180050088     LIBCMT:throw_bad_alloc.obj
 0005:00000090       __guard_fids__             0000000180050090     LIBCMT:throw_bad_alloc.obj
 0005:00000098       __guard_fids__             0000000180050098     LIBCMT:throw_bad_alloc.obj
 0005:000000a0       __guard_fids__             00000001800500a0     LIBCMT:std_type_info_static.obj
 0005:000000a4       __guard_fids__             00000001800500a4     LIBCMT:guard_support.obj
 0005:000000a8       __guard_fids__             00000001800500a8     libvcruntime:telemetry.obj
 0005:000000ac       __guard_fids_?TraceLoggingRegister@__vcrt_trace_logging_provider@@YAJPEBU_TlgProvider_t@1@PEBU_GUID@@P6AX1KE_K2PEAU_EVENT_FILTER_DESCRIPTOR@@PEAX@Z4@Z 00000001800500ac     libvcruntime:telemetry.obj
 0005:000000b0       __guard_fids___vcrt_initialize_ptd 00000001800500b0     libvcruntime:per_thread_data.obj
 0006:00000060       $R000000                   0000000180051060     Proclist.res
