 arclite

 Timestamp is 56ba578e (Wed Feb 10 00:18:06 2016)

 Preferred load address is 0000000064000000

 Start         Length     Name                   Class
 0001:00000000 000001dbH .text                   CODE
 0001:000001e0 000004c0H .text$di                CODE
 0001:000006a0 0008ce14H .text$mn                CODE
 0001:0008d4c0 00000012H .text$mn$00             CODE
 0001:0008d4e0 0000c750H .text$x                 CODE
 0001:00099c30 000008f4H .text$yd                CODE
 0002:00000000 000004a0H .idata$5                DATA
 0002:000004a0 00000010H .00cfg                  DATA
 0002:000004b0 00000008H .CRT$XCA                DATA
 0002:000004b8 00000018H .CRT$XCC                DATA
 0002:000004d0 00000010H .CRT$XCL                DATA
 0002:000004e0 00000078H .CRT$XCU                DATA
 0002:00000558 00000008H .CRT$XCZ                DATA
 0002:00000560 00000008H .CRT$XIA                DATA
 0002:00000568 00000028H .CRT$XIC                DATA
 0002:00000590 00000008H .CRT$XIZ                DATA
 0002:00000598 00000008H .CRT$XPA                DATA
 0002:000005a0 00000010H .CRT$XPX                DATA
 0002:000005b0 00000008H .CRT$XPXA               DATA
 0002:000005b8 00000008H .CRT$XPZ                DATA
 0002:000005c0 00000008H .CRT$XTA                DATA
 0002:000005c8 00000008H .CRT$XTZ                DATA
 0002:000005d0 00015114H .rdata                  DATA
 0002:000156f0 00003dacH .rdata$r                DATA
 0002:000194a0 00000010H .rdata$zETW0            DATA
 0002:000194b0 00000077H .rdata$zETW1            DATA
 0002:00019527 0000002cH .rdata$zETW2            DATA
 0002:00019553 00000001H .rdata$zETW9            DATA
 0002:00019554 000003b0H .rdata$zzzdbg           DATA
 0002:00019908 00000008H .rtc$IAA                DATA
 0002:00019910 00000008H .rtc$IZZ                DATA
 0002:00019918 00000008H .rtc$TAA                DATA
 0002:00019920 00000008H .rtc$TZZ                DATA
 0002:00019930 00019b9cH .xdata                  DATA
 0002:000334d0 0000054cH .xdata$x                DATA
 0002:00033a20 000001ecH .edata                  DATA
 0002:00033c0c 00000078H .idata$2                DATA
 0002:00033c84 00000014H .idata$3                DATA
 0002:00033c98 000004a0H .idata$4                DATA
 0002:00034138 00000a90H .idata$6                DATA
 0003:00000000 00000fb0H .data                   DATA
 0003:00000fb0 000014d6H .data$r                 DATA
 0003:00002490 0000213cH .bss                    DATA
 0004:00000000 00007728H .pdata                  DATA
 0005:00000000 000000b0H .gfids$x                DATA
 0005:000000b0 00000198H .gfids$y                DATA
 0006:00000000 00000058H .rsrc$01                DATA
 0006:00000060 000002a0H .rsrc$02                DATA

  Address         Publics by Value              Rva+Base               Lib:Object

 0000:00000000       __guard_iat_count          0000000000000000     <absolute>
 0000:00000000       __guard_iat_table          0000000000000000     <absolute>
 0000:00000000       __guard_longjmp_table      0000000000000000     <absolute>
 0000:00000000       __guard_longjmp_count      0000000000000000     <absolute>
 0000:00000000       __guard_fids_count         0000000000000000     <absolute>
 0000:00000000       ___safe_se_handler_table   0000000000000000     <absolute>
 0000:00000000       ___safe_se_handler_count   0000000000000000     <absolute>
 0000:00000000       __guard_fids_table         0000000000000000     <absolute>
 0000:00000100       __guard_flags              0000000000000100     <absolute>
 0000:00000000       __ImageBase                0000000064000000     <linker-defined>
 0001:00000000       ?TraceLoggingRegister@__vcrt_trace_logging_provider@@YAJPEBU_TlgProvider_t@1@PEBU_GUID@@P6AX1KE_K2PEAU_EVENT_FILTER_DESCRIPTOR@@PEAX@Z4@Z 0000000064001000 f i libvcruntime:telemetry.obj
 0001:0000007c       ?_TlgEnableCallback@__vcrt_trace_logging_provider@@YAXPEBU_GUID@@KE_K1PEAU_EVENT_FILTER_DESCRIPTOR@@PEAX@Z 000000006400107c f i libvcruntime:telemetry.obj
 0001:00000140       ?_TlgWrite@__vcrt_trace_logging_provider@@YAJPEBU_TlgProvider_t@1@PEFBXPEBU_GUID@@2IPEAU_EVENT_DATA_DESCRIPTOR@@@Z 0000000064001140 f i libvcruntime:telemetry.obj
 0001:000006a0       ??0Error@@QEAA@JPEBDH@Z    00000000640016a0 f i archive.obj
 0001:00000700       ??0Error@@QEAA@AEBV?$basic_string@_WU?$char_traits@_W@std@@V?$allocator@_W@2@@std@@PEBDH@Z 0000000064001700 f i archive.obj
 0001:00000780       ??1PropVariant@@QEAA@XZ    0000000064001780 f i archive.obj
 0001:000007f0       ?ref@PropVariant@@QEAAPEAUtagPROPVARIANT@@XZ 00000000640017f0 f i archive.obj
 0001:00000860       ?get_uint@PropVariant@@QEBA_KXZ 0000000064001860 f i archive.obj
 0001:000008f0       ?get_str@PropVariant@@QEBA?AV?$basic_string@_WU?$char_traits@_W@std@@V?$allocator@_W@2@@std@@XZ 00000000640018f0 f i archive.obj
 0001:000009d0       ??1Error@@QEAA@XZ          00000000640019d0 f i archive.obj
 0001:000009f0       ??0Error@@QEAA@AEBU0@@Z    00000000640019f0 f i archive.obj
 0001:00000a30       ??0ArcFormat@@QEAA@XZ      0000000064001a30 f i archive.obj
 0001:00000b00       ??1?$map@V?$basic_string@_WU?$char_traits@_W@std@@V?$allocator@_W@2@@std@@V12@U?$less@V?$basic_string@_WU?$char_traits@_W@std@@V?$allocator@_W@2@@std@@@2@V?$allocator@U?$pair@$$CBV?$basic_string@_WU?$char_traits@_W@std@@V?$allocator@_W@2@@std@@V12@@std@@@2@@std@@QEAA@XZ 0000000064001b00 f i archive.obj
 0001:00000b30       ?arc_dir@Archive@@QEBA?AV?$basic_string@_WU?$char_traits@_W@std@@V?$allocator@_W@2@@std@@XZ 0000000064001b30 f i archive.obj
 0001:00000b60       ?arc_name@Archive@@QEBA?AV?$basic_string@_WU?$char_traits@_W@std@@V?$allocator@_W@2@@std@@XZ 0000000064001b60 f i archive.obj
 0001:00000c30       ?get_bool_prop@ArcLib@@QEBAJIKAEA_N@Z 0000000064001c30 f   archive.obj
 0001:00000d70       ?get_uint_prop@ArcLib@@QEBAJIKAEAI@Z 0000000064001d70 f   archive.obj
 0001:00000f30       ?get_string_prop@ArcLib@@QEBAJIKAEAV?$basic_string@_WU?$char_traits@_W@std@@V?$allocator@_W@2@@std@@@Z 0000000064001f30 f   archive.obj
 0001:000010b0       ?get_bytes_prop@ArcLib@@QEBAJIKAEAV?$vector@EV?$allocator@E@std@@@std@@@Z 00000000640020b0 f   archive.obj
 0001:00001210       ?default_extension@ArcFormat@@QEBA?AV?$basic_string@_WU?$char_traits@_W@std@@V?$allocator@_W@2@@std@@XZ 0000000064002210 f   archive.obj
 0001:00001270       ?get_arc_types@ArcFormats@@QEBA?AV?$list@V?$vector@EV?$allocator@E@std@@@std@@V?$allocator@V?$vector@EV?$allocator@E@std@@@std@@@2@@std@@XZ 0000000064002270 f   archive.obj
 0001:00001390       ?find_by_name@ArcFormats@@QEBA?AV?$list@V?$vector@EV?$allocator@E@std@@@std@@V?$allocator@V?$vector@EV?$allocator@E@std@@@std@@@2@@std@@AEBV?$basic_string@_WU?$char_traits@_W@std@@V?$allocator@_W@2@@3@@Z 0000000064002390 f   archive.obj
 0001:00001690       ?find_by_ext@ArcFormats@@QEBA?AV?$list@V?$vector@EV?$allocator@E@std@@@std@@V?$allocator@V?$vector@EV?$allocator@E@std@@@std@@@2@@std@@AEBV?$basic_string@_WU?$char_traits@_W@std@@V?$allocator@_W@2@@3@@Z 0000000064002690 f   archive.obj
 0001:00001a20       ?find_by_name@SfxModules@@QEBA_KAEBV?$basic_string@_WU?$char_traits@_W@std@@V?$allocator@_W@2@@std@@@Z 0000000064002a20 f   archive.obj
 0001:00001d10       ?to_string@ArcChain@@QEBA?AV?$basic_string@_WU?$char_traits@_W@std@@V?$allocator@_W@2@@std@@XZ 0000000064002d10 f   archive.obj
 0001:00001d80       ??1ArcAPI@@AEAA@XZ         0000000064002d80 f   archive.obj
 0001:00001e70       ?get@ArcAPI@@CAPEAV1@XZ    0000000064002e70 f   archive.obj
 0001:00001f10       ?load_libs@ArcAPI@@AEAAXAEBV?$basic_string@_WU?$char_traits@_W@std@@V?$allocator@_W@2@@std@@@Z 0000000064002f10 f   archive.obj
 0001:000024b0       ??1ArcLib@@QEAA@XZ         00000000640034b0 f i archive.obj
 0001:00002500       ?find@@YAPEBUSfxModuleInfo@@AEBV?$basic_string@_WU?$char_traits@_W@std@@V?$allocator@_W@2@@std@@@Z 0000000064003500 f   archive.obj
 0001:000028e0       ?description@SfxModule@@QEBA?AV?$basic_string@_WU?$char_traits@_W@std@@V?$allocator@_W@2@@std@@XZ 00000000640038e0 f   archive.obj
 0001:00002b20       ?find_sfx_modules@ArcAPI@@AEAAXAEBV?$basic_string@_WU?$char_traits@_W@std@@V?$allocator@_W@2@@std@@@Z 0000000064003b20 f   archive.obj
 0001:000030a0       ??1CacheRecord@FileWriteCache@@QEAA@XZ 00000000640040a0 f i extract.obj
 0001:000030a0       ??1IdLang@@QEAA@XZ         00000000640040a0 f i rsrc.obj
 0001:000030a0       ??1FileIndexInfo@@QEAA@XZ  00000000640040a0 f i update.obj
 0001:000030a0       ??1SfxModule@@QEAA@XZ      00000000640040a0 f i archive.obj
 0001:000030a0       ??1?$basic_string@_WU?$char_traits@_W@std@@V?$allocator@_W@2@@std@@QEAA@XZ 00000000640040a0 f i archive.obj
 0001:000030a0       ??1RsrcId@@QEAA@XZ         00000000640040a0 f i rsrc.obj
 0001:000032c0       ?load@ArcAPI@@AEAAXXZ      00000000640042c0 f   archive.obj
 0001:00003fc0       ??1ArcFormat@@QEAA@XZ      0000000064004fc0 f i archive.obj
 0001:000040b0       ??4ArcFormat@@QEAAAEAU0@AEBU0@@Z 00000000640050b0 f i archive.obj
 0001:00004190       ??1?$map@IIU?$less@I@std@@V?$allocator@U?$pair@$$CBII@std@@@2@@std@@QEAA@XZ 0000000064005190 f i archive.obj
 0001:00004190       ??1?$map@_J_KU?$less@_J@std@@V?$allocator@U?$pair@$$CB_J_K@std@@@2@@std@@QEAA@XZ 0000000064005190 f i ui.obj
 0001:00004190       ??1?$set@IU?$less@I@std@@V?$allocator@I@2@@std@@QEAA@XZ 0000000064005190 f i archive.obj
 0001:000041c0       ?create_in_archive@ArcAPI@@SAXAEBV?$vector@EV?$allocator@E@std@@@std@@PEAPEAUIInArchive@@@Z 00000000640051c0 f   archive.obj
 0001:00004280       ?create_out_archive@ArcAPI@@SAXAEBV?$vector@EV?$allocator@E@std@@@std@@PEAPEAUIOutArchive@@@Z 0000000064005280 f   archive.obj
 0001:00004340       ?get_default_name@Archive@@AEBA?AV?$basic_string@_WU?$char_traits@_W@std@@V?$allocator@_W@2@@std@@XZ 0000000064005340 f   archive.obj
 0001:000046b0       ?get_temp_file_name@Archive@@AEBA?AV?$basic_string@_WU?$char_traits@_W@std@@V?$allocator@_W@2@@std@@XZ 00000000640056b0 f   archive.obj
 0001:000048c0       ?make_index@Archive@@QEAAXXZ 00000000640058c0 f   archive.obj
 0001:00005290       ??1?$set@UDirInfo@?1??make_index@Archive@@QEAAXXZ@U?$less@UDirInfo@?1??make_index@Archive@@QEAAXXZ@@std@@V?$allocator@UDirInfo@?1??make_index@Archive@@QEAAXXZ@@5@@std@@QEAA@XZ 0000000064006290 f i archive.obj
 0001:00005310       ??1ArcFileInfo@@QEAA@XZ    0000000064006310 f i archive.obj
 0001:00005360       ??1?$stack@IV?$deque@IV?$allocator@I@std@@@std@@@std@@QEAA@XZ 0000000064006360 f i archive.obj
 0001:00005390       ?find_dir@Archive@@QEAAIAEBV?$basic_string@_WU?$char_traits@_W@std@@V?$allocator@_W@2@@std@@@Z 0000000064006390 f   archive.obj
 0001:000055f0       ?get_dir_list@Archive@@QEAA?AU?$pair@V?$_Vector_const_iterator@V?$_Vector_val@U?$_Simple_types@I@std@@@std@@@std@@V12@@std@@I@Z 00000000640065f0 f   archive.obj
 0001:000056c0       ?get_file_info@Archive@@QEAA?AUFindData@@I@Z 00000000640066c0 f   archive.obj
 0001:000057b0       ?get_main_file@Archive@@QEBA_NAEAI@Z 00000000640067b0 f   archive.obj
 0001:000058d0       ?get_attr@Archive@@QEBAKI@Z 00000000640068d0 f   archive.obj
 0001:00005a40       ?get_size@Archive@@QEBA_KI@Z 0000000064006a40 f   archive.obj
 0001:00005ba0       ?get_psize@Archive@@QEBA_KI@Z 0000000064006ba0 f   archive.obj
 0001:00005d00       ?get_ctime@Archive@@QEBA?AU_FILETIME@@I@Z 0000000064006d00 f   archive.obj
 0001:00005ee0       ?get_mtime@Archive@@QEBA?AU_FILETIME@@I@Z 0000000064006ee0 f   archive.obj
 0001:000060c0       ?get_atime@Archive@@QEBA?AU_FILETIME@@I@Z 00000000640070c0 f   archive.obj
 0001:000062a0       ?get_crc@Archive@@QEBAII@Z 00000000640072a0 f   archive.obj
 0001:000063f0       ?get_anti@Archive@@QEBA_NI@Z 00000000640073f0 f   archive.obj
 0001:00006520       ?count@?$_Tree@V?$_Tset_traits@IU?$less@I@std@@V?$allocator@I@2@$0A@@std@@@std@@QEBA_KAEBI@Z 0000000064007520 f i archive.obj
 0001:00006520       ?count@?$_Tree@V?$_Tmap_traits@IIU?$less@I@std@@V?$allocator@U?$pair@$$CBII@std@@@2@$0A@@std@@@std@@QEBA_KAEBI@Z 0000000064007520 f i archive.obj
 0001:00006600       ??A?$map@IIU?$less@I@std@@V?$allocator@U?$pair@$$CBII@std@@@2@@std@@QEAAAEAIAEBI@Z 0000000064007600 f i archive.obj
 0001:000066a0       ??1?$Buffer@E@@QEAA@XZ     00000000640076a0 f i plugin.obj
 0001:000066a0       ??1?$Buffer@UFarDialogItem@@@@QEAA@XZ 00000000640076a0 f i farutils.obj
 0001:000066a0       ??1?$Buffer@_W@@QEAA@XZ    00000000640076a0 f i farutils.obj
 0001:000066a0       ??1?$Buffer@UFarList@@@@QEAA@XZ 00000000640076a0 f i farutils.obj
 0001:000066a0       ??1?$Buffer@D@@QEAA@XZ     00000000640076a0 f i archive.obj
 0001:000066a0       ??1?$Buffer@UFarListItem@@@@QEAA@XZ 00000000640076a0 f i farutils.obj
 0001:000066b0       ?push_back@?$vector@IV?$allocator@I@std@@@std@@QEAAXAEBI@Z 00000000640076b0 f i archive.obj
 0001:00006740       ?push_back@?$vector@UArcFileInfo@@V?$allocator@UArcFileInfo@@@std@@@std@@QEAAXAEBUArcFileInfo@@@Z 0000000064007740 f i archive.obj
 0001:00006880       ?reserve@?$vector@UArcFileInfo@@V?$allocator@UArcFileInfo@@@std@@@std@@QEAAX_K@Z 0000000064007880 f i archive.obj
 0001:000068e0       ?push_back@?$vector@V?$basic_string@_WU?$char_traits@_W@std@@V?$allocator@_W@2@@std@@V?$allocator@V?$basic_string@_WU?$char_traits@_W@std@@V?$allocator@_W@2@@std@@@2@@std@@QEAAXAEBV?$basic_string@_WU?$char_traits@_W@std@@V?$allocator@_W@2@@2@@Z 00000000640078e0 f i plugin.obj
 0001:000068e0       ?push_back@?$vector@USfxModule@@V?$allocator@USfxModule@@@std@@@std@@QEAAXAEBUSfxModule@@@Z 00000000640078e0 f i archive.obj
 0001:000069d0       ?find@?$_Tree@V?$_Tmap_traits@V?$vector@EV?$allocator@E@std@@@std@@UArcFormat@@U?$less@V?$vector@EV?$allocator@E@std@@@std@@@2@V?$allocator@U?$pair@$$CBV?$vector@EV?$allocator@E@std@@@std@@UArcFormat@@@std@@@2@$0A@@std@@@std@@QEBA?AV?$_Tree_const_iterator@V?$_Tree_val@U?$_Tree_simple_types@U?$pair@$$CBV?$vector@EV?$allocator@E@std@@@std@@UArcFormat@@@std@@@std@@@std@@@2@AEBV?$vector@EV?$allocator@E@std@@@2@@Z 00000000640079d0 f i ui.obj
 0001:000069d0       ?find@?$_Tree@V?$_Tmap_traits@V?$vector@EV?$allocator@E@std@@@std@@UArcFormat@@U?$less@V?$vector@EV?$allocator@E@std@@@std@@@2@V?$allocator@U?$pair@$$CBV?$vector@EV?$allocator@E@std@@@std@@UArcFormat@@@std@@@2@$0A@@std@@@std@@QEAA?AV?$_Tree_iterator@V?$_Tree_val@U?$_Tree_simple_types@U?$pair@$$CBV?$vector@EV?$allocator@E@std@@@std@@UArcFormat@@@std@@@std@@@std@@@2@AEBV?$vector@EV?$allocator@E@std@@@2@@Z 00000000640079d0 f i archive.obj
 0001:00006a70       ?at@?$map@V?$vector@EV?$allocator@E@std@@@std@@UArcFormat@@U?$less@V?$vector@EV?$allocator@E@std@@@std@@@2@V?$allocator@U?$pair@$$CBV?$vector@EV?$allocator@E@std@@@std@@UArcFormat@@@std@@@2@@std@@QEBAAEBUArcFormat@@AEBV?$vector@EV?$allocator@E@std@@@2@@Z 0000000064007a70 f i archive.obj
 0001:00006af0       ??A?$map@V?$vector@EV?$allocator@E@std@@@std@@UArcFormat@@U?$less@V?$vector@EV?$allocator@E@std@@@std@@@2@V?$allocator@U?$pair@$$CBV?$vector@EV?$allocator@E@std@@@std@@UArcFormat@@@std@@@2@@std@@QEAAAEAUArcFormat@@AEBV?$vector@EV?$allocator@E@std@@@1@@Z 0000000064007af0 f i archive.obj
 0001:00006ba0       ?push_back@?$vector@UArcLib@@V?$allocator@UArcLib@@@std@@@std@@QEAAXAEBUArcLib@@@Z 0000000064007ba0 f i archive.obj
 0001:00006c60       ??1?$vector@UArcLib@@V?$allocator@UArcLib@@@std@@@std@@QEAA@XZ 0000000064007c60 f i archive.obj
 0001:00006cc0       ?push_back@?$vector@V?$vector@EV?$allocator@E@std@@@std@@V?$allocator@V?$vector@EV?$allocator@E@std@@@std@@@2@@std@@QEAAXAEBV?$vector@EV?$allocator@E@std@@@2@@Z 0000000064007cc0 f i archive.obj
 0001:00006d80       ??4?$vector@V?$vector@EV?$allocator@E@std@@@std@@V?$allocator@V?$vector@EV?$allocator@E@std@@@std@@@2@@std@@QEAAAEAV01@AEBV01@@Z 0000000064007d80 f i archive.obj
 0001:00006f40       ??1?$vector@V?$vector@EV?$allocator@E@std@@@std@@V?$allocator@V?$vector@EV?$allocator@E@std@@@std@@@2@@std@@QEAA@XZ 0000000064007f40 f i archive.obj
 0001:00006fa0       ??A?$map@V?$basic_string@_WU?$char_traits@_W@std@@V?$allocator@_W@2@@std@@V12@U?$less@V?$basic_string@_WU?$char_traits@_W@std@@V?$allocator@_W@2@@std@@@2@V?$allocator@U?$pair@$$CBV?$basic_string@_WU?$char_traits@_W@std@@V?$allocator@_W@2@@std@@V12@@std@@@2@@std@@QEAAAEAV?$basic_string@_WU?$char_traits@_W@std@@V?$allocator@_W@2@@1@$$QEAV21@@Z 0000000064007fa0 f i archive.obj
 0001:00007030       ??1?$list@UArcEntry@@V?$allocator@UArcEntry@@@std@@@std@@QEAA@XZ 0000000064008030 f i plugin.obj
 0001:00007030       ??1ArcChain@@QEAA@XZ       0000000064008030 f i plugin.obj
 0001:00007030       ??1?$list@V?$vector@EV?$allocator@E@std@@@std@@V?$allocator@V?$vector@EV?$allocator@E@std@@@std@@@2@@std@@QEAA@XZ 0000000064008030 f i archive.obj
 0001:00007050       ?data@?$vector@EV?$allocator@E@std@@@std@@QEAAPEAEXZ 0000000064008050 f i archive.obj
 0001:00007060       ?size@?$vector@EV?$allocator@E@std@@@std@@QEBA_KXZ 0000000064008060 f i archive.obj
 0001:00007070       ??4?$vector@EV?$allocator@E@std@@@std@@QEAAAEAV01@AEBV01@@Z 0000000064008070 f i archive.obj
 0001:00007190       ??1?$vector@EV?$allocator@E@std@@@std@@QEAA@XZ 0000000064008190 f i archive.obj
 0001:00007190       ??1VersionEncoder@@QEAA@XZ 0000000064008190 f i rsrc.obj
 0001:00007190       ??1ArcEntry@@QEAA@XZ       0000000064008190 f i plugin.obj
 0001:000071a0       ??0?$vector@EV?$allocator@E@std@@@std@@QEAA@AEBV01@@Z 00000000640081a0 f i archive.obj
 0001:00007240       ??1?$list@UCacheRecord@FileWriteCache@@V?$allocator@UCacheRecord@FileWriteCache@@@std@@@std@@QEAA@XZ 0000000064008240 f i extract.obj
 0001:00007240       ??1?$list@UIdLang@@V?$allocator@UIdLang@@@std@@@std@@QEAA@XZ 0000000064008240 f i rsrc.obj
 0001:00007240       ??1?$list@V?$basic_string@_WU?$char_traits@_W@std@@V?$allocator@_W@2@@std@@V?$allocator@V?$basic_string@_WU?$char_traits@_W@std@@V?$allocator@_W@2@@std@@@2@@std@@QEAA@XZ 0000000064008240 f i archive.obj
 0001:00007240       ??1?$list@VRsrcId@@V?$allocator@VRsrcId@@@std@@@std@@QEAA@XZ 0000000064008240 f i rsrc.obj
 0001:00007260       ??0?$list@V?$basic_string@_WU?$char_traits@_W@std@@V?$allocator@_W@2@@std@@V?$allocator@V?$basic_string@_WU?$char_traits@_W@std@@V?$allocator@_W@2@@std@@@2@@std@@QEAA@AEBV01@@Z 0000000064008260 f i archive.obj
 0001:000072c0       ??0?$list@V?$basic_string@_WU?$char_traits@_W@std@@V?$allocator@_W@2@@std@@V?$allocator@V?$basic_string@_WU?$char_traits@_W@std@@V?$allocator@_W@2@@std@@@2@@std@@QEAA@_KAEBV?$basic_string@_WU?$char_traits@_W@std@@V?$allocator@_W@2@@1@@Z 00000000640082c0 f i archive.obj
 0001:00007310       ?substr@?$basic_string@_WU?$char_traits@_W@std@@V?$allocator@_W@2@@std@@QEBA?AV12@_K0@Z 0000000064008310 f i archive.obj
 0001:00007350       ?_Myptr@?$_String_alloc@U?$_String_base_types@_WV?$allocator@_W@std@@@std@@@std@@QEBAPEB_WXZ 0000000064008350 f i archive.obj
 0001:00007350       ?data@?$basic_string@_WU?$char_traits@_W@std@@V?$allocator@_W@2@@std@@QEBAPEB_WXZ 0000000064008350 f i archive.obj
 0001:00007360       ?insert@?$basic_string@_WU?$char_traits@_W@std@@V?$allocator@_W@2@@std@@QEAAAEAV12@_K0_W@Z 0000000064008360 f i archive.obj
 0001:000074b0       ??4?$basic_string@_WU?$char_traits@_W@std@@V?$allocator@_W@2@@std@@QEAAAEAV01@AEBV01@@Z 00000000640084b0 f i archive.obj
 0001:000074e0       ??4?$basic_string@_WU?$char_traits@_W@std@@V?$allocator@_W@2@@std@@QEAAAEAV01@$$QEAV01@@Z 00000000640084e0 f i archive.obj
 0001:00007550       ??0?$basic_string@_WU?$char_traits@_W@std@@V?$allocator@_W@2@@std@@QEAA@PEB_W@Z 0000000064008550 f i archive.obj
 0001:000075a0       ??0?$basic_string@_WU?$char_traits@_W@std@@V?$allocator@_W@2@@std@@QEAA@XZ 00000000640085a0 f i archive.obj
 0001:000075c0       ??1?$_List_buy@V?$basic_string@_WU?$char_traits@_W@std@@V?$allocator@_W@2@@std@@V?$allocator@V?$basic_string@_WU?$char_traits@_W@std@@V?$allocator@_W@2@@std@@@2@@std@@QEAA@XZ 00000000640085c0 f i archive.obj
 0001:000075c0       ??1?$_Tree_comp_alloc@V?$_Tmap_traits@V?$basic_string@_WU?$char_traits@_W@std@@V?$allocator@_W@2@@std@@V12@U?$less@V?$basic_string@_WU?$char_traits@_W@std@@V?$allocator@_W@2@@std@@@2@V?$allocator@U?$pair@$$CBV?$basic_string@_WU?$char_traits@_W@std@@V?$allocator@_W@2@@std@@V12@@std@@@2@$0A@@std@@@std@@QEAA@XZ 00000000640085c0 f i archive.obj
 0001:000075c0       ??1?$_List_buy@UIconImageRsrc@@V?$allocator@UIconImageRsrc@@@std@@@std@@QEAA@XZ 00000000640085c0 f i rsrc.obj
 0001:000075d0       ?_Tidy@?$deque@IV?$allocator@I@std@@@std@@IEAAXXZ 00000000640085d0 f i archive.obj
 0001:000076c0       ?push_back@?$deque@IV?$allocator@I@std@@@std@@QEAAXAEBI@Z 00000000640086c0 f i archive.obj
 0001:00007790       ?back@?$deque@IV?$allocator@I@std@@@std@@QEAAAEAIXZ 0000000064008790 f i archive.obj
 0001:000077e0       ?_Reserve@?$vector@IV?$allocator@I@std@@@std@@IEAAX_K@Z 00000000640087e0 f i archive.obj
 0001:00007870       ?_Reallocate@?$vector@IV?$allocator@I@std@@@std@@IEAAX_K@Z 0000000064008870 f i archive.obj
 0001:00007900       ?_Reserve@?$vector@UArcFileInfo@@V?$allocator@UArcFileInfo@@@std@@@std@@IEAAX_K@Z 0000000064008900 f i archive.obj
 0001:000079d0       ?_Reallocate@?$vector@UArcFileInfo@@V?$allocator@UArcFileInfo@@@std@@@std@@IEAAX_K@Z 00000000640089d0 f i archive.obj
 0001:00007ab0       ?_Reserve@?$vector@USfxModule@@V?$allocator@USfxModule@@@std@@@std@@IEAAX_K@Z 0000000064008ab0 f i archive.obj
 0001:00007ab0       ?_Reserve@?$vector@V?$basic_string@_WU?$char_traits@_W@std@@V?$allocator@_W@2@@std@@V?$allocator@V?$basic_string@_WU?$char_traits@_W@std@@V?$allocator@_W@2@@std@@@2@@std@@IEAAX_K@Z 0000000064008ab0 f i plugin.obj
 0001:00007b40       ??R?$less@V?$vector@EV?$allocator@E@std@@@std@@@std@@QEBA_NAEBV?$vector@EV?$allocator@E@std@@@1@0@Z 0000000064008b40 f i archive.obj
 0001:00007ba0       ?_Reserve@?$vector@UArcLib@@V?$allocator@UArcLib@@@std@@@std@@IEAAX_K@Z 0000000064008ba0 f i archive.obj
 0001:00007c70       ?_Reserve@?$vector@V?$vector@EV?$allocator@E@std@@@std@@V?$allocator@V?$vector@EV?$allocator@E@std@@@std@@@2@@std@@IEAAX_K@Z 0000000064008c70 f i archive.obj
 0001:00007d40       ?_Buy@?$vector@V?$vector@EV?$allocator@E@std@@@std@@V?$allocator@V?$vector@EV?$allocator@E@std@@@std@@@2@@std@@IEAA_N_K@Z 0000000064008d40 f i archive.obj
 0001:00007db0       ?deallocate@?$_Wrap_alloc@V?$allocator@D@std@@@std@@QEAAXPEAD_K@Z 0000000064008db0 f i archive.obj
 0001:00007db0       ?deallocate@?$_Wrap_alloc@V?$allocator@E@std@@@std@@QEAAXPEAE_K@Z 0000000064008db0 f i archive.obj
 0001:00007e10       ?_Lock@?$basic_streambuf@_WU?$char_traits@_W@std@@@std@@UEAAXXZ 0000000064008e10 f i ui.obj
 0001:00007e10       __except_validate_context_record 0000000064008e10 f i libvcruntime:jbcxrval.obj
 0001:00007e10       _guard_check_icall_nop     0000000064008e10 f i LIBCMT:guard_support.obj
 0001:00007e10       ?imbue@?$basic_streambuf@_WU?$char_traits@_W@std@@@std@@MEAAXAEBVlocale@2@@Z 0000000064008e10 f i ui.obj
 0001:00007e10       ?_Destroy@?$vector@EV?$allocator@E@std@@@std@@IEAAXPEAE0@Z 0000000064008e10 f i archive.obj
 0001:00007e10       ??3@YAXPEAX0@Z             0000000064008e10 f i archive.obj
 0001:00007e10       ?_Orphan_all@?$_Vector_alloc@U?$_Vec_base_types@EV?$allocator@E@std@@@std@@@std@@QEAAXXZ 0000000064008e10 f i archive.obj
 0001:00007e10       ??$destroy@PEAU?$_List_node@V?$basic_string@_WU?$char_traits@_W@std@@V?$allocator@_W@2@@std@@PEAX@std@@@?$_Wrap_alloc@V?$allocator@U?$_List_node@V?$basic_string@_WU?$char_traits@_W@std@@V?$allocator@_W@2@@std@@PEAX@std@@@std@@@std@@QEAAXPEAPEAU?$_List_node@V?$basic_string@_WU?$char_traits@_W@std@@V?$allocator@_W@2@@std@@PEAX@1@@Z 0000000064008e10 f i archive.obj
 0001:00007e10       ??$destroy@PEA_W@?$_Wrap_alloc@V?$allocator@_W@std@@@std@@QEAAXPEAPEA_W@Z 0000000064008e10 f i archive.obj
 0001:00007e10       ?_Unlock@?$basic_streambuf@_WU?$char_traits@_W@std@@@std@@UEAAXXZ 0000000064008e10 f i ui.obj
 0001:00007e20       ?deallocate@?$_Wrap_alloc@V?$allocator@V?$vector@EV?$allocator@E@std@@@std@@@std@@@std@@QEAAXPEAV?$vector@EV?$allocator@E@std@@@2@_K@Z 0000000064008e20 f i archive.obj
 0001:00007e20       ?deallocate@?$_Wrap_alloc@V?$allocator@VPropVariant@@@std@@@std@@QEAAXPEAVPropVariant@@_K@Z 0000000064008e20 f i update.obj
 0001:00007e20       ?deallocate@?$_Wrap_alloc@V?$allocator@UInfoPanelLine@@@std@@@std@@QEAAXPEAUInfoPanelLine@@_K@Z 0000000064008e20 f i plugin.obj
 0001:00007e90       ?_Tidy@?$vector@EV?$allocator@E@std@@@std@@IEAAXXZ 0000000064008e90 f i archive.obj
 0001:00007f10       ?_Buy@?$vector@EV?$allocator@E@std@@@std@@IEAA_N_K@Z 0000000064008f10 f i archive.obj
 0001:00007f70       ?clear@?$list@VRsrcId@@V?$allocator@VRsrcId@@@std@@@std@@QEAAXXZ 0000000064008f70 f i rsrc.obj
 0001:00007f70       ?clear@?$list@UIdLang@@V?$allocator@UIdLang@@@std@@@std@@QEAAXXZ 0000000064008f70 f i rsrc.obj
 0001:00007f70       ?clear@?$list@V?$basic_string@_WU?$char_traits@_W@std@@V?$allocator@_W@2@@std@@V?$allocator@V?$basic_string@_WU?$char_traits@_W@std@@V?$allocator@_W@2@@std@@@2@@std@@QEAAXXZ 0000000064008f70 f i archive.obj
 0001:00007f70       ?clear@?$list@UCacheRecord@FileWriteCache@@V?$allocator@UCacheRecord@FileWriteCache@@@std@@@std@@QEAAXXZ 0000000064008f70 f i extract.obj
 0001:00008070       ?_Construct_n@?$list@V?$basic_string@_WU?$char_traits@_W@std@@V?$allocator@_W@2@@std@@V?$allocator@V?$basic_string@_WU?$char_traits@_W@std@@V?$allocator@_W@2@@std@@@2@@std@@QEAAX_KAEBV?$basic_string@_WU?$char_traits@_W@std@@V?$allocator@_W@2@@2@@Z 0000000064009070 f i archive.obj
 0001:000080a0       ?replace@?$basic_string@_WU?$char_traits@_W@std@@V?$allocator@_W@2@@std@@QEAAAEAV12@_K0AEBV12@00@Z 00000000640090a0 f i archive.obj
 0001:00008460       ?insert@?$basic_string@_WU?$char_traits@_W@std@@V?$allocator@_W@2@@std@@QEAAAEAV12@_KAEBV12@00@Z 0000000064009460 f i archive.obj
 0001:00008610       ??G?$_Deque_iterator@V?$_Deque_val@U?$_Deque_simple_types@I@std@@@std@@@std@@QEBA?AV01@_J@Z 0000000064009610 f i archive.obj
 0001:00008660       ?_Growmap@?$deque@IV?$allocator@I@std@@@std@@IEAAX_K@Z 0000000064009660 f i archive.obj
 0001:000088e0       ?end@?$deque@IV?$allocator@I@std@@@std@@QEAA?AV?$_Deque_iterator@V?$_Deque_val@U?$_Deque_simple_types@I@std@@@std@@@2@XZ 00000000640098e0 f i archive.obj
 0001:00008900       ?erase@?$_Tree@V?$_Tmap_traits@IUFileIndexInfo@@U?$less@I@std@@V?$allocator@U?$pair@$$CBIUFileIndexInfo@@@std@@@3@$0A@@std@@@std@@QEAA?AV?$_Tree_iterator@V?$_Tree_val@U?$_Tree_simple_types@U?$pair@$$CBIUFileIndexInfo@@@std@@@std@@@std@@@2@V?$_Tree_const_iterator@V?$_Tree_val@U?$_Tree_simple_types@U?$pair@$$CBIUFileIndexInfo@@@std@@@std@@@std@@@2@0@Z 0000000064009900 f i update.obj
 0001:00008900       ?erase@?$_Tree@V?$_Tset_traits@UDirInfo@?1??make_index@Archive@@QEAAXXZ@U?$less@UDirInfo@?1??make_index@Archive@@QEAAXXZ@@std@@V?$allocator@UDirInfo@?1??make_index@Archive@@QEAAXXZ@@5@$0A@@std@@@std@@QEAA?AV?$_Tree_const_iterator@V?$_Tree_val@U?$_Tree_simple_types@UDirInfo@?1??make_index@Archive@@QEAAXXZ@@std@@@std@@@2@V32@0@Z 0000000064009900 f i archive.obj
 0001:000089f0       ?erase@?$_Tree@V?$_Tmap_traits@_J_KU?$less@_J@std@@V?$allocator@U?$pair@$$CB_J_K@std@@@2@$0A@@std@@@std@@QEAA?AV?$_Tree_iterator@V?$_Tree_val@U?$_Tree_simple_types@U?$pair@$$CB_J_K@std@@@std@@@std@@@2@V?$_Tree_const_iterator@V?$_Tree_val@U?$_Tree_simple_types@U?$pair@$$CB_J_K@std@@@std@@@std@@@2@0@Z 00000000640099f0 f i ui.obj
 0001:000089f0       ?erase@?$_Tree@V?$_Tset_traits@IU?$less@I@std@@V?$allocator@I@2@$0A@@std@@@std@@QEAA?AV?$_Tree_const_iterator@V?$_Tree_val@U?$_Tree_simple_types@I@std@@@std@@@2@V32@0@Z 00000000640099f0 f i archive.obj
 0001:000089f0       ?erase@?$_Tree@V?$_Tmap_traits@IIU?$less@I@std@@V?$allocator@U?$pair@$$CBII@std@@@2@$0A@@std@@@std@@QEAA?AV?$_Tree_iterator@V?$_Tree_val@U?$_Tree_simple_types@U?$pair@$$CBII@std@@@std@@@std@@@2@V?$_Tree_const_iterator@V?$_Tree_val@U?$_Tree_simple_types@U?$pair@$$CBII@std@@@std@@@std@@@2@0@Z 00000000640099f0 f i archive.obj
 0001:00008ad0       ?deallocate@?$_Wrap_alloc@V?$allocator@UArcFileInfo@@@std@@@std@@QEAAXPEAUArcFileInfo@@_K@Z 0000000064009ad0 f i archive.obj
 0001:00008ad0       ?deallocate@?$_Wrap_alloc@V?$allocator@UFarMenuItem@@@std@@@std@@QEAAXPEAUFarMenuItem@@_K@Z 0000000064009ad0 f i farutils.obj
 0001:00008b40       ?deallocate@?$_Wrap_alloc@V?$allocator@I@std@@@std@@QEAAXPEAI_K@Z 0000000064009b40 f i archive.obj
 0001:00008bb0       ?deallocate@?$_Wrap_alloc@V?$allocator@UArcLib@@@std@@@std@@QEAAXPEAUArcLib@@_K@Z 0000000064009bb0 f i archive.obj
 0001:00008c20       ?deallocate@?$_Wrap_alloc@V?$allocator@UFarListItem@@@std@@@std@@QEAAXPEAUFarListItem@@_K@Z 0000000064009c20 f i ui.obj
 0001:00008c20       ?deallocate@?$_Wrap_alloc@V?$allocator@V?$basic_string@_WU?$char_traits@_W@std@@V?$allocator@_W@2@@std@@@std@@@std@@QEAAXPEAV?$basic_string@_WU?$char_traits@_W@std@@V?$allocator@_W@2@@2@_K@Z 0000000064009c20 f i plugin.obj
 0001:00008c20       ?deallocate@?$_Wrap_alloc@V?$allocator@USfxModule@@@std@@@std@@QEAAXPEAUSfxModule@@_K@Z 0000000064009c20 f i archive.obj
 0001:00008c90       ?_Reallocate@?$vector@V?$basic_string@_WU?$char_traits@_W@std@@V?$allocator@_W@2@@std@@V?$allocator@V?$basic_string@_WU?$char_traits@_W@std@@V?$allocator@_W@2@@std@@@2@@std@@IEAAX_K@Z 0000000064009c90 f i plugin.obj
 0001:00008c90       ?_Reallocate@?$vector@USfxModule@@V?$allocator@USfxModule@@@std@@@std@@IEAAX_K@Z 0000000064009c90 f i archive.obj
 0001:00008d20       ?erase@?$_Tree@V?$_Tmap_traits@V?$vector@EV?$allocator@E@std@@@std@@UArcFormat@@U?$less@V?$vector@EV?$allocator@E@std@@@std@@@2@V?$allocator@U?$pair@$$CBV?$vector@EV?$allocator@E@std@@@std@@UArcFormat@@@std@@@2@$0A@@std@@@std@@QEAA?AV?$_Tree_iterator@V?$_Tree_val@U?$_Tree_simple_types@U?$pair@$$CBV?$vector@EV?$allocator@E@std@@@std@@UArcFormat@@@std@@@std@@@std@@@2@V?$_Tree_const_iterator@V?$_Tree_val@U?$_Tree_simple_types@U?$pair@$$CBV?$vector@EV?$allocator@E@std@@@std@@UArcFormat@@@std@@@std@@@std@@@2@0@Z 0000000064009d20 f i archive.obj
 0001:00008e10       ?_Reallocate@?$vector@UArcLib@@V?$allocator@UArcLib@@@std@@@std@@IEAAX_K@Z 0000000064009e10 f i archive.obj
 0001:00008ee0       ?_Reallocate@?$vector@V?$vector@EV?$allocator@E@std@@@std@@V?$allocator@V?$vector@EV?$allocator@E@std@@@std@@@2@@std@@IEAAX_K@Z 0000000064009ee0 f i archive.obj
 0001:00008fb0       ?clear@?$_Tree@V?$_Tmap_traits@V?$basic_string@_WU?$char_traits@_W@std@@V?$allocator@_W@2@@std@@V12@U?$less@V?$basic_string@_WU?$char_traits@_W@std@@V?$allocator@_W@2@@std@@@2@V?$allocator@U?$pair@$$CBV?$basic_string@_WU?$char_traits@_W@std@@V?$allocator@_W@2@@std@@V12@@std@@@2@$0A@@std@@@std@@QEAAXXZ 0000000064009fb0 f i archive.obj
 0001:00009040       ?erase@?$_Tree@V?$_Tmap_traits@V?$basic_string@_WU?$char_traits@_W@std@@V?$allocator@_W@2@@std@@V12@U?$less@V?$basic_string@_WU?$char_traits@_W@std@@V?$allocator@_W@2@@std@@@2@V?$allocator@U?$pair@$$CBV?$basic_string@_WU?$char_traits@_W@std@@V?$allocator@_W@2@@std@@V12@@std@@@2@$0A@@std@@@std@@QEAA?AV?$_Tree_iterator@V?$_Tree_val@U?$_Tree_simple_types@U?$pair@$$CBV?$basic_string@_WU?$char_traits@_W@std@@V?$allocator@_W@2@@std@@V12@@std@@@std@@@std@@@2@V?$_Tree_const_iterator@V?$_Tree_val@U?$_Tree_simple_types@U?$pair@$$CBV?$basic_string@_WU?$char_traits@_W@std@@V?$allocator@_W@2@@std@@V12@@std@@@std@@@std@@@2@0@Z 000000006400a040 f i archive.obj
 0001:00009120       ?allocate@?$_Wrap_alloc@V?$allocator@D@std@@@std@@QEAAPEAD_K@Z 000000006400a120 f i archive.obj
 0001:00009120       ?allocate@?$_Wrap_alloc@V?$allocator@E@std@@@std@@QEAAPEAE_K@Z 000000006400a120 f i archive.obj
 0001:00009190       ??$?0V?$allocator@V?$basic_string@_WU?$char_traits@_W@std@@V?$allocator@_W@2@@std@@@std@@@?$_Wrap_alloc@V?$allocator@U?$_List_node@V?$basic_string@_WU?$char_traits@_W@std@@V?$allocator@_W@2@@std@@PEAX@std@@@std@@@std@@QEAA@AEBV?$allocator@V?$basic_string@_WU?$char_traits@_W@std@@V?$allocator@_W@2@@std@@@1@@Z 000000006400a190 f i archive.obj
 0001:00009190       ?setbuf@?$basic_streambuf@_WU?$char_traits@_W@std@@@std@@MEAAPEAV12@PEA_W_J@Z 000000006400a190 f i ui.obj
 0001:00009190       ??0?$_Wrap_alloc@V?$allocator@E@std@@@std@@QEAA@AEBV?$allocator@E@1@@Z 000000006400a190 f i archive.obj
 0001:00009190       ??0?$_Wrap_alloc@V?$allocator@_W@std@@@std@@QEAA@AEBV?$allocator@_W@1@@Z 000000006400a190 f i archive.obj
 0001:000091a0       ?clear@?$list@UArcEntry@@V?$allocator@UArcEntry@@@std@@@std@@QEAAXXZ 000000006400a1a0 f i plugin.obj
 0001:000091a0       ?clear@?$list@V?$vector@EV?$allocator@E@std@@@std@@V?$allocator@V?$vector@EV?$allocator@E@std@@@std@@@2@@std@@QEAAXXZ 000000006400a1a0 f i archive.obj
 0001:00009270       ?_Insert_n@?$list@V?$basic_string@_WU?$char_traits@_W@std@@V?$allocator@_W@2@@std@@V?$allocator@V?$basic_string@_WU?$char_traits@_W@std@@V?$allocator@_W@2@@std@@@2@@std@@QEAAXV?$_List_unchecked_const_iterator@V?$_List_val@U?$_List_simple_types@V?$basic_string@_WU?$char_traits@_W@std@@V?$allocator@_W@2@@std@@@std@@@std@@U_Iterator_base0@2@@2@_KAEBV?$basic_string@_WU?$char_traits@_W@std@@V?$allocator@_W@2@@2@@Z 000000006400a270 f i archive.obj
 0001:00009320       ?append@?$basic_string@_WU?$char_traits@_W@std@@V?$allocator@_W@2@@std@@QEAAAEAV12@PEB_W_K@Z 000000006400a320 f i archive.obj
 0001:00009490       ?append@?$basic_string@_WU?$char_traits@_W@std@@V?$allocator@_W@2@@std@@QEAAAEAV12@AEBV12@_K1@Z 000000006400a490 f i archive.obj
 0001:000095c0       ?erase@?$_Tree@V?$_Tset_traits@UDirInfo@?1??make_index@Archive@@QEAAXXZ@U?$less@UDirInfo@?1??make_index@Archive@@QEAAXXZ@@std@@V?$allocator@UDirInfo@?1??make_index@Archive@@QEAAXXZ@@5@$0A@@std@@@std@@QEAA?AV?$_Tree_const_iterator@V?$_Tree_val@U?$_Tree_simple_types@UDirInfo@?1??make_index@Archive@@QEAAXXZ@@std@@@std@@@2@V32@@Z 000000006400a5c0 f i archive.obj
 0001:000095c0       ?erase@?$_Tree@V?$_Tmap_traits@IUFileIndexInfo@@U?$less@I@std@@V?$allocator@U?$pair@$$CBIUFileIndexInfo@@@std@@@3@$0A@@std@@@std@@QEAA?AV?$_Tree_iterator@V?$_Tree_val@U?$_Tree_simple_types@U?$pair@$$CBIUFileIndexInfo@@@std@@@std@@@std@@@2@V?$_Tree_const_iterator@V?$_Tree_val@U?$_Tree_simple_types@U?$pair@$$CBIUFileIndexInfo@@@std@@@std@@@std@@@2@@Z 000000006400a5c0 f i update.obj
 0001:00009a70       ?clear@?$_Tree@V?$_Tmap_traits@_J_KU?$less@_J@std@@V?$allocator@U?$pair@$$CB_J_K@std@@@2@$0A@@std@@@std@@QEAAXXZ 000000006400aa70 f i ui.obj
 0001:00009a70       ?clear@?$_Tree@V?$_Tmap_traits@IIU?$less@I@std@@V?$allocator@U?$pair@$$CBII@std@@@2@$0A@@std@@@std@@QEAAXXZ 000000006400aa70 f i archive.obj
 0001:00009a70       ?clear@?$_Tree@V?$_Tset_traits@IU?$less@I@std@@V?$allocator@I@2@$0A@@std@@@std@@QEAAXXZ 000000006400aa70 f i archive.obj
 0001:00009af0       ?erase@?$_Tree@V?$_Tset_traits@IU?$less@I@std@@V?$allocator@I@2@$0A@@std@@@std@@QEAA?AV?$_Tree_const_iterator@V?$_Tree_val@U?$_Tree_simple_types@I@std@@@std@@@2@V32@@Z 000000006400aaf0 f i archive.obj
 0001:00009af0       ?erase@?$_Tree@V?$_Tmap_traits@_J_KU?$less@_J@std@@V?$allocator@U?$pair@$$CB_J_K@std@@@2@$0A@@std@@@std@@QEAA?AV?$_Tree_iterator@V?$_Tree_val@U?$_Tree_simple_types@U?$pair@$$CB_J_K@std@@@std@@@std@@@2@V?$_Tree_const_iterator@V?$_Tree_val@U?$_Tree_simple_types@U?$pair@$$CB_J_K@std@@@std@@@std@@@2@@Z 000000006400aaf0 f i ui.obj
 0001:00009af0       ?erase@?$_Tree@V?$_Tmap_traits@IIU?$less@I@std@@V?$allocator@U?$pair@$$CBII@std@@@2@$0A@@std@@@std@@QEAA?AV?$_Tree_iterator@V?$_Tree_val@U?$_Tree_simple_types@U?$pair@$$CBII@std@@@std@@@std@@@2@V?$_Tree_const_iterator@V?$_Tree_val@U?$_Tree_simple_types@U?$pair@$$CBII@std@@@std@@@std@@@2@@Z 000000006400aaf0 f i archive.obj
 0001:00009f00       ?allocate@?$allocator@I@std@@QEAAPEAI_K@Z 000000006400af00 f i archive.obj
 0001:00009f80       ?allocate@?$allocator@UFarMenuItem@@@std@@QEAAPEAUFarMenuItem@@_K@Z 000000006400af80 f i farutils.obj
 0001:00009f80       ?allocate@?$allocator@UArcFileInfo@@@std@@QEAAPEAUArcFileInfo@@_K@Z 000000006400af80 f i archive.obj
 0001:0000a000       ?erase@?$_Tree@V?$_Tmap_traits@V?$vector@EV?$allocator@E@std@@@std@@UArcFormat@@U?$less@V?$vector@EV?$allocator@E@std@@@std@@@2@V?$allocator@U?$pair@$$CBV?$vector@EV?$allocator@E@std@@@std@@UArcFormat@@@std@@@2@$0A@@std@@@std@@QEAA?AV?$_Tree_iterator@V?$_Tree_val@U?$_Tree_simple_types@U?$pair@$$CBV?$vector@EV?$allocator@E@std@@@std@@UArcFormat@@@std@@@std@@@std@@@2@V?$_Tree_const_iterator@V?$_Tree_val@U?$_Tree_simple_types@U?$pair@$$CBV?$vector@EV?$allocator@E@std@@@std@@UArcFormat@@@std@@@std@@@std@@@2@@Z 000000006400b000 f i archive.obj
 0001:0000a490       ?_Erase@?$_Tree@V?$_Tmap_traits@V?$basic_string@_WU?$char_traits@_W@std@@V?$allocator@_W@2@@std@@V12@U?$less@V?$basic_string@_WU?$char_traits@_W@std@@V?$allocator@_W@2@@std@@@2@V?$allocator@U?$pair@$$CBV?$basic_string@_WU?$char_traits@_W@std@@V?$allocator@_W@2@@std@@V12@@std@@@2@$0A@@std@@@std@@IEAAXPEAU?$_Tree_node@U?$pair@$$CBV?$basic_string@_WU?$char_traits@_W@std@@V?$allocator@_W@2@@std@@V12@@std@@PEAX@2@@Z 000000006400b490 f i archive.obj
 0001:0000a4f0       ?erase@?$_Tree@V?$_Tmap_traits@V?$basic_string@_WU?$char_traits@_W@std@@V?$allocator@_W@2@@std@@V12@U?$less@V?$basic_string@_WU?$char_traits@_W@std@@V?$allocator@_W@2@@std@@@2@V?$allocator@U?$pair@$$CBV?$basic_string@_WU?$char_traits@_W@std@@V?$allocator@_W@2@@std@@V12@@std@@@2@$0A@@std@@@std@@QEAA?AV?$_Tree_iterator@V?$_Tree_val@U?$_Tree_simple_types@U?$pair@$$CBV?$basic_string@_WU?$char_traits@_W@std@@V?$allocator@_W@2@@std@@V12@@std@@@std@@@std@@@2@V?$_Tree_const_iterator@V?$_Tree_val@U?$_Tree_simple_types@U?$pair@$$CBV?$basic_string@_WU?$char_traits@_W@std@@V?$allocator@_W@2@@std@@V12@@std@@@std@@@std@@@2@@Z 000000006400b4f0 f i archive.obj
 0001:0000a910       ?allocate@?$allocator@VPropVariant@@@std@@QEAAPEAVPropVariant@@_K@Z 000000006400b910 f i update.obj
 0001:0000a910       ?allocate@?$allocator@UInfoPanelLine@@@std@@QEAAPEAUInfoPanelLine@@_K@Z 000000006400b910 f i plugin.obj
 0001:0000a910       ?allocate@?$allocator@V?$vector@EV?$allocator@E@std@@@std@@@std@@QEAAPEAV?$vector@EV?$allocator@E@std@@@2@_K@Z 000000006400b910 f i archive.obj
 0001:0000a990       ?_Unchecked_erase@?$list@UCacheRecord@FileWriteCache@@V?$allocator@UCacheRecord@FileWriteCache@@@std@@@std@@QEAAXV?$_List_unchecked_const_iterator@V?$_List_val@U?$_List_simple_types@UCacheRecord@FileWriteCache@@@std@@@std@@U_Iterator_base0@2@@2@@Z 000000006400b990 f i extract.obj
 0001:0000a990       ?_Unchecked_erase@?$list@V?$basic_string@_WU?$char_traits@_W@std@@V?$allocator@_W@2@@std@@V?$allocator@V?$basic_string@_WU?$char_traits@_W@std@@V?$allocator@_W@2@@std@@@2@@std@@QEAAXV?$_List_unchecked_const_iterator@V?$_List_val@U?$_List_simple_types@V?$basic_string@_WU?$char_traits@_W@std@@V?$allocator@_W@2@@std@@@std@@@std@@U_Iterator_base0@2@@2@@Z 000000006400b990 f i archive.obj
 0001:0000aa10       ?_Buyheadnode@?$_Tree_comp_alloc@V?$_Tset_traits@UDirInfo@?1??make_index@Archive@@QEAAXXZ@U?$less@UDirInfo@?1??make_index@Archive@@QEAAXXZ@@std@@V?$allocator@UDirInfo@?1??make_index@Archive@@QEAAXXZ@@5@$0A@@std@@@std@@QEAAPEAU?$_Tree_node@UDirInfo@?1??make_index@Archive@@QEAAXXZ@PEAX@2@XZ 000000006400ba10 f i archive.obj
 0001:0000aa50       ?_Rrotate@?$_Tree@V?$_Tset_traits@V?$vector@EV?$allocator@E@std@@@std@@U?$less@V?$vector@EV?$allocator@E@std@@@std@@@2@V?$allocator@V?$vector@EV?$allocator@E@std@@@std@@@2@$0A@@std@@@std@@IEAAXPEAU?$_Tree_node@V?$vector@EV?$allocator@E@std@@@std@@PEAX@2@@Z 000000006400ba50 f i open.obj
 0001:0000aa50       ?_Rrotate@?$_Tree@V?$_Tset_traits@UDirInfo@?1??make_index@Archive@@QEAAXXZ@U?$less@UDirInfo@?1??make_index@Archive@@QEAAXXZ@@std@@V?$allocator@UDirInfo@?1??make_index@Archive@@QEAAXXZ@@5@$0A@@std@@@std@@IEAAXPEAU?$_Tree_node@UDirInfo@?1??make_index@Archive@@QEAAXXZ@PEAX@2@@Z 000000006400ba50 f i archive.obj
 0001:0000aa50       ?_Rrotate@?$_Tree@V?$_Tmap_traits@_J_KU?$less@_J@std@@V?$allocator@U?$pair@$$CB_J_K@std@@@2@$0A@@std@@@std@@IEAAXPEAU?$_Tree_node@U?$pair@$$CB_J_K@std@@PEAX@2@@Z 000000006400ba50 f i ui.obj
 0001:0000aa50       ?_Rrotate@?$_Tree@V?$_Tset_traits@V?$basic_string@_WU?$char_traits@_W@std@@V?$allocator@_W@2@@std@@U?$less@V?$basic_string@_WU?$char_traits@_W@std@@V?$allocator@_W@2@@std@@@2@V?$allocator@V?$basic_string@_WU?$char_traits@_W@std@@V?$allocator@_W@2@@std@@@2@$0A@@std@@@std@@IEAAXPEAU?$_Tree_node@V?$basic_string@_WU?$char_traits@_W@std@@V?$allocator@_W@2@@std@@PEAX@2@@Z 000000006400ba50 f i plugin.obj
 0001:0000aa50       ?_Rrotate@?$_Tree@V?$_Tmap_traits@IIU?$less@I@std@@V?$allocator@U?$pair@$$CBII@std@@@2@$0A@@std@@@std@@IEAAXPEAU?$_Tree_node@U?$pair@$$CBII@std@@PEAX@2@@Z 000000006400ba50 f i archive.obj
 0001:0000aa50       ?_Rrotate@?$_Tree@V?$_Tmap_traits@V?$vector@EV?$allocator@E@std@@@std@@UArcFormat@@U?$less@V?$vector@EV?$allocator@E@std@@@std@@@2@V?$allocator@U?$pair@$$CBV?$vector@EV?$allocator@E@std@@@std@@UArcFormat@@@std@@@2@$0A@@std@@@std@@IEAAXPEAU?$_Tree_node@U?$pair@$$CBV?$vector@EV?$allocator@E@std@@@std@@UArcFormat@@@std@@PEAX@2@@Z 000000006400ba50 f i archive.obj
 0001:0000aa50       ?_Rrotate@?$_Tree@V?$_Tmap_traits@IUFileIndexInfo@@U?$less@I@std@@V?$allocator@U?$pair@$$CBIUFileIndexInfo@@@std@@@3@$0A@@std@@@std@@IEAAXPEAU?$_Tree_node@U?$pair@$$CBIUFileIndexInfo@@@std@@PEAX@2@@Z 000000006400ba50 f i update.obj
 0001:0000aa50       ?_Rrotate@?$_Tree@V?$_Tmap_traits@V?$basic_string@_WU?$char_traits@_W@std@@V?$allocator@_W@2@@std@@V12@U?$less@V?$basic_string@_WU?$char_traits@_W@std@@V?$allocator@_W@2@@std@@@2@V?$allocator@U?$pair@$$CBV?$basic_string@_WU?$char_traits@_W@std@@V?$allocator@_W@2@@std@@V12@@std@@@2@$0A@@std@@@std@@IEAAXPEAU?$_Tree_node@U?$pair@$$CBV?$basic_string@_WU?$char_traits@_W@std@@V?$allocator@_W@2@@std@@V12@@std@@PEAX@2@@Z 000000006400ba50 f i archive.obj
 0001:0000aa50       ?_Rrotate@?$_Tree@V?$_Tset_traits@IU?$less@I@std@@V?$allocator@I@2@$0A@@std@@@std@@IEAAXPEAU?$_Tree_node@IPEAX@2@@Z 000000006400ba50 f i archive.obj
 0001:0000aa50       ?_Rrotate@?$_Tree@V?$_Tset_traits@V?$basic_string@_WU?$char_traits@_W@std@@V?$allocator@_W@2@@std@@UItemCompare@?1??show@MultiSelectDialog@@QEAA_NXZ@V?$allocator@V?$basic_string@_WU?$char_traits@_W@std@@V?$allocator@_W@2@@std@@@2@$0A@@std@@@std@@IEAAXPEAU?$_Tree_node@V?$basic_string@_WU?$char_traits@_W@std@@V?$allocator@_W@2@@std@@PEAX@2@@Z 000000006400ba50 f i ui.obj
 0001:0000aab0       ?_Lrotate@?$_Tree@V?$_Tset_traits@IU?$less@I@std@@V?$allocator@I@2@$0A@@std@@@std@@IEAAXPEAU?$_Tree_node@IPEAX@2@@Z 000000006400bab0 f i archive.obj
 0001:0000aab0       ?_Lrotate@?$_Tree@V?$_Tmap_traits@V?$basic_string@_WU?$char_traits@_W@std@@V?$allocator@_W@2@@std@@V12@U?$less@V?$basic_string@_WU?$char_traits@_W@std@@V?$allocator@_W@2@@std@@@2@V?$allocator@U?$pair@$$CBV?$basic_string@_WU?$char_traits@_W@std@@V?$allocator@_W@2@@std@@V12@@std@@@2@$0A@@std@@@std@@IEAAXPEAU?$_Tree_node@U?$pair@$$CBV?$basic_string@_WU?$char_traits@_W@std@@V?$allocator@_W@2@@std@@V12@@std@@PEAX@2@@Z 000000006400bab0 f i archive.obj
 0001:0000aab0       ?_Lrotate@?$_Tree@V?$_Tmap_traits@V?$vector@EV?$allocator@E@std@@@std@@UArcFormat@@U?$less@V?$vector@EV?$allocator@E@std@@@std@@@2@V?$allocator@U?$pair@$$CBV?$vector@EV?$allocator@E@std@@@std@@UArcFormat@@@std@@@2@$0A@@std@@@std@@IEAAXPEAU?$_Tree_node@U?$pair@$$CBV?$vector@EV?$allocator@E@std@@@std@@UArcFormat@@@std@@PEAX@2@@Z 000000006400bab0 f i archive.obj
 0001:0000aab0       ?_Lrotate@?$_Tree@V?$_Tmap_traits@_J_KU?$less@_J@std@@V?$allocator@U?$pair@$$CB_J_K@std@@@2@$0A@@std@@@std@@IEAAXPEAU?$_Tree_node@U?$pair@$$CB_J_K@std@@PEAX@2@@Z 000000006400bab0 f i ui.obj
 0001:0000aab0       ?_Lrotate@?$_Tree@V?$_Tmap_traits@IUFileIndexInfo@@U?$less@I@std@@V?$allocator@U?$pair@$$CBIUFileIndexInfo@@@std@@@3@$0A@@std@@@std@@IEAAXPEAU?$_Tree_node@U?$pair@$$CBIUFileIndexInfo@@@std@@PEAX@2@@Z 000000006400bab0 f i update.obj
 0001:0000aab0       ?_Lrotate@?$_Tree@V?$_Tset_traits@UDirInfo@?1??make_index@Archive@@QEAAXXZ@U?$less@UDirInfo@?1??make_index@Archive@@QEAAXXZ@@std@@V?$allocator@UDirInfo@?1??make_index@Archive@@QEAAXXZ@@5@$0A@@std@@@std@@IEAAXPEAU?$_Tree_node@UDirInfo@?1??make_index@Archive@@QEAAXXZ@PEAX@2@@Z 000000006400bab0 f i archive.obj
 0001:0000aab0       ?_Lrotate@?$_Tree@V?$_Tmap_traits@IIU?$less@I@std@@V?$allocator@U?$pair@$$CBII@std@@@2@$0A@@std@@@std@@IEAAXPEAU?$_Tree_node@U?$pair@$$CBII@std@@PEAX@2@@Z 000000006400bab0 f i archive.obj
 0001:0000aab0       ?_Lrotate@?$_Tree@V?$_Tset_traits@V?$basic_string@_WU?$char_traits@_W@std@@V?$allocator@_W@2@@std@@U?$less@V?$basic_string@_WU?$char_traits@_W@std@@V?$allocator@_W@2@@std@@@2@V?$allocator@V?$basic_string@_WU?$char_traits@_W@std@@V?$allocator@_W@2@@std@@@2@$0A@@std@@@std@@IEAAXPEAU?$_Tree_node@V?$basic_string@_WU?$char_traits@_W@std@@V?$allocator@_W@2@@std@@PEAX@2@@Z 000000006400bab0 f i plugin.obj
 0001:0000aab0       ?_Lrotate@?$_Tree@V?$_Tset_traits@V?$vector@EV?$allocator@E@std@@@std@@U?$less@V?$vector@EV?$allocator@E@std@@@std@@@2@V?$allocator@V?$vector@EV?$allocator@E@std@@@std@@@2@$0A@@std@@@std@@IEAAXPEAU?$_Tree_node@V?$vector@EV?$allocator@E@std@@@std@@PEAX@2@@Z 000000006400bab0 f i open.obj
 0001:0000aab0       ?_Lrotate@?$_Tree@V?$_Tset_traits@V?$basic_string@_WU?$char_traits@_W@std@@V?$allocator@_W@2@@std@@UItemCompare@?1??show@MultiSelectDialog@@QEAA_NXZ@V?$allocator@V?$basic_string@_WU?$char_traits@_W@std@@V?$allocator@_W@2@@std@@@2@$0A@@std@@@std@@IEAAXPEAU?$_Tree_node@V?$basic_string@_WU?$char_traits@_W@std@@V?$allocator@_W@2@@std@@PEAX@2@@Z 000000006400bab0 f i ui.obj
 0001:0000ab10       ?_Erase@?$_Tree@V?$_Tset_traits@UDirInfo@?1??make_index@Archive@@QEAAXXZ@U?$less@UDirInfo@?1??make_index@Archive@@QEAAXXZ@@std@@V?$allocator@UDirInfo@?1??make_index@Archive@@QEAAXXZ@@5@$0A@@std@@@std@@IEAAXPEAU?$_Tree_node@UDirInfo@?1??make_index@Archive@@QEAAXXZ@PEAX@2@@Z 000000006400bb10 f i archive.obj
 0001:0000ab10       ?_Erase@?$_Tree@V?$_Tmap_traits@IUFileIndexInfo@@U?$less@I@std@@V?$allocator@U?$pair@$$CBIUFileIndexInfo@@@std@@@3@$0A@@std@@@std@@IEAAXPEAU?$_Tree_node@U?$pair@$$CBIUFileIndexInfo@@@std@@PEAX@2@@Z 000000006400bb10 f i update.obj
 0001:0000ac10       ?_Buyheadnode@?$_Tree_comp_alloc@V?$_Tmap_traits@IIU?$less@I@std@@V?$allocator@U?$pair@$$CBII@std@@@2@$0A@@std@@@std@@QEAAPEAU?$_Tree_node@U?$pair@$$CBII@std@@PEAX@2@XZ 000000006400bc10 f i archive.obj
 0001:0000ac50       ?_Erase@?$_Tree@V?$_Tset_traits@IU?$less@I@std@@V?$allocator@I@2@$0A@@std@@@std@@IEAAXPEAU?$_Tree_node@IPEAX@2@@Z 000000006400bc50 f i archive.obj
 0001:0000ac50       ?_Erase@?$_Tree@V?$_Tmap_traits@_J_KU?$less@_J@std@@V?$allocator@U?$pair@$$CB_J_K@std@@@2@$0A@@std@@@std@@IEAAXPEAU?$_Tree_node@U?$pair@$$CB_J_K@std@@PEAX@2@@Z 000000006400bc50 f i ui.obj
 0001:0000ac50       ?_Erase@?$_Tree@V?$_Tmap_traits@IIU?$less@I@std@@V?$allocator@U?$pair@$$CBII@std@@@2@$0A@@std@@@std@@IEAAXPEAU?$_Tree_node@U?$pair@$$CBII@std@@PEAX@2@@Z 000000006400bc50 f i archive.obj
 0001:0000aca0       ?_Buyheadnode@?$_Tree_comp_alloc@V?$_Tset_traits@IU?$less@I@std@@V?$allocator@I@2@$0A@@std@@@std@@QEAAPEAU?$_Tree_node@IPEAX@2@XZ 000000006400bca0 f i archive.obj
 0001:0000ace0       ?allocate@?$allocator@V?$basic_string@_WU?$char_traits@_W@std@@V?$allocator@_W@2@@std@@@std@@QEAAPEAV?$basic_string@_WU?$char_traits@_W@std@@V?$allocator@_W@2@@2@_K@Z 000000006400bce0 f i plugin.obj
 0001:0000ace0       ?allocate@?$allocator@USfxModule@@@std@@QEAAPEAUSfxModule@@_K@Z 000000006400bce0 f i archive.obj
 0001:0000ace0       ?allocate@?$allocator@UFarListItem@@@std@@QEAAPEAUFarListItem@@_K@Z 000000006400bce0 f i ui.obj
 0001:0000ad60       ?_Buyheadnode@?$_Tree_comp_alloc@V?$_Tmap_traits@V?$vector@EV?$allocator@E@std@@@std@@UArcFormat@@U?$less@V?$vector@EV?$allocator@E@std@@@std@@@2@V?$allocator@U?$pair@$$CBV?$vector@EV?$allocator@E@std@@@std@@UArcFormat@@@std@@@2@$0A@@std@@@std@@QEAAPEAU?$_Tree_node@U?$pair@$$CBV?$vector@EV?$allocator@E@std@@@std@@UArcFormat@@@std@@PEAX@2@XZ 000000006400bd60 f i archive.obj
 0001:0000ada0       ?_Erase@?$_Tree@V?$_Tmap_traits@V?$vector@EV?$allocator@E@std@@@std@@UArcFormat@@U?$less@V?$vector@EV?$allocator@E@std@@@std@@@2@V?$allocator@U?$pair@$$CBV?$vector@EV?$allocator@E@std@@@std@@UArcFormat@@@std@@@2@$0A@@std@@@std@@IEAAXPEAU?$_Tree_node@U?$pair@$$CBV?$vector@EV?$allocator@E@std@@@std@@UArcFormat@@@std@@PEAX@2@@Z 000000006400bda0 f i archive.obj
 0001:0000ae80       ?allocate@?$allocator@UArcLib@@@std@@QEAAPEAUArcLib@@_K@Z 000000006400be80 f i archive.obj
 0001:0000af00       ?_Buyheadnode@?$_Tree_comp_alloc@V?$_Tmap_traits@V?$basic_string@_WU?$char_traits@_W@std@@V?$allocator@_W@2@@std@@V12@U?$less@V?$basic_string@_WU?$char_traits@_W@std@@V?$allocator@_W@2@@std@@@2@V?$allocator@U?$pair@$$CBV?$basic_string@_WU?$char_traits@_W@std@@V?$allocator@_W@2@@std@@V12@@std@@@2@$0A@@std@@@std@@QEAAPEAU?$_Tree_node@U?$pair@$$CBV?$basic_string@_WU?$char_traits@_W@std@@V?$allocator@_W@2@@std@@V12@@std@@PEAX@2@XZ 000000006400bf00 f i archive.obj
 0001:0000af40       ?_Buynode0@?$_List_alloc@U?$_List_base_types@V?$vector@EV?$allocator@E@std@@@std@@V?$allocator@V?$vector@EV?$allocator@E@std@@@std@@@2@@std@@@std@@QEAAPEAU?$_List_node@V?$vector@EV?$allocator@E@std@@@std@@PEAX@2@PEAU32@0@Z 000000006400bf40 f i archive.obj
 0001:0000af90       ?_Buynode0@?$_List_alloc@U?$_List_base_types@UIconImage@@V?$allocator@UIconImage@@@std@@@std@@@std@@QEAAPEAU?$_List_node@UIconImage@@PEAX@2@PEAU32@0@Z 000000006400bf90 f i rsrc.obj
 0001:0000af90       ?_Buynode0@?$_List_alloc@U?$_List_base_types@UArcEntry@@V?$allocator@UArcEntry@@@std@@@std@@@std@@QEAAPEAU?$_List_node@UArcEntry@@PEAX@2@PEAU32@0@Z 000000006400bf90 f i plugin.obj
 0001:0000af90       ?_Buynode0@?$_List_alloc@U?$_List_base_types@V?$basic_string@_WU?$char_traits@_W@std@@V?$allocator@_W@2@@std@@V?$allocator@V?$basic_string@_WU?$char_traits@_W@std@@V?$allocator@_W@2@@std@@@2@@std@@@std@@QEAAPEAU?$_List_node@V?$basic_string@_WU?$char_traits@_W@std@@V?$allocator@_W@2@@std@@PEAX@2@PEAU32@0@Z 000000006400bf90 f i archive.obj
 0001:0000afe0       ??$?H_WU?$char_traits@_W@std@@V?$allocator@_W@1@@std@@YA?AV?$basic_string@_WU?$char_traits@_W@std@@V?$allocator@_W@2@@0@$$QEAV10@PEB_W@Z 000000006400bfe0 f i archive.obj
 0001:0000b050       ??$?H_WU?$char_traits@_W@std@@V?$allocator@_W@1@@std@@YA?AV?$basic_string@_WU?$char_traits@_W@std@@V?$allocator@_W@2@@0@$$QEAV10@0@Z 000000006400c050 f i archive.obj
 0001:0000b0e0       ??$for_each@V?$_Vector_iterator@V?$_Vector_val@U?$_Simple_types@UArcFileInfo@@@std@@@std@@@std@@V<lambda_eab59125f452541579e114a311ea59ee>@@@std@@YA?AV<lambda_eab59125f452541579e114a311ea59ee>@@V?$_Vector_iterator@V?$_Vector_val@U?$_Simple_types@UArcFileInfo@@@std@@@std@@@0@0V1@@Z 000000006400c0e0 f i archive.obj
 0001:0000b150       ??$_Copy_impl@PEAV?$vector@EV?$allocator@E@std@@@std@@PEAV12@@std@@YAPEAV?$vector@EV?$allocator@E@std@@@0@PEAV10@00@Z 000000006400c150 f i archive.obj
 0001:0000b1a0       ??$assign@V?$_List_const_iterator@V?$_List_val@U?$_List_simple_types@V?$basic_string@_WU?$char_traits@_W@std@@V?$allocator@_W@2@@std@@@std@@@std@@@std@@@?$list@V?$basic_string@_WU?$char_traits@_W@std@@V?$allocator@_W@2@@std@@V?$allocator@V?$basic_string@_WU?$char_traits@_W@std@@V?$allocator@_W@2@@std@@@2@@std@@QEAAXV?$_List_const_iterator@V?$_List_val@U?$_List_simple_types@V?$basic_string@_WU?$char_traits@_W@std@@V?$allocator@_W@2@@std@@@std@@@std@@@1@0@Z 000000006400c1a0 f i archive.obj
 0001:0000b290       ??$_Insert_nohint@AEBUDirInfo@?1??make_index@Archive@@QEAAXXZ@U_Nil@std@@@?$_Tree@V?$_Tset_traits@UDirInfo@?1??make_index@Archive@@QEAAXXZ@U?$less@UDirInfo@?1??make_index@Archive@@QEAAXXZ@@std@@V?$allocator@UDirInfo@?1??make_index@Archive@@QEAAXXZ@@5@$0A@@std@@@std@@IEAA?AU?$pair@V?$_Tree_const_iterator@V?$_Tree_val@U?$_Tree_simple_types@UDirInfo@?1??make_index@Archive@@QEAAXXZ@@std@@@std@@@std@@_N@1@_NAEBUDirInfo@?1??make_index@Archive@@QEAAXXZ@U_Nil@1@@Z 000000006400c290 f i archive.obj
 0001:0000b460       ??$_Insert_nohint@AEBIU_Nil@std@@@?$_Tree@V?$_Tset_traits@IU?$less@I@std@@V?$allocator@I@2@$0A@@std@@@std@@IEAA?AU?$pair@V?$_Tree_const_iterator@V?$_Tree_val@U?$_Tree_simple_types@I@std@@@std@@@std@@_N@1@_NAEBIU_Nil@1@@Z 000000006400c460 f i archive.obj
 0001:0000b5b0       ??$_Lbound@V?$vector@EV?$allocator@E@std@@@std@@@?$_Tree@V?$_Tmap_traits@V?$vector@EV?$allocator@E@std@@@std@@UArcFormat@@U?$less@V?$vector@EV?$allocator@E@std@@@std@@@2@V?$allocator@U?$pair@$$CBV?$vector@EV?$allocator@E@std@@@std@@UArcFormat@@@std@@@2@$0A@@std@@@std@@IEBAPEAU?$_Tree_node@U?$pair@$$CBV?$vector@EV?$allocator@E@std@@@std@@UArcFormat@@@std@@PEAX@1@AEBV?$vector@EV?$allocator@E@std@@@1@@Z 000000006400c5b0 f i archive.obj
 0001:0000b640       ??$_Lbound@V?$basic_string@_WU?$char_traits@_W@std@@V?$allocator@_W@2@@std@@@?$_Tree@V?$_Tmap_traits@V?$basic_string@_WU?$char_traits@_W@std@@V?$allocator@_W@2@@std@@V12@U?$less@V?$basic_string@_WU?$char_traits@_W@std@@V?$allocator@_W@2@@std@@@2@V?$allocator@U?$pair@$$CBV?$basic_string@_WU?$char_traits@_W@std@@V?$allocator@_W@2@@std@@V12@@std@@@2@$0A@@std@@@std@@IEBAPEAU?$_Tree_node@U?$pair@$$CBV?$basic_string@_WU?$char_traits@_W@std@@V?$allocator@_W@2@@std@@V12@@std@@PEAX@1@AEBV?$basic_string@_WU?$char_traits@_W@std@@V?$allocator@_W@2@@1@@Z 000000006400c640 f i archive.obj
 0001:0000b710       ??$_Copy@U_Copy_tag@?$_Tree@V?$_Tmap_traits@V?$basic_string@_WU?$char_traits@_W@std@@V?$allocator@_W@2@@std@@V12@U?$less@V?$basic_string@_WU?$char_traits@_W@std@@V?$allocator@_W@2@@std@@@2@V?$allocator@U?$pair@$$CBV?$basic_string@_WU?$char_traits@_W@std@@V?$allocator@_W@2@@std@@V12@@std@@@2@$0A@@std@@@std@@@?$_Tree@V?$_Tmap_traits@V?$basic_string@_WU?$char_traits@_W@std@@V?$allocator@_W@2@@std@@V12@U?$less@V?$basic_string@_WU?$char_traits@_W@std@@V?$allocator@_W@2@@std@@@2@V?$allocator@U?$pair@$$CBV?$basic_string@_WU?$char_traits@_W@std@@V?$allocator@_W@2@@std@@V12@@std@@@2@$0A@@std@@@std@@IEAAXAEBV01@U_Copy_tag@01@@Z 000000006400c710 f i archive.obj
 0001:0000b7c0       ?erase@?$list@V?$basic_string@_WU?$char_traits@_W@std@@V?$allocator@_W@2@@std@@V?$allocator@V?$basic_string@_WU?$char_traits@_W@std@@V?$allocator@_W@2@@std@@@2@@std@@QEAA?AV?$_List_iterator@V?$_List_val@U?$_List_simple_types@V?$basic_string@_WU?$char_traits@_W@std@@V?$allocator@_W@2@@std@@@std@@@std@@@2@V?$_List_const_iterator@V?$_List_val@U?$_List_simple_types@V?$basic_string@_WU?$char_traits@_W@std@@V?$allocator@_W@2@@std@@@std@@@std@@@2@0@Z 000000006400c7c0 f i archive.obj
 0001:0000b920       ?compare@?$basic_string@_WU?$char_traits@_W@std@@V?$allocator@_W@2@@std@@QEBAHPEB_W@Z 000000006400c920 f i archive.obj
 0001:0000b9c0       ?compare@?$basic_string@_WU?$char_traits@_W@std@@V?$allocator@_W@2@@std@@QEBAHAEBV12@@Z 000000006400c9c0 f i archive.obj
 0001:0000ba50       ?compare@?$basic_string@_WU?$char_traits@_W@std@@V?$allocator@_W@2@@std@@QEBAH_K0PEB_W0@Z 000000006400ca50 f i archive.obj
 0001:0000bae0       ?replace@?$basic_string@_WU?$char_traits@_W@std@@V?$allocator@_W@2@@std@@QEAAAEAV12@_K0PEB_W0@Z 000000006400cae0 f i archive.obj
 0001:0000bd30       ??$_Assign@PEBE@?$vector@EV?$allocator@E@std@@@std@@QEAAXPEBE0Uforward_iterator_tag@1@@Z 000000006400cd30 f i farutils.obj
 0001:0000bd30       ??$_Assign@PEAE@?$vector@EV?$allocator@E@std@@@std@@QEAAXPEAE0Uforward_iterator_tag@1@@Z 000000006400cd30 f i archive.obj
 0001:0000be00       ??$_For_each@V?$_List_unchecked_const_iterator@V?$_List_val@U?$_List_simple_types@UArcEntry@@@std@@@std@@U_Iterator_base0@2@@std@@V<lambda_dd05f9f504e92e24de40f013dea2e14c>@@@std@@YAXV?$_List_unchecked_const_iterator@V?$_List_val@U?$_List_simple_types@UArcEntry@@@std@@@std@@U_Iterator_base0@2@@0@0AEAV<lambda_dd05f9f504e92e24de40f013dea2e14c>@@@Z 000000006400ce00 f i archive.obj
 0001:0000bf60       ??$?8DU?$char_traits@D@std@@V?$allocator@D@1@@std@@YA_NAEBV?$basic_string@DU?$char_traits@D@std@@V?$allocator@D@2@@0@PEBD@Z 000000006400cf60 f i archive.obj
 0001:0000bfe0       ??$_For_each@V?$_Tree_unchecked_iterator@V?$_Tree_val@U?$_Tree_simple_types@U?$pair@$$CBV?$vector@EV?$allocator@E@std@@@std@@UArcFormat@@@std@@@std@@@std@@@std@@V<lambda_c4ecf0fbcda54f23bfadf38f78e3812d>@@@std@@YAXV?$_Tree_unchecked_iterator@V?$_Tree_val@U?$_Tree_simple_types@U?$pair@$$CBV?$vector@EV?$allocator@E@std@@@std@@UArcFormat@@@std@@@std@@@std@@@0@0AEAV<lambda_c4ecf0fbcda54f23bfadf38f78e3812d>@@@Z 000000006400cfe0 f i archive.obj
 0001:0000c180       ??$_For_each@V?$_Tree_unchecked_const_iterator@V?$_Tree_val@U?$_Tree_simple_types@UDirInfo@?1??make_index@Archive@@QEAAXXZ@@std@@@std@@U_Iterator_base0@2@@std@@V<lambda_68795b540f80605abd8c3a7a8beb9c82>@@@std@@YAXV?$_Tree_unchecked_const_iterator@V?$_Tree_val@U?$_Tree_simple_types@UDirInfo@?1??make_index@Archive@@QEAAXXZ@@std@@@std@@U_Iterator_base0@2@@0@0AEAV<lambda_68795b540f80605abd8c3a7a8beb9c82>@@@Z 000000006400d180 f i archive.obj
 0001:0000c2b0       ??$_Sort@PEAI_JV<lambda_3d5a501f4b2f2c9cd202314b8201ca3b>@@@std@@YAXPEAI0_JV<lambda_3d5a501f4b2f2c9cd202314b8201ca3b>@@@Z 000000006400d2b0 f i archive.obj
 0001:0000c3e0       ??$_Equal_range@PEAIH_JV<lambda_cafdc757b416b8bba68e20792e92369f>@@@std@@YA?AU?$pair@PEAIPEAI@0@PEAI0AEBHV<lambda_cafdc757b416b8bba68e20792e92369f>@@PEA_J@Z 000000006400d3e0 f i archive.obj
 0001:0000c570       ??$_Equal_range@PEAIH_JV<lambda_3305c378e2773064420fe971b54cb5d7>@@@std@@YA?AU?$pair@PEAIPEAI@0@PEAI0AEBHV<lambda_3305c378e2773064420fe971b54cb5d7>@@PEA_J@Z 000000006400d570 f i archive.obj
 0001:0000c7c0       ??$_Buynode@AEBUpiecewise_construct_t@std@@V?$tuple@AEBI@2@V?$tuple@$$V@2@@?$_Tree_comp_alloc@V?$_Tmap_traits@IIU?$less@I@std@@V?$allocator@U?$pair@$$CBII@std@@@2@$0A@@std@@@std@@QEAAPEAU?$_Tree_node@U?$pair@$$CBII@std@@PEAX@1@AEBUpiecewise_construct_t@1@$$QEAV?$tuple@AEBI@1@$$QEAV?$tuple@$$V@1@@Z 000000006400d7c0 f i archive.obj
 0001:0000c800       ??$_Insert_hint@AEAU?$pair@$$CBII@std@@PEAU?$_Tree_node@U?$pair@$$CBII@std@@PEAX@2@@?$_Tree@V?$_Tmap_traits@IIU?$less@I@std@@V?$allocator@U?$pair@$$CBII@std@@@2@$0A@@std@@@std@@IEAA?AV?$_Tree_iterator@V?$_Tree_val@U?$_Tree_simple_types@U?$pair@$$CBII@std@@@std@@@std@@@1@V?$_Tree_const_iterator@V?$_Tree_val@U?$_Tree_simple_types@U?$pair@$$CBII@std@@@std@@@std@@@1@AEAU?$pair@$$CBII@1@PEAU?$_Tree_node@U?$pair@$$CBII@std@@PEAX@1@@Z 000000006400d800 f i archive.obj
 0001:0000ca50       ??$_Buynode@AEBUpiecewise_construct_t@std@@V?$tuple@AEBV?$vector@EV?$allocator@E@std@@@std@@@2@V?$tuple@$$V@2@@?$_Tree_comp_alloc@V?$_Tmap_traits@V?$vector@EV?$allocator@E@std@@@std@@UArcFormat@@U?$less@V?$vector@EV?$allocator@E@std@@@std@@@2@V?$allocator@U?$pair@$$CBV?$vector@EV?$allocator@E@std@@@std@@UArcFormat@@@std@@@2@$0A@@std@@@std@@QEAAPEAU?$_Tree_node@U?$pair@$$CBV?$vector@EV?$allocator@E@std@@@std@@UArcFormat@@@std@@PEAX@1@AEBUpiecewise_construct_t@1@$$QEAV?$tuple@AEBV?$vector@EV?$allocator@E@std@@@std@@@1@$$QEAV?$tuple@$$V@1@@Z 000000006400da50 f i archive.obj
 0001:0000cac0       ??$_Insert_hint@AEAU?$pair@$$CBV?$vector@EV?$allocator@E@std@@@std@@UArcFormat@@@std@@PEAU?$_Tree_node@U?$pair@$$CBV?$vector@EV?$allocator@E@std@@@std@@UArcFormat@@@std@@PEAX@2@@?$_Tree@V?$_Tmap_traits@V?$vector@EV?$allocator@E@std@@@std@@UArcFormat@@U?$less@V?$vector@EV?$allocator@E@std@@@std@@@2@V?$allocator@U?$pair@$$CBV?$vector@EV?$allocator@E@std@@@std@@UArcFormat@@@std@@@2@$0A@@std@@@std@@IEAA?AV?$_Tree_iterator@V?$_Tree_val@U?$_Tree_simple_types@U?$pair@$$CBV?$vector@EV?$allocator@E@std@@@std@@UArcFormat@@@std@@@std@@@std@@@1@V?$_Tree_const_iterator@V?$_Tree_val@U?$_Tree_simple_types@U?$pair@$$CBV?$vector@EV?$allocator@E@std@@@std@@UArcFormat@@@std@@@std@@@std@@@1@AEAU?$pair@$$CBV?$vector@EV?$allocator@E@std@@@std@@UArcFormat@@@1@PEAU?$_Tree_node@U?$pair@$$CBV?$vector@EV?$allocator@E@std@@@std@@UArcFormat@@@std@@PEAX@1@@Z 000000006400dac0 f i archive.obj
 0001:0000cd60       ??$_Buynode@AEBUpiecewise_construct_t@std@@V?$tuple@$$QEAV?$basic_string@_WU?$char_traits@_W@std@@V?$allocator@_W@2@@std@@@2@V?$tuple@$$V@2@@?$_Tree_comp_alloc@V?$_Tmap_traits@V?$basic_string@_WU?$char_traits@_W@std@@V?$allocator@_W@2@@std@@V12@U?$less@V?$basic_string@_WU?$char_traits@_W@std@@V?$allocator@_W@2@@std@@@2@V?$allocator@U?$pair@$$CBV?$basic_string@_WU?$char_traits@_W@std@@V?$allocator@_W@2@@std@@V12@@std@@@2@$0A@@std@@@std@@QEAAPEAU?$_Tree_node@U?$pair@$$CBV?$basic_string@_WU?$char_traits@_W@std@@V?$allocator@_W@2@@std@@V12@@std@@PEAX@1@AEBUpiecewise_construct_t@1@$$QEAV?$tuple@$$QEAV?$basic_string@_WU?$char_traits@_W@std@@V?$allocator@_W@2@@std@@@1@$$QEAV?$tuple@$$V@1@@Z 000000006400dd60 f i archive.obj
 0001:0000cdd0       ??$_Insert_hint@AEAU?$pair@$$CBV?$basic_string@_WU?$char_traits@_W@std@@V?$allocator@_W@2@@std@@V12@@std@@PEAU?$_Tree_node@U?$pair@$$CBV?$basic_string@_WU?$char_traits@_W@std@@V?$allocator@_W@2@@std@@V12@@std@@PEAX@2@@?$_Tree@V?$_Tmap_traits@V?$basic_string@_WU?$char_traits@_W@std@@V?$allocator@_W@2@@std@@V12@U?$less@V?$basic_string@_WU?$char_traits@_W@std@@V?$allocator@_W@2@@std@@@2@V?$allocator@U?$pair@$$CBV?$basic_string@_WU?$char_traits@_W@std@@V?$allocator@_W@2@@std@@V12@@std@@@2@$0A@@std@@@std@@IEAA?AV?$_Tree_iterator@V?$_Tree_val@U?$_Tree_simple_types@U?$pair@$$CBV?$basic_string@_WU?$char_traits@_W@std@@V?$allocator@_W@2@@std@@V12@@std@@@std@@@std@@@1@V?$_Tree_const_iterator@V?$_Tree_val@U?$_Tree_simple_types@U?$pair@$$CBV?$basic_string@_WU?$char_traits@_W@std@@V?$allocator@_W@2@@std@@V12@@std@@@std@@@std@@@1@AEAU?$pair@$$CBV?$basic_string@_WU?$char_traits@_W@std@@V?$allocator@_W@2@@std@@V12@@1@PEAU?$_Tree_node@U?$pair@$$CBV?$basic_string@_WU?$char_traits@_W@std@@V?$allocator@_W@2@@std@@V12@@std@@PEAX@1@@Z 000000006400ddd0 f i archive.obj
 0001:0000d080       ??$_Buynode@AEBV?$vector@EV?$allocator@E@std@@@std@@@?$_List_buy@V?$vector@EV?$allocator@E@std@@@std@@V?$allocator@V?$vector@EV?$allocator@E@std@@@std@@@2@@std@@QEAAPEAU?$_List_node@V?$vector@EV?$allocator@E@std@@@std@@PEAX@1@PEAU21@0AEBV?$vector@EV?$allocator@E@std@@@1@@Z 000000006400e080 f i archive.obj
 0001:0000d0e0       ??$_Buynode@AEBV?$basic_string@_WU?$char_traits@_W@std@@V?$allocator@_W@2@@std@@@?$_List_buy@V?$basic_string@_WU?$char_traits@_W@std@@V?$allocator@_W@2@@std@@V?$allocator@V?$basic_string@_WU?$char_traits@_W@std@@V?$allocator@_W@2@@std@@@2@@std@@QEAAPEAU?$_List_node@V?$basic_string@_WU?$char_traits@_W@std@@V?$allocator@_W@2@@std@@PEAX@1@PEAU21@0AEBV?$basic_string@_WU?$char_traits@_W@std@@V?$allocator@_W@2@@1@@Z 000000006400e0e0 f i archive.obj
 0001:0000d160       ??$_Reusenode@AEBV?$basic_string@_WU?$char_traits@_W@std@@V?$allocator@_W@2@@std@@@?$list@V?$basic_string@_WU?$char_traits@_W@std@@V?$allocator@_W@2@@std@@V?$allocator@V?$basic_string@_WU?$char_traits@_W@std@@V?$allocator@_W@2@@std@@@2@@std@@QEAAXV?$_List_iterator@V?$_List_val@U?$_List_simple_types@V?$basic_string@_WU?$char_traits@_W@std@@V?$allocator@_W@2@@std@@@std@@@std@@@1@AEBV?$basic_string@_WU?$char_traits@_W@std@@V?$allocator@_W@2@@1@@Z 000000006400e160 f i archive.obj
 0001:0000d200       ??$_Insert_range@V?$_List_const_iterator@V?$_List_val@U?$_List_simple_types@V?$basic_string@_WU?$char_traits@_W@std@@V?$allocator@_W@2@@std@@@std@@@std@@@std@@@?$list@V?$basic_string@_WU?$char_traits@_W@std@@V?$allocator@_W@2@@std@@V?$allocator@V?$basic_string@_WU?$char_traits@_W@std@@V?$allocator@_W@2@@std@@@2@@std@@QEAAXV?$_List_unchecked_const_iterator@V?$_List_val@U?$_List_simple_types@V?$basic_string@_WU?$char_traits@_W@std@@V?$allocator@_W@2@@std@@@std@@@std@@U_Iterator_base0@2@@1@V?$_List_const_iterator@V?$_List_val@U?$_List_simple_types@V?$basic_string@_WU?$char_traits@_W@std@@V?$allocator@_W@2@@std@@@std@@@std@@@1@1Uforward_iterator_tag@1@@Z 000000006400e200 f i archive.obj
 0001:0000d2b0       ??$_Insert_at@AEBUDirInfo@?1??make_index@Archive@@QEAAXXZ@U_Nil@std@@@?$_Tree@V?$_Tset_traits@UDirInfo@?1??make_index@Archive@@QEAAXXZ@U?$less@UDirInfo@?1??make_index@Archive@@QEAAXXZ@@std@@V?$allocator@UDirInfo@?1??make_index@Archive@@QEAAXXZ@@5@$0A@@std@@@std@@IEAA?AV?$_Tree_const_iterator@V?$_Tree_val@U?$_Tree_simple_types@UDirInfo@?1??make_index@Archive@@QEAAXXZ@@std@@@std@@@1@_NPEAU?$_Tree_node@UDirInfo@?1??make_index@Archive@@QEAAXXZ@PEAX@1@AEBUDirInfo@?1??make_index@Archive@@QEAAXXZ@U_Nil@1@@Z 000000006400e2b0 f i archive.obj
 0001:0000d580       ??$_Insert_at@AEBIU_Nil@std@@@?$_Tree@V?$_Tset_traits@IU?$less@I@std@@V?$allocator@I@2@$0A@@std@@@std@@IEAA?AV?$_Tree_const_iterator@V?$_Tree_val@U?$_Tree_simple_types@I@std@@@std@@@1@_NPEAU?$_Tree_node@IPEAX@1@AEBIU_Nil@1@@Z 000000006400e580 f i archive.obj
 0001:0000d850       ??$_Destroy_range@U?$_Wrap_alloc@V?$allocator@UArcFileInfo@@@std@@@std@@@std@@YAXPEAUArcFileInfo@@0AEAU?$_Wrap_alloc@V?$allocator@UArcFileInfo@@@std@@@0@U_Nonscalar_ptr_iterator_tag@0@@Z 000000006400e850 f i archive.obj
 0001:0000d930       ??$_Destroy_range@U?$_Wrap_alloc@V?$allocator@V?$vector@EV?$allocator@E@std@@@std@@@std@@@std@@@std@@YAXPEAV?$vector@EV?$allocator@E@std@@@0@0AEAU?$_Wrap_alloc@V?$allocator@V?$vector@EV?$allocator@E@std@@@std@@@std@@@0@U_Nonscalar_ptr_iterator_tag@0@@Z 000000006400e930 f i archive.obj
 0001:0000d9e0       ??$_Copy_nodes@U_Copy_tag@?$_Tree@V?$_Tmap_traits@V?$basic_string@_WU?$char_traits@_W@std@@V?$allocator@_W@2@@std@@V12@U?$less@V?$basic_string@_WU?$char_traits@_W@std@@V?$allocator@_W@2@@std@@@2@V?$allocator@U?$pair@$$CBV?$basic_string@_WU?$char_traits@_W@std@@V?$allocator@_W@2@@std@@V12@@std@@@2@$0A@@std@@@std@@@?$_Tree@V?$_Tmap_traits@V?$basic_string@_WU?$char_traits@_W@std@@V?$allocator@_W@2@@std@@V12@U?$less@V?$basic_string@_WU?$char_traits@_W@std@@V?$allocator@_W@2@@std@@@2@V?$allocator@U?$pair@$$CBV?$basic_string@_WU?$char_traits@_W@std@@V?$allocator@_W@2@@std@@V12@@std@@@2@$0A@@std@@@std@@IEAAPEAU?$_Tree_node@U?$pair@$$CBV?$basic_string@_WU?$char_traits@_W@std@@V?$allocator@_W@2@@std@@V12@@std@@PEAX@1@PEAU21@0U_Copy_tag@01@@Z 000000006400e9e0 f i archive.obj
 0001:0000da80       ??$_Destroy_range@U?$_Wrap_alloc@V?$allocator@V?$basic_string@_WU?$char_traits@_W@std@@V?$allocator@_W@2@@std@@@std@@@std@@@std@@YAXPEAV?$basic_string@_WU?$char_traits@_W@std@@V?$allocator@_W@2@@0@0AEAU?$_Wrap_alloc@V?$allocator@V?$basic_string@_WU?$char_traits@_W@std@@V?$allocator@_W@2@@std@@@std@@@0@U_Nonscalar_ptr_iterator_tag@0@@Z 000000006400ea80 f i plugin.obj
 0001:0000da80       ??$_Destroy_range@U?$_Wrap_alloc@V?$allocator@USfxModule@@@std@@@std@@@std@@YAXPEAUSfxModule@@0AEAU?$_Wrap_alloc@V?$allocator@USfxModule@@@std@@@0@U_Nonscalar_ptr_iterator_tag@0@@Z 000000006400ea80 f i archive.obj
 0001:0000db60       ??$_Destroy_range@U?$_Wrap_alloc@V?$allocator@UArcLib@@@std@@@std@@@std@@YAXPEAUArcLib@@0AEAU?$_Wrap_alloc@V?$allocator@UArcLib@@@std@@@0@U_Nonscalar_ptr_iterator_tag@0@@Z 000000006400eb60 f i archive.obj
 0001:0000dc40       ??1?$pair@V?$vector@EV?$allocator@E@std@@@std@@UArcFormat@@@std@@QEAA@XZ 000000006400ec40 f i archive.obj
 0001:0000dc60       ?_Buynode0@?$_Tree_comp_alloc@V?$_Tmap_traits@IIU?$less@I@std@@V?$allocator@U?$pair@$$CBII@std@@@2@$0A@@std@@@std@@QEAAPEAU?$_Tree_node@U?$pair@$$CBII@std@@PEAX@2@XZ 000000006400ec60 f i archive.obj
 0001:0000dcb0       ?_Buynode0@?$_Tree_comp_alloc@V?$_Tmap_traits@V?$vector@EV?$allocator@E@std@@@std@@UArcFormat@@U?$less@V?$vector@EV?$allocator@E@std@@@std@@@2@V?$allocator@U?$pair@$$CBV?$vector@EV?$allocator@E@std@@@std@@UArcFormat@@@std@@@2@$0A@@std@@@std@@QEAAPEAU?$_Tree_node@U?$pair@$$CBV?$vector@EV?$allocator@E@std@@@std@@UArcFormat@@@std@@PEAX@2@XZ 000000006400ecb0 f i archive.obj
 0001:0000dd00       ?_Buynode0@?$_Tree_comp_alloc@V?$_Tmap_traits@V?$basic_string@_WU?$char_traits@_W@std@@V?$allocator@_W@2@@std@@V12@U?$less@V?$basic_string@_WU?$char_traits@_W@std@@V?$allocator@_W@2@@std@@@2@V?$allocator@U?$pair@$$CBV?$basic_string@_WU?$char_traits@_W@std@@V?$allocator@_W@2@@std@@V12@@std@@@2@$0A@@std@@@std@@QEAAPEAU?$_Tree_node@U?$pair@$$CBV?$basic_string@_WU?$char_traits@_W@std@@V?$allocator@_W@2@@std@@V12@@std@@PEAX@2@XZ 000000006400ed00 f i archive.obj
 0001:0000dd50       ??$_Construct@PEBE@?$vector@EV?$allocator@E@std@@@std@@QEAAXPEBE0Uforward_iterator_tag@1@@Z 000000006400ed50 f i archive.obj
 0001:0000ddd0       ??$_Unguarded_partition@PEAIV<lambda_3d5a501f4b2f2c9cd202314b8201ca3b>@@@std@@YA?AU?$pair@PEAIPEAI@0@PEAI0V<lambda_3d5a501f4b2f2c9cd202314b8201ca3b>@@@Z 000000006400edd0 f i archive.obj
 0001:0000e2c0       ??$_Insert_at@AEAU?$pair@$$CBII@std@@PEAU?$_Tree_node@U?$pair@$$CBII@std@@PEAX@2@@?$_Tree@V?$_Tmap_traits@IIU?$less@I@std@@V?$allocator@U?$pair@$$CBII@std@@@2@$0A@@std@@@std@@IEAA?AV?$_Tree_iterator@V?$_Tree_val@U?$_Tree_simple_types@U?$pair@$$CBII@std@@@std@@@std@@@1@_NPEAU?$_Tree_node@U?$pair@$$CBII@std@@PEAX@1@AEAU?$pair@$$CBII@1@1@Z 000000006400f2c0 f i archive.obj
 0001:0000e560       ??$_Insert_nohint@AEAU?$pair@$$CBII@std@@PEAU?$_Tree_node@U?$pair@$$CBII@std@@PEAX@2@@?$_Tree@V?$_Tmap_traits@IIU?$less@I@std@@V?$allocator@U?$pair@$$CBII@std@@@2@$0A@@std@@@std@@IEAA?AU?$pair@V?$_Tree_iterator@V?$_Tree_val@U?$_Tree_simple_types@U?$pair@$$CBII@std@@@std@@@std@@@std@@_N@1@_NAEAU?$pair@$$CBII@1@PEAU?$_Tree_node@U?$pair@$$CBII@std@@PEAX@1@@Z 000000006400f560 f i archive.obj
 0001:0000e6a0       ??$_Insert_at@AEAU?$pair@$$CBV?$vector@EV?$allocator@E@std@@@std@@UArcFormat@@@std@@PEAU?$_Tree_node@U?$pair@$$CBV?$vector@EV?$allocator@E@std@@@std@@UArcFormat@@@std@@PEAX@2@@?$_Tree@V?$_Tmap_traits@V?$vector@EV?$allocator@E@std@@@std@@UArcFormat@@U?$less@V?$vector@EV?$allocator@E@std@@@std@@@2@V?$allocator@U?$pair@$$CBV?$vector@EV?$allocator@E@std@@@std@@UArcFormat@@@std@@@2@$0A@@std@@@std@@IEAA?AV?$_Tree_iterator@V?$_Tree_val@U?$_Tree_simple_types@U?$pair@$$CBV?$vector@EV?$allocator@E@std@@@std@@UArcFormat@@@std@@@std@@@std@@@1@_NPEAU?$_Tree_node@U?$pair@$$CBV?$vector@EV?$allocator@E@std@@@std@@UArcFormat@@@std@@PEAX@1@AEAU?$pair@$$CBV?$vector@EV?$allocator@E@std@@@std@@UArcFormat@@@1@1@Z 000000006400f6a0 f i archive.obj
 0001:0000e960       ??$_Insert_nohint@AEAU?$pair@$$CBV?$vector@EV?$allocator@E@std@@@std@@UArcFormat@@@std@@PEAU?$_Tree_node@U?$pair@$$CBV?$vector@EV?$allocator@E@std@@@std@@UArcFormat@@@std@@PEAX@2@@?$_Tree@V?$_Tmap_traits@V?$vector@EV?$allocator@E@std@@@std@@UArcFormat@@U?$less@V?$vector@EV?$allocator@E@std@@@std@@@2@V?$allocator@U?$pair@$$CBV?$vector@EV?$allocator@E@std@@@std@@UArcFormat@@@std@@@2@$0A@@std@@@std@@IEAA?AU?$pair@V?$_Tree_iterator@V?$_Tree_val@U?$_Tree_simple_types@U?$pair@$$CBV?$vector@EV?$allocator@E@std@@@std@@UArcFormat@@@std@@@std@@@std@@@std@@_N@1@_NAEAU?$pair@$$CBV?$vector@EV?$allocator@E@std@@@std@@UArcFormat@@@1@PEAU?$_Tree_node@U?$pair@$$CBV?$vector@EV?$allocator@E@std@@@std@@UArcFormat@@@std@@PEAX@1@@Z 000000006400f960 f i archive.obj
 0001:0000eb60       ??$_Insert_at@AEAU?$pair@$$CBV?$basic_string@_WU?$char_traits@_W@std@@V?$allocator@_W@2@@std@@V12@@std@@PEAU?$_Tree_node@U?$pair@$$CBV?$basic_string@_WU?$char_traits@_W@std@@V?$allocator@_W@2@@std@@V12@@std@@PEAX@2@@?$_Tree@V?$_Tmap_traits@V?$basic_string@_WU?$char_traits@_W@std@@V?$allocator@_W@2@@std@@V12@U?$less@V?$basic_string@_WU?$char_traits@_W@std@@V?$allocator@_W@2@@std@@@2@V?$allocator@U?$pair@$$CBV?$basic_string@_WU?$char_traits@_W@std@@V?$allocator@_W@2@@std@@V12@@std@@@2@$0A@@std@@@std@@IEAA?AV?$_Tree_iterator@V?$_Tree_val@U?$_Tree_simple_types@U?$pair@$$CBV?$basic_string@_WU?$char_traits@_W@std@@V?$allocator@_W@2@@std@@V12@@std@@@std@@@std@@@1@_NPEAU?$_Tree_node@U?$pair@$$CBV?$basic_string@_WU?$char_traits@_W@std@@V?$allocator@_W@2@@std@@V12@@std@@PEAX@1@AEAU?$pair@$$CBV?$basic_string@_WU?$char_traits@_W@std@@V?$allocator@_W@2@@std@@V12@@1@1@Z 000000006400fb60 f i archive.obj
 0001:0000ee10       ??$_Insert_nohint@AEAU?$pair@$$CBV?$basic_string@_WU?$char_traits@_W@std@@V?$allocator@_W@2@@std@@V12@@std@@PEAU?$_Tree_node@U?$pair@$$CBV?$basic_string@_WU?$char_traits@_W@std@@V?$allocator@_W@2@@std@@V12@@std@@PEAX@2@@?$_Tree@V?$_Tmap_traits@V?$basic_string@_WU?$char_traits@_W@std@@V?$allocator@_W@2@@std@@V12@U?$less@V?$basic_string@_WU?$char_traits@_W@std@@V?$allocator@_W@2@@std@@@2@V?$allocator@U?$pair@$$CBV?$basic_string@_WU?$char_traits@_W@std@@V?$allocator@_W@2@@std@@V12@@std@@@2@$0A@@std@@@std@@IEAA?AU?$pair@V?$_Tree_iterator@V?$_Tree_val@U?$_Tree_simple_types@U?$pair@$$CBV?$basic_string@_WU?$char_traits@_W@std@@V?$allocator@_W@2@@std@@V12@@std@@@std@@@std@@@std@@_N@1@_NAEAU?$pair@$$CBV?$basic_string@_WU?$char_traits@_W@std@@V?$allocator@_W@2@@std@@V12@@1@PEAU?$_Tree_node@U?$pair@$$CBV?$basic_string@_WU?$char_traits@_W@std@@V?$allocator@_W@2@@std@@V12@@std@@PEAX@1@@Z 000000006400fe10 f i archive.obj
 0001:0000f020       ??0ArcFormat@@QEAA@AEBU0@@Z 0000000064010020 f i archive.obj
 0001:0000f0f0       ??0ArcLib@@QEAA@AEBU0@@Z   00000000640100f0 f i archive.obj
 0001:0000f180       ??1?$pair@V?$basic_string@_WU?$char_traits@_W@std@@V?$allocator@_W@2@@std@@V12@@std@@QEAA@XZ 0000000064010180 f i rsrc.obj
 0001:0000f180       ??1Param@@QEAA@XZ          0000000064010180 f i cmdline.obj
 0001:0000f180       ??1Attr@@QEAA@XZ           0000000064010180 f i plugin.obj
 0001:0000f180       ??1?$pair@$$CBV?$basic_string@_WU?$char_traits@_W@std@@V?$allocator@_W@2@@std@@V12@@std@@QEAA@XZ 0000000064010180 f i archive.obj
 0001:0000f220       ??0?$vector@V?$vector@EV?$allocator@E@std@@@std@@V?$allocator@V?$vector@EV?$allocator@E@std@@@std@@@2@@std@@QEAA@AEBV01@@Z 0000000064010220 f i archive.obj
 0001:0000f2f0       ??0?$_Tree@V?$_Tmap_traits@V?$basic_string@_WU?$char_traits@_W@std@@V?$allocator@_W@2@@std@@V12@U?$less@V?$basic_string@_WU?$char_traits@_W@std@@V?$allocator@_W@2@@std@@@2@V?$allocator@U?$pair@$$CBV?$basic_string@_WU?$char_traits@_W@std@@V?$allocator@_W@2@@std@@V12@@std@@@2@$0A@@std@@@std@@QEAA@AEBV01@AEBV?$allocator@U?$pair@$$CBV?$basic_string@_WU?$char_traits@_W@std@@V?$allocator@_W@2@@std@@V12@@std@@@1@@Z 00000000640102f0 f i archive.obj
 0001:0000f3c0       ??$_Median@PEAIV<lambda_3d5a501f4b2f2c9cd202314b8201ca3b>@@@std@@YAXPEAI00V<lambda_3d5a501f4b2f2c9cd202314b8201ca3b>@@@Z 00000000640103c0 f i archive.obj
 0001:0000f4a0       ??$_Make_heap@PEAI_JIV<lambda_3d5a501f4b2f2c9cd202314b8201ca3b>@@@std@@YAXPEAI0V<lambda_3d5a501f4b2f2c9cd202314b8201ca3b>@@PEA_J0@Z 00000000640104a0 f i archive.obj
 0001:0000f5e0       ??$_Sort_heap@PEAIV<lambda_3d5a501f4b2f2c9cd202314b8201ca3b>@@@std@@YAXPEAI0V<lambda_3d5a501f4b2f2c9cd202314b8201ca3b>@@@Z 00000000640105e0 f i archive.obj
 0001:0000f680       ??$_Insertion_sort1@PEAIV<lambda_3d5a501f4b2f2c9cd202314b8201ca3b>@@I@std@@YAXPEAI0V<lambda_3d5a501f4b2f2c9cd202314b8201ca3b>@@0@Z 0000000064010680 f i archive.obj
 0001:0000f820       ??$_Lower_bound@PEAIH_JV<lambda_cafdc757b416b8bba68e20792e92369f>@@@std@@YAPEAIPEAI0AEBHV<lambda_cafdc757b416b8bba68e20792e92369f>@@PEA_J@Z 0000000064010820 f i archive.obj
 0001:0000f940       ??$_Upper_bound@PEAIH_JV<lambda_cafdc757b416b8bba68e20792e92369f>@@@std@@YAPEAIPEAI0AEBHV<lambda_cafdc757b416b8bba68e20792e92369f>@@PEA_J@Z 0000000064010940 f i archive.obj
 0001:0000fa60       ??$_Uninit_copy@PEBV?$vector@EV?$allocator@E@std@@@std@@PEAV12@V?$allocator@V?$vector@EV?$allocator@E@std@@@std@@@2@@std@@YAPEAV?$vector@EV?$allocator@E@std@@@0@PEBV10@0PEAV10@AEAU?$_Wrap_alloc@V?$allocator@V?$vector@EV?$allocator@E@std@@@std@@@std@@@0@U_Nonscalar_ptr_iterator_tag@0@@Z 0000000064010a60 f i archive.obj
 0001:0000fa60       ??$_Uninit_copy@PEAV?$vector@EV?$allocator@E@std@@@std@@PEAV12@V?$allocator@V?$vector@EV?$allocator@E@std@@@std@@@2@@std@@YAPEAV?$vector@EV?$allocator@E@std@@@0@PEAV10@00AEAU?$_Wrap_alloc@V?$allocator@V?$vector@EV?$allocator@E@std@@@std@@@std@@@0@U_Nonscalar_ptr_iterator_tag@0@@Z 0000000064010a60 f i archive.obj
 0001:0000fac0       ??$_Buynode@AEBUDirInfo@?1??make_index@Archive@@QEAAXXZ@@?$_Tree_comp_alloc@V?$_Tset_traits@UDirInfo@?1??make_index@Archive@@QEAAXXZ@U?$less@UDirInfo@?1??make_index@Archive@@QEAAXXZ@@std@@V?$allocator@UDirInfo@?1??make_index@Archive@@QEAAXXZ@@5@$0A@@std@@@std@@QEAAPEAU?$_Tree_node@UDirInfo@?1??make_index@Archive@@QEAAXXZ@PEAX@1@AEBUDirInfo@?1??make_index@Archive@@QEAAXXZ@@Z 0000000064010ac0 f i archive.obj
 0001:0000fb50       ??$_Buynode@AEBI@?$_Tree_comp_alloc@V?$_Tset_traits@IU?$less@I@std@@V?$allocator@I@2@$0A@@std@@@std@@QEAAPEAU?$_Tree_node@IPEAX@1@AEBI@Z 0000000064010b50 f i archive.obj
 0001:0000fb80       ??$_Uninit_move@PEAUArcFileInfo@@PEAU1@V?$allocator@UArcFileInfo@@@std@@U1@@std@@YAPEAUArcFileInfo@@PEAU1@00AEAU?$_Wrap_alloc@V?$allocator@UArcFileInfo@@@std@@@0@0U_Nonscalar_ptr_iterator_tag@0@@Z 0000000064010b80 f i archive.obj
 0001:0000fc70       ??$_Buynode@AEAU?$pair@$$CBV?$basic_string@_WU?$char_traits@_W@std@@V?$allocator@_W@2@@std@@V12@@std@@@?$_Tree_comp_alloc@V?$_Tmap_traits@V?$basic_string@_WU?$char_traits@_W@std@@V?$allocator@_W@2@@std@@V12@U?$less@V?$basic_string@_WU?$char_traits@_W@std@@V?$allocator@_W@2@@std@@@2@V?$allocator@U?$pair@$$CBV?$basic_string@_WU?$char_traits@_W@std@@V?$allocator@_W@2@@std@@V12@@std@@@2@$0A@@std@@@std@@QEAAPEAU?$_Tree_node@U?$pair@$$CBV?$basic_string@_WU?$char_traits@_W@std@@V?$allocator@_W@2@@std@@V12@@std@@PEAX@1@AEAU?$pair@$$CBV?$basic_string@_WU?$char_traits@_W@std@@V?$allocator@_W@2@@std@@V12@@1@@Z 0000000064010c70 f i archive.obj
 0001:0000fcd0       ??$_Uninit_move@PEAUSfxModule@@PEAU1@V?$allocator@USfxModule@@@std@@U1@@std@@YAPEAUSfxModule@@PEAU1@00AEAU?$_Wrap_alloc@V?$allocator@USfxModule@@@std@@@0@0U_Nonscalar_ptr_iterator_tag@0@@Z 0000000064010cd0 f i archive.obj
 0001:0000fcd0       ??$_Uninit_move@PEAV?$basic_string@_WU?$char_traits@_W@std@@V?$allocator@_W@2@@std@@PEAV12@V?$allocator@V?$basic_string@_WU?$char_traits@_W@std@@V?$allocator@_W@2@@std@@@2@V12@@std@@YAPEAV?$basic_string@_WU?$char_traits@_W@std@@V?$allocator@_W@2@@0@PEAV10@00AEAU?$_Wrap_alloc@V?$allocator@V?$basic_string@_WU?$char_traits@_W@std@@V?$allocator@_W@2@@std@@@std@@@0@0U_Nonscalar_ptr_iterator_tag@0@@Z 0000000064010cd0 f i plugin.obj
 0001:0000fda0       ??$_Uninit_move@PEAUArcLib@@PEAU1@V?$allocator@UArcLib@@@std@@U1@@std@@YAPEAUArcLib@@PEAU1@00AEAU?$_Wrap_alloc@V?$allocator@UArcLib@@@std@@@0@0U_Nonscalar_ptr_iterator_tag@0@@Z 0000000064010da0 f i archive.obj
 0001:0000fed0       ??$_Uninit_move@PEAV?$vector@EV?$allocator@E@std@@@std@@PEAV12@V?$allocator@V?$vector@EV?$allocator@E@std@@@std@@@2@V12@@std@@YAPEAV?$vector@EV?$allocator@E@std@@@0@PEAV10@00AEAU?$_Wrap_alloc@V?$allocator@V?$vector@EV?$allocator@E@std@@@std@@@std@@@0@0U_Nonscalar_ptr_iterator_tag@0@@Z 0000000064010ed0 f i archive.obj
 0001:0000ff30       ?_Buynode0@?$_Tree_comp_alloc@V?$_Tset_traits@UDirInfo@?1??make_index@Archive@@QEAAXXZ@U?$less@UDirInfo@?1??make_index@Archive@@QEAAXXZ@@std@@V?$allocator@UDirInfo@?1??make_index@Archive@@QEAAXXZ@@5@$0A@@std@@@std@@QEAAPEAU?$_Tree_node@UDirInfo@?1??make_index@Archive@@QEAAXXZ@PEAX@2@XZ 0000000064010f30 f i archive.obj
 0001:0000ff80       ?_Buynode0@?$_Tree_comp_alloc@V?$_Tset_traits@IU?$less@I@std@@V?$allocator@I@2@$0A@@std@@@std@@QEAAPEAU?$_Tree_node@IPEAX@2@XZ 0000000064010f80 f i archive.obj
 0001:0000ffd0       ??$_Med3@PEAIV<lambda_3d5a501f4b2f2c9cd202314b8201ca3b>@@@std@@YAXPEAI00V<lambda_3d5a501f4b2f2c9cd202314b8201ca3b>@@@Z 0000000064010fd0 f i archive.obj
 0001:00010150       ??$_Adjust_heap@PEAI_JIV<lambda_3d5a501f4b2f2c9cd202314b8201ca3b>@@@std@@YAXPEAI_J1$$QEAIV<lambda_3d5a501f4b2f2c9cd202314b8201ca3b>@@@Z 0000000064011150 f i archive.obj
 0001:00010260       ??$_Push_heap@PEAI_JIV<lambda_3d5a501f4b2f2c9cd202314b8201ca3b>@@@std@@YAXPEAI_J1$$QEAIV<lambda_3d5a501f4b2f2c9cd202314b8201ca3b>@@@Z 0000000064011260 f i archive.obj
 0001:00010360       ??0Attr@@QEAA@AEBU0@@Z     0000000064011360 f i plugin.obj
 0001:00010360       ??0?$pair@$$CBV?$basic_string@_WU?$char_traits@_W@std@@V?$allocator@_W@2@@std@@V12@@std@@QEAA@AEBU01@@Z 0000000064011360 f i archive.obj
 0001:00010400       ?_Chassign@?$basic_string@_WU?$char_traits@_W@std@@V?$allocator@_W@2@@std@@QEAAX_K0_W@Z 0000000064011400 f i archive.obj
 0001:00010450       ?_Assign_rv@?$basic_string@_WU?$char_traits@_W@std@@V?$allocator@_W@2@@std@@QEAAX$$QEAV12@@Z 0000000064011450 f i archive.obj
 0001:000104e0       ?erase@?$basic_string@_WU?$char_traits@_W@std@@V?$allocator@_W@2@@std@@QEAAAEAV12@_K0@Z 00000000640114e0 f i archive.obj
 0001:00010590       ?assign@?$basic_string@_WU?$char_traits@_W@std@@V?$allocator@_W@2@@std@@QEAAAEAV12@AEBV12@_K1@Z 0000000064011590 f i archive.obj
 0001:000106d0       ?allocate@?$allocator@_W@std@@QEAAPEA_W_K@Z 00000000640116d0 f i archive.obj
 0001:00010750       ?_Copy@?$basic_string@_WU?$char_traits@_W@std@@V?$allocator@_W@2@@std@@QEAAX_K0@Z 0000000064011750 f i archive.obj
 0001:00010870       ?assign@?$basic_string@_WU?$char_traits@_W@std@@V?$allocator@_W@2@@std@@QEAAAEAV12@PEB_W_K@Z 0000000064011870 f i archive.obj
 0001:000109c0       ?deallocate@?$allocator@_W@std@@QEAAXPEA_W_K@Z 00000000640119c0 f i archive.obj
 0001:000109c0       ?deallocate@?$_Wrap_alloc@V?$allocator@_W@std@@@std@@QEAAXPEA_W_K@Z 00000000640119c0 f i archive.obj
 0001:00010a30       ?_Tidy@?$basic_string@_WU?$char_traits@_W@std@@V?$allocator@_W@2@@std@@QEAAX_N_K@Z 0000000064011a30 f i archive.obj
 0001:00010ab0       ??1?$basic_string@DU?$char_traits@D@std@@V?$allocator@D@2@@std@@QEAA@XZ 0000000064011ab0 f i archive.obj
 0001:00010b00       ?erase@?$basic_string@DU?$char_traits@D@std@@V?$allocator@D@2@@std@@QEAAAEAV12@_K0@Z 0000000064011b00 f i archive.obj
 0001:00010bd0       ?assign@?$basic_string@DU?$char_traits@D@std@@V?$allocator@D@2@@std@@QEAAAEAV12@AEBV12@_K1@Z 0000000064011bd0 f i archive.obj
 0001:00010d00       ?_Copy@?$basic_string@DU?$char_traits@D@std@@V?$allocator@D@2@@std@@QEAAX_K0@Z 0000000064011d00 f i archive.obj
 0001:00010e70       ?_Deallocate@std@@YAXPEAX_K1@Z 0000000064011e70 f i archive.obj
 0001:00010ee0       ?assign@?$basic_string@DU?$char_traits@D@std@@V?$allocator@D@2@@std@@QEAAAEAV12@PEBD_K@Z 0000000064011ee0 f i archive.obj
 0001:00011010       ??0Error@@QEAA@AEBV?$basic_string@_WU?$char_traits@_W@std@@V?$allocator@_W@2@@std@@0PEBDH@Z 0000000064012010 f i plugin.obj
 0001:000110e0       ??0Error@@QEAA@AEBVexception@std@@@Z 00000000640120e0 f i plugin.obj
 0001:00011320       ?updatable@Archive@@QEBA_NXZ 0000000064012320 f i plugin.obj
 0001:00011370       ??0Archive@@QEAA@XZ        0000000064012370 f i plugin.obj
 0001:000114a0       ??1?$set@V?$basic_string@_WU?$char_traits@_W@std@@V?$allocator@_W@2@@std@@UItemCompare@?1??show@MultiSelectDialog@@QEAA_NXZ@V?$allocator@V?$basic_string@_WU?$char_traits@_W@std@@V?$allocator@_W@2@@std@@@2@@std@@QEAA@XZ 00000000640124a0 f i ui.obj
 0001:000114a0       ??1?$set@V?$basic_string@_WU?$char_traits@_W@std@@V?$allocator@_W@2@@std@@U?$less@V?$basic_string@_WU?$char_traits@_W@std@@V?$allocator@_W@2@@std@@@2@V?$allocator@V?$basic_string@_WU?$char_traits@_W@std@@V?$allocator@_W@2@@std@@@2@@std@@QEAA@XZ 00000000640124a0 f i plugin.obj
 0001:000114d0       ??0Plugin@@QEAA@XZ         00000000640124d0 f i plugin.obj
 0001:000115a0       ?open@Plugin@@SAPEAV1@AEBV?$vector@V?$shared_ptr@VArchive@@@std@@V?$allocator@V?$shared_ptr@VArchive@@@std@@@2@@std@@@Z 00000000640125a0 f i plugin.obj
 0001:000117c0       ?info@Plugin@@QEAAXPEAUOpenPanelInfo@@@Z 00000000640127c0 f i plugin.obj
 0001:00011bb0       ?set_dir@Plugin@@QEAAXAEBV?$basic_string@_WU?$char_traits@_W@std@@V?$allocator@_W@2@@std@@@Z 0000000064012bb0 f i plugin.obj
 0001:00011ea0       ?list@Plugin@@QEAAXPEAPEAUPluginPanelItem@@PEA_K@Z 0000000064012ea0 f i plugin.obj
 0001:00011fd0       ?get_separate_dir_path@Plugin@@SA?AV?$basic_string@_WU?$char_traits@_W@std@@V?$allocator@_W@2@@std@@AEBV23@0@Z 0000000064012fd0 f i plugin.obj
 0001:00012130       ?extract@Plugin@@QEAAXAEBVPluginPanelItemAccessor@1@AEAV?$basic_string@_WU?$char_traits@_W@std@@V?$allocator@_W@2@@std@@_N_K@Z 0000000064013130 f i plugin.obj
 0001:000129a0       ?get_files@Plugin@@QEAAXPEBUPluginPanelItem@@_JHPEAPEB_W_K@Z 00000000640139a0 f i plugin.obj
 0001:00012a80       ?extract@Plugin@@QEAAXXZ   0000000064013a80 f i plugin.obj
 0001:00012cc0       ?extract@Plugin@@SAXAEBV?$vector@V?$basic_string@_WU?$char_traits@_W@std@@V?$allocator@_W@2@@std@@V?$allocator@V?$basic_string@_WU?$char_traits@_W@std@@V?$allocator@_W@2@@std@@@2@@std@@UExtractOptions@@@Z 0000000064013cc0 f i plugin.obj
 0001:00013620       ?bulk_extract@Plugin@@SAXAEBV?$vector@V?$basic_string@_WU?$char_traits@_W@std@@V?$allocator@_W@2@@std@@V?$allocator@V?$basic_string@_WU?$char_traits@_W@std@@V?$allocator@_W@2@@std@@@2@@std@@@Z 0000000064014620 f i plugin.obj
 0001:00013900       ?cmdline_extract@Plugin@@SAXAEBUExtractCommand@@@Z 0000000064014900 f i plugin.obj
 0001:00013ad0       ?test_files@Plugin@@QEAAXPEAUPluginPanelItem@@_J_K@Z 0000000064014ad0 f i plugin.obj
 0001:00013ee0       ?bulk_test@Plugin@@SAXAEBV?$vector@V?$basic_string@_WU?$char_traits@_W@std@@V?$allocator@_W@2@@std@@V?$allocator@V?$basic_string@_WU?$char_traits@_W@std@@V?$allocator@_W@2@@std@@@2@@std@@@Z 0000000064014ee0 f i plugin.obj
 0001:00014500       ?cmdline_test@Plugin@@SAXAEBUTestCommand@@@Z 0000000064015500 f i plugin.obj
 0001:000145b0       ?put_files@Plugin@@QEAAXPEBUPluginPanelItem@@_JHPEB_W_K@Z 00000000640155b0 f i plugin.obj
 0001:00015770       ?create_archive@Plugin@@SAXXZ 0000000064016770 f i plugin.obj
 0001:000162e0       ?cmdline_update@Plugin@@SAXAEBUUpdateCommand@@@Z 00000000640172e0 f i plugin.obj
 0001:000171f0       ?delete_files@Plugin@@QEAAXPEBUPluginPanelItem@@_J_K@Z 00000000640181f0 f i plugin.obj
 0001:000176f0       ?create_dir@Plugin@@QEAAXPEAPEB_W_K@Z 00000000640186f0 f i plugin.obj
 0001:00017940       ?show_attr@Plugin@@QEAAXXZ 0000000064018940 f i plugin.obj
 0001:00017e50       ?close@Plugin@@QEAAXXZ     0000000064018e50 f i plugin.obj
 0001:00017ef0       ?convert_to_sfx@Plugin@@SAXAEBV?$vector@V?$basic_string@_WU?$char_traits@_W@std@@V?$allocator@_W@2@@std@@V?$allocator@V?$basic_string@_WU?$char_traits@_W@std@@V?$allocator@_W@2@@std@@@2@@std@@@Z 0000000064018ef0 f i plugin.obj
 0001:00018120       ??1MenuItems@Far@@QEAA@XZ  0000000064019120 f i plugin.obj
 0001:00018120       ??1?$vector@V?$basic_string@_WU?$char_traits@_W@std@@V?$allocator@_W@2@@std@@V?$allocator@V?$basic_string@_WU?$char_traits@_W@std@@V?$allocator@_W@2@@std@@@2@@std@@QEAA@XZ 0000000064019120 f i plugin.obj
 0001:00018120       ??1TestCommand@@QEAA@XZ    0000000064019120 f i plugin.obj
 0001:00018160       ??1ExtractOptions@@QEAA@XZ 0000000064019160 f i plugin.obj
 0001:00018200       ??4ExtractOptions@@QEAAAEAU0@AEBU0@@Z 0000000064019200 f i plugin.obj
 0001:00018280       ??1OpenOptions@@QEAA@XZ    0000000064019280 f i plugin.obj
 0001:00018330       ??0ExtractOptions@@QEAA@AEBU0@@Z 0000000064019330 f i plugin.obj
 0001:000183f0       ??1UpdateOptions@@QEAA@XZ  00000000640193f0 f i plugin.obj
 0001:00018490       ??4SfxOptions@@QEAAAEAU0@AEBU0@@Z 0000000064019490 f i plugin.obj
 0001:00018520       ??1PanelItem@Far@@QEAA@XZ  0000000064019520 f i plugin.obj
 0001:000185d0       ??0UpdateOptions@@QEAA@AEBU0@@Z 00000000640195d0 f i plugin.obj
 0001:000186b0       ??0SfxOptions@@QEAA@AEBU0@@Z 00000000640196b0 f i plugin.obj
 0001:00018790       ??1SfxOptions@@QEAA@XZ     0000000064019790 f i plugin.obj
 0001:00018850       ??1ProfileOptions@@QEAA@XZ 0000000064019850 f i plugin.obj
 0001:00018960       ??4SfxVersionInfo@@QEAAAEAU0@AEBU0@@Z 0000000064019960 f i plugin.obj
 0001:00018a20       ??4SfxInstallConfig@@QEAAAEAU0@AEBU0@@Z 0000000064019a20 f i plugin.obj
 0001:00018b00       ??0ProfileOptions@@QEAA@AEBU0@@Z 0000000064019b00 f i plugin.obj
 0001:00018c70       ??0SfxVersionInfo@@QEAA@AEBU0@@Z 0000000064019c70 f i plugin.obj
 0001:00018de0       ??1SfxVersionInfo@@QEAA@XZ 0000000064019de0 f i plugin.obj
 0001:00018f60       ??0SfxInstallConfig@@QEAA@AEBU0@@Z 0000000064019f60 f i plugin.obj
 0001:00019110       ??1SfxInstallConfig@@QEAA@XZ 000000006401a110 f i plugin.obj
 0001:000192c0       GetGlobalInfoW             000000006401a2c0 f   plugin.obj
 0001:00019340       SetStartupInfoW            000000006401a340 f   plugin.obj
 0001:000193c0       GetPluginInfoW             000000006401a3c0 f   plugin.obj
 0001:000194a0       AnalyseW                   000000006401a4a0 f   plugin.obj
 0001:00019e90       CloseAnalyseW              000000006401ae90 f   plugin.obj
 0001:00019ef0       ??_G?$vector@V?$shared_ptr@VArchive@@@std@@V?$allocator@V?$shared_ptr@VArchive@@@std@@@2@@std@@QEAAPEAXI@Z 000000006401aef0 f i plugin.obj
 0001:00019f40       OpenW                      000000006401af40 f   plugin.obj
 0001:0001aad0       ??1CommandArgs@@QEAA@XZ    000000006401bad0 f i plugin.obj
 0001:0001ab20       ??1OpenCommand@@QEAA@XZ    000000006401bb20 f i plugin.obj
 0001:0001ab30       ??0OpenOptions@@QEAA@$$QEAU0@@Z 000000006401bb30 f i plugin.obj
 0001:0001ac00       ??1UpdateCommand@@QEAA@XZ  000000006401bc00 f i plugin.obj
 0001:0001acb0       ??1ExtractCommand@@QEAA@XZ 000000006401bcb0 f i plugin.obj
 0001:0001ad00       ClosePanelW                000000006401bd00 f   plugin.obj
 0001:0001ad50       ??1Plugin@@QEAA@XZ         000000006401bd50 f i plugin.obj
 0001:0001af10       GetOpenPanelInfoW          000000006401bf10 f   plugin.obj
 0001:0001af60       SetDirectoryW              000000006401bf60 f   plugin.obj
 0001:0001b030       GetFindDataW               000000006401c030 f   plugin.obj
 0001:0001b0a0       FreeFindDataW              000000006401c0a0 f   plugin.obj
 0001:0001b0c0       GetFilesW                  000000006401c0c0 f   plugin.obj
 0001:0001b140       PutFilesW                  000000006401c140 f   plugin.obj
 0001:0001b1c0       DeleteFilesW               000000006401c1c0 f   plugin.obj
 0001:0001b230       MakeDirectoryW             000000006401c230 f   plugin.obj
 0001:0001b2a0       ProcessHostFileW           000000006401c2a0 f   plugin.obj
 0001:0001b440       ProcessPanelInputW         000000006401c440 f   plugin.obj
 0001:0001b4d0       ConfigureW                 000000006401c4d0 f   plugin.obj
 0001:0001b9b0       ??1PluginSettings@@QEAA@XZ 000000006401c9b0 f i plugin.obj
 0001:0001bac0       ?ExitFARW@@YAXPEAUExitInfo@@@Z 000000006401cac0 f   plugin.obj
 0001:0001bb00       ??1?$shared_ptr@V?$list@UError@@V?$allocator@UError@@@std@@@std@@@std@@QEAA@XZ 000000006401cb00 f i plugin.obj
 0001:0001bb00       ??1?$shared_ptr@X@std@@QEAA@XZ 000000006401cb00 f i plugin.obj
 0001:0001bb00       ??1?$shared_ptr@V?$map@IUFileIndexInfo@@U?$less@I@std@@V?$allocator@U?$pair@$$CBIUFileIndexInfo@@@std@@@3@@std@@@std@@QEAA@XZ 000000006401cb00 f i update.obj
 0001:0001bb00       ??1?$shared_ptr@VExtractProgress@@@std@@QEAA@XZ 000000006401cb00 f i extract.obj
 0001:0001bb00       ??1?$shared_ptr@W4OverwriteAction@@@std@@QEAA@XZ 000000006401cb00 f i extract.obj
 0001:0001bb00       ??1?$shared_ptr@V?$set@IU?$less@I@std@@V?$allocator@I@2@@std@@@std@@QEAA@XZ 000000006401cb00 f i extract.obj
 0001:0001bb00       ??1?$shared_ptr@VArchiveUpdateProgress@@@std@@QEAA@XZ 000000006401cb00 f i update.obj
 0001:0001bb00       ??1?$shared_ptr@VArchive@@@std@@QEAA@XZ 000000006401cb00 f i plugin.obj
 0001:0001bb00       ??1?$shared_ptr@_N@std@@QEAA@XZ 000000006401cb00 f i extract.obj
 0001:0001bb00       ??1?$shared_ptr@VFileWriteCache@@@std@@QEAA@XZ 000000006401cb00 f i extract.obj
 0001:0001bb00       ??1?$shared_ptr@VProgressMonitor@@@std@@QEAA@XZ 000000006401cb00 f i delete.obj
 0001:0001bb00       ??1?$shared_ptr@VArchiveFileDeleterProgress@@@std@@QEAA@XZ 000000006401cb00 f i delete.obj
 0001:0001bb50       ??1?$unique_ptr@$$BY0A@UPluginPanelItem@@U?$default_delete@$$BY0A@UPluginPanelItem@@@std@@@std@@QEAA@XZ 000000006401cb50 f i plugin.obj
 0001:0001bb50       ??1?$unique_ptr@$$BY0A@EU?$default_delete@$$BY0A@E@std@@@std@@QEAA@XZ 000000006401cb50 f i farutils.obj
 0001:0001bb60       ?push_back@?$vector@UInfoPanelLine@@V?$allocator@UInfoPanelLine@@@std@@@std@@QEAAXAEBUInfoPanelLine@@@Z 000000006401cb60 f i plugin.obj
 0001:0001bc20       ??1?$unique_ptr@V?$vector@V?$shared_ptr@VArchive@@@std@@V?$allocator@V?$shared_ptr@VArchive@@@std@@@2@@std@@U?$default_delete@V?$vector@V?$shared_ptr@VArchive@@@std@@V?$allocator@V?$shared_ptr@VArchive@@@std@@@2@@std@@@2@@std@@QEAA@XZ 000000006401cc20 f i plugin.obj
 0001:0001bc80       ?count@?$_Tree@V?$_Tset_traits@V?$basic_string@_WU?$char_traits@_W@std@@V?$allocator@_W@2@@std@@U?$less@V?$basic_string@_WU?$char_traits@_W@std@@V?$allocator@_W@2@@std@@@2@V?$allocator@V?$basic_string@_WU?$char_traits@_W@std@@V?$allocator@_W@2@@std@@@2@$0A@@std@@@std@@QEBA_KAEBV?$basic_string@_WU?$char_traits@_W@std@@V?$allocator@_W@2@@2@@Z 000000006401cc80 f i plugin.obj
 0001:0001bd10       ??1?$ComObject@UIInArchive@@@@QEAA@XZ 000000006401cd10 f i plugin.obj
 0001:0001bd10       ??1?$ComObject@UISequentialInStream@@@@QEAA@XZ 000000006401cd10 f i open.obj
 0001:0001bd10       ??1?$ComObject@UIArchiveAllowTail@@@@QEAA@XZ 000000006401cd10 f i open.obj
 0001:0001bd10       ??1?$ComObject@UIInArchiveGetStream@@@@QEAA@XZ 000000006401cd10 f i open.obj
 0001:0001bd10       ??1?$ComObject@UIArchiveExtractCallback@@@@QEAA@XZ 000000006401cd10 f i extract.obj
 0001:0001bd10       ??1?$ComObject@UIOutStream@@@@QEAA@XZ 000000006401cd10 f i update.obj
 0001:0001bd10       ??1?$ComObject@UISetProperties@@@@QEAA@XZ 000000006401cd10 f i update.obj
 0001:0001bd10       ??1?$ComObject@UIInStream@@@@QEAA@XZ 000000006401cd10 f i open.obj
 0001:0001bd10       ??1?$ComObject@UIOutArchive@@@@QEAA@XZ 000000006401cd10 f i update.obj
 0001:0001bd10       ??1?$ComObject@UIArchiveUpdateCallback@@@@QEAA@XZ 000000006401cd10 f i update.obj
 0001:0001bd40       ??1?$enable_shared_from_this@VArchive@@@std@@IEAA@XZ 000000006401cd40 f i plugin.obj
 0001:0001bd60       ??4?$shared_ptr@VArchive@@@std@@QEAAAEAV01@AEBV01@@Z 000000006401cd60 f i plugin.obj
 0001:0001bdf0       ??1?$_Vb_val@V?$allocator@_N@std@@@std@@QEAA@XZ 000000006401cdf0 f i msearch.obj
 0001:0001bdf0       ??1?$vector@_NV?$allocator@_N@std@@@std@@QEAA@XZ 000000006401cdf0 f i msearch.obj
 0001:0001bdf0       ??1?$vector@IV?$allocator@I@std@@@std@@QEAA@XZ 000000006401cdf0 f i plugin.obj
 0001:0001be30       ??1?$vector@UArcFileInfo@@V?$allocator@UArcFileInfo@@@std@@@std@@QEAA@XZ 000000006401ce30 f i plugin.obj
 0001:0001be90       ?count@?$_Tree@V?$_Tmap_traits@V?$vector@EV?$allocator@E@std@@@std@@UArcFormat@@U?$less@V?$vector@EV?$allocator@E@std@@@std@@@2@V?$allocator@U?$pair@$$CBV?$vector@EV?$allocator@E@std@@@std@@UArcFormat@@@std@@@2@$0A@@std@@@std@@QEBA_KAEBV?$vector@EV?$allocator@E@std@@@2@@Z 000000006401ce90 f i plugin.obj
 0001:0001bf20       ??1?$list@UAttr@@V?$allocator@UAttr@@@std@@@std@@QEAA@XZ 000000006401cf20 f i plugin.obj
 0001:0001bf90       ?push_back@?$list@UError@@V?$allocator@UError@@@std@@@std@@QEAAXAEBUError@@@Z 000000006401cf90 f i plugin.obj
 0001:0001c000       ??0?$list@UError@@V?$allocator@UError@@@std@@@std@@QEAA@XZ 000000006401d000 f i plugin.obj
 0001:0001c030       ??4?$list@V?$vector@EV?$allocator@E@std@@@std@@V?$allocator@V?$vector@EV?$allocator@E@std@@@std@@@2@@std@@QEAAAEAV01@$$QEAV01@@Z 000000006401d030 f i plugin.obj
 0001:0001c080       ?push_back@?$vector@V?$basic_string@_WU?$char_traits@_W@std@@V?$allocator@_W@2@@std@@V?$allocator@V?$basic_string@_WU?$char_traits@_W@std@@V?$allocator@_W@2@@std@@@2@@std@@QEAAX$$QEAV?$basic_string@_WU?$char_traits@_W@std@@V?$allocator@_W@2@@2@@Z 000000006401d080 f i plugin.obj
 0001:0001c110       ?_Reserve@?$vector@UInfoPanelLine@@V?$allocator@UInfoPanelLine@@@std@@@std@@IEAAX_K@Z 000000006401d110 f i plugin.obj
 0001:0001c1e0       ?_Reallocate@?$vector@UInfoPanelLine@@V?$allocator@UInfoPanelLine@@@std@@@std@@IEAAX_K@Z 000000006401d1e0 f i plugin.obj
 0001:0001c2a0       ??R?$default_delete@V?$vector@V?$shared_ptr@VArchive@@@std@@V?$allocator@V?$shared_ptr@VArchive@@@std@@@2@@std@@@std@@QEBAXPEAV?$vector@V?$shared_ptr@VArchive@@@std@@V?$allocator@V?$shared_ptr@VArchive@@@std@@@2@@1@@Z 000000006401d2a0 f i plugin.obj
 0001:0001c300       ?deallocate@?$_Wrap_alloc@V?$allocator@UStrPos@@@std@@@std@@QEAAXPEAUStrPos@@_K@Z 000000006401d300 f i open.obj
 0001:0001c300       ?deallocate@?$_Wrap_alloc@V?$allocator@V?$shared_ptr@VArchive@@@std@@@std@@@std@@QEAAXPEAV?$shared_ptr@VArchive@@@2@_K@Z 000000006401d300 f i plugin.obj
 0001:0001c300       ?deallocate@?$_Wrap_alloc@V?$allocator@USigData@@@std@@@std@@QEAAXPEAUSigData@@_K@Z 000000006401d300 f i open.obj
 0001:0001c370       ?erase@?$_Tree@V?$_Tset_traits@V?$basic_string@_WU?$char_traits@_W@std@@V?$allocator@_W@2@@std@@U?$less@V?$basic_string@_WU?$char_traits@_W@std@@V?$allocator@_W@2@@std@@@2@V?$allocator@V?$basic_string@_WU?$char_traits@_W@std@@V?$allocator@_W@2@@std@@@2@$0A@@std@@@std@@QEAA?AV?$_Tree_const_iterator@V?$_Tree_val@U?$_Tree_simple_types@V?$basic_string@_WU?$char_traits@_W@std@@V?$allocator@_W@2@@std@@@std@@@std@@@2@V32@0@Z 000000006401d370 f i plugin.obj
 0001:0001c370       ?erase@?$_Tree@V?$_Tset_traits@V?$basic_string@_WU?$char_traits@_W@std@@V?$allocator@_W@2@@std@@UItemCompare@?1??show@MultiSelectDialog@@QEAA_NXZ@V?$allocator@V?$basic_string@_WU?$char_traits@_W@std@@V?$allocator@_W@2@@std@@@2@$0A@@std@@@std@@QEAA?AV?$_Tree_const_iterator@V?$_Tree_val@U?$_Tree_simple_types@V?$basic_string@_WU?$char_traits@_W@std@@V?$allocator@_W@2@@std@@@std@@@std@@@2@V32@0@Z 000000006401d370 f i ui.obj
 0001:0001c460       ?_Destroy@?$vector@V?$shared_ptr@VArchive@@@std@@V?$allocator@V?$shared_ptr@VArchive@@@std@@@2@@std@@IEAAXPEAV?$shared_ptr@VArchive@@@2@0@Z 000000006401d460 f i plugin.obj
 0001:0001c4d0       ?erase@?$_Tree@V?$_Tset_traits@V?$basic_string@_WU?$char_traits@_W@std@@V?$allocator@_W@2@@std@@U?$less@V?$basic_string@_WU?$char_traits@_W@std@@V?$allocator@_W@2@@std@@@2@V?$allocator@V?$basic_string@_WU?$char_traits@_W@std@@V?$allocator@_W@2@@std@@@2@$0A@@std@@@std@@QEAA?AV?$_Tree_const_iterator@V?$_Tree_val@U?$_Tree_simple_types@V?$basic_string@_WU?$char_traits@_W@std@@V?$allocator@_W@2@@std@@@std@@@std@@@2@V32@@Z 000000006401d4d0 f i plugin.obj
 0001:0001c4d0       ?erase@?$_Tree@V?$_Tset_traits@V?$basic_string@_WU?$char_traits@_W@std@@V?$allocator@_W@2@@std@@UItemCompare@?1??show@MultiSelectDialog@@QEAA_NXZ@V?$allocator@V?$basic_string@_WU?$char_traits@_W@std@@V?$allocator@_W@2@@std@@@2@$0A@@std@@@std@@QEAA?AV?$_Tree_const_iterator@V?$_Tree_val@U?$_Tree_simple_types@V?$basic_string@_WU?$char_traits@_W@std@@V?$allocator@_W@2@@std@@@std@@@std@@@2@V32@@Z 000000006401d4d0 f i ui.obj
 0001:0001c980       ?_Buynode0@?$_List_alloc@U?$_List_base_types@UError@@V?$allocator@UError@@@std@@@std@@@std@@QEAAPEAU?$_List_node@UError@@PEAX@2@PEAU32@0@Z 000000006401d980 f i plugin.obj
 0001:0001c980       ?_Buynode0@?$_List_alloc@U?$_List_base_types@UIconImageRsrc@@V?$allocator@UIconImageRsrc@@@std@@@std@@@std@@QEAAPEAU?$_List_node@UIconImageRsrc@@PEAX@2@PEAU32@0@Z 000000006401d980 f i rsrc.obj
 0001:0001c980       ?_Buynode0@?$_List_alloc@U?$_List_base_types@VRsrcId@@V?$allocator@VRsrcId@@@std@@@std@@@std@@QEAAPEAU?$_List_node@VRsrcId@@PEAX@2@PEAU32@0@Z 000000006401d980 f i rsrc.obj
 0001:0001c9d0       ?_Buynode0@?$_List_alloc@U?$_List_base_types@UIconRsrc@@V?$allocator@UIconRsrc@@@std@@@std@@@std@@QEAAPEAU?$_List_node@UIconRsrc@@PEAX@2@PEAU32@0@Z 000000006401d9d0 f i rsrc.obj
 0001:0001c9d0       ?_Buynode0@?$_List_alloc@U?$_List_base_types@UAttr@@V?$allocator@UAttr@@@std@@@std@@@std@@QEAAPEAU?$_List_node@UAttr@@PEAX@2@PEAU32@0@Z 000000006401d9d0 f i plugin.obj
 0001:0001ca20       ?_Buyheadnode@?$_Tree_comp_alloc@V?$_Tset_traits@V?$basic_string@_WU?$char_traits@_W@std@@V?$allocator@_W@2@@std@@UItemCompare@?1??show@MultiSelectDialog@@QEAA_NXZ@V?$allocator@V?$basic_string@_WU?$char_traits@_W@std@@V?$allocator@_W@2@@std@@@2@$0A@@std@@@std@@QEAAPEAU?$_Tree_node@V?$basic_string@_WU?$char_traits@_W@std@@V?$allocator@_W@2@@std@@PEAX@2@XZ 000000006401da20 f i ui.obj
 0001:0001ca20       ?_Buyheadnode@?$_Tree_comp_alloc@V?$_Tset_traits@V?$basic_string@_WU?$char_traits@_W@std@@V?$allocator@_W@2@@std@@U?$less@V?$basic_string@_WU?$char_traits@_W@std@@V?$allocator@_W@2@@std@@@2@V?$allocator@V?$basic_string@_WU?$char_traits@_W@std@@V?$allocator@_W@2@@std@@@2@$0A@@std@@@std@@QEAAPEAU?$_Tree_node@V?$basic_string@_WU?$char_traits@_W@std@@V?$allocator@_W@2@@std@@PEAX@2@XZ 000000006401da20 f i plugin.obj
 0001:0001ca60       ?_Erase@?$_Tree@V?$_Tset_traits@V?$basic_string@_WU?$char_traits@_W@std@@V?$allocator@_W@2@@std@@U?$less@V?$basic_string@_WU?$char_traits@_W@std@@V?$allocator@_W@2@@std@@@2@V?$allocator@V?$basic_string@_WU?$char_traits@_W@std@@V?$allocator@_W@2@@std@@@2@$0A@@std@@@std@@IEAAXPEAU?$_Tree_node@V?$basic_string@_WU?$char_traits@_W@std@@V?$allocator@_W@2@@std@@PEAX@2@@Z 000000006401da60 f i plugin.obj
 0001:0001ca60       ?_Erase@?$_Tree@V?$_Tset_traits@V?$basic_string@_WU?$char_traits@_W@std@@V?$allocator@_W@2@@std@@UItemCompare@?1??show@MultiSelectDialog@@QEAA_NXZ@V?$allocator@V?$basic_string@_WU?$char_traits@_W@std@@V?$allocator@_W@2@@std@@@2@$0A@@std@@@std@@IEAAXPEAU?$_Tree_node@V?$basic_string@_WU?$char_traits@_W@std@@V?$allocator@_W@2@@std@@PEAX@2@@Z 000000006401da60 f i ui.obj
 0001:0001cb60       ??$?HDU?$char_traits@D@std@@V?$allocator@D@1@@std@@YA?AV?$basic_string@DU?$char_traits@D@std@@V?$allocator@D@2@@0@$$QEAV10@PEBD@Z 000000006401db60 f i plugin.obj
 0001:0001cbd0       ??$?H_WU?$char_traits@_W@std@@V?$allocator@_W@1@@std@@YA?AV?$basic_string@_WU?$char_traits@_W@std@@V?$allocator@_W@2@@0@PEB_W$$QEAV10@@Z 000000006401dbd0 f i plugin.obj
 0001:0001cc40       ??$?H_WU?$char_traits@_W@std@@V?$allocator@_W@1@@std@@YA?AV?$basic_string@_WU?$char_traits@_W@std@@V?$allocator@_W@2@@0@PEB_WAEBV10@@Z 000000006401dc40 f i plugin.obj
 0001:0001cd20       ??$?H_WU?$char_traits@_W@std@@V?$allocator@_W@1@@std@@YA?AV?$basic_string@_WU?$char_traits@_W@std@@V?$allocator@_W@2@@0@$$QEAV10@AEBV10@@Z 000000006401dd20 f i plugin.obj
 0001:0001cd80       ??$copy@V?$_List_const_iterator@V?$_List_val@U?$_List_simple_types@V?$basic_string@_WU?$char_traits@_W@std@@V?$allocator@_W@2@@std@@@std@@@std@@@std@@V?$insert_iterator@V?$set@V?$basic_string@_WU?$char_traits@_W@std@@V?$allocator@_W@2@@std@@U?$less@V?$basic_string@_WU?$char_traits@_W@std@@V?$allocator@_W@2@@std@@@2@V?$allocator@V?$basic_string@_WU?$char_traits@_W@std@@V?$allocator@_W@2@@std@@@2@@std@@@2@@std@@YA?AV?$insert_iterator@V?$set@V?$basic_string@_WU?$char_traits@_W@std@@V?$allocator@_W@2@@std@@U?$less@V?$basic_string@_WU?$char_traits@_W@std@@V?$allocator@_W@2@@std@@@2@V?$allocator@V?$basic_string@_WU?$char_traits@_W@std@@V?$allocator@_W@2@@std@@@2@@std@@@0@V?$_List_const_iterator@V?$_List_val@U?$_List_simple_types@V?$basic_string@_WU?$char_traits@_W@std@@V?$allocator@_W@2@@std@@@std@@@std@@@0@0V10@@Z 000000006401dd80 f i plugin.obj
 0001:0001ce70       ??$assign@V?$_List_const_iterator@V?$_List_val@U?$_List_simple_types@UAttr@@@std@@@std@@@std@@@?$list@UAttr@@V?$allocator@UAttr@@@std@@@std@@QEAAXV?$_List_const_iterator@V?$_List_val@U?$_List_simple_types@UAttr@@@std@@@std@@@1@0@Z 000000006401de70 f i plugin.obj
 0001:0001d120       ??$_Eqrange@V?$basic_string@_WU?$char_traits@_W@std@@V?$allocator@_W@2@@std@@@?$_Tree@V?$_Tset_traits@V?$basic_string@_WU?$char_traits@_W@std@@V?$allocator@_W@2@@std@@U?$less@V?$basic_string@_WU?$char_traits@_W@std@@V?$allocator@_W@2@@std@@@2@V?$allocator@V?$basic_string@_WU?$char_traits@_W@std@@V?$allocator@_W@2@@std@@@2@$0A@@std@@@std@@IEBA?AU?$pair@V?$_Tree_const_iterator@V?$_Tree_val@U?$_Tree_simple_types@V?$basic_string@_WU?$char_traits@_W@std@@V?$allocator@_W@2@@std@@@std@@@std@@@std@@V12@@1@AEBV?$basic_string@_WU?$char_traits@_W@std@@V?$allocator@_W@2@@1@@Z 000000006401e120 f i plugin.obj
 0001:0001d350       ??$_Eqrange@V?$vector@EV?$allocator@E@std@@@std@@@?$_Tree@V?$_Tmap_traits@V?$vector@EV?$allocator@E@std@@@std@@UArcFormat@@U?$less@V?$vector@EV?$allocator@E@std@@@std@@@2@V?$allocator@U?$pair@$$CBV?$vector@EV?$allocator@E@std@@@std@@UArcFormat@@@std@@@2@$0A@@std@@@std@@IEBA?AU?$pair@V?$_Tree_const_iterator@V?$_Tree_val@U?$_Tree_simple_types@U?$pair@$$CBV?$vector@EV?$allocator@E@std@@@std@@UArcFormat@@@std@@@std@@@std@@@std@@V12@@1@AEBV?$vector@EV?$allocator@E@std@@@1@@Z 000000006401e350 f i plugin.obj
 0001:0001d350       ??$_Eqrange@V?$vector@EV?$allocator@E@std@@@std@@@?$_Tree@V?$_Tset_traits@V?$vector@EV?$allocator@E@std@@@std@@U?$less@V?$vector@EV?$allocator@E@std@@@std@@@2@V?$allocator@V?$vector@EV?$allocator@E@std@@@std@@@2@$0A@@std@@@std@@IEBA?AU?$pair@V?$_Tree_const_iterator@V?$_Tree_val@U?$_Tree_simple_types@V?$vector@EV?$allocator@E@std@@@std@@@std@@@std@@@std@@V12@@1@AEBV?$vector@EV?$allocator@E@std@@@1@@Z 000000006401e350 f i open.obj
 0001:0001d4a0       ?reserve@?$basic_string@_WU?$char_traits@_W@std@@V?$allocator@_W@2@@std@@QEAAX_K@Z 000000006401e4a0 f i plugin.obj
 0001:0001d560       ?_Reset0@?$_Ptr_base@W4OverwriteAction@@@std@@QEAAXPEAW4OverwriteAction@@PEAV_Ref_count_base@2@@Z 000000006401e560 f i extract.obj
 0001:0001d560       ?_Reset0@?$_Ptr_base@V?$set@IU?$less@I@std@@V?$allocator@I@2@@std@@@std@@QEAAXPEAV?$set@IU?$less@I@std@@V?$allocator@I@2@@2@PEAV_Ref_count_base@2@@Z 000000006401e560 f i extract.obj
 0001:0001d560       ?_Reset0@?$_Ptr_base@VFileWriteCache@@@std@@QEAAXPEAVFileWriteCache@@PEAV_Ref_count_base@2@@Z 000000006401e560 f i extract.obj
 0001:0001d560       ?_Reset0@?$_Ptr_base@VArchive@@@std@@QEAAXPEAVArchive@@PEAV_Ref_count_base@2@@Z 000000006401e560 f i plugin.obj
 0001:0001d560       ?_Reset0@?$_Ptr_base@VFileFilter@Far@@@std@@QEAAXPEAVFileFilter@Far@@PEAV_Ref_count_base@2@@Z 000000006401e560 f i plugin.obj
 0001:0001d560       ?_Reset0@?$_Ptr_base@V?$map@IUFileIndexInfo@@U?$less@I@std@@V?$allocator@U?$pair@$$CBIUFileIndexInfo@@@std@@@3@@std@@@std@@QEAAXPEAV?$map@IUFileIndexInfo@@U?$less@I@std@@V?$allocator@U?$pair@$$CBIUFileIndexInfo@@@std@@@3@@2@PEAV_Ref_count_base@2@@Z 000000006401e560 f i update.obj
 0001:0001d560       ?_Reset0@?$_Ptr_base@V?$list@UError@@V?$allocator@UError@@@std@@@std@@@std@@QEAAXPEAV?$list@UError@@V?$allocator@UError@@@std@@@2@PEAV_Ref_count_base@2@@Z 000000006401e560 f i plugin.obj
 0001:0001d560       ?_Reset0@?$_Ptr_base@_N@std@@QEAAXPEA_NPEAV_Ref_count_base@2@@Z 000000006401e560 f i extract.obj
 0001:0001d560       ?_Reset0@?$_Ptr_base@VArchiveUpdateProgress@@@std@@QEAAXPEAVArchiveUpdateProgress@@PEAV_Ref_count_base@2@@Z 000000006401e560 f i update.obj
 0001:0001d560       ?_Reset0@?$_Ptr_base@VArchiveFileDeleterProgress@@@std@@QEAAXPEAVArchiveFileDeleterProgress@@PEAV_Ref_count_base@2@@Z 000000006401e560 f i delete.obj
 0001:0001d560       ?_Reset0@?$_Ptr_base@VProgressMonitor@@@std@@QEAAXPEAVProgressMonitor@@PEAV_Ref_count_base@2@@Z 000000006401e560 f i delete.obj
 0001:0001d560       ?_Reset0@?$_Ptr_base@VExtractProgress@@@std@@QEAAXPEAVExtractProgress@@PEAV_Ref_count_base@2@@Z 000000006401e560 f i extract.obj
 0001:0001d5f0       ?insert@?$basic_string@_WU?$char_traits@_W@std@@V?$allocator@_W@2@@std@@QEAAAEAV12@_KPEB_W0@Z 000000006401e5f0 f i plugin.obj
 0001:0001d790       ??$_Resetp@VArchive@@@?$shared_ptr@VArchive@@@std@@AEAAXPEAVArchive@@@Z 000000006401e790 f i plugin.obj
 0001:0001d830       ??$_For_each@V?$_List_unchecked_iterator@V?$_List_val@U?$_List_simple_types@UAttr@@@std@@@std@@@std@@V<lambda_234994905e01612bacf1399039a911ae>@@@std@@YAXV?$_List_unchecked_iterator@V?$_List_val@U?$_List_simple_types@UAttr@@@std@@@std@@@0@0AEAV<lambda_234994905e01612bacf1399039a911ae>@@@Z 000000006401e830 f i plugin.obj
 0001:0001d8c0       ??$_For_each@PEBIV<lambda_0e4d23808a2614ded40a9b4bb86f0c73>@@@std@@YAXPEBI0AEAV<lambda_0e4d23808a2614ded40a9b4bb86f0c73>@@@Z 000000006401e8c0 f i plugin.obj
 0001:0001dae0       ??$_Resetp@V?$list@UError@@V?$allocator@UError@@@std@@@std@@@?$shared_ptr@V?$list@UError@@V?$allocator@UError@@@std@@@std@@@std@@AEAAXPEAV?$list@UError@@V?$allocator@UError@@@std@@@1@@Z 000000006401eae0 f i plugin.obj
 0001:0001db40       ??$_For_each@PEBIV<lambda_c47f8817346dc5f3e31760d4864895e5>@@@std@@YAXPEBI0AEAV<lambda_c47f8817346dc5f3e31760d4864895e5>@@@Z 000000006401eb40 f i plugin.obj
 0001:0001db40       ??$_For_each@PEBIV<lambda_714c2f0e411db0cda82fecc93ce64fe7>@@@std@@YAXPEBI0AEAV<lambda_714c2f0e411db0cda82fecc93ce64fe7>@@@Z 000000006401eb40 f i plugin.obj
 0001:0001dc20       ??$_For_each@PEBV?$basic_string@_WU?$char_traits@_W@std@@V?$allocator@_W@2@@std@@V<lambda_7447159bc3e60cfbd15e5e80e4c97ee3>@@@std@@YAXPEBV?$basic_string@_WU?$char_traits@_W@std@@V?$allocator@_W@2@@0@0AEAV<lambda_7447159bc3e60cfbd15e5e80e4c97ee3>@@@Z 000000006401ec20 f i plugin.obj
 0001:0001dc20       ??$_For_each@PEBV?$basic_string@_WU?$char_traits@_W@std@@V?$allocator@_W@2@@std@@V<lambda_fa8c1cb12a8441cc6dee8ac1a9902f56>@@@std@@YAXPEBV?$basic_string@_WU?$char_traits@_W@std@@V?$allocator@_W@2@@0@0AEAV<lambda_fa8c1cb12a8441cc6dee8ac1a9902f56>@@@Z 000000006401ec20 f i plugin.obj
 0001:0001dc20       ??$_For_each@PEBV?$basic_string@_WU?$char_traits@_W@std@@V?$allocator@_W@2@@std@@V<lambda_db277705a93822ce1dede9a53ea1e301>@@@std@@YAXPEBV?$basic_string@_WU?$char_traits@_W@std@@V?$allocator@_W@2@@0@0AEAV<lambda_db277705a93822ce1dede9a53ea1e301>@@@Z 000000006401ec20 f i plugin.obj
 0001:0001dd90       ??$_For_each@V?$_List_unchecked_iterator@V?$_List_val@U?$_List_simple_types@V?$basic_string@_WU?$char_traits@_W@std@@V?$allocator@_W@2@@std@@@std@@@std@@@std@@V<lambda_0cfbefae047faacab6424f43bba308d3>@@@std@@YAXV?$_List_unchecked_iterator@V?$_List_val@U?$_List_simple_types@V?$basic_string@_WU?$char_traits@_W@std@@V?$allocator@_W@2@@std@@@std@@@std@@@0@0AEAV<lambda_0cfbefae047faacab6424f43bba308d3>@@@Z 000000006401ed90 f i plugin.obj
 0001:0001df10       ??$_For_each@PEBV?$basic_string@_WU?$char_traits@_W@std@@V?$allocator@_W@2@@std@@V<lambda_842f293e5324244de3693e3f788b5954>@@@std@@YAXPEBV?$basic_string@_WU?$char_traits@_W@std@@V?$allocator@_W@2@@0@0AEAV<lambda_842f293e5324244de3693e3f788b5954>@@@Z 000000006401ef10 f i plugin.obj
 0001:0001e140       ??$_Resetp@XV<lambda_7e956bde6796eaf49aaf32ba9791a16f>@@@?$shared_ptr@X@std@@AEAAXPEAXV<lambda_7e956bde6796eaf49aaf32ba9791a16f>@@@Z 000000006401f140 f i plugin.obj
 0001:0001e190       ??$_Reusenode@AEBUAttr@@@?$list@UAttr@@V?$allocator@UAttr@@@std@@@std@@QEAAXV?$_List_iterator@V?$_List_val@U?$_List_simple_types@UAttr@@@std@@@std@@@1@AEBUAttr@@@Z 000000006401f190 f i plugin.obj
 0001:0001e1e0       ??$_Buynode@AEBUError@@@?$_List_buy@UError@@V?$allocator@UError@@@std@@@std@@QEAAPEAU?$_List_node@UError@@PEAX@1@PEAU21@0AEBUError@@@Z 000000006401f1e0 f i plugin.obj
 0001:0001e260       ??$_Buynode@V?$basic_string@_WU?$char_traits@_W@std@@V?$allocator@_W@2@@std@@@?$_List_buy@V?$basic_string@_WU?$char_traits@_W@std@@V?$allocator@_W@2@@std@@V?$allocator@V?$basic_string@_WU?$char_traits@_W@std@@V?$allocator@_W@2@@std@@@2@@std@@QEAAPEAU?$_List_node@V?$basic_string@_WU?$char_traits@_W@std@@V?$allocator@_W@2@@std@@PEAX@1@PEAU21@0$$QEAV?$basic_string@_WU?$char_traits@_W@std@@V?$allocator@_W@2@@1@@Z 000000006401f260 f i plugin.obj
 0001:0001e2c0       ??1Archive@@QEAA@XZ        000000006401f2c0 f i plugin.obj
 0001:0001e500       ?_Delete_this@?$_Ref_count@VArchiveUpdateProgress@@@std@@EEAAXXZ 000000006401f500 f i update.obj
 0001:0001e500       ?_Delete_this@?$_Ref_count@VFileFilter@Far@@@std@@EEAAXXZ 000000006401f500 f i ui.obj
 0001:0001e500       ?_Delete_this@?$_Ref_count@V?$set@IU?$less@I@std@@V?$allocator@I@2@@std@@@std@@EEAAXXZ 000000006401f500 f i extract.obj
 0001:0001e500       ?_Delete_this@?$_Ref_count@V?$list@UError@@V?$allocator@UError@@@std@@@std@@@std@@EEAAXXZ 000000006401f500 f i plugin.obj
 0001:0001e500       ?_Delete_this@?$_Ref_count@VArchiveFileDeleterProgress@@@std@@EEAAXXZ 000000006401f500 f i delete.obj
 0001:0001e500       ?_Delete_this@?$_Ref_count_del@XV<lambda_7e956bde6796eaf49aaf32ba9791a16f>@@@std@@EEAAXXZ 000000006401f500 f i plugin.obj
 0001:0001e500       ?_Delete_this@?$_Ref_count@W4OverwriteAction@@@std@@EEAAXXZ 000000006401f500 f i extract.obj
 0001:0001e500       ?_Delete_this@?$_Ref_count@VArchive@@@std@@EEAAXXZ 000000006401f500 f i plugin.obj
 0001:0001e500       ?_Delete_this@?$_Ref_count@_N@std@@EEAAXXZ 000000006401f500 f i extract.obj
 0001:0001e500       ?_Delete_this@?$_Ref_count@VFileWriteCache@@@std@@EEAAXXZ 000000006401f500 f i extract.obj
 0001:0001e500       ?_Delete_this@?$_Ref_count@VExtractProgress@@@std@@EEAAXXZ 000000006401f500 f i extract.obj
 0001:0001e500       ?_Delete_this@?$_Ref_count@V?$map@IUFileIndexInfo@@U?$less@I@std@@V?$allocator@U?$pair@$$CBIUFileIndexInfo@@@std@@@3@@std@@@std@@EEAAXXZ 000000006401f500 f i update.obj
 0001:0001e520       ?_Destroy@?$_Ref_count_del@XV<lambda_7e956bde6796eaf49aaf32ba9791a16f>@@@std@@EEAAXXZ 000000006401f520 f i plugin.obj
 0001:0001e530       ?_Get_deleter@?$_Ref_count_del@XV<lambda_7e956bde6796eaf49aaf32ba9791a16f>@@@std@@UEBAPEAXAEBVtype_info@@@Z 000000006401f530 f i plugin.obj
 0001:0001e560       ?_Destroy@?$_Ref_count@V?$list@UError@@V?$allocator@UError@@@std@@@std@@@std@@EEAAXXZ 000000006401f560 f i plugin.obj
 0001:0001e5a0       ?_Destroy@?$_Ref_count@VArchive@@@std@@EEAAXXZ 000000006401f5a0 f i plugin.obj
 0001:0001e5d0       ??1?$list@UError@@V?$allocator@UError@@@std@@@std@@QEAA@XZ 000000006401f5d0 f i plugin.obj
 0001:0001e5f0       ??_G?$_Ref_count@VArchive@@@std@@UEAAPEAXI@Z 000000006401f5f0 f i plugin.obj
 0001:0001e5f0       ??_E?$_Ref_count@V?$set@IU?$less@I@std@@V?$allocator@I@2@@std@@@std@@UEAAPEAXI@Z 000000006401f5f0 f i * CIL library *:* CIL module *
 0001:0001e5f0       ??_E?$_Ref_count@W4OverwriteAction@@@std@@UEAAPEAXI@Z 000000006401f5f0 f i * CIL library *:* CIL module *
 0001:0001e5f0       ??_E?$_Ref_count@V?$list@UError@@V?$allocator@UError@@@std@@@std@@@std@@UEAAPEAXI@Z 000000006401f5f0 f i * CIL library *:* CIL module *
 0001:0001e5f0       ??_E?$_Ref_count@V?$map@IUFileIndexInfo@@U?$less@I@std@@V?$allocator@U?$pair@$$CBIUFileIndexInfo@@@std@@@3@@std@@@std@@UEAAPEAXI@Z 000000006401f5f0 f i * CIL library *:* CIL module *
 0001:0001e5f0       ??_E?$_Ref_count@VExtractProgress@@@std@@UEAAPEAXI@Z 000000006401f5f0 f i * CIL library *:* CIL module *
 0001:0001e5f0       ??_G?$_Ref_count@V?$map@IUFileIndexInfo@@U?$less@I@std@@V?$allocator@U?$pair@$$CBIUFileIndexInfo@@@std@@@3@@std@@@std@@UEAAPEAXI@Z 000000006401f5f0 f i update.obj
 0001:0001e5f0       ??_E?$_Ref_count@VFileFilter@Far@@@std@@UEAAPEAXI@Z 000000006401f5f0 f i * CIL library *:* CIL module *
 0001:0001e5f0       ??_E?$_Ref_count@VArchive@@@std@@UEAAPEAXI@Z 000000006401f5f0 f i * CIL library *:* CIL module *
 0001:0001e5f0       ??_E?$_Ref_count@_N@std@@UEAAPEAXI@Z 000000006401f5f0 f i * CIL library *:* CIL module *
 0001:0001e5f0       ??_G?$_Ref_count@VArchiveUpdateProgress@@@std@@UEAAPEAXI@Z 000000006401f5f0 f i update.obj
 0001:0001e5f0       ??_G?$_Ref_count@V?$list@UError@@V?$allocator@UError@@@std@@@std@@@std@@UEAAPEAXI@Z 000000006401f5f0 f i plugin.obj
 0001:0001e5f0       ??_E?$_Ref_count@VArchiveFileDeleterProgress@@@std@@UEAAPEAXI@Z 000000006401f5f0 f i * CIL library *:* CIL module *
 0001:0001e5f0       ??_G?$_Ref_count@VExtractProgress@@@std@@UEAAPEAXI@Z 000000006401f5f0 f i extract.obj
 0001:0001e5f0       ??_E?$_Ref_count@VArchiveUpdateProgress@@@std@@UEAAPEAXI@Z 000000006401f5f0 f i * CIL library *:* CIL module *
 0001:0001e5f0       ??_E?$_Ref_count@VFileWriteCache@@@std@@UEAAPEAXI@Z 000000006401f5f0 f i * CIL library *:* CIL module *
 0001:0001e5f0       ??_G?$_Ref_count@VArchiveFileDeleterProgress@@@std@@UEAAPEAXI@Z 000000006401f5f0 f i delete.obj
 0001:0001e5f0       ??_G?$_Ref_count_del@XV<lambda_7e956bde6796eaf49aaf32ba9791a16f>@@@std@@UEAAPEAXI@Z 000000006401f5f0 f i plugin.obj
 0001:0001e5f0       ??_G?$_Ref_count@W4OverwriteAction@@@std@@UEAAPEAXI@Z 000000006401f5f0 f i extract.obj
 0001:0001e5f0       ??_G?$_Ref_count@_N@std@@UEAAPEAXI@Z 000000006401f5f0 f i extract.obj
 0001:0001e5f0       ??_G?$_Ref_count@VFileFilter@Far@@@std@@UEAAPEAXI@Z 000000006401f5f0 f i ui.obj
 0001:0001e5f0       ??_G?$_Ref_count@VFileWriteCache@@@std@@UEAAPEAXI@Z 000000006401f5f0 f i extract.obj
 0001:0001e5f0       ??_E?$_Ref_count_del@XV<lambda_7e956bde6796eaf49aaf32ba9791a16f>@@@std@@UEAAPEAXI@Z 000000006401f5f0 f i * CIL library *:* CIL module *
 0001:0001e5f0       ??_G?$_Ref_count@V?$set@IU?$less@I@std@@V?$allocator@I@2@@std@@@std@@UEAAPEAXI@Z 000000006401f5f0 f i extract.obj
 0001:0001e620       ?clear@?$list@UError@@V?$allocator@UError@@@std@@@std@@QEAAXXZ 000000006401f620 f i plugin.obj
 0001:0001e6a0       ??$_Construct@PEBD@?$basic_string@_WU?$char_traits@_W@std@@V?$allocator@_W@2@@std@@QEAAXPEBD0Uinput_iterator_tag@1@@Z 000000006401f6a0 f i strutils.obj
 0001:0001e6a0       ??$_Construct@PEAD@?$basic_string@_WU?$char_traits@_W@std@@V?$allocator@_W@2@@std@@QEAAXPEAD0Uinput_iterator_tag@1@@Z 000000006401f6a0 f i plugin.obj
 0001:0001e7b0       ??$_Buynode@AEBUAttr@@@?$_List_buy@UAttr@@V?$allocator@UAttr@@@std@@@std@@QEAAPEAU?$_List_node@UAttr@@PEAX@1@PEAU21@0AEBUAttr@@@Z 000000006401f7b0 f i plugin.obj
 0001:0001e810       ??$destroy@V?$basic_string@_WU?$char_traits@_W@std@@V?$allocator@_W@2@@std@@@?$_Wrap_alloc@V?$allocator@V?$basic_string@_WU?$char_traits@_W@std@@V?$allocator@_W@2@@std@@@std@@@std@@QEAAXPEAV?$basic_string@_WU?$char_traits@_W@std@@V?$allocator@_W@2@@1@@Z 000000006401f810 f i plugin.obj
 0001:0001e860       ?_Reset0@?$_Ptr_base@X@std@@QEAAXPEAXPEAV_Ref_count_base@2@@Z 000000006401f860 f i plugin.obj
 0001:0001e900       ??$_Uninit_move@PEAUInfoPanelLine@@PEAU1@V?$allocator@UInfoPanelLine@@@std@@U1@@std@@YAPEAUInfoPanelLine@@PEAU1@00AEAU?$_Wrap_alloc@V?$allocator@UInfoPanelLine@@@std@@@0@0U_Nonscalar_ptr_iterator_tag@0@@Z 000000006401f900 f i plugin.obj
 0001:0001e930       ??$_Insert_hint@AEBV?$basic_string@_WU?$char_traits@_W@std@@V?$allocator@_W@2@@std@@U_Nil@2@@?$_Tree@V?$_Tset_traits@V?$basic_string@_WU?$char_traits@_W@std@@V?$allocator@_W@2@@std@@U?$less@V?$basic_string@_WU?$char_traits@_W@std@@V?$allocator@_W@2@@std@@@2@V?$allocator@V?$basic_string@_WU?$char_traits@_W@std@@V?$allocator@_W@2@@std@@@2@$0A@@std@@@std@@IEAA?AV?$_Tree_const_iterator@V?$_Tree_val@U?$_Tree_simple_types@V?$basic_string@_WU?$char_traits@_W@std@@V?$allocator@_W@2@@std@@@std@@@std@@@1@V21@AEBV?$basic_string@_WU?$char_traits@_W@std@@V?$allocator@_W@2@@1@U_Nil@1@@Z 000000006401f930 f i plugin.obj
 0001:0001ebf0       ??$_Insert_at@AEBV?$basic_string@_WU?$char_traits@_W@std@@V?$allocator@_W@2@@std@@U_Nil@2@@?$_Tree@V?$_Tset_traits@V?$basic_string@_WU?$char_traits@_W@std@@V?$allocator@_W@2@@std@@U?$less@V?$basic_string@_WU?$char_traits@_W@std@@V?$allocator@_W@2@@std@@@2@V?$allocator@V?$basic_string@_WU?$char_traits@_W@std@@V?$allocator@_W@2@@std@@@2@$0A@@std@@@std@@IEAA?AV?$_Tree_const_iterator@V?$_Tree_val@U?$_Tree_simple_types@V?$basic_string@_WU?$char_traits@_W@std@@V?$allocator@_W@2@@std@@@std@@@std@@@1@_NPEAU?$_Tree_node@V?$basic_string@_WU?$char_traits@_W@std@@V?$allocator@_W@2@@std@@PEAX@1@AEBV?$basic_string@_WU?$char_traits@_W@std@@V?$allocator@_W@2@@1@U_Nil@1@@Z 000000006401fbf0 f i plugin.obj
 0001:0001eec0       ??$_Insert_nohint@AEBV?$basic_string@_WU?$char_traits@_W@std@@V?$allocator@_W@2@@std@@U_Nil@2@@?$_Tree@V?$_Tset_traits@V?$basic_string@_WU?$char_traits@_W@std@@V?$allocator@_W@2@@std@@U?$less@V?$basic_string@_WU?$char_traits@_W@std@@V?$allocator@_W@2@@std@@@2@V?$allocator@V?$basic_string@_WU?$char_traits@_W@std@@V?$allocator@_W@2@@std@@@2@$0A@@std@@@std@@IEAA?AU?$pair@V?$_Tree_const_iterator@V?$_Tree_val@U?$_Tree_simple_types@V?$basic_string@_WU?$char_traits@_W@std@@V?$allocator@_W@2@@std@@@std@@@std@@@std@@_N@1@_NAEBV?$basic_string@_WU?$char_traits@_W@std@@V?$allocator@_W@2@@1@U_Nil@1@@Z 000000006401fec0 f i plugin.obj
 0001:0001f0c0       ??$_Buynode@AEBV?$basic_string@_WU?$char_traits@_W@std@@V?$allocator@_W@2@@std@@@?$_Tree_comp_alloc@V?$_Tset_traits@V?$basic_string@_WU?$char_traits@_W@std@@V?$allocator@_W@2@@std@@UItemCompare@?1??show@MultiSelectDialog@@QEAA_NXZ@V?$allocator@V?$basic_string@_WU?$char_traits@_W@std@@V?$allocator@_W@2@@std@@@2@$0A@@std@@@std@@QEAAPEAU?$_Tree_node@V?$basic_string@_WU?$char_traits@_W@std@@V?$allocator@_W@2@@std@@PEAX@1@AEBV?$basic_string@_WU?$char_traits@_W@std@@V?$allocator@_W@2@@1@@Z 00000000640200c0 f i ui.obj
 0001:0001f0c0       ??$_Buynode@AEAV?$basic_string@_WU?$char_traits@_W@std@@V?$allocator@_W@2@@std@@@?$_Tree_comp_alloc@V?$_Tset_traits@V?$basic_string@_WU?$char_traits@_W@std@@V?$allocator@_W@2@@std@@U?$less@V?$basic_string@_WU?$char_traits@_W@std@@V?$allocator@_W@2@@std@@@2@V?$allocator@V?$basic_string@_WU?$char_traits@_W@std@@V?$allocator@_W@2@@std@@@2@$0A@@std@@@std@@QEAAPEAU?$_Tree_node@V?$basic_string@_WU?$char_traits@_W@std@@V?$allocator@_W@2@@std@@PEAX@1@AEAV?$basic_string@_WU?$char_traits@_W@std@@V?$allocator@_W@2@@1@@Z 00000000640200c0 f i open.obj
 0001:0001f0c0       ??$_Buynode@AEBV?$basic_string@_WU?$char_traits@_W@std@@V?$allocator@_W@2@@std@@@?$_Tree_comp_alloc@V?$_Tset_traits@V?$basic_string@_WU?$char_traits@_W@std@@V?$allocator@_W@2@@std@@U?$less@V?$basic_string@_WU?$char_traits@_W@std@@V?$allocator@_W@2@@std@@@2@V?$allocator@V?$basic_string@_WU?$char_traits@_W@std@@V?$allocator@_W@2@@std@@@2@$0A@@std@@@std@@QEAAPEAU?$_Tree_node@V?$basic_string@_WU?$char_traits@_W@std@@V?$allocator@_W@2@@std@@PEAX@1@AEBV?$basic_string@_WU?$char_traits@_W@std@@V?$allocator@_W@2@@1@@Z 00000000640200c0 f i plugin.obj
 0001:0001f140       ?_Buynode0@?$_Tree_comp_alloc@V?$_Tset_traits@V?$basic_string@_WU?$char_traits@_W@std@@V?$allocator@_W@2@@std@@UItemCompare@?1??show@MultiSelectDialog@@QEAA_NXZ@V?$allocator@V?$basic_string@_WU?$char_traits@_W@std@@V?$allocator@_W@2@@std@@@2@$0A@@std@@@std@@QEAAPEAU?$_Tree_node@V?$basic_string@_WU?$char_traits@_W@std@@V?$allocator@_W@2@@std@@PEAX@2@XZ 0000000064020140 f i ui.obj
 0001:0001f140       ?_Buynode0@?$_Tree_comp_alloc@V?$_Tset_traits@V?$basic_string@_WU?$char_traits@_W@std@@V?$allocator@_W@2@@std@@U?$less@V?$basic_string@_WU?$char_traits@_W@std@@V?$allocator@_W@2@@std@@@2@V?$allocator@V?$basic_string@_WU?$char_traits@_W@std@@V?$allocator@_W@2@@std@@@2@$0A@@std@@@std@@QEAAPEAU?$_Tree_node@V?$basic_string@_WU?$char_traits@_W@std@@V?$allocator@_W@2@@std@@PEAX@2@XZ 0000000064020140 f i plugin.obj
 0001:0001f190       ??_G_Ref_count_base@std@@UEAAPEAXI@Z 0000000064020190 f i plugin.obj
 0001:0001f190       ??_E_Ref_count_base@std@@UEAAPEAXI@Z 0000000064020190 f i * CIL library *:* CIL module *
 0001:0001f1c0       ?SetOperationResult@ArchiveFileDeleter@@UEAAJH@Z 00000000640201c0 f i delete.obj
 0001:0001f1c0       ?showmanyc@?$basic_streambuf@_WU?$char_traits@_W@std@@@std@@MEAA_JXZ 00000000640201c0 f i ui.obj
 0001:0001f1c0       ?sync@?$basic_streambuf@_WU?$char_traits@_W@std@@@std@@MEAAHXZ 00000000640201c0 f i ui.obj
 0001:0001f1c0       ?_Get_deleter@_Ref_count_base@std@@UEBAPEAXAEBVtype_info@@@Z 00000000640201c0 f i plugin.obj
 0001:0001f1c0       ?PrepareOperation@ArchiveTester@@UEAAJH@Z 00000000640201c0 f i test.obj
 0001:0001f1d0       ?append@?$basic_string@DU?$char_traits@D@std@@V?$allocator@D@2@@std@@QEAAAEAV12@AEBV12@_K1@Z 00000000640201d0 f i plugin.obj
 0001:0001f300       ?append@?$basic_string@DU?$char_traits@D@std@@V?$allocator@D@2@@std@@QEAAAEAV12@PEBD_K@Z 0000000064020300 f i plugin.obj
 0001:0001f450       ?_Assign_rv@?$basic_string@DU?$char_traits@D@std@@V?$allocator@D@2@@std@@QEAAX$$QEAV12@@Z 0000000064020450 f i plugin.obj
 0001:0001f4d0       ?_Decref@_Ref_count_base@std@@QEAAXXZ 00000000640204d0 f i plugin.obj
 0001:0001f510       ?append@?$basic_string@_WU?$char_traits@_W@std@@V?$allocator@_W@2@@std@@QEAAAEAV12@_K_W@Z 0000000064020510 f i plugin.obj
 0001:0001f630       ??1DisableEvents@Dialog@Far@@QEAA@XZ 0000000064020630 f i ui.obj
 0001:0001f670       ?get_path@TempFile@@QEBA?AV?$basic_string@_WU?$char_traits@_W@std@@V?$allocator@_W@2@@std@@XZ 0000000064020670 f i ui.obj
 0001:0001f6b0       ??1ProgressSuspend@@QEAA@XZ 00000000640206b0 f i ui.obj
 0001:0001f6c0       ?get_error_dlg_title@@YA?AV?$basic_string@_WU?$char_traits@_W@std@@V?$allocator@_W@2@@std@@XZ 00000000640206c0 f   ui.obj
 0001:0001f6f0       ??0ProgressMonitor@@QEAA@AEBV?$basic_string@_WU?$char_traits@_W@std@@V?$allocator@_W@2@@std@@_N1@Z 00000000640206f0 f   ui.obj
 0001:0001f8c0       ??_GProgressMonitor@@UEAAPEAXI@Z 00000000640208c0 f i ui.obj
 0001:0001f8c0       ??_EProgressMonitor@@UEAAPEAXI@Z 00000000640208c0 f i * CIL library *:* CIL module *
 0001:0001f900       ??1ProgressMonitor@@UEAA@XZ 0000000064020900 f   ui.obj
 0001:0001fa40       ?display@ProgressMonitor@@AEAAXXZ 0000000064020a40 f   ui.obj
 0001:0001fe20       ?update_ui@ProgressMonitor@@QEAAX_N@Z 0000000064020e20 f   ui.obj
 0001:00020020       ?handle_esc@ProgressMonitor@@IEAAXXZ 0000000064021020 f   ui.obj
 0001:00020250       ?clean@ProgressMonitor@@QEAAXXZ 0000000064021250 f   ui.obj
 0001:000202c0       ?get_suffixes@@YAPEAPEB_WH@Z 00000000640212c0 f   ui.obj
 0001:00020500       ?dialog_proc@PasswordDialog@@EEAA_J_J0PEAX@Z 0000000064021500 f i ui.obj
 0001:000205b0       ??0PasswordDialog@@QEAA@AEAV?$basic_string@_WU?$char_traits@_W@std@@V?$allocator@_W@2@@std@@AEBV12@@Z 00000000640215b0 f i ui.obj
 0001:000206e0       ?show@PasswordDialog@@QEAA_NXZ 00000000640216e0 f i ui.obj
 0001:000208a0       ??1Dialog@Far@@QEAA@XZ     00000000640218a0 f i ui.obj
 0001:00020930       ?password_dialog@@YA_NAEAV?$basic_string@_WU?$char_traits@_W@std@@V?$allocator@_W@2@@std@@AEBV12@@Z 0000000064021930 f   ui.obj
 0001:00020a60       ??1OverwriteDialog@@QEAA@XZ 0000000064021a60 f i ui.obj
 0001:00020a60       ??1PasswordDialog@@QEAA@XZ 0000000064021a60 f i ui.obj
 0001:00020ac0       ?dialog_proc@OverwriteDialog@@EEAA_J_J0PEAX@Z 0000000064021ac0 f i ui.obj
 0001:00020c10       ??0OverwriteDialog@@QEAA@AEBV?$basic_string@_WU?$char_traits@_W@std@@V?$allocator@_W@2@@std@@AEBUOverwriteFileInfo@@1W4OverwriteDialogKind@@AEAUOverwriteOptions@@@Z 0000000064021c10 f i ui.obj
 0001:00020da0       ?show@OverwriteDialog@@QEAA_NXZ 0000000064021da0 f i ui.obj
 0001:00021490       ?overwrite_dialog@@YA_NAEBV?$basic_string@_WU?$char_traits@_W@std@@V?$allocator@_W@2@@std@@AEBUOverwriteFileInfo@@1W4OverwriteDialogKind@@AEAUOverwriteOptions@@@Z 0000000064022490 f   ui.obj
 0001:000215d0       ?read_controls@ExtractDialog@@AEAAXAEAUExtractOptions@@@Z 00000000640225d0 f i ui.obj
 0001:00021aa0       ?dialog_proc@ExtractDialog@@EEAA_J_J0PEAX@Z 0000000064022aa0 f i ui.obj
 0001:00021ce0       ??0ExtractDialog@@QEAA@AEAUExtractOptions@@@Z 0000000064022ce0 f i ui.obj
 0001:00021dd0       ?show@ExtractDialog@@QEAA_NXZ 0000000064022dd0 f i ui.obj
 0001:000224d0       ?extract_dialog@@YA_NAEAUExtractOptions@@@Z 00000000640234d0 f   ui.obj
 0001:00022580       ??1SettingsDialog@@QEAA@XZ 0000000064023580 f i ui.obj
 0001:00022580       ??1ExtractDialog@@QEAA@XZ  0000000064023580 f i ui.obj
 0001:00022580       ??1AttrDialog@@QEAA@XZ     0000000064023580 f i ui.obj
 0001:00022590       ?retry_or_ignore_error@@YAXAEBUError@@AEA_N1AEAV?$list@UError@@V?$allocator@UError@@@std@@@std@@AEAVProgressMonitor@@_N4@Z 0000000064023590 f   ui.obj
 0001:00022c30       ??_D?$basic_ostringstream@_WU?$char_traits@_W@std@@V?$allocator@_W@2@@std@@QEAAXXZ 0000000064023c30 f i ui.obj
 0001:00022c70       ?show_error_log@@YAXAEBV?$list@UError@@V?$allocator@UError@@@std@@@std@@@Z 0000000064023c70 f   ui.obj
 0001:000232f0       ??8@YA_NAEBUSfxOptions@@0@Z 00000000640242f0 f   ui.obj
 0001:000234d0       ??8@YA_NAEBUProfileOptions@@0@Z 00000000640244d0 f   ui.obj
 0001:000236a0       ?get_default_ext@UpdateDialog@@AEBA?AV?$basic_string@_WU?$char_traits@_W@std@@V?$allocator@_W@2@@std@@XZ 00000000640246a0 f i ui.obj
 0001:00023840       ?change_extension@UpdateDialog@@AEAA_NXZ 0000000064024840 f i ui.obj
 0001:00023d00       ?update_level_list@UpdateDialog@@AEAAXXZ 0000000064024d00 f i ui.obj
 0001:00023ff0       ?set_control_state@UpdateDialog@@AEAAXXZ 0000000064024ff0 f i ui.obj
 0001:00024540       ?eval_arc_path@UpdateDialog@@AEAA?AV?$basic_string@_WU?$char_traits@_W@std@@V?$allocator@_W@2@@std@@XZ 0000000064025540 f i ui.obj
 0001:00024970       ?read_controls@UpdateDialog@@AEAAXAEAUUpdateOptions@@@Z 0000000064025970 f i ui.obj
 0001:00025350       ?write_controls@UpdateDialog@@AEAAXAEBUProfileOptions@@@Z 0000000064026350 f i ui.obj
 0001:00025b60       ?populate_profile_list@UpdateDialog@@AEAAXXZ 0000000064026b60 f i ui.obj
 0001:00026060       ?dialog_proc@UpdateDialog@@EEAA_J_J0PEAX@Z 0000000064027060 f i ui.obj
 0001:00026f90       ??0UpdateDialog@@QEAA@_NAEAUUpdateOptions@@AEAUUpdateProfiles@@@Z 0000000064027f90 f i ui.obj
 0001:00027150       ?show@UpdateDialog@@QEAA_NXZ 0000000064028150 f i ui.obj
 0001:000287a0       ?update_dialog@@YA_N_NAEAUUpdateOptions@@AEAUUpdateProfiles@@@Z 00000000640297a0 f   ui.obj
 0001:00028810       ??1UpdateDialog@@QEAA@XZ   0000000064029810 f i ui.obj
 0001:00028980       ?estimate_column_widths@MultiSelectDialog@@AEAA?AV?$vector@_KV?$allocator@_K@std@@@std@@AEBV?$vector@V?$basic_string@_WU?$char_traits@_W@std@@V?$allocator@_W@2@@std@@V?$allocator@V?$basic_string@_WU?$char_traits@_W@std@@V?$allocator@_W@2@@std@@@2@@3@@Z 0000000064029980 f i ui.obj
 0001:00028d50       ?dialog_proc@MultiSelectDialog@@EEAA_J_J0PEAX@Z 0000000064029d50 f i ui.obj
 0001:00028fc0       ??0MultiSelectDialog@@QEAA@AEBV?$basic_string@_WU?$char_traits@_W@std@@V?$allocator@_W@2@@std@@0AEAV12@@Z 0000000064029fc0 f i ui.obj
 0001:000290c0       ??0MultiSelectDialog@@QEAA@AEBV?$basic_string@_WU?$char_traits@_W@std@@V?$allocator@_W@2@@std@@0@Z 000000006402a0c0 f i ui.obj
 0001:000291b0       ?show@MultiSelectDialog@@QEAA_NXZ 000000006402a1b0 f i ui.obj
 0001:00029780       ?get_masks@FormatLibraryInfoDialog@@AEAA?AV?$basic_string@_WU?$char_traits@_W@std@@V?$allocator@_W@2@@std@@_K@Z 000000006402a780 f i ui.obj
 0001:000298c0       ?get_formats@FormatLibraryInfoDialog@@AEAA?AV?$basic_string@_WU?$char_traits@_W@std@@V?$allocator@_W@2@@std@@_K@Z 000000006402a8c0 f i ui.obj
 0001:00029aa0       ?dialog_proc@FormatLibraryInfoDialog@@EEAA_J_J0PEAX@Z 000000006402aaa0 f i ui.obj
 0001:00029e70       ??0FormatLibraryInfoDialog@@QEAA@XZ 000000006402ae70 f i ui.obj
 0001:00029fa0       ?show@FormatLibraryInfoDialog@@QEAAXXZ 000000006402afa0 f i ui.obj
 0001:0002a970       ??1MultiSelectDialog@@QEAA@XZ 000000006402b970 f i ui.obj
 0001:0002aa20       ?dialog_proc@SettingsDialog@@EEAA_J_J0PEAX@Z 000000006402ba20 f i ui.obj
 0001:0002b680       ?generate_masks@SettingsDialog@@AEAAXXZ 000000006402c680 f i ui.obj
 0001:0002b780       ?default_masks@SettingsDialog@@AEAAXXZ 000000006402c780 f i ui.obj
 0001:0002b800       ?get_available_formats@SettingsDialog@@AEAA?AV?$basic_string@_WU?$char_traits@_W@std@@V?$allocator@_W@2@@std@@XZ 000000006402c800 f i ui.obj
 0001:0002b930       ?show@SettingsDialog@@QEAA_NXZ 000000006402c930 f i ui.obj
 0001:0002c7b0       ??1FormatLibraryInfoDialog@@QEAA@XZ 000000006402d7b0 f i ui.obj
 0001:0002c820       ??1Options@@QEAA@XZ        000000006402d820 f i ui.obj
 0001:0002ca20       ?dialog_proc@AttrDialog@@EEAA_J_J0PEAX@Z 000000006402da20 f i ui.obj
 0001:0002cc40       ?show@AttrDialog@@QEAAXXZ  000000006402dc40 f i ui.obj
 0001:0002cda0       ??A?$map@_J_KU?$less@_J@std@@V?$allocator@U?$pair@$$CB_J_K@std@@@2@@std@@QEAAAEA_K$$QEA_J@Z 000000006402dda0 f i ui.obj
 0001:0002ce40       ??4?$vector@_KV?$allocator@_K@std@@@std@@QEAAAEAV01@AEBV01@@Z 000000006402de40 f i ui.obj
 0001:0002cf90       ??1?$vector@PEB_WV?$allocator@PEB_W@std@@@std@@QEAA@XZ 000000006402df90 f i update.obj
 0001:0002cf90       ??1?$vector@_KV?$allocator@_K@std@@@std@@QEAA@XZ 000000006402df90 f i ui.obj
 0001:0002cfd0       ??1?$vector@UFarListItem@@V?$allocator@UFarListItem@@@std@@@std@@QEAA@XZ 000000006402dfd0 f i ui.obj
 0001:0002d010       ?erase@?$vector@UUpdateProfile@@V?$allocator@UUpdateProfile@@@std@@@std@@QEAA?AV?$_Vector_iterator@V?$_Vector_val@U?$_Simple_types@UUpdateProfile@@@std@@@std@@@2@V?$_Vector_const_iterator@V?$_Vector_val@U?$_Simple_types@UUpdateProfile@@@std@@@std@@@2@@Z 000000006402e010 f i ui.obj
 0001:0002d070       ?reset@?$shared_ptr@VFileFilter@Far@@@std@@QEAAXXZ 000000006402e070 f i ui.obj
 0001:0002d0e0       ??1?$vector@UDialogItem@Far@@V?$allocator@UDialogItem@Far@@@std@@@std@@QEAA@XZ 000000006402e0e0 f i ui.obj
 0001:0002d130       ?find_last_of@?$basic_string@_WU?$char_traits@_W@std@@V?$allocator@_W@2@@std@@QEBA_KAEBV12@_K@Z 000000006402e130 f i ui.obj
 0001:0002d1f0       ?find@?$basic_string@_WU?$char_traits@_W@std@@V?$allocator@_W@2@@std@@QEBA_K_W_K@Z 000000006402e1f0 f i ui.obj
 0001:0002d2f0       ?str@?$basic_ostringstream@_WU?$char_traits@_W@std@@V?$allocator@_W@2@@std@@QEBA?AV?$basic_string@_WU?$char_traits@_W@std@@V?$allocator@_W@2@@2@XZ 000000006402e2f0 f i ui.obj
 0001:0002d320       ??1?$basic_ostringstream@_WU?$char_traits@_W@std@@V?$allocator@_W@2@@std@@UEAA@XZ 000000006402e320 f i ui.obj
 0001:0002d3a0       ??0?$basic_ostringstream@_WU?$char_traits@_W@std@@V?$allocator@_W@2@@std@@QEAA@H@Z 000000006402e3a0 f i ui.obj
 0001:0002d450       ?seekpos@?$basic_stringbuf@_WU?$char_traits@_W@std@@V?$allocator@_W@2@@std@@MEAA?AV?$fpos@U_Mbstatet@@@2@V32@H@Z 000000006402e450 f i ui.obj
 0001:0002d580       ?seekoff@?$basic_stringbuf@_WU?$char_traits@_W@std@@V?$allocator@_W@2@@std@@MEAA?AV?$fpos@U_Mbstatet@@@2@_JHH@Z 000000006402e580 f i ui.obj
 0001:0002d740       ?underflow@?$basic_stringbuf@_WU?$char_traits@_W@std@@V?$allocator@_W@2@@std@@MEAAGXZ 000000006402e740 f i ui.obj
 0001:0002d7b0       ?pbackfail@?$basic_stringbuf@_WU?$char_traits@_W@std@@V?$allocator@_W@2@@std@@MEAAGG@Z 000000006402e7b0 f i ui.obj
 0001:0002d820       ?overflow@?$basic_stringbuf@_WU?$char_traits@_W@std@@V?$allocator@_W@2@@std@@MEAAGG@Z 000000006402e820 f i ui.obj
 0001:0002daf0       ??1?$basic_stringbuf@_WU?$char_traits@_W@std@@V?$allocator@_W@2@@std@@UEAA@XZ 000000006402eaf0 f i ui.obj
 0001:0002db60       ??6?$basic_ostream@_WU?$char_traits@_W@std@@@std@@QEAAAEAV01@H@Z 000000006402eb60 f i ui.obj
 0001:0002dd10       ??1?$basic_ostream@_WU?$char_traits@_W@std@@@std@@UEAA@XZ 000000006402ed10 f i ui.obj
 0001:0002dd40       ?seekpos@?$basic_streambuf@_WU?$char_traits@_W@std@@@std@@MEAA?AV?$fpos@U_Mbstatet@@@2@V32@H@Z 000000006402ed40 f i ui.obj
 0001:0002dd40       ?seekoff@?$basic_streambuf@_WU?$char_traits@_W@std@@@std@@MEAA?AV?$fpos@U_Mbstatet@@@2@_JHH@Z 000000006402ed40 f i ui.obj
 0001:0002dd60       ?xsputn@?$basic_streambuf@_WU?$char_traits@_W@std@@@std@@MEAA_JPEB_W_J@Z 000000006402ed60 f i ui.obj
 0001:0002de30       ?xsgetn@?$basic_streambuf@_WU?$char_traits@_W@std@@@std@@MEAA_JPEA_W_J@Z 000000006402ee30 f i ui.obj
 0001:0002df50       ?uflow@?$basic_streambuf@_WU?$char_traits@_W@std@@@std@@MEAAGXZ 000000006402ef50 f i ui.obj
 0001:0002df90       ?pbackfail@?$basic_streambuf@_WU?$char_traits@_W@std@@@std@@MEAAGG@Z 000000006402ef90 f i ui.obj
 0001:0002df90       ?overflow@?$basic_streambuf@_WU?$char_traits@_W@std@@@std@@MEAAGG@Z 000000006402ef90 f i ui.obj
 0001:0002df90       ?underflow@?$basic_streambuf@_WU?$char_traits@_W@std@@@std@@MEAAGXZ 000000006402ef90 f i ui.obj
 0001:0002dfa0       ??1?$basic_streambuf@_WU?$char_traits@_W@std@@@std@@UEAA@XZ 000000006402efa0 f i ui.obj
 0001:0002e000       ??1?$basic_ios@_WU?$char_traits@_W@std@@@std@@UEAA@XZ 000000006402f000 f i ui.obj
 0001:0002e030       ??_G?$basic_ostringstream@_WU?$char_traits@_W@std@@V?$allocator@_W@2@@std@@UEAAPEAXI@Z 000000006402f030 f i ui.obj
 0001:0002e030       ??_E?$basic_ostringstream@_WU?$char_traits@_W@std@@V?$allocator@_W@2@@std@@UEAAPEAXI@Z 000000006402f030 f i * CIL library *:* CIL module *
 0001:0002e0b0       ??_G?$basic_stringbuf@_WU?$char_traits@_W@std@@V?$allocator@_W@2@@std@@UEAAPEAXI@Z 000000006402f0b0 f i ui.obj
 0001:0002e0b0       ??_E?$basic_stringbuf@_WU?$char_traits@_W@std@@V?$allocator@_W@2@@std@@UEAAPEAXI@Z 000000006402f0b0 f i * CIL library *:* CIL module *
 0001:0002e0f0       ??_G?$basic_ostream@_WU?$char_traits@_W@std@@@std@@UEAAPEAXI@Z 000000006402f0f0 f i ui.obj
 0001:0002e0f0       ??_E?$basic_ostream@_WU?$char_traits@_W@std@@@std@@UEAAPEAXI@Z 000000006402f0f0 f i * CIL library *:* CIL module *
 0001:0002e170       ??_G?$basic_streambuf@_WU?$char_traits@_W@std@@@std@@UEAAPEAXI@Z 000000006402f170 f i ui.obj
 0001:0002e170       ??_E?$basic_streambuf@_WU?$char_traits@_W@std@@@std@@UEAAPEAXI@Z 000000006402f170 f i * CIL library *:* CIL module *
 0001:0002e200       ??_Glocale@std@@QEAAPEAXI@Z 000000006402f200 f i ui.obj
 0001:0002e260       ??_G?$basic_ios@_WU?$char_traits@_W@std@@@std@@UEAAPEAXI@Z 000000006402f260 f i ui.obj
 0001:0002e260       ??_E?$basic_ios@_WU?$char_traits@_W@std@@@std@@UEAAPEAXI@Z 000000006402f260 f i * CIL library *:* CIL module *
 0001:0002e2b0       ?deallocate@?$_Wrap_alloc@V?$allocator@PEB_W@std@@@std@@QEAAXPEAPEB_W_K@Z 000000006402f2b0 f i update.obj
 0001:0002e2b0       ?deallocate@?$_Wrap_alloc@V?$allocator@_K@std@@@std@@QEAAXPEA_K_K@Z 000000006402f2b0 f i ui.obj
 0001:0002e320       ?_Buy@?$vector@_KV?$allocator@_K@std@@@std@@IEAA_N_K@Z 000000006402f320 f i ui.obj
 0001:0002e390       ?_Construct_n@?$vector@_KV?$allocator@_K@std@@@std@@QEAAX_KPEB_K@Z 000000006402f390 f i ui.obj
 0001:0002e440       ??1sentry@?$basic_ostream@_WU?$char_traits@_W@std@@@std@@QEAA@XZ 000000006402f440 f i ui.obj
 0001:0002e4a0       ??0sentry@?$basic_ostream@_WU?$char_traits@_W@std@@@std@@QEAA@AEAV12@@Z 000000006402f4a0 f i ui.obj
 0001:0002e530       ?do_put@?$num_put@_WV?$ostreambuf_iterator@_WU?$char_traits@_W@std@@@std@@@std@@MEBA?AV?$ostreambuf_iterator@_WU?$char_traits@_W@std@@@2@V32@AEAVios_base@2@_WPEBX@Z 000000006402f530 f i ui.obj
 0001:0002e5d0       ?do_put@?$num_put@_WV?$ostreambuf_iterator@_WU?$char_traits@_W@std@@@std@@@std@@MEBA?AV?$ostreambuf_iterator@_WU?$char_traits@_W@std@@@2@V32@AEAVios_base@2@_WO@Z 000000006402f5d0 f i ui.obj
 0001:0002e810       ?do_put@?$num_put@_WV?$ostreambuf_iterator@_WU?$char_traits@_W@std@@@std@@@std@@MEBA?AV?$ostreambuf_iterator@_WU?$char_traits@_W@std@@@2@V32@AEAVios_base@2@_WN@Z 000000006402f810 f i ui.obj
 0001:0002ea50       ?do_put@?$num_put@_WV?$ostreambuf_iterator@_WU?$char_traits@_W@std@@@std@@@std@@MEBA?AV?$ostreambuf_iterator@_WU?$char_traits@_W@std@@@2@V32@AEAVios_base@2@_W_K@Z 000000006402fa50 f i ui.obj
 0001:0002eb50       ?do_put@?$num_put@_WV?$ostreambuf_iterator@_WU?$char_traits@_W@std@@@std@@@std@@MEBA?AV?$ostreambuf_iterator@_WU?$char_traits@_W@std@@@2@V32@AEAVios_base@2@_W_J@Z 000000006402fb50 f i ui.obj
 0001:0002ec50       ?do_put@?$num_put@_WV?$ostreambuf_iterator@_WU?$char_traits@_W@std@@@std@@@std@@MEBA?AV?$ostreambuf_iterator@_WU?$char_traits@_W@std@@@2@V32@AEAVios_base@2@_WK@Z 000000006402fc50 f i ui.obj
 0001:0002ed50       ?do_put@?$num_put@_WV?$ostreambuf_iterator@_WU?$char_traits@_W@std@@@std@@@std@@MEBA?AV?$ostreambuf_iterator@_WU?$char_traits@_W@std@@@2@V32@AEAVios_base@2@_WJ@Z 000000006402fd50 f i ui.obj
 0001:0002ee50       ?do_put@?$num_put@_WV?$ostreambuf_iterator@_WU?$char_traits@_W@std@@@std@@@std@@MEBA?AV?$ostreambuf_iterator@_WU?$char_traits@_W@std@@@2@V32@AEAVios_base@2@_W_N@Z 000000006402fe50 f i ui.obj
 0001:0002f1d0       ?rfind@?$basic_string@_WU?$char_traits@_W@std@@V?$allocator@_W@2@@std@@QEBA_KPEB_W_K1@Z 00000000640301d0 f i ui.obj
 0001:0002f2a0       ?find@?$basic_string@_WU?$char_traits@_W@std@@V?$allocator@_W@2@@std@@QEBA_KPEB_W_K1@Z 00000000640302a0 f i ui.obj
 0001:0002f3c0       ?_Tidy@?$basic_stringbuf@_WU?$char_traits@_W@std@@V?$allocator@_W@2@@std@@IEAAXXZ 00000000640303c0 f i ui.obj
 0001:0002f450       ?str@?$basic_stringbuf@_WU?$char_traits@_W@std@@V?$allocator@_W@2@@std@@QEBA?AV?$basic_string@_WU?$char_traits@_W@std@@V?$allocator@_W@2@@2@XZ 0000000064030450 f i ui.obj
 0001:0002f550       ??0?$basic_ostream@_WU?$char_traits@_W@std@@@std@@QEAA@PEAV?$basic_streambuf@_WU?$char_traits@_W@std@@@1@_N@Z 0000000064030550 f i ui.obj
 0001:0002f600       ?_Pnavail@?$basic_streambuf@_WU?$char_traits@_W@std@@@std@@IEBA_JXZ 0000000064030600 f i ui.obj
 0001:0002f620       ?_Gnavail@?$basic_streambuf@_WU?$char_traits@_W@std@@@std@@IEBA_JXZ 0000000064030620 f i ui.obj
 0001:0002f640       ??_E?$num_put@_WV?$ostreambuf_iterator@_WU?$char_traits@_W@std@@@std@@@std@@MEAAPEAXI@Z 0000000064030640 f i * CIL library *:* CIL module *
 0001:0002f640       ??_G?$num_put@_WV?$ostreambuf_iterator@_WU?$char_traits@_W@std@@@std@@@std@@MEAAPEAXI@Z 0000000064030640 f i ui.obj
 0001:0002f670       ?do_truename@?$numpunct@_W@std@@MEBA?AV?$basic_string@_WU?$char_traits@_W@std@@V?$allocator@_W@2@@2@XZ 0000000064030670 f i ui.obj
 0001:0002f6c0       ?do_falsename@?$numpunct@_W@std@@MEBA?AV?$basic_string@_WU?$char_traits@_W@std@@V?$allocator@_W@2@@2@XZ 00000000640306c0 f i ui.obj
 0001:0002f710       ?do_grouping@?$numpunct@_W@std@@MEBA?AV?$basic_string@DU?$char_traits@D@std@@V?$allocator@D@2@@2@XZ 0000000064030710 f i ui.obj
 0001:0002f760       ?do_thousands_sep@?$numpunct@_W@std@@MEBA_WXZ 0000000064030760 f i ui.obj
 0001:0002f770       ?do_decimal_point@?$numpunct@_W@std@@MEBA_WXZ 0000000064030770 f i ui.obj
 0001:0002f780       ?truename@?$numpunct@_W@std@@QEBA?AV?$basic_string@_WU?$char_traits@_W@std@@V?$allocator@_W@2@@2@XZ 0000000064030780 f i ui.obj
 0001:0002f7a0       ?falsename@?$numpunct@_W@std@@QEBA?AV?$basic_string@_WU?$char_traits@_W@std@@V?$allocator@_W@2@@2@XZ 00000000640307a0 f i ui.obj
 0001:0002f7c0       ?_Reallocate@?$vector@UFarListItem@@V?$allocator@UFarListItem@@@std@@@std@@IEAAX_K@Z 00000000640307c0 f i ui.obj
 0001:0002f840       ??1_Sentry_base@?$basic_ostream@_WU?$char_traits@_W@std@@@std@@QEAA@XZ 0000000064030840 f i ui.obj
 0001:0002f880       ?_Iput@?$num_put@_WV?$ostreambuf_iterator@_WU?$char_traits@_W@std@@@std@@@std@@AEBA?AV?$ostreambuf_iterator@_WU?$char_traits@_W@std@@@2@V32@AEAVios_base@2@_WPEAD_K@Z 0000000064030880 f i ui.obj
 0001:0002fe70       ?_Fput@?$num_put@_WV?$ostreambuf_iterator@_WU?$char_traits@_W@std@@@std@@@std@@AEBA?AV?$ostreambuf_iterator@_WU?$char_traits@_W@std@@@2@V32@AEAVios_base@2@_WPEBD_K@Z 0000000064030e70 f i ui.obj
 0001:000304e0       ?deallocate@?$_Wrap_alloc@V?$allocator@UDialogItem@Far@@@std@@@std@@QEAAXPEAUDialogItem@Far@@_K@Z 00000000640314e0 f i ui.obj
 0001:00030550       ?flush@?$basic_ostream@_WU?$char_traits@_W@std@@@std@@QEAAAEAV12@XZ 0000000064031550 f i ui.obj
 0001:00030620       ?_Osfx@?$basic_ostream@_WU?$char_traits@_W@std@@@std@@QEAAXXZ 0000000064031620 f i ui.obj
 0001:00030690       ??0?$basic_streambuf@_WU?$char_traits@_W@std@@@std@@IEAA@XZ 0000000064031690 f i ui.obj
 0001:00030740       ??_G?$numpunct@_W@std@@MEAAPEAXI@Z 0000000064031740 f i ui.obj
 0001:00030740       ??_E?$numpunct@_W@std@@MEAAPEAXI@Z 0000000064031740 f i * CIL library *:* CIL module *
 0001:000307a0       ?_Tidy@?$numpunct@_W@std@@AEAAXXZ 00000000640317a0 f i ui.obj
 0001:000307d0       ?grouping@?$numpunct@_W@std@@QEBA?AV?$basic_string@DU?$char_traits@D@std@@V?$allocator@D@2@@2@XZ 00000000640317d0 f i ui.obj
 0001:000307f0       ?allocate@?$allocator@PEB_W@std@@QEAAPEAPEB_W_K@Z 00000000640317f0 f i update.obj
 0001:000307f0       ?allocate@?$allocator@_K@std@@QEAAPEA_K_K@Z 00000000640317f0 f i ui.obj
 0001:00030870       ?widen@?$basic_ios@_WU?$char_traits@_W@std@@@std@@QEBA_WD@Z 0000000064031870 f i ui.obj
 0001:00030920       ?_Buyheadnode@?$_Tree_comp_alloc@V?$_Tmap_traits@_J_KU?$less@_J@std@@V?$allocator@U?$pair@$$CB_J_K@std@@@2@$0A@@std@@@std@@QEAAPEAU?$_Tree_node@U?$pair@$$CB_J_K@std@@PEAX@2@XZ 0000000064031920 f i ui.obj
 0001:00030960       ??$?8EV?$allocator@E@std@@@std@@YA_NAEBV?$vector@EV?$allocator@E@std@@@0@0@Z 0000000064031960 f i ui.obj
 0001:000309a0       ??$?H_WU?$char_traits@_W@std@@V?$allocator@_W@1@@std@@YA?AV?$basic_string@_WU?$char_traits@_W@std@@V?$allocator@_W@2@@0@$$QEAV10@_W@Z 00000000640319a0 f i ui.obj
 0001:000309f0       ??$?H_WU?$char_traits@_W@std@@V?$allocator@_W@1@@std@@YA?AV?$basic_string@_WU?$char_traits@_W@std@@V?$allocator@_W@2@@0@AEBV10@_W@Z 00000000640319f0 f i ui.obj
 0001:00030a90       ??$?H_WU?$char_traits@_W@std@@V?$allocator@_W@1@@std@@YA?AV?$basic_string@_WU?$char_traits@_W@std@@V?$allocator@_W@2@@0@AEBV10@$$QEAV10@@Z 0000000064031a90 f i ui.obj
 0001:00030af0       ??$?H_WU?$char_traits@_W@std@@V?$allocator@_W@1@@std@@YA?AV?$basic_string@_WU?$char_traits@_W@std@@V?$allocator@_W@2@@0@AEBV10@0@Z 0000000064031af0 f i ui.obj
 0001:00030b90       ??$?6_WU?$char_traits@_W@std@@V?$allocator@_W@1@@std@@YAAEAV?$basic_ostream@_WU?$char_traits@_W@std@@@0@AEAV10@AEBV?$basic_string@_WU?$char_traits@_W@std@@V?$allocator@_W@2@@0@@Z 0000000064031b90 f i ui.obj
 0001:00030e00       ??$?6_WU?$char_traits@_W@std@@@std@@YAAEAV?$basic_ostream@_WU?$char_traits@_W@std@@@0@AEAV10@_W@Z 0000000064031e00 f i ui.obj
 0001:00031090       ??$reset@VFileFilter@Far@@@?$shared_ptr@VFileFilter@Far@@@std@@QEAAXPEAVFileFilter@Far@@@Z 0000000064032090 f i ui.obj
 0001:00031120       ??$use_facet@V?$num_put@_WV?$ostreambuf_iterator@_WU?$char_traits@_W@std@@@std@@@std@@@std@@YAAEBV?$num_put@_WV?$ostreambuf_iterator@_WU?$char_traits@_W@std@@@std@@@0@AEBVlocale@0@@Z 0000000064032120 f i ui.obj
 0001:00031280       ??$use_facet@V?$numpunct@_W@std@@@std@@YAAEBV?$numpunct@_W@0@AEBVlocale@0@@Z 0000000064032280 f i ui.obj
 0001:000313e0       ??$use_facet@V?$ctype@_W@std@@@std@@YAAEBV?$ctype@_W@0@AEBVlocale@0@@Z 00000000640323e0 f i ui.obj
 0001:00031540       ?_Getcat@?$numpunct@_W@std@@SA_KPEAPEBVfacet@locale@2@PEBV42@@Z 0000000064032540 f i ui.obj
 0001:00031610       ?_Getcat@?$num_put@_WV?$ostreambuf_iterator@_WU?$char_traits@_W@std@@@std@@@std@@SA_KPEAPEBVfacet@locale@2@PEBV42@@Z 0000000064032610 f i ui.obj
 0001:000316c0       ?_Init@?$numpunct@_W@std@@IEAAXAEBV_Locinfo@2@_N@Z 00000000640326c0 f i ui.obj
 0001:000318d0       ??$_Assign@V?$_List_const_iterator@V?$_List_val@U?$_List_simple_types@V?$basic_string@_WU?$char_traits@_W@std@@V?$allocator@_W@2@@std@@@std@@@std@@@std@@@?$vector@V?$basic_string@_WU?$char_traits@_W@std@@V?$allocator@_W@2@@std@@V?$allocator@V?$basic_string@_WU?$char_traits@_W@std@@V?$allocator@_W@2@@std@@@2@@std@@QEAAXV?$_List_const_iterator@V?$_List_val@U?$_List_simple_types@V?$basic_string@_WU?$char_traits@_W@std@@V?$allocator@_W@2@@std@@@std@@@std@@@1@0Uforward_iterator_tag@1@@Z 00000000640328d0 f i ui.obj
 0001:000319f0       ??$_Sort@PEAV?$basic_string@_WU?$char_traits@_W@std@@V?$allocator@_W@2@@std@@_JUItemCompare@?1??show@MultiSelectDialog@@QEAA_NXZ@@std@@YAXPEAV?$basic_string@_WU?$char_traits@_W@std@@V?$allocator@_W@2@@0@0_JUItemCompare@?1??show@MultiSelectDialog@@QEAA_NXZ@@Z 00000000640329f0 f i ui.obj
 0001:00031b50       ??$_For_each@V?$_List_unchecked_const_iterator@V?$_List_val@U?$_List_simple_types@V?$basic_string@_WU?$char_traits@_W@std@@V?$allocator@_W@2@@std@@@std@@@std@@U_Iterator_base0@2@@std@@V<lambda_803349f5e41d8a0d3cffa4d65578757f>@@@std@@YAXV?$_List_unchecked_const_iterator@V?$_List_val@U?$_List_simple_types@V?$basic_string@_WU?$char_traits@_W@std@@V?$allocator@_W@2@@std@@@std@@@std@@U_Iterator_base0@2@@0@0AEAV<lambda_803349f5e41d8a0d3cffa4d65578757f>@@@Z 0000000064032b50 f i ui.obj
 0001:00031b50       ??$_For_each@V?$_List_unchecked_const_iterator@V?$_List_val@U?$_List_simple_types@V?$basic_string@_WU?$char_traits@_W@std@@V?$allocator@_W@2@@std@@@std@@@std@@U_Iterator_base0@2@@std@@V<lambda_b93606459467e8d90ce41d03ca69c1d3>@@@std@@YAXV?$_List_unchecked_const_iterator@V?$_List_val@U?$_List_simple_types@V?$basic_string@_WU?$char_traits@_W@std@@V?$allocator@_W@2@@std@@@std@@@std@@U_Iterator_base0@2@@0@0AEAV<lambda_b93606459467e8d90ce41d03ca69c1d3>@@@Z 0000000064032b50 f i ui.obj
 0001:00031d10       ??$_For_each@V?$_Tree_unchecked_const_iterator@V?$_Tree_val@U?$_Tree_simple_types@U?$pair@$$CBV?$vector@EV?$allocator@E@std@@@std@@UArcFormat@@@std@@@std@@@std@@U_Iterator_base0@2@@std@@V<lambda_f059cca4dba6756cdf7a47539db08f3b>@@@std@@YAXV?$_Tree_unchecked_const_iterator@V?$_Tree_val@U?$_Tree_simple_types@U?$pair@$$CBV?$vector@EV?$allocator@E@std@@@std@@UArcFormat@@@std@@@std@@@std@@U_Iterator_base0@2@@0@0AEAV<lambda_f059cca4dba6756cdf7a47539db08f3b>@@@Z 0000000064032d10 f i ui.obj
 0001:00031dd0       ??$_For_each@V?$_Tree_unchecked_const_iterator@V?$_Tree_val@U?$_Tree_simple_types@U?$pair@$$CBV?$vector@EV?$allocator@E@std@@@std@@UArcFormat@@@std@@@std@@@std@@U_Iterator_base0@2@@std@@V<lambda_e8f1211e27af2e37d7a92ddb9206bcee>@@@std@@YAXV?$_Tree_unchecked_const_iterator@V?$_Tree_val@U?$_Tree_simple_types@U?$pair@$$CBV?$vector@EV?$allocator@E@std@@@std@@UArcFormat@@@std@@@std@@@std@@U_Iterator_base0@2@@0@0AEAV<lambda_e8f1211e27af2e37d7a92ddb9206bcee>@@@Z 0000000064032dd0 f i ui.obj
 0001:00031e70       ??$_Sort@PEAV?$basic_string@_WU?$char_traits@_W@std@@V?$allocator@_W@2@@std@@_JV<lambda_843e6bc4207f61423361dc672776d0e4>@@@std@@YAXPEAV?$basic_string@_WU?$char_traits@_W@std@@V?$allocator@_W@2@@0@0_JV<lambda_843e6bc4207f61423361dc672776d0e4>@@@Z 0000000064032e70 f i ui.obj
 0001:00031fd0       ??$_For_each@PEAV?$basic_string@_WU?$char_traits@_W@std@@V?$allocator@_W@2@@std@@V<lambda_e188fca01eb2b69c2bfe6aec1529e4d1>@@@std@@YAXPEAV?$basic_string@_WU?$char_traits@_W@std@@V?$allocator@_W@2@@0@0AEAV<lambda_e188fca01eb2b69c2bfe6aec1529e4d1>@@@Z 0000000064032fd0 f i ui.obj
 0001:00032100       ??$_Buynode@AEBUpiecewise_construct_t@std@@V?$tuple@$$QEA_J@2@V?$tuple@$$V@2@@?$_Tree_comp_alloc@V?$_Tmap_traits@_J_KU?$less@_J@std@@V?$allocator@U?$pair@$$CB_J_K@std@@@2@$0A@@std@@@std@@QEAAPEAU?$_Tree_node@U?$pair@$$CB_J_K@std@@PEAX@1@AEBUpiecewise_construct_t@1@$$QEAV?$tuple@$$QEA_J@1@$$QEAV?$tuple@$$V@1@@Z 0000000064033100 f i ui.obj
 0001:00032140       ??$_Insert_hint@AEAU?$pair@$$CB_J_K@std@@PEAU?$_Tree_node@U?$pair@$$CB_J_K@std@@PEAX@2@@?$_Tree@V?$_Tmap_traits@_J_KU?$less@_J@std@@V?$allocator@U?$pair@$$CB_J_K@std@@@2@$0A@@std@@@std@@IEAA?AV?$_Tree_iterator@V?$_Tree_val@U?$_Tree_simple_types@U?$pair@$$CB_J_K@std@@@std@@@std@@@1@V?$_Tree_const_iterator@V?$_Tree_val@U?$_Tree_simple_types@U?$pair@$$CB_J_K@std@@@std@@@std@@@1@AEAU?$pair@$$CB_J_K@1@PEAU?$_Tree_node@U?$pair@$$CB_J_K@std@@PEAX@1@@Z 0000000064033140 f i ui.obj
 0001:00032390       ??$_Move@PEAUUpdateProfile@@PEAU1@@std@@YAPEAUUpdateProfile@@PEAU1@00U_Nonscalar_ptr_iterator_tag@0@@Z 0000000064033390 f i ui.obj
 0001:000324b0       ??$_Destroy_range@U?$_Wrap_alloc@V?$allocator@UUpdateProfile@@@std@@@std@@@std@@YAXPEAUUpdateProfile@@0AEAU?$_Wrap_alloc@V?$allocator@UUpdateProfile@@@std@@@0@U_Nonscalar_ptr_iterator_tag@0@@Z 00000000640334b0 f i ui.obj
 0001:000325a0       ??4UpdateProfile@@QEAAAEAU0@$$QEAU0@@Z 00000000640335a0 f i ui.obj
 0001:00032620       ??4ProfileOptions@@QEAAAEAU0@$$QEAU0@@Z 0000000064033620 f i ui.obj
 0001:00032840       ??4SfxOptions@@QEAAAEAU0@$$QEAU0@@Z 0000000064033840 f i ui.obj
 0001:00032960       ??4SfxVersionInfo@@QEAAAEAU0@$$QEAU0@@Z 0000000064033960 f i ui.obj
 0001:00032ba0       ??4SfxInstallConfig@@QEAAAEAU0@$$QEAU0@@Z 0000000064033ba0 f i ui.obj
 0001:00032df0       ?_Buynode0@?$_Tree_comp_alloc@V?$_Tmap_traits@_J_KU?$less@_J@std@@V?$allocator@U?$pair@$$CB_J_K@std@@@2@$0A@@std@@@std@@QEAAPEAU?$_Tree_node@U?$pair@$$CB_J_K@std@@PEAX@2@XZ 0000000064033df0 f i ui.obj
 0001:00032e40       ??$_Resetp@VFileFilter@Far@@@?$shared_ptr@VFileFilter@Far@@@std@@AEAAXPEAVFileFilter@Far@@@Z 0000000064033e40 f i ui.obj
 0001:00032ea0       ??$_Find@PEAV?$vector@EV?$allocator@E@std@@@std@@V12@@std@@YAPEAV?$vector@EV?$allocator@E@std@@@0@PEAV10@0AEBV10@U?$integral_constant@_N$0A@@0@@Z 0000000064033ea0 f i ui.obj
 0001:00032f20       ??$_Insert_nohint@AEAV?$basic_string@_WU?$char_traits@_W@std@@V?$allocator@_W@2@@std@@PEAU?$_Tree_node@V?$basic_string@_WU?$char_traits@_W@std@@V?$allocator@_W@2@@std@@PEAX@2@@?$_Tree@V?$_Tset_traits@V?$basic_string@_WU?$char_traits@_W@std@@V?$allocator@_W@2@@std@@UItemCompare@?1??show@MultiSelectDialog@@QEAA_NXZ@V?$allocator@V?$basic_string@_WU?$char_traits@_W@std@@V?$allocator@_W@2@@std@@@2@$0A@@std@@@std@@IEAA?AU?$pair@V?$_Tree_const_iterator@V?$_Tree_val@U?$_Tree_simple_types@V?$basic_string@_WU?$char_traits@_W@std@@V?$allocator@_W@2@@std@@@std@@@std@@@std@@_N@1@_NAEAV?$basic_string@_WU?$char_traits@_W@std@@V?$allocator@_W@2@@1@PEAU?$_Tree_node@V?$basic_string@_WU?$char_traits@_W@std@@V?$allocator@_W@2@@std@@PEAX@1@@Z 0000000064033f20 f i ui.obj
 0001:000330c0       ??$_Unguarded_partition@PEAV?$basic_string@_WU?$char_traits@_W@std@@V?$allocator@_W@2@@std@@UItemCompare@?1??show@MultiSelectDialog@@QEAA_NXZ@@std@@YA?AU?$pair@PEAV?$basic_string@_WU?$char_traits@_W@std@@V?$allocator@_W@2@@std@@PEAV12@@0@PEAV?$basic_string@_WU?$char_traits@_W@std@@V?$allocator@_W@2@@0@0UItemCompare@?1??show@MultiSelectDialog@@QEAA_NXZ@@Z 00000000640340c0 f i ui.obj
 0001:000336b0       ??$_Unguarded_partition@PEAV?$basic_string@_WU?$char_traits@_W@std@@V?$allocator@_W@2@@std@@V<lambda_843e6bc4207f61423361dc672776d0e4>@@@std@@YA?AU?$pair@PEAV?$basic_string@_WU?$char_traits@_W@std@@V?$allocator@_W@2@@std@@PEAV12@@0@PEAV?$basic_string@_WU?$char_traits@_W@std@@V?$allocator@_W@2@@0@0V<lambda_843e6bc4207f61423361dc672776d0e4>@@@Z 00000000640346b0 f i ui.obj
 0001:00033cb0       ??$_Insert_at@AEAU?$pair@$$CB_J_K@std@@PEAU?$_Tree_node@U?$pair@$$CB_J_K@std@@PEAX@2@@?$_Tree@V?$_Tmap_traits@_J_KU?$less@_J@std@@V?$allocator@U?$pair@$$CB_J_K@std@@@2@$0A@@std@@@std@@IEAA?AV?$_Tree_iterator@V?$_Tree_val@U?$_Tree_simple_types@U?$pair@$$CB_J_K@std@@@std@@@std@@@1@_NPEAU?$_Tree_node@U?$pair@$$CB_J_K@std@@PEAX@1@AEAU?$pair@$$CB_J_K@1@1@Z 0000000064034cb0 f i ui.obj
 0001:00033f50       ??$_Insert_nohint@AEAU?$pair@$$CB_J_K@std@@PEAU?$_Tree_node@U?$pair@$$CB_J_K@std@@PEAX@2@@?$_Tree@V?$_Tmap_traits@_J_KU?$less@_J@std@@V?$allocator@U?$pair@$$CB_J_K@std@@@2@$0A@@std@@@std@@IEAA?AU?$pair@V?$_Tree_iterator@V?$_Tree_val@U?$_Tree_simple_types@U?$pair@$$CB_J_K@std@@@std@@@std@@@std@@_N@1@_NAEAU?$pair@$$CB_J_K@1@PEAU?$_Tree_node@U?$pair@$$CB_J_K@std@@PEAX@1@@Z 0000000064034f50 f i ui.obj
 0001:00034090       ??_GFileFilter@Far@@QEAAPEAXI@Z 0000000064035090 f i ui.obj
 0001:000340e0       ?_Destroy@?$_Ref_count@VFileFilter@Far@@@std@@EEAAXXZ 00000000640350e0 f i ui.obj
 0001:00034130       ?_Destroy_if_not_nil@?$_Tree@V?$_Tset_traits@V?$basic_string@_WU?$char_traits@_W@std@@V?$allocator@_W@2@@std@@UItemCompare@?1??show@MultiSelectDialog@@QEAA_NXZ@V?$allocator@V?$basic_string@_WU?$char_traits@_W@std@@V?$allocator@_W@2@@std@@@2@$0A@@std@@@std@@IEAAXPEAU?$_Tree_node@V?$basic_string@_WU?$char_traits@_W@std@@V?$allocator@_W@2@@std@@PEAX@2@@Z 0000000064035130 f i ui.obj
 0001:00034190       ??$_Insert_at@AEAV?$basic_string@_WU?$char_traits@_W@std@@V?$allocator@_W@2@@std@@PEAU?$_Tree_node@V?$basic_string@_WU?$char_traits@_W@std@@V?$allocator@_W@2@@std@@PEAX@2@@?$_Tree@V?$_Tset_traits@V?$basic_string@_WU?$char_traits@_W@std@@V?$allocator@_W@2@@std@@UItemCompare@?1??show@MultiSelectDialog@@QEAA_NXZ@V?$allocator@V?$basic_string@_WU?$char_traits@_W@std@@V?$allocator@_W@2@@std@@@2@$0A@@std@@@std@@IEAA?AV?$_Tree_const_iterator@V?$_Tree_val@U?$_Tree_simple_types@V?$basic_string@_WU?$char_traits@_W@std@@V?$allocator@_W@2@@std@@@std@@@std@@@1@_NPEAU?$_Tree_node@V?$basic_string@_WU?$char_traits@_W@std@@V?$allocator@_W@2@@std@@PEAX@1@AEAV?$basic_string@_WU?$char_traits@_W@std@@V?$allocator@_W@2@@1@1@Z 0000000064035190 f i ui.obj
 0001:00034480       ??$_Median@PEAV?$basic_string@_WU?$char_traits@_W@std@@V?$allocator@_W@2@@std@@UItemCompare@?1??show@MultiSelectDialog@@QEAA_NXZ@@std@@YAXPEAV?$basic_string@_WU?$char_traits@_W@std@@V?$allocator@_W@2@@0@00UItemCompare@?1??show@MultiSelectDialog@@QEAA_NXZ@@Z 0000000064035480 f i ui.obj
 0001:00034560       ??$iter_swap@PEAV?$basic_string@_WU?$char_traits@_W@std@@V?$allocator@_W@2@@std@@PEAV12@@std@@YAXPEAV?$basic_string@_WU?$char_traits@_W@std@@V?$allocator@_W@2@@0@0@Z 0000000064035560 f i ui.obj
 0001:000345b0       ??$_Make_heap@PEAV?$basic_string@_WU?$char_traits@_W@std@@V?$allocator@_W@2@@std@@_JV12@UItemCompare@?1??show@MultiSelectDialog@@QEAA_NXZ@@std@@YAXPEAV?$basic_string@_WU?$char_traits@_W@std@@V?$allocator@_W@2@@0@0UItemCompare@?1??show@MultiSelectDialog@@QEAA_NXZ@PEA_J0@Z 00000000640355b0 f i ui.obj
 0001:00034740       ??$_Insertion_sort1@PEAV?$basic_string@_WU?$char_traits@_W@std@@V?$allocator@_W@2@@std@@V<lambda_843e6bc4207f61423361dc672776d0e4>@@V12@@std@@YAXPEAV?$basic_string@_WU?$char_traits@_W@std@@V?$allocator@_W@2@@0@0V<lambda_843e6bc4207f61423361dc672776d0e4>@@0@Z 0000000064035740 f i ui.obj
 0001:00034740       ??$_Insertion_sort1@PEAV?$basic_string@_WU?$char_traits@_W@std@@V?$allocator@_W@2@@std@@UItemCompare@?1??show@MultiSelectDialog@@QEAA_NXZ@V12@@std@@YAXPEAV?$basic_string@_WU?$char_traits@_W@std@@V?$allocator@_W@2@@0@0UItemCompare@?1??show@MultiSelectDialog@@QEAA_NXZ@0@Z 0000000064035740 f i ui.obj
 0001:00034b90       ??$_Median@PEAV?$basic_string@_WU?$char_traits@_W@std@@V?$allocator@_W@2@@std@@V<lambda_843e6bc4207f61423361dc672776d0e4>@@@std@@YAXPEAV?$basic_string@_WU?$char_traits@_W@std@@V?$allocator@_W@2@@0@00V<lambda_843e6bc4207f61423361dc672776d0e4>@@@Z 0000000064035b90 f i ui.obj
 0001:00034c70       ??$_Make_heap@PEAV?$basic_string@_WU?$char_traits@_W@std@@V?$allocator@_W@2@@std@@_JV12@V<lambda_843e6bc4207f61423361dc672776d0e4>@@@std@@YAXPEAV?$basic_string@_WU?$char_traits@_W@std@@V?$allocator@_W@2@@0@0V<lambda_843e6bc4207f61423361dc672776d0e4>@@PEA_J0@Z 0000000064035c70 f i ui.obj
 0001:00034e10       ??$_Uninit_move@PEAUFarListItem@@PEAU1@V?$allocator@UFarListItem@@@std@@U1@@std@@YAPEAUFarListItem@@PEAU1@00AEAU?$_Wrap_alloc@V?$allocator@UFarListItem@@@std@@@0@0U_Nonscalar_ptr_iterator_tag@0@@Z 0000000064035e10 f i ui.obj
 0001:00034e40       ??$_Med3@PEAV?$basic_string@_WU?$char_traits@_W@std@@V?$allocator@_W@2@@std@@UItemCompare@?1??show@MultiSelectDialog@@QEAA_NXZ@@std@@YAXPEAV?$basic_string@_WU?$char_traits@_W@std@@V?$allocator@_W@2@@0@00UItemCompare@?1??show@MultiSelectDialog@@QEAA_NXZ@@Z 0000000064035e40 f i ui.obj
 0001:00034f00       ??$_Adjust_heap@PEAV?$basic_string@_WU?$char_traits@_W@std@@V?$allocator@_W@2@@std@@_JV12@V<lambda_843e6bc4207f61423361dc672776d0e4>@@@std@@YAXPEAV?$basic_string@_WU?$char_traits@_W@std@@V?$allocator@_W@2@@0@_J1$$QEAV10@V<lambda_843e6bc4207f61423361dc672776d0e4>@@@Z 0000000064035f00 f i ui.obj
 0001:00034f00       ??$_Adjust_heap@PEAV?$basic_string@_WU?$char_traits@_W@std@@V?$allocator@_W@2@@std@@_JV12@UItemCompare@?1??show@MultiSelectDialog@@QEAA_NXZ@@std@@YAXPEAV?$basic_string@_WU?$char_traits@_W@std@@V?$allocator@_W@2@@0@_J1$$QEAV10@UItemCompare@?1??show@MultiSelectDialog@@QEAA_NXZ@@Z 0000000064035f00 f i ui.obj
 0001:000350e0       ??$_Med3@PEAV?$basic_string@_WU?$char_traits@_W@std@@V?$allocator@_W@2@@std@@V<lambda_843e6bc4207f61423361dc672776d0e4>@@@std@@YAXPEAV?$basic_string@_WU?$char_traits@_W@std@@V?$allocator@_W@2@@0@00V<lambda_843e6bc4207f61423361dc672776d0e4>@@@Z 00000000640360e0 f i ui.obj
 0001:00035190       ??1UpdateProfile@@QEAA@XZ  0000000064036190 f i ui.obj
 0001:000351f0       ?_Swap_bx@?$basic_string@_WU?$char_traits@_W@std@@V?$allocator@_W@2@@std@@QEAAXAEAV12@@Z 00000000640361f0 f i ui.obj
 0001:000352f0       ??$_Uninit_copy@V?$_List_unchecked_const_iterator@V?$_List_val@U?$_List_simple_types@V?$basic_string@_WU?$char_traits@_W@std@@V?$allocator@_W@2@@std@@@std@@@std@@U_Iterator_base0@2@@std@@PEAV?$basic_string@_WU?$char_traits@_W@std@@V?$allocator@_W@2@@2@V?$allocator@V?$basic_string@_WU?$char_traits@_W@std@@V?$allocator@_W@2@@std@@@2@@std@@YAPEAV?$basic_string@_WU?$char_traits@_W@std@@V?$allocator@_W@2@@0@V?$_List_unchecked_const_iterator@V?$_List_val@U?$_List_simple_types@V?$basic_string@_WU?$char_traits@_W@std@@V?$allocator@_W@2@@std@@@std@@@std@@U_Iterator_base0@2@@0@0PEAV10@AEAU?$_Wrap_alloc@V?$allocator@V?$basic_string@_WU?$char_traits@_W@std@@V?$allocator@_W@2@@std@@@std@@@0@U_Nonscalar_ptr_iterator_tag@0@@Z 00000000640362f0 f i ui.obj
 0001:00035390       ??$_Push_heap@PEAV?$basic_string@_WU?$char_traits@_W@std@@V?$allocator@_W@2@@std@@_JV12@V<lambda_843e6bc4207f61423361dc672776d0e4>@@@std@@YAXPEAV?$basic_string@_WU?$char_traits@_W@std@@V?$allocator@_W@2@@0@_J1$$QEAV10@V<lambda_843e6bc4207f61423361dc672776d0e4>@@@Z 0000000064036390 f i ui.obj
 0001:00035390       ??$_Push_heap@PEAV?$basic_string@_WU?$char_traits@_W@std@@V?$allocator@_W@2@@std@@_JV12@UItemCompare@?1??show@MultiSelectDialog@@QEAA_NXZ@@std@@YAXPEAV?$basic_string@_WU?$char_traits@_W@std@@V?$allocator@_W@2@@0@_J1$$QEAV10@UItemCompare@?1??show@MultiSelectDialog@@QEAA_NXZ@@Z 0000000064036390 f i ui.obj
 0001:00035530       ??$_Pop_heap_0@PEAV?$basic_string@_WU?$char_traits@_W@std@@V?$allocator@_W@2@@std@@V12@UItemCompare@?1??show@MultiSelectDialog@@QEAA_NXZ@@std@@YAXPEAV?$basic_string@_WU?$char_traits@_W@std@@V?$allocator@_W@2@@0@0UItemCompare@?1??show@MultiSelectDialog@@QEAA_NXZ@0@Z 0000000064036530 f i ui.obj
 0001:00035680       ??$_Move_backward@PEAV?$basic_string@_WU?$char_traits@_W@std@@V?$allocator@_W@2@@std@@PEAV12@@std@@YAPEAV?$basic_string@_WU?$char_traits@_W@std@@V?$allocator@_W@2@@0@PEAV10@00U_Nonscalar_ptr_iterator_tag@0@@Z 0000000064036680 f i ui.obj
 0001:00035790       ??$_Pop_heap_0@PEAV?$basic_string@_WU?$char_traits@_W@std@@V?$allocator@_W@2@@std@@V12@V<lambda_843e6bc4207f61423361dc672776d0e4>@@@std@@YAXPEAV?$basic_string@_WU?$char_traits@_W@std@@V?$allocator@_W@2@@0@0V<lambda_843e6bc4207f61423361dc672776d0e4>@@0@Z 0000000064036790 f i ui.obj
 0001:000358dc       ??_E?$basic_ostringstream@_WU?$char_traits@_W@std@@V?$allocator@_W@2@@std@@$4PPPPPPPM@A@EAAPEAXI@Z 00000000640368dc f i ui.obj
 0001:000358e8       ??_E?$basic_ostream@_WU?$char_traits@_W@std@@@std@@$4PPPPPPPM@A@EAAPEAXI@Z 00000000640368e8 f i ui.obj
 0001:00035900       ??$_Maklocstr@_W@std@@YAPEA_WPEBDPEA_WAEBU_Cvtvec@@@Z 0000000064036900 f i ui.obj
 0001:00035a10       ??_E?$ctype@_W@std@@MEAAPEAXI@Z 0000000064036a10 f i * CIL library *:* CIL module *
 0001:00035a10       ??_G?$ctype@_W@std@@MEAAPEAXI@Z 0000000064036a10 f i ui.obj
 0001:00035a70       ?do_is@?$ctype@_W@std@@MEBAPEB_WPEB_W0PEAF@Z 0000000064036a70 f i ui.obj
 0001:00035a90       ?do_scan_is@?$ctype@_W@std@@MEBAPEB_WFPEB_W0@Z 0000000064036a90 f i ui.obj
 0001:00035b20       ?do_is@?$ctype@_W@std@@MEBA_NF_W@Z 0000000064036b20 f i ui.obj
 0001:00035b50       ?do_scan_not@?$ctype@_W@std@@MEBAPEB_WFPEB_W0@Z 0000000064036b50 f i ui.obj
 0001:00035be0       ?do_tolower@?$ctype@_W@std@@MEBAPEB_WPEA_WPEB_W@Z 0000000064036be0 f i ui.obj
 0001:00035c50       ?do_tolower@?$ctype@_W@std@@MEBA_W_W@Z 0000000064036c50 f i ui.obj
 0001:00035c60       ?do_toupper@?$ctype@_W@std@@MEBAPEB_WPEA_WPEB_W@Z 0000000064036c60 f i ui.obj
 0001:00035cd0       ?do_toupper@?$ctype@_W@std@@MEBA_W_W@Z 0000000064036cd0 f i ui.obj
 0001:00035ce0       ?do_narrow@?$ctype@_W@std@@MEBAPEB_WPEB_W0DPEAD@Z 0000000064036ce0 f i ui.obj
 0001:00035da0       ?do_narrow@?$ctype@_W@std@@MEBAD_WD@Z 0000000064036da0 f i ui.obj
 0001:00035e00       ??0?$ctype@_W@std@@QEAA@AEBV_Locinfo@1@_K@Z 0000000064036e00 f i ui.obj
 0001:00035e70       ??0_Locinfo@std@@QEAA@PEBD@Z 0000000064036e70 f i ui.obj
 0001:00035f40       ??1?$_Yarn@_W@std@@QEAA@XZ 0000000064036f40 f i ui.obj
 0001:00035f40       ??1?$_Yarn@D@std@@QEAA@XZ  0000000064036f40 f i ui.obj
 0001:00035f70       ??1_Locinfo@std@@QEAA@XZ   0000000064036f70 f i ui.obj
 0001:00036020       ?_Getcat@?$ctype@_W@std@@SA_KPEAPEBVfacet@locale@2@PEBV42@@Z 0000000064037020 f i ui.obj
 0001:000360d0       ??1length_error@std@@UEAA@XZ 00000000640370d0 f i libcpmt:xthrow.obj
 0001:000360d0       ??1bad_typeid@std@@UEAA@XZ 00000000640370d0 f i libvcruntime:rtti.obj
 0001:000360d0       ??1runtime_error@std@@UEAA@XZ 00000000640370d0 f i ui.obj
 0001:000360d0       ??1out_of_range@std@@UEAA@XZ 00000000640370d0 f i libcpmt:xthrow.obj
 0001:000360d0       ??1__non_rtti_object@std@@UEAA@XZ 00000000640370d0 f i libvcruntime:rtti.obj
 0001:000360d0       ??1bad_cast@std@@UEAA@XZ   00000000640370d0 f i ui.obj
 0001:000360d0       ??1failure@ios_base@std@@UEAA@XZ 00000000640370d0 f i ui.obj
 0001:000360d0       ??1bad_array_new_length@std@@UEAA@XZ 00000000640370d0 f i LIBCMT:throw_bad_alloc.obj
 0001:000360d0       ??1bad_weak_ptr@std@@UEAA@XZ 00000000640370d0 f i extract.obj
 0001:000360d0       ??1bad_exception@std@@UEAA@XZ 00000000640370d0 f i libvcruntime:frame.obj
 0001:000360d0       ??1bad_alloc@std@@UEAA@XZ  00000000640370d0 f i libcpmt:xthrow.obj
 0001:000360f0       ??0bad_cast@std@@QEAA@AEBV01@@Z 00000000640370f0 f i ui.obj
 0001:00036130       ??_Ebad_cast@std@@UEAAPEAXI@Z 0000000064037130 f i * CIL library *:* CIL module *
 0001:00036130       ??_Eexception@std@@UEAAPEAXI@Z 0000000064037130 f i * CIL library *:* CIL module *
 0001:00036130       ??_Gbad_array_new_length@std@@UEAAPEAXI@Z 0000000064037130 f i LIBCMT:throw_bad_alloc.obj
 0001:00036130       ??_Gbad_exception@std@@UEAAPEAXI@Z 0000000064037130 f i libvcruntime:frame.obj
 0001:00036130       ??_Ebad_exception@std@@UEAAPEAXI@Z 0000000064037130 f i libvcruntime:frame.obj
 0001:00036130       ??_Gout_of_range@std@@UEAAPEAXI@Z 0000000064037130 f i libcpmt:xthrow.obj
 0001:00036130       ??_Glength_error@std@@UEAAPEAXI@Z 0000000064037130 f i libcpmt:xthrow.obj
 0001:00036130       ??_Gruntime_error@std@@UEAAPEAXI@Z 0000000064037130 f i ui.obj
 0001:00036130       ??_E__non_rtti_object@std@@UEAAPEAXI@Z 0000000064037130 f i libvcruntime:rtti.obj
 0001:00036130       ??_Eout_of_range@std@@UEAAPEAXI@Z 0000000064037130 f i libcpmt:xthrow.obj
 0001:00036130       ??_Gexception@std@@UEAAPEAXI@Z 0000000064037130 f i ui.obj
 0001:00036130       ??_Gbad_cast@std@@UEAAPEAXI@Z 0000000064037130 f i ui.obj
 0001:00036130       ??_Ebad_typeid@std@@UEAAPEAXI@Z 0000000064037130 f i libvcruntime:rtti.obj
 0001:00036130       ??_Elength_error@std@@UEAAPEAXI@Z 0000000064037130 f i libcpmt:xthrow.obj
 0001:00036130       ??_G__non_rtti_object@std@@UEAAPEAXI@Z 0000000064037130 f i libvcruntime:rtti.obj
 0001:00036130       ??_Ebad_alloc@std@@UEAAPEAXI@Z 0000000064037130 f i libcpmt:xthrow.obj
 0001:00036130       ??_Glogic_error@std@@UEAAPEAXI@Z 0000000064037130 f i libcpmt:xthrow.obj
 0001:00036130       ??_Ebad_array_new_length@std@@UEAAPEAXI@Z 0000000064037130 f i LIBCMT:throw_bad_alloc.obj
 0001:00036130       ??_Eruntime_error@std@@UEAAPEAXI@Z 0000000064037130 f i * CIL library *:* CIL module *
 0001:00036130       ??_Gbad_weak_ptr@std@@UEAAPEAXI@Z 0000000064037130 f i extract.obj
 0001:00036130       ??_Elogic_error@std@@UEAAPEAXI@Z 0000000064037130 f i libcpmt:xthrow.obj
 0001:00036130       ??_Gbad_typeid@std@@UEAAPEAXI@Z 0000000064037130 f i libvcruntime:rtti.obj
 0001:00036130       ??_Gbad_alloc@std@@UEAAPEAXI@Z 0000000064037130 f i libcpmt:xthrow.obj
 0001:00036130       ??_Ebad_weak_ptr@std@@UEAAPEAXI@Z 0000000064037130 f i * CIL library *:* CIL module *
 0001:00036180       ?do_widen@?$ctype@_W@std@@MEBA_WD@Z 0000000064037180 f i ui.obj
 0001:000361d0       ?message@error_code@std@@QEBA?AV?$basic_string@DU?$char_traits@D@std@@V?$allocator@D@2@@2@XZ 00000000640371d0 f i ui.obj
 0001:00036200       ?_Makestr@_System_error@std@@CA?AV?$basic_string@DU?$char_traits@D@std@@V?$allocator@D@2@@2@Verror_code@2@V32@@Z 0000000064037200 f i ui.obj
 0001:00036320       ??0_System_error@std@@IEAA@Verror_code@1@AEBV?$basic_string@DU?$char_traits@D@std@@V?$allocator@D@2@@1@@Z 0000000064037320 f i ui.obj
 0001:00036420       ??0system_error@std@@QEAA@Verror_code@1@PEBD@Z 0000000064037420 f i ui.obj
 0001:000364f0       ??_Eerror_category@std@@UEAAPEAXI@Z 00000000640374f0 f i * CIL library *:* CIL module *
 0001:000364f0       ??_E_Iostream_error_category@std@@UEAAPEAXI@Z 00000000640374f0 f i * CIL library *:* CIL module *
 0001:000364f0       ??_Gerror_category@std@@UEAAPEAXI@Z 00000000640374f0 f i ui.obj
 0001:000364f0       ??_G_Iostream_error_category@std@@UEAAPEAXI@Z 00000000640374f0 f i ui.obj
 0001:00036520       ?name@_Iostream_error_category@std@@UEBAPEBDXZ 0000000064037520 f i ui.obj
 0001:00036530       ?message@_Generic_error_category@std@@UEBA?AV?$basic_string@DU?$char_traits@D@std@@V?$allocator@D@2@@2@H@Z 0000000064037530 f i ui.obj
 0001:00036590       ?message@_Iostream_error_category@std@@UEBA?AV?$basic_string@DU?$char_traits@D@std@@V?$allocator@D@2@@2@H@Z 0000000064037590 f i ui.obj
 0001:000365e0       ?equivalent@error_category@std@@UEBA_NAEBVerror_code@2@H@Z 00000000640375e0 f i ui.obj
 0001:00036600       ?default_error_condition@error_category@std@@UEBA?AVerror_condition@2@H@Z 0000000064037600 f i ui.obj
 0001:00036610       ?equivalent@error_category@std@@UEBA_NHAEBVerror_condition@2@@Z 0000000064037610 f i ui.obj
 0001:00036630       ?make_error_code@std@@YA?AVerror_code@1@W4io_errc@1@@Z 0000000064037630 f i ui.obj
 0001:00036690       ??_E_System_error@std@@UEAAPEAXI@Z 0000000064037690 f i * CIL library *:* CIL module *
 0001:00036690       ??_G_System_error@std@@UEAAPEAXI@Z 0000000064037690 f i ui.obj
 0001:00036690       ??_Efailure@ios_base@std@@UEAAPEAXI@Z 0000000064037690 f i * CIL library *:* CIL module *
 0001:00036690       ??_Gsystem_error@std@@UEAAPEAXI@Z 0000000064037690 f i ui.obj
 0001:00036690       ??_Gfailure@ios_base@std@@UEAAPEAXI@Z 0000000064037690 f i ui.obj
 0001:00036690       ??_Esystem_error@std@@UEAAPEAXI@Z 0000000064037690 f i * CIL library *:* CIL module *
 0001:000366e0       ??0failure@ios_base@std@@QEAA@AEBV012@@Z 00000000640376e0 f i ui.obj
 0001:00036740       ??0system_error@std@@QEAA@AEBV01@@Z 0000000064037740 f i ui.obj
 0001:000367a0       ??0_System_error@std@@QEAA@AEBV01@@Z 00000000640377a0 f i ui.obj
 0001:000367f0       ??0runtime_error@std@@QEAA@AEBV01@@Z 00000000640377f0 f i ui.obj
 0001:00036830       ??0exception@std@@QEAA@AEBV01@@Z 0000000064037830 f i ui.obj
 0001:00036870       ?clear@ios_base@std@@QEAAXH_N@Z 0000000064037870 f i ui.obj
 0001:00036bf0       ?_Init@ios_base@std@@IEAAXXZ 0000000064037bf0 f i ui.obj
 0001:00036c60       ?do_widen@?$ctype@_W@std@@MEBAPEBDPEBD0PEA_W@Z 0000000064037c60 f i ui.obj
 0001:00036d10       ?assign@?$basic_string@_WU?$char_traits@_W@std@@V?$allocator@_W@2@@std@@QEAAAEAV12@_K_W@Z 0000000064037d10 f i ui.obj
 0001:00036e10       ??1facet@locale@std@@MEAA@XZ 0000000064037e10 f i ui.obj
 0001:00036e20       ?append@?$basic_string@DU?$char_traits@D@std@@V?$allocator@D@2@@std@@QEAAAEAV12@_KD@Z 0000000064037e20 f i ui.obj
 0001:00036f30       __local_stdio_printf_options 0000000064037f30 f i ui.obj
 0001:00036f40       sprintf_s                  0000000064037f40 f i ui.obj
 0001:00036fa0       ??_Eios_base@std@@UEAAPEAXI@Z 0000000064037fa0 f i * CIL library *:* CIL module *
 0001:00036fa0       ??_Gios_base@std@@UEAAPEAXI@Z 0000000064037fa0 f i ui.obj
 0001:00036ff0       ?_Incref@facet@locale@std@@UEAAXXZ 0000000064037ff0 f i ui.obj
 0001:00037000       ?_Decref@facet@locale@std@@UEAAPEAV_Facet_base@3@XZ 0000000064038000 f i ui.obj
 0001:00037020       ??_E_Facet_base@std@@UEAAPEAXI@Z 0000000064038020 f i * CIL library *:* CIL module *
 0001:00037020       ??_G_Facet_base@std@@UEAAPEAXI@Z 0000000064038020 f i ui.obj
 0001:00037050       ??1locale@std@@QEAA@XZ     0000000064038050 f i ui.obj
 0001:00037090       ?getloc@ios_base@std@@QEBA?AVlocale@2@XZ 0000000064038090 f i ui.obj
 0001:000370c0       ?what@exception@std@@UEBAPEBDXZ 00000000640380c0 f i ui.obj
 0001:000370e0       ??1CriticalSectionLock@@QEAA@XZ 00000000640380e0 f i extract.obj
 0001:00037100       ??1DisableSleepMode@@QEAA@XZ 0000000064038100 f i extract.obj
 0001:00037110       ??1ComBase@@UEAA@XZ        0000000064038110 f i extract.obj
 0001:00037120       ??_EComBase@@UEAAPEAXI@Z   0000000064038120 f i * CIL library *:* CIL module *
 0001:00037120       ??_GComBase@@UEAAPEAXI@Z   0000000064038120 f i extract.obj
 0001:00037150       ??1BStr@@QEAA@XZ           0000000064038150 f i extract.obj
 0001:00037180       ?get_progress_bar_str@@YA?AV?$basic_string@_WU?$char_traits@_W@std@@V?$allocator@_W@2@@std@@III@Z 0000000064038180 f   extract.obj
 0001:000372d0       ?do_update_ui@ExtractProgress@@EEAAXXZ 00000000640382d0 f i extract.obj
 0001:00037a50       ??0ExtractProgress@@QEAA@AEBV?$basic_string@_WU?$char_traits@_W@std@@V?$allocator@_W@2@@std@@@Z 0000000064038a50 f i extract.obj
 0001:00037ba0       ?update_extract_file@ExtractProgress@@QEAAXAEBV?$basic_string@_WU?$char_traits@_W@std@@V?$allocator@_W@2@@std@@@Z 0000000064038ba0 f i extract.obj
 0001:00037c50       ?update_extract_completed@ExtractProgress@@QEAAX_K@Z 0000000064038c50 f i extract.obj
 0001:00037cf0       ?update_cache_file@ExtractProgress@@QEAAXAEBV?$basic_string@_WU?$char_traits@_W@std@@V?$allocator@_W@2@@std@@@Z 0000000064038cf0 f i extract.obj
 0001:00037da0       ?update_cache_stored@ExtractProgress@@QEAAX_K@Z 0000000064038da0 f i extract.obj
 0001:00037e40       ??_EExtractProgress@@UEAAPEAXI@Z 0000000064038e40 f i * CIL library *:* CIL module *
 0001:00037e40       ??_GExtractProgress@@UEAAPEAXI@Z 0000000064038e40 f i extract.obj
 0001:00037e80       ??1ExtractProgress@@UEAA@XZ 0000000064038e80 f i extract.obj
 0001:00037f60       ?create_file@FileWriteCache@@AEAAXXZ 0000000064038f60 f i extract.obj
 0001:00038230       ?allocate_file@FileWriteCache@@AEAAXXZ 0000000064039230 f i extract.obj
 0001:000382f0       ?write_file@FileWriteCache@@AEAAXXZ 00000000640392f0 f i extract.obj
 0001:00038470       ?close_file@FileWriteCache@@AEAAXXZ 0000000064039470 f i extract.obj
 0001:00038590       ?write@FileWriteCache@@AEAAXXZ 0000000064039590 f i extract.obj
 0001:00038670       ?store@FileWriteCache@@AEAAXPEBE_K@Z 0000000064039670 f i extract.obj
 0001:00038780       ??0FileWriteCache@@QEAA@V?$shared_ptr@VArchive@@@std@@V?$shared_ptr@_N@2@V?$shared_ptr@V?$list@UError@@V?$allocator@UError@@@std@@@std@@@2@V?$shared_ptr@VExtractProgress@@@2@@Z 0000000064039780 f i extract.obj
 0001:00038ae0       ??1FileWriteCache@@QEAA@XZ 0000000064039ae0 f i extract.obj
 0001:00038cb0       ?store_file@FileWriteCache@@QEAAXAEBV?$basic_string@_WU?$char_traits@_W@std@@V?$allocator@_W@2@@std@@IW4OverwriteAction@@@Z 0000000064039cb0 f i extract.obj
 0001:00038da0       ?store_data@FileWriteCache@@QEAAXPEBE_K@Z 0000000064039da0 f i extract.obj
 0001:00038f10       ??0CachedFileExtractStream@@QEAA@V?$shared_ptr@VFileWriteCache@@@std@@@Z 0000000064039f10 f i extract.obj
 0001:00038fc0       ?QueryInterface@CachedFileExtractStream@@UEAAJAEBU_GUID@@PEAPEAX@Z 0000000064039fc0 f i extract.obj
 0001:00039050       ?AddRef@ArchiveFileDeleter@@UEAAKXZ 000000006403a050 f i delete.obj
 0001:00039050       ?AddRef@ArchiveFileDeleterStream@@UEAAKXZ 000000006403a050 f i delete.obj
 0001:00039050       ?AddRef@FileReadStream@@UEAAKXZ 000000006403a050 f i update.obj
 0001:00039050       ?AddRef@ArchiveOpenStream@@UEAAKXZ 000000006403a050 f i open.obj
 0001:00039050       ?AddRef@ArchiveSubStream@@UEAAKXZ 000000006403a050 f i open.obj
 0001:00039050       ?AddRef@CachedFileExtractStream@@UEAAKXZ 000000006403a050 f i extract.obj
 0001:00039060       ?Release@FileReadStream@@UEAAKXZ 000000006403a060 f i update.obj
 0001:00039060       ?Release@ArchiveOpenStream@@UEAAKXZ 000000006403a060 f i open.obj
 0001:00039060       ?Release@ArchiveFileDeleter@@UEAAKXZ 000000006403a060 f i delete.obj
 0001:00039060       ?Release@ArchiveSubStream@@UEAAKXZ 000000006403a060 f i open.obj
 0001:00039060       ?Release@ArchiveFileDeleterStream@@UEAAKXZ 000000006403a060 f i delete.obj
 0001:00039060       ?Release@CachedFileExtractStream@@UEAAKXZ 000000006403a060 f i extract.obj
 0001:00039090       ?Write@CachedFileExtractStream@@UEAAJPEBXIPEAI@Z 000000006403a090 f i extract.obj
 0001:000390e0       ??_GCachedFileExtractStream@@UEAAPEAXI@Z 000000006403a0e0 f i extract.obj
 0001:000390e0       ??_ECachedFileExtractStream@@UEAAPEAXI@Z 000000006403a0e0 f i * CIL library *:* CIL module *
 0001:00039120       ??1CachedFileExtractStream@@UEAA@XZ 000000006403a120 f i extract.obj
 0001:000391c0       ??4Error@@QEAAAEAU0@AEBU0@@Z 000000006403a1c0 f i extract.obj
 0001:00039210       ??4Error@@QEAAAEAU0@$$QEAU0@@Z 000000006403a210 f i extract.obj
 0001:00039290       ??0ArchiveExtractor@@QEAA@IAEBV?$basic_string@_WU?$char_traits@_W@std@@V?$allocator@_W@2@@std@@V?$shared_ptr@VArchive@@@2@V?$shared_ptr@W4OverwriteAction@@@2@V?$shared_ptr@_N@2@V?$shared_ptr@V?$list@UError@@V?$allocator@UError@@@std@@@std@@@2@V?$shared_ptr@VFileWriteCache@@@2@V?$shared_ptr@VExtractProgress@@@2@V?$shared_ptr@V?$set@IU?$less@I@std@@V?$allocator@I@2@@std@@@2@@Z 000000006403a290 f i extract.obj
 0001:00039620       ?QueryInterface@ArchiveTester@@UEAAJAEBU_GUID@@PEAPEAX@Z 000000006403a620 f i test.obj
 0001:00039620       ?QueryInterface@ArchiveExtractor@@UEAAJAEBU_GUID@@PEAPEAX@Z 000000006403a620 f i extract.obj
 0001:000396f0       ?AddRef@ArchiveTester@@UEAAKXZ 000000006403a6f0 f i test.obj
 0001:000396f0       ?AddRef@ArchiveUpdater@@UEAAKXZ 000000006403a6f0 f i update.obj
 0001:000396f0       ?AddRef@ArchiveExtractor@@UEAAKXZ 000000006403a6f0 f i extract.obj
 0001:00039700       ?Release@ArchiveTester@@UEAAKXZ 000000006403a700 f i test.obj
 0001:00039700       ?Release@ArchiveExtractor@@UEAAKXZ 000000006403a700 f i extract.obj
 0001:00039700       ?Release@ArchiveUpdater@@UEAAKXZ 000000006403a700 f i update.obj
 0001:00039730       ?SetTotal@ArchiveExtractor@@UEAAJ_K@Z 000000006403a730 f i extract.obj
 0001:00039820       ?SetCompleted@ArchiveExtractor@@UEAAJPEB_K@Z 000000006403a820 f i extract.obj
 0001:000398e0       ?GetStream@ArchiveExtractor@@UEAAJIPEAPEAUISequentialOutStream@@H@Z 000000006403a8e0 f i extract.obj
 0001:00039d40       ?PrepareOperation@ArchiveExtractor@@UEAAJH@Z 000000006403ad40 f i extract.obj
 0001:00039db0       ?SetOperationResult@ArchiveExtractor@@UEAAJH@Z 000000006403adb0 f i extract.obj
 0001:0003a240       ?CryptoGetTextPassword@ArchiveExtractor@@UEAAJPEAPEA_W@Z 000000006403b240 f i extract.obj
 0001:0003a430       ??_EArchiveExtractor@@UEAAPEAXI@Z 000000006403b430 f i * CIL library *:* CIL module *
 0001:0003a430       ??_GArchiveExtractor@@UEAAPEAXI@Z 000000006403b430 f i extract.obj
 0001:0003a470       ??1ArchiveExtractor@@UEAA@XZ 000000006403b470 f i extract.obj
 0001:0003a6c0       ?prepare_dst_dir@Archive@@AEAAXAEBV?$basic_string@_WU?$char_traits@_W@std@@V?$allocator@_W@2@@std@@@Z 000000006403b6c0 f   extract.obj
 0001:0003a780       ?do_update_ui@PrepareExtract@@EEAAXXZ 000000006403b780 f i extract.obj
 0001:0003a930       ?prepare_extract@PrepareExtract@@AEAAXAEBU?$pair@V?$_Vector_const_iterator@V?$_Vector_val@U?$_Simple_types@I@std@@@std@@@std@@V12@@std@@AEBV?$basic_string@_WU?$char_traits@_W@std@@V?$allocator@_W@2@@3@@Z 000000006403b930 f i extract.obj
 0001:0003ad20       ??_EPrepareExtract@@UEAAPEAXI@Z 000000006403bd20 f i * CIL library *:* CIL module *
 0001:0003ad20       ??_GPrepareExtract@@UEAAPEAXI@Z 000000006403bd20 f i extract.obj
 0001:0003ad60       ?do_update_ui@SetDirAttr@@EEAAXXZ 000000006403bd60 f i extract.obj
 0001:0003af10       ?set_dir_attr@SetDirAttr@@AEAAXAEBU?$pair@V?$_Vector_const_iterator@V?$_Vector_val@U?$_Simple_types@I@std@@@std@@@std@@V12@@std@@AEBV?$basic_string@_WU?$char_traits@_W@std@@V?$allocator@_W@2@@3@@Z 000000006403bf10 f i extract.obj
 0001:0003b480       ??_GSetDirAttr@@UEAAPEAXI@Z 000000006403c480 f i extract.obj
 0001:0003b480       ??_ESetDirAttr@@UEAAPEAXI@Z 000000006403c480 f i * CIL library *:* CIL module *
 0001:0003b4c0       ?extract@Archive@@QEAAXIAEBV?$vector@IV?$allocator@I@std@@@std@@AEBUExtractOptions@@V?$shared_ptr@V?$list@UError@@V?$allocator@UError@@@std@@@std@@@3@PEAV23@@Z 000000006403c4c0 f   extract.obj
 0001:0003c080       ??1?$list@IV?$allocator@I@std@@@std@@QEAA@XZ 000000006403d080 f i extract.obj
 0001:0003c080       ??1?$list@GV?$allocator@G@std@@@std@@QEAA@XZ 000000006403d080 f i rsrc.obj
 0001:0003c0e0       ?shared_from_this@?$enable_shared_from_this@VArchive@@@std@@QEAA?AV?$shared_ptr@VArchive@@@2@XZ 000000006403d0e0 f i extract.obj
 0001:0003c110       ??0?$vector@IV?$allocator@I@std@@@std@@QEAA@AEBV01@@Z 000000006403d110 f i extract.obj
 0001:0003c1c0       ?_Insert_n@?$list@UCacheRecord@FileWriteCache@@V?$allocator@UCacheRecord@FileWriteCache@@@std@@@std@@QEAAXV?$_List_unchecked_const_iterator@V?$_List_val@U?$_List_simple_types@UCacheRecord@FileWriteCache@@@std@@@std@@U_Iterator_base0@2@@2@_KAEBUCacheRecord@FileWriteCache@@@Z 000000006403d1c0 f i extract.obj
 0001:0003c270       ?_Buynode0@?$_List_alloc@U?$_List_base_types@IV?$allocator@I@std@@@std@@@std@@QEAAPEAU?$_List_node@IPEAX@2@PEAU32@0@Z 000000006403d270 f i extract.obj
 0001:0003c270       ?_Buynode0@?$_List_alloc@U?$_List_base_types@GV?$allocator@G@std@@@std@@@std@@QEAAPEAU?$_List_node@GPEAX@2@PEAU32@0@Z 000000006403d270 f i rsrc.obj
 0001:0003c2c0       ?_Buynode0@?$_List_alloc@U?$_List_base_types@UCacheRecord@FileWriteCache@@V?$allocator@UCacheRecord@FileWriteCache@@@std@@@std@@@std@@QEAAPEAU?$_List_node@UCacheRecord@FileWriteCache@@PEAX@2@PEAU32@0@Z 000000006403d2c0 f i extract.obj
 0001:0003c310       ??$?6_WU?$char_traits@_W@std@@@std@@YAAEAV?$basic_ostream@_WU?$char_traits@_W@std@@@0@AEAV10@PEB_W@Z 000000006403d310 f i extract.obj
 0001:0003c590       ??$?6_WU?$char_traits@_W@std@@_J@std@@YAAEAV?$basic_ostream@_WU?$char_traits@_W@std@@@0@AEAV10@AEBU?$_Smanip@_J@0@@Z 000000006403d590 f i extract.obj
 0001:0003c5d0       ??$?0VArchive@@@?$shared_ptr@VArchive@@@std@@QEAA@AEBV?$weak_ptr@VArchive@@@1@_N@Z 000000006403d5d0 f i extract.obj
 0001:0003c650       ??$_For_each@V?$_List_unchecked_iterator@V?$_List_val@U?$_List_simple_types@UCacheRecord@FileWriteCache@@@std@@@std@@@std@@V<lambda_121bb0a7a052a2599bd7075a3cab1711>@@@std@@YAXV?$_List_unchecked_iterator@V?$_List_val@U?$_List_simple_types@UCacheRecord@FileWriteCache@@@std@@@std@@@0@0AEAV<lambda_121bb0a7a052a2599bd7075a3cab1711>@@@Z 000000006403d650 f i extract.obj
 0001:0003c760       ??$_Resetp@_N@?$shared_ptr@_N@std@@AEAAXPEA_N@Z 000000006403d760 f i extract.obj
 0001:0003c7c0       ??$_Resetp@W4OverwriteAction@@@?$shared_ptr@W4OverwriteAction@@@std@@AEAAXPEAW4OverwriteAction@@@Z 000000006403d7c0 f i extract.obj
 0001:0003c820       ??$_Resetp@VExtractProgress@@@?$shared_ptr@VExtractProgress@@@std@@AEAAXPEAVExtractProgress@@@Z 000000006403d820 f i extract.obj
 0001:0003c880       ??$_Resetp@VFileWriteCache@@@?$shared_ptr@VFileWriteCache@@@std@@AEAAXPEAVFileWriteCache@@@Z 000000006403d880 f i extract.obj
 0001:0003c8e0       ??$_For_each@V?$_Tree_unchecked_const_iterator@V?$_Tree_val@U?$_Tree_simple_types@V?$basic_string@_WU?$char_traits@_W@std@@V?$allocator@_W@2@@std@@@std@@@std@@U_Iterator_base0@2@@std@@V<lambda_86d77aeb69add83559705e91ac9f044b>@@@std@@YAXV?$_Tree_unchecked_const_iterator@V?$_Tree_val@U?$_Tree_simple_types@V?$basic_string@_WU?$char_traits@_W@std@@V?$allocator@_W@2@@std@@@std@@@std@@U_Iterator_base0@2@@0@0AEAV<lambda_86d77aeb69add83559705e91ac9f044b>@@@Z 000000006403d8e0 f i extract.obj
 0001:0003c980       ??$_Buynode@AEBUCacheRecord@FileWriteCache@@@?$_List_buy@UCacheRecord@FileWriteCache@@V?$allocator@UCacheRecord@FileWriteCache@@@std@@@std@@QEAAPEAU?$_List_node@UCacheRecord@FileWriteCache@@PEAX@1@PEAU21@0AEBUCacheRecord@FileWriteCache@@@Z 000000006403d980 f i extract.obj
 0001:0003c9d0       ??$_Buynode@AEBI@?$_List_buy@IV?$allocator@I@std@@@std@@QEAAPEAU?$_List_node@IPEAX@1@PEAU21@0AEBI@Z 000000006403d9d0 f i extract.obj
 0001:0003ca00       ?_Destroy@?$_Ref_count@VFileWriteCache@@@std@@EEAAXXZ 000000006403da00 f i extract.obj
 0001:0003ca30       ?_Destroy@?$_Ref_count@VArchiveUpdateProgress@@@std@@EEAAXXZ 000000006403da30 f i update.obj
 0001:0003ca30       ?_Destroy@?$_Ref_count@VExtractProgress@@@std@@EEAAXXZ 000000006403da30 f i extract.obj
 0001:0003ca30       ?_Destroy@?$_Ref_count@VArchiveFileDeleterProgress@@@std@@EEAAXXZ 000000006403da30 f i delete.obj
 0001:0003ca50       ?_Destroy@?$_Ref_count@W4OverwriteAction@@@std@@EEAAXXZ 000000006403da50 f i extract.obj
 0001:0003ca60       ?_Destroy@?$_Ref_count@_N@std@@EEAAXXZ 000000006403da60 f i extract.obj
 0001:0003ca70       ??0bad_weak_ptr@std@@QEAA@AEBV01@@Z 000000006403da70 f i extract.obj
 0001:0003cab0       ??$_Copy_impl@V?$_List_unchecked_iterator@V?$_List_val@U?$_List_simple_types@I@std@@@std@@@std@@V?$back_insert_iterator@V?$vector@IV?$allocator@I@std@@@std@@@2@@std@@YA?AV?$back_insert_iterator@V?$vector@IV?$allocator@I@std@@@std@@@0@V?$_List_unchecked_iterator@V?$_List_val@U?$_List_simple_types@I@std@@@std@@@0@0V10@U_Nonscalar_ptr_iterator_tag@0@@Z 000000006403dab0 f i extract.obj
 0001:0003cb80       ??$_Sort@PEAI_JU?$less@X@std@@@std@@YAXPEAI0_JU?$less@X@0@@Z 000000006403db80 f i extract.obj
 0001:0003ccc0       ??$_Resetp@V?$set@IU?$less@I@std@@V?$allocator@I@2@@std@@@?$shared_ptr@V?$set@IU?$less@I@std@@V?$allocator@I@2@@std@@@std@@AEAAXPEAV?$set@IU?$less@I@std@@V?$allocator@I@2@@1@@Z 000000006403dcc0 f i extract.obj
 0001:0003cd20       ??$_Set_difference@PEAIV?$_Tree_unchecked_const_iterator@V?$_Tree_val@U?$_Tree_simple_types@I@std@@@std@@U_Iterator_base0@2@@std@@V?$back_insert_iterator@V?$vector@IV?$allocator@I@std@@@std@@@2@U?$less@X@2@@std@@YA?AV?$back_insert_iterator@V?$vector@IV?$allocator@I@std@@@std@@@0@PEAI0V?$_Tree_unchecked_const_iterator@V?$_Tree_val@U?$_Tree_simple_types@I@std@@@std@@U_Iterator_base0@2@@0@1V10@U?$less@X@0@@Z 000000006403dd20 f i extract.obj
 0001:0003cfc0       ??$construct@UCacheRecord@FileWriteCache@@AEBU12@@?$_Wrap_alloc@V?$allocator@U?$_List_node@UCacheRecord@FileWriteCache@@PEAX@std@@@std@@@std@@QEAAXPEAUCacheRecord@FileWriteCache@@AEBU23@@Z 000000006403dfc0 f i extract.obj
 0001:0003d050       ??_G?$set@IU?$less@I@std@@V?$allocator@I@2@@std@@QEAAPEAXI@Z 000000006403e050 f i extract.obj
 0001:0003d090       ?_Destroy@?$_Ref_count@V?$set@IU?$less@I@std@@V?$allocator@I@2@@std@@@std@@EEAAXXZ 000000006403e090 f i extract.obj
 0001:0003d0e0       ??$_Unguarded_partition@PEAIU?$less@X@std@@@std@@YA?AU?$pair@PEAIPEAI@0@PEAI0U?$less@X@0@@Z 000000006403e0e0 f i extract.obj
 0001:0003d280       ??$_Median@PEAIU?$less@X@std@@@std@@YAXPEAI00U?$less@X@0@@Z 000000006403e280 f i extract.obj
 0001:0003d3d0       ??$_Make_heap@PEAI_JIU?$less@X@std@@@std@@YAXPEAI0U?$less@X@0@PEA_J0@Z 000000006403e3d0 f i extract.obj
 0001:0003d4c0       ??$_Sort_heap@PEAIU?$less@X@std@@@std@@YAXPEAI0U?$less@X@0@@Z 000000006403e4c0 f i extract.obj
 0001:0003d5b0       ??$_Insertion_sort1@PEAIU?$less@X@std@@I@std@@YAXPEAI0U?$less@X@0@0@Z 000000006403e5b0 f i extract.obj
 0001:0003d668       ?AddRef@ArchiveTester@@W7EAAKXZ 000000006403e668 f i test.obj
 0001:0003d668       ?AddRef@ArchiveExtractor@@W7EAAKXZ 000000006403e668 f i extract.obj
 0001:0003d668       ?AddRef@ArchiveUpdater@@W7EAAKXZ 000000006403e668 f i update.obj
 0001:0003d674       ?Release@ArchiveTester@@WBA@EAAKXZ 000000006403e674 f i test.obj
 0001:0003d674       ?Release@ArchiveUpdater@@WBA@EAAKXZ 000000006403e674 f i update.obj
 0001:0003d674       ?Release@ArchiveExtractor@@WBA@EAAKXZ 000000006403e674 f i extract.obj
 0001:0003d680       ??_ECachedFileExtractStream@@W7EAAPEAXI@Z 000000006403e680 f i extract.obj
 0001:0003d68c       ?QueryInterface@ArchiveExtractor@@W7EAAJAEBU_GUID@@PEAPEAX@Z 000000006403e68c f i extract.obj
 0001:0003d68c       ?QueryInterface@ArchiveTester@@W7EAAJAEBU_GUID@@PEAPEAX@Z 000000006403e68c f i test.obj
 0001:0003d698       ?AddRef@ArchiveUpdater@@WBA@EAAKXZ 000000006403e698 f i update.obj
 0001:0003d698       ?AddRef@ArchiveTester@@WBA@EAAKXZ 000000006403e698 f i test.obj
 0001:0003d698       ?AddRef@ArchiveExtractor@@WBA@EAAKXZ 000000006403e698 f i extract.obj
 0001:0003d6a4       ??_EArchiveExtractor@@WBA@EAAPEAXI@Z 000000006403e6a4 f i extract.obj
 0001:0003d6b0       ?QueryInterface@ArchiveExtractor@@WBA@EAAJAEBU_GUID@@PEAPEAX@Z 000000006403e6b0 f i extract.obj
 0001:0003d6b0       ?QueryInterface@ArchiveTester@@WBA@EAAJAEBU_GUID@@PEAPEAX@Z 000000006403e6b0 f i test.obj
 0001:0003d6bc       ?Release@ArchiveTester@@W7EAAKXZ 000000006403e6bc f i test.obj
 0001:0003d6bc       ?Release@ArchiveExtractor@@W7EAAKXZ 000000006403e6bc f i extract.obj
 0001:0003d6bc       ?Release@ArchiveUpdater@@W7EAAKXZ 000000006403e6bc f i update.obj
 0001:0003d6c8       ?AddRef@CachedFileExtractStream@@W7EAAKXZ 000000006403e6c8 f i extract.obj
 0001:0003d6c8       ?AddRef@ArchiveOpenStream@@W7EAAKXZ 000000006403e6c8 f i open.obj
 0001:0003d6c8       ?AddRef@ArchiveFileDeleter@@W7EAAKXZ 000000006403e6c8 f i delete.obj
 0001:0003d6c8       ?AddRef@ArchiveSubStream@@W7EAAKXZ 000000006403e6c8 f i open.obj
 0001:0003d6c8       ?AddRef@FileReadStream@@W7EAAKXZ 000000006403e6c8 f i update.obj
 0001:0003d6c8       ?AddRef@ArchiveFileDeleterStream@@W7EAAKXZ 000000006403e6c8 f i delete.obj
 0001:0003d6d4       ?QueryInterface@CachedFileExtractStream@@W7EAAJAEBU_GUID@@PEAPEAX@Z 000000006403e6d4 f i extract.obj
 0001:0003d6e0       ?Release@CachedFileExtractStream@@W7EAAKXZ 000000006403e6e0 f i extract.obj
 0001:0003d6e0       ?Release@ArchiveFileDeleterStream@@W7EAAKXZ 000000006403e6e0 f i delete.obj
 0001:0003d6e0       ?Release@FileReadStream@@W7EAAKXZ 000000006403e6e0 f i update.obj
 0001:0003d6e0       ?Release@ArchiveOpenStream@@W7EAAKXZ 000000006403e6e0 f i open.obj
 0001:0003d6e0       ?Release@ArchiveFileDeleter@@W7EAAKXZ 000000006403e6e0 f i delete.obj
 0001:0003d6e0       ?Release@ArchiveSubStream@@W7EAAKXZ 000000006403e6e0 f i open.obj
 0001:0003d6f0       ?what@bad_weak_ptr@std@@UEBAPEBDXZ 000000006403e6f0 f i extract.obj
 0001:0003d700       ??4PropVariant@@QEAAAEAV0@PEB_W@Z 000000006403e700 f i open.obj
 0001:0003d7f0       ??4PropVariant@@QEAAAEAV0@_N@Z 000000006403e7f0 f i open.obj
 0001:0003d880       ??4PropVariant@@QEAAAEAV0@I@Z 000000006403e880 f i open.obj
 0001:0003d900       ??4PropVariant@@QEAAAEAV0@_K@Z 000000006403e900 f i open.obj
 0001:0003d980       ??4PropVariant@@QEAAAEAV0@AEBU_FILETIME@@@Z 000000006403e980 f i open.obj
 0001:0003da10       ??0OpenOptions@@QEAA@XZ    000000006403ea10 f   open.obj
 0001:0003dab0       ?QueryInterface@ArchiveSubStream@@UEAAJAEBU_GUID@@PEAPEAX@Z 000000006403eab0 f i open.obj
 0001:0003db50       ?Read@ArchiveSubStream@@UEAAJPEAXIPEAI@Z 000000006403eb50 f i open.obj
 0001:0003db60       ?Seek@ArchiveSubStream@@UEAAJ_JIPEA_K@Z 000000006403eb60 f i open.obj
 0001:0003dbc0       ??_GArchiveSubStream@@UEAAPEAXI@Z 000000006403ebc0 f i open.obj
 0001:0003dbc0       ??_EArchiveSubStream@@UEAAPEAXI@Z 000000006403ebc0 f i * CIL library *:* CIL module *
 0001:0003dc20       ?check_device_file@ArchiveOpenStream@@AEAAXXZ 000000006403ec20 f i open.obj
 0001:0003ddb0       ??0ArchiveOpenStream@@QEAA@AEBV?$basic_string@_WU?$char_traits@_W@std@@V?$allocator@_W@2@@std@@@Z 000000006403edb0 f i open.obj
 0001:0003de60       ?QueryInterface@ArchiveOpenStream@@UEAAJAEBU_GUID@@PEAPEAX@Z 000000006403ee60 f i open.obj
 0001:0003df00       ?Read@ArchiveOpenStream@@UEAAJPEAXIPEAI@Z 000000006403ef00 f i open.obj
 0001:0003e0c0       ?Seek@ArchiveOpenStream@@UEAAJ_JIPEA_K@Z 000000006403f0c0 f i open.obj
 0001:0003e1b0       ?get_info@ArchiveOpenStream@@QEAA?AUFindData@@XZ 000000006403f1b0 f i open.obj
 0001:0003e2e0       ??_EArchiveOpenStream@@UEAAPEAXI@Z 000000006403f2e0 f i * CIL library *:* CIL module *
 0001:0003e2e0       ??_GArchiveOpenStream@@UEAAPEAXI@Z 000000006403f2e0 f i open.obj
 0001:0003e320       ??1ArchiveOpenStream@@UEAA@XZ 000000006403f320 f i open.obj
 0001:0003e3a0       ?do_update_ui@ArchiveOpener@@EEAAXXZ 000000006403f3a0 f i open.obj
 0001:0003e720       ??0ArchiveOpener@@QEAA@V?$shared_ptr@VArchive@@@std@@@Z 000000006403f720 f i open.obj
 0001:0003e920       ?QueryInterface@ArchiveOpener@@UEAAJAEBU_GUID@@PEAPEAX@Z 000000006403f920 f i open.obj
 0001:0003ea00       ?AddRef@ArchiveOpener@@UEAAKXZ 000000006403fa00 f i open.obj
 0001:0003ea00       ?AddRef@MultiVolumeUpdateStream@@UEAAKXZ 000000006403fa00 f i update.obj
 0001:0003ea00       ?AddRef@SimpleUpdateStream@@UEAAKXZ 000000006403fa00 f i update.obj
 0001:0003ea00       ?AddRef@SfxUpdateStream@@UEAAKXZ 000000006403fa00 f i update.obj
 0001:0003ea10       ?Release@ArchiveOpener@@UEAAKXZ 000000006403fa10 f i open.obj
 0001:0003ea40       ?SetTotal@ArchiveOpener@@UEAAJPEB_K0@Z 000000006403fa40 f i open.obj
 0001:0003ea90       ?SetCompleted@ArchiveOpener@@UEAAJPEB_K0@Z 000000006403fa90 f i open.obj
 0001:0003eae0       ?GetProperty@ArchiveOpener@@UEAAJKPEAUtagPROPVARIANT@@@Z 000000006403fae0 f i open.obj
 0001:0003ece0       ?GetStream@ArchiveOpener@@UEAAJPEB_WPEAPEAUIInStream@@@Z 000000006403fce0 f i open.obj
 0001:0003f060       ?CryptoGetTextPassword@ArchiveOpener@@UEAAJPEAPEA_W@Z 0000000064040060 f i open.obj
 0001:0003f1e0       ??_GArchiveOpener@@UEAAPEAXI@Z 00000000640401e0 f i open.obj
 0001:0003f1e0       ??_EArchiveOpener@@UEAAPEAXI@Z 00000000640401e0 f i * CIL library *:* CIL module *
 0001:0003f270       ?get_stream@Archive@@QEAA_NIPEAPEAUIInStream@@@Z 0000000064040270 f   open.obj
 0001:0003f360       ?copy_prologue@Archive@@QEAAJPEAUIOutStream@@@Z 0000000064040360 f   open.obj
 0001:0003f480       ?open@Archive@@AEAA_NPEAUIInStream@@AEBV?$vector@EV?$allocator@E@std@@@std@@@Z 0000000064040480 f   open.obj
 0001:0003f6d0       ?prioritize@@YAXAEAV?$list@UArcEntry@@V?$allocator@UArcEntry@@@std@@@std@@AEBV?$vector@EV?$allocator@E@std@@@2@1@Z 00000000640406d0 f   open.obj
 0001:0003f800       ?detect@Archive@@CA?AV?$list@UArcEntry@@V?$allocator@UArcEntry@@@std@@@std@@PEAEI_NAEBV?$basic_string@_WU?$char_traits@_W@std@@V?$allocator@_W@2@@3@AEBV?$list@V?$vector@EV?$allocator@E@std@@@std@@V?$allocator@V?$vector@EV?$allocator@E@std@@@std@@@2@@3@@Z 0000000064040800 f   open.obj
 0001:0003fae0       ??1?$set@V?$vector@EV?$allocator@E@std@@@std@@U?$less@V?$vector@EV?$allocator@E@std@@@std@@@2@V?$allocator@V?$vector@EV?$allocator@E@std@@@std@@@2@@std@@QEAA@XZ 0000000064040ae0 f i open.obj
 0001:0003fb10       ?get_physize@Archive@@AEAA_KXZ 0000000064040b10 f   open.obj
 0001:0003fca0       ?get_skip_header@Archive@@AEAA_KPEAUIInStream@@AEBV?$vector@EV?$allocator@E@std@@@std@@@Z 0000000064040ca0 f   open.obj
 0001:0003fd90       ?open@Archive@@CAXAEBUOpenOptions@@AEAV?$vector@V?$shared_ptr@VArchive@@@std@@V?$allocator@V?$shared_ptr@VArchive@@@std@@@2@@std@@@Z 0000000064040d90 f   open.obj
 0001:00040710       ?open@Archive@@SA?AV?$unique_ptr@V?$vector@V?$shared_ptr@VArchive@@@std@@V?$allocator@V?$shared_ptr@VArchive@@@std@@@2@@std@@U?$default_delete@V?$vector@V?$shared_ptr@VArchive@@@std@@V?$allocator@V?$shared_ptr@VArchive@@@std@@@2@@std@@@2@@std@@AEBUOpenOptions@@@Z 0000000064041710 f   open.obj
 0001:000407d0       ?reopen@Archive@@QEAAXXZ   00000000640417d0 f   open.obj
 0001:00040c70       ?close@Archive@@QEAAXXZ    0000000064041c70 f   open.obj
 0001:00040ce0       ??1?$ComObject@UIArchiveOpenCallback@@@@QEAA@XZ 0000000064041ce0 f i open.obj
 0001:00040d40       ??1?$vector@UStrPos@@V?$allocator@UStrPos@@@std@@@std@@QEAA@XZ 0000000064041d40 f i open.obj
 0001:00040d40       ??1?$vector@USigData@@V?$allocator@USigData@@@std@@@std@@QEAA@XZ 0000000064041d40 f i open.obj
 0001:00040d80       ??6?$basic_ostream@_WU?$char_traits@_W@std@@@std@@QEAAAEAV01@_K@Z 0000000064041d80 f i open.obj
 0001:00040f30       ?_Reserve@?$vector@V?$shared_ptr@VArchive@@@std@@V?$allocator@V?$shared_ptr@VArchive@@@std@@@2@@std@@IEAAX_K@Z 0000000064041f30 f i open.obj
 0001:00040fc0       ?_Reallocate@?$vector@USigData@@V?$allocator@USigData@@@std@@@std@@IEAAX_K@Z 0000000064041fc0 f i open.obj
 0001:00040fc0       ?_Reallocate@?$vector@UStrPos@@V?$allocator@UStrPos@@@std@@@std@@IEAAX_K@Z 0000000064041fc0 f i msearch.obj
 0001:00041040       ?erase@?$_Tree@V?$_Tset_traits@V?$vector@EV?$allocator@E@std@@@std@@U?$less@V?$vector@EV?$allocator@E@std@@@std@@@2@V?$allocator@V?$vector@EV?$allocator@E@std@@@std@@@2@$0A@@std@@@std@@QEAA?AV?$_Tree_const_iterator@V?$_Tree_val@U?$_Tree_simple_types@V?$vector@EV?$allocator@E@std@@@std@@@std@@@std@@@2@V32@0@Z 0000000064042040 f i open.obj
 0001:00041130       ?_Reallocate@?$vector@V?$shared_ptr@VArchive@@@std@@V?$allocator@V?$shared_ptr@VArchive@@@std@@@2@@std@@IEAAX_K@Z 0000000064042130 f i open.obj
 0001:000411c0       ?erase@?$_Tree@V?$_Tset_traits@V?$vector@EV?$allocator@E@std@@@std@@U?$less@V?$vector@EV?$allocator@E@std@@@std@@@2@V?$allocator@V?$vector@EV?$allocator@E@std@@@std@@@2@$0A@@std@@@std@@QEAA?AV?$_Tree_const_iterator@V?$_Tree_val@U?$_Tree_simple_types@V?$vector@EV?$allocator@E@std@@@std@@@std@@@std@@@2@V32@@Z 00000000640421c0 f i open.obj
 0001:00041650       ?allocate@?$allocator@V?$shared_ptr@VArchive@@@std@@@std@@QEAAPEAV?$shared_ptr@VArchive@@@2@_K@Z 0000000064042650 f i open.obj
 0001:00041650       ?allocate@?$allocator@USigData@@@std@@QEAAPEAUSigData@@_K@Z 0000000064042650 f i open.obj
 0001:00041650       ?allocate@?$allocator@UStrPos@@@std@@QEAAPEAUStrPos@@_K@Z 0000000064042650 f i msearch.obj
 0001:000416d0       ?_Buyheadnode@?$_Tree_comp_alloc@V?$_Tset_traits@V?$vector@EV?$allocator@E@std@@@std@@U?$less@V?$vector@EV?$allocator@E@std@@@std@@@2@V?$allocator@V?$vector@EV?$allocator@E@std@@@std@@@2@$0A@@std@@@std@@QEAAPEAU?$_Tree_node@V?$vector@EV?$allocator@E@std@@@std@@PEAX@2@XZ 00000000640426d0 f i open.obj
 0001:00041710       ?_Erase@?$_Tree@V?$_Tset_traits@V?$vector@EV?$allocator@E@std@@@std@@U?$less@V?$vector@EV?$allocator@E@std@@@std@@@2@V?$allocator@V?$vector@EV?$allocator@E@std@@@std@@@2@$0A@@std@@@std@@IEAAXPEAU?$_Tree_node@V?$vector@EV?$allocator@E@std@@@std@@PEAX@2@@Z 0000000064042710 f i open.obj
 0001:000417f0       ??$assign@V?$_List_iterator@V?$_List_val@U?$_List_simple_types@UArcEntry@@@std@@@std@@@std@@@?$list@UArcEntry@@V?$allocator@UArcEntry@@@std@@@std@@QEAAXV?$_List_iterator@V?$_List_val@U?$_List_simple_types@UArcEntry@@@std@@@std@@@1@0@Z 00000000640427f0 f i open.obj
 0001:000418e0       ??$_Insert_nohint@AEBV?$vector@EV?$allocator@E@std@@@std@@U_Nil@2@@?$_Tree@V?$_Tset_traits@V?$vector@EV?$allocator@E@std@@@std@@U?$less@V?$vector@EV?$allocator@E@std@@@std@@@2@V?$allocator@V?$vector@EV?$allocator@E@std@@@std@@@2@$0A@@std@@@std@@IEAA?AU?$pair@V?$_Tree_const_iterator@V?$_Tree_val@U?$_Tree_simple_types@V?$vector@EV?$allocator@E@std@@@std@@@std@@@std@@@std@@_N@1@_NAEBV?$vector@EV?$allocator@E@std@@@1@U_Nil@1@@Z 00000000640428e0 f i open.obj
 0001:00041ac0       ??$_Copy@U_Copy_tag@?$_Tree@V?$_Tset_traits@V?$basic_string@_WU?$char_traits@_W@std@@V?$allocator@_W@2@@std@@U?$less@V?$basic_string@_WU?$char_traits@_W@std@@V?$allocator@_W@2@@std@@@2@V?$allocator@V?$basic_string@_WU?$char_traits@_W@std@@V?$allocator@_W@2@@std@@@2@$0A@@std@@@std@@@?$_Tree@V?$_Tset_traits@V?$basic_string@_WU?$char_traits@_W@std@@V?$allocator@_W@2@@std@@U?$less@V?$basic_string@_WU?$char_traits@_W@std@@V?$allocator@_W@2@@std@@@2@V?$allocator@V?$basic_string@_WU?$char_traits@_W@std@@V?$allocator@_W@2@@std@@@2@$0A@@std@@@std@@IEAAXAEBV01@U_Copy_tag@01@@Z 0000000064042ac0 f i open.obj
 0001:00041b70       ??$_Insert_nohint@V?$basic_string@_WU?$char_traits@_W@std@@V?$allocator@_W@2@@std@@U_Nil@2@@?$_Tree@V?$_Tset_traits@V?$basic_string@_WU?$char_traits@_W@std@@V?$allocator@_W@2@@std@@U?$less@V?$basic_string@_WU?$char_traits@_W@std@@V?$allocator@_W@2@@std@@@2@V?$allocator@V?$basic_string@_WU?$char_traits@_W@std@@V?$allocator@_W@2@@std@@@2@$0A@@std@@@std@@IEAA?AU?$pair@V?$_Tree_const_iterator@V?$_Tree_val@U?$_Tree_simple_types@V?$basic_string@_WU?$char_traits@_W@std@@V?$allocator@_W@2@@std@@@std@@@std@@@std@@_N@1@_N$$QEAV?$basic_string@_WU?$char_traits@_W@std@@V?$allocator@_W@2@@1@U_Nil@1@@Z 0000000064042b70 f i open.obj
 0001:00041d70       ?erase@?$list@UArcEntry@@V?$allocator@UArcEntry@@@std@@@std@@QEAA?AV?$_List_iterator@V?$_List_val@U?$_List_simple_types@UArcEntry@@@std@@@std@@@2@V?$_List_const_iterator@V?$_List_val@U?$_List_simple_types@UArcEntry@@@std@@@std@@@2@0@Z 0000000064042d70 f i open.obj
 0001:00041ea0       ??$_For_each@V?$_List_unchecked_const_iterator@V?$_List_val@U?$_List_simple_types@V?$vector@EV?$allocator@E@std@@@std@@@std@@@std@@U_Iterator_base0@2@@std@@V<lambda_c3f5cc22ce6be14a013cbfb263a450c4>@@@std@@YAXV?$_List_unchecked_const_iterator@V?$_List_val@U?$_List_simple_types@V?$vector@EV?$allocator@E@std@@@std@@@std@@@std@@U_Iterator_base0@2@@0@0AEAV<lambda_c3f5cc22ce6be14a013cbfb263a450c4>@@@Z 0000000064042ea0 f i open.obj
 0001:000420b0       ??$_For_each@PEAUStrPos@@V<lambda_9b883e23485788037fe9ca6ad2407974>@@@std@@YAXPEAUStrPos@@0AEAV<lambda_9b883e23485788037fe9ca6ad2407974>@@@Z 00000000640430b0 f i open.obj
 0001:000422d0       ??$_For_each@V?$_List_unchecked_iterator@V?$_List_val@U?$_List_simple_types@V?$vector@EV?$allocator@E@std@@@std@@@std@@@std@@@std@@V<lambda_df64c1c8ed24e2775896adbd771b1863>@@@std@@YAXV?$_List_unchecked_iterator@V?$_List_val@U?$_List_simple_types@V?$vector@EV?$allocator@E@std@@@std@@@std@@@std@@@0@0AEAV<lambda_df64c1c8ed24e2775896adbd771b1863>@@@Z 00000000640432d0 f i open.obj
 0001:000424e0       ??$_For_each@V?$_List_unchecked_const_iterator@V?$_List_val@U?$_List_simple_types@V?$vector@EV?$allocator@E@std@@@std@@@std@@@std@@U_Iterator_base0@2@@std@@V<lambda_ac9404e4ce74952d98db4062b58fcf04>@@@std@@YAXV?$_List_unchecked_const_iterator@V?$_List_val@U?$_List_simple_types@V?$vector@EV?$allocator@E@std@@@std@@@std@@@std@@U_Iterator_base0@2@@0@0AEAV<lambda_ac9404e4ce74952d98db4062b58fcf04>@@@Z 00000000640434e0 f i open.obj
 0001:000426a0       ??$_Reusenode@AEAUArcEntry@@@?$list@UArcEntry@@V?$allocator@UArcEntry@@@std@@@std@@QEAAXV?$_List_iterator@V?$_List_val@U?$_List_simple_types@UArcEntry@@@std@@@std@@@1@AEAUArcEntry@@@Z 00000000640436a0 f i open.obj
 0001:00042700       ??$_Move@PEAV?$shared_ptr@VArchive@@@std@@PEAV12@@std@@YAPEAV?$shared_ptr@VArchive@@@0@PEAV10@00U_Nonscalar_ptr_iterator_tag@0@@Z 0000000064043700 f i open.obj
 0001:000427c0       ??$_Buynode@AEAUArcEntry@@@?$_List_buy@UArcEntry@@V?$allocator@UArcEntry@@@std@@@std@@QEAAPEAU?$_List_node@UArcEntry@@PEAX@1@PEAU21@0AEAUArcEntry@@@Z 00000000640437c0 f i open.obj
 0001:000427c0       ??$_Buynode@AEBUArcEntry@@@?$_List_buy@UArcEntry@@V?$allocator@UArcEntry@@@std@@@std@@QEAAPEAU?$_List_node@UArcEntry@@PEAX@1@PEAU21@0AEBUArcEntry@@@Z 00000000640437c0 f i open.obj
 0001:00042830       ??$_Buynode@UArcEntry@@@?$_List_buy@UArcEntry@@V?$allocator@UArcEntry@@@std@@@std@@QEAAPEAU?$_List_node@UArcEntry@@PEAX@1@PEAU21@0$$QEAUArcEntry@@@Z 0000000064043830 f i open.obj
 0001:00042890       ??$_Insert_at@AEBV?$vector@EV?$allocator@E@std@@@std@@U_Nil@2@@?$_Tree@V?$_Tset_traits@V?$vector@EV?$allocator@E@std@@@std@@U?$less@V?$vector@EV?$allocator@E@std@@@std@@@2@V?$allocator@V?$vector@EV?$allocator@E@std@@@std@@@2@$0A@@std@@@std@@IEAA?AV?$_Tree_const_iterator@V?$_Tree_val@U?$_Tree_simple_types@V?$vector@EV?$allocator@E@std@@@std@@@std@@@std@@@1@_NPEAU?$_Tree_node@V?$vector@EV?$allocator@E@std@@@std@@PEAX@1@AEBV?$vector@EV?$allocator@E@std@@@1@U_Nil@1@@Z 0000000064043890 f i open.obj
 0001:00042b60       ??$_Copy_nodes@U_Copy_tag@?$_Tree@V?$_Tset_traits@V?$basic_string@_WU?$char_traits@_W@std@@V?$allocator@_W@2@@std@@U?$less@V?$basic_string@_WU?$char_traits@_W@std@@V?$allocator@_W@2@@std@@@2@V?$allocator@V?$basic_string@_WU?$char_traits@_W@std@@V?$allocator@_W@2@@std@@@2@$0A@@std@@@std@@@?$_Tree@V?$_Tset_traits@V?$basic_string@_WU?$char_traits@_W@std@@V?$allocator@_W@2@@std@@U?$less@V?$basic_string@_WU?$char_traits@_W@std@@V?$allocator@_W@2@@std@@@2@V?$allocator@V?$basic_string@_WU?$char_traits@_W@std@@V?$allocator@_W@2@@std@@@2@$0A@@std@@@std@@IEAAPEAU?$_Tree_node@V?$basic_string@_WU?$char_traits@_W@std@@V?$allocator@_W@2@@std@@PEAX@1@PEAU21@0U_Copy_tag@01@@Z 0000000064043b60 f i open.obj
 0001:00042c00       ??$_Insert_at@V?$basic_string@_WU?$char_traits@_W@std@@V?$allocator@_W@2@@std@@U_Nil@2@@?$_Tree@V?$_Tset_traits@V?$basic_string@_WU?$char_traits@_W@std@@V?$allocator@_W@2@@std@@U?$less@V?$basic_string@_WU?$char_traits@_W@std@@V?$allocator@_W@2@@std@@@2@V?$allocator@V?$basic_string@_WU?$char_traits@_W@std@@V?$allocator@_W@2@@std@@@2@$0A@@std@@@std@@IEAA?AV?$_Tree_const_iterator@V?$_Tree_val@U?$_Tree_simple_types@V?$basic_string@_WU?$char_traits@_W@std@@V?$allocator@_W@2@@std@@@std@@@std@@@1@_NPEAU?$_Tree_node@V?$basic_string@_WU?$char_traits@_W@std@@V?$allocator@_W@2@@std@@PEAX@1@$$QEAV?$basic_string@_WU?$char_traits@_W@std@@V?$allocator@_W@2@@1@U_Nil@1@@Z 0000000064043c00 f i open.obj
 0001:00042ed0       ??$_Buynode@AEBV?$vector@EV?$allocator@E@std@@@std@@@?$_Tree_comp_alloc@V?$_Tset_traits@V?$vector@EV?$allocator@E@std@@@std@@U?$less@V?$vector@EV?$allocator@E@std@@@std@@@2@V?$allocator@V?$vector@EV?$allocator@E@std@@@std@@@2@$0A@@std@@@std@@QEAAPEAU?$_Tree_node@V?$vector@EV?$allocator@E@std@@@std@@PEAX@1@AEBV?$vector@EV?$allocator@E@std@@@1@@Z 0000000064043ed0 f i open.obj
 0001:00042f30       ??$_Buynode@V?$basic_string@_WU?$char_traits@_W@std@@V?$allocator@_W@2@@std@@@?$_Tree_comp_alloc@V?$_Tset_traits@V?$basic_string@_WU?$char_traits@_W@std@@V?$allocator@_W@2@@std@@U?$less@V?$basic_string@_WU?$char_traits@_W@std@@V?$allocator@_W@2@@std@@@2@V?$allocator@V?$basic_string@_WU?$char_traits@_W@std@@V?$allocator@_W@2@@std@@@2@$0A@@std@@@std@@QEAAPEAU?$_Tree_node@V?$basic_string@_WU?$char_traits@_W@std@@V?$allocator@_W@2@@std@@PEAX@1@$$QEAV?$basic_string@_WU?$char_traits@_W@std@@V?$allocator@_W@2@@1@@Z 0000000064043f30 f i open.obj
 0001:00042f90       ??$_Uninit_move@PEAUSigData@@PEAU1@V?$allocator@USigData@@@std@@U1@@std@@YAPEAUSigData@@PEAU1@00AEAU?$_Wrap_alloc@V?$allocator@USigData@@@std@@@0@0U_Nonscalar_ptr_iterator_tag@0@@Z 0000000064043f90 f i open.obj
 0001:00042f90       ??$_Uninit_move@PEAUStrPos@@PEAU1@V?$allocator@UStrPos@@@std@@U1@@std@@YAPEAUStrPos@@PEAU1@00AEAU?$_Wrap_alloc@V?$allocator@UStrPos@@@std@@@0@0U_Nonscalar_ptr_iterator_tag@0@@Z 0000000064043f90 f i msearch.obj
 0001:00042fc0       ??$_Uninit_move@PEAV?$shared_ptr@VArchive@@@std@@PEAV12@V?$allocator@V?$shared_ptr@VArchive@@@std@@@2@V12@@std@@YAPEAV?$shared_ptr@VArchive@@@0@PEAV10@00AEAU?$_Wrap_alloc@V?$allocator@V?$shared_ptr@VArchive@@@std@@@std@@@0@0U_Nonscalar_ptr_iterator_tag@0@@Z 0000000064043fc0 f i open.obj
 0001:00043000       ?_Buynode0@?$_Tree_comp_alloc@V?$_Tset_traits@V?$vector@EV?$allocator@E@std@@@std@@U?$less@V?$vector@EV?$allocator@E@std@@@std@@@2@V?$allocator@V?$vector@EV?$allocator@E@std@@@std@@@2@$0A@@std@@@std@@QEAAPEAU?$_Tree_node@V?$vector@EV?$allocator@E@std@@@std@@PEAX@2@XZ 0000000064044000 f i open.obj
 0001:00043050       ?Release@ArchiveOpener@@WBA@EAAKXZ 0000000064044050 f i open.obj
 0001:0004305c       ?QueryInterface@ArchiveOpener@@WBA@EAAJAEBU_GUID@@PEAPEAX@Z 000000006404405c f i open.obj
 0001:00043068       ??_EArchiveOpener@@WCI@EAAPEAXI@Z 0000000064044068 f i open.obj
 0001:00043074       ?AddRef@ArchiveOpener@@WBA@EAAKXZ 0000000064044074 f i open.obj
 0001:00043080       ??_EArchiveSubStream@@W7EAAPEAXI@Z 0000000064044080 f i open.obj
 0001:0004308c       ?Release@ArchiveOpener@@WBI@EAAKXZ 000000006404408c f i open.obj
 0001:00043098       ?QueryInterface@ArchiveOpener@@WBI@EAAJAEBU_GUID@@PEAPEAX@Z 0000000064044098 f i open.obj
 0001:000430a4       ??_EArchiveOpenStream@@W7EAAPEAXI@Z 00000000640440a4 f i open.obj
 0001:000430b0       ?AddRef@SfxUpdateStream@@WBI@EAAKXZ 00000000640440b0 f i update.obj
 0001:000430b0       ?AddRef@ArchiveOpener@@WBI@EAAKXZ 00000000640440b0 f i open.obj
 0001:000430b0       ?AddRef@MultiVolumeUpdateStream@@WBI@EAAKXZ 00000000640440b0 f i update.obj
 0001:000430b0       ?AddRef@SimpleUpdateStream@@WBI@EAAKXZ 00000000640440b0 f i update.obj
 0001:000430bc       ?QueryInterface@ArchiveSubStream@@W7EAAJAEBU_GUID@@PEAPEAX@Z 00000000640440bc f i open.obj
 0001:000430c8       ??_EArchiveOpener@@WBI@EAAPEAXI@Z 00000000640440c8 f i open.obj
 0001:000430d4       ?QueryInterface@ArchiveOpenStream@@W7EAAJAEBU_GUID@@PEAPEAX@Z 00000000640440d4 f i open.obj
 0001:000430e0       ?Release@ArchiveOpener@@W7EAAKXZ 00000000640440e0 f i open.obj
 0001:000430ec       ?QueryInterface@ArchiveOpener@@W7EAAJAEBU_GUID@@PEAPEAX@Z 00000000640440ec f i open.obj
 0001:000430f8       ?AddRef@ArchiveOpener@@W7EAAKXZ 00000000640440f8 f i open.obj
 0001:00043110       ??0PropVariant@@QEAA@AEBV?$basic_string@_WU?$char_traits@_W@std@@V?$allocator@_W@2@@std@@@Z 0000000064044110 f i update.obj
 0001:000431a0       ??4PropVariant@@QEAAAEAV0@AEBV?$basic_string@_WU?$char_traits@_W@std@@V?$allocator@_W@2@@std@@@Z 00000000640441a0 f i update.obj
 0001:00043290       ?format_time@@YA?AV?$basic_string@_WU?$char_traits@_W@std@@V?$allocator@_W@2@@std@@_K@Z 0000000064044290 f   update.obj
 0001:00043440       ?do_update_ui@ArchiveUpdateProgress@@EEAAXXZ 0000000064044440 f i update.obj
 0001:00043c30       ??0ArchiveUpdateProgress@@QEAA@_NAEBV?$basic_string@_WU?$char_traits@_W@std@@V?$allocator@_W@2@@std@@@Z 0000000064044c30 f i update.obj
 0001:00043d70       ?on_open_file@ArchiveUpdateProgress@@QEAAXAEBV?$basic_string@_WU?$char_traits@_W@std@@V?$allocator@_W@2@@std@@_K@Z 0000000064044d70 f i update.obj
 0001:00043e40       ?on_read_file@ArchiveUpdateProgress@@QEAAXI@Z 0000000064044e40 f i update.obj
 0001:00043ee0       ?on_write_archive@ArchiveUpdateProgress@@QEAAXI@Z 0000000064044ee0 f i update.obj
 0001:00043f80       ?on_total_update@ArchiveUpdateProgress@@QEAAX_K@Z 0000000064044f80 f i update.obj
 0001:00044020       ?on_completed_update@ArchiveUpdateProgress@@QEAAX_K@Z 0000000064045020 f i update.obj
 0001:000440c0       ??_GArchiveUpdateProgress@@UEAAPEAXI@Z 00000000640450c0 f i update.obj
 0001:000440c0       ??_EArchiveUpdateProgress@@UEAAPEAXI@Z 00000000640450c0 f i * CIL library *:* CIL module *
 0001:00044100       ??1ArchiveUpdateProgress@@UEAA@XZ 0000000064045100 f i update.obj
 0001:000441a0       ?translate_seek_method@@YAKI@Z 00000000640451a0 f   update.obj
 0001:00044220       ??0UpdateStream@@QEAA@V?$shared_ptr@VArchiveUpdateProgress@@@std@@@Z 0000000064045220 f i update.obj
 0001:000442c0       ??1UpdateStream@@UEAA@XZ   00000000640452c0 f i update.obj
 0001:00044320       ??_GUpdateStream@@UEAAPEAXI@Z 0000000064045320 f i update.obj
 0001:00044320       ??_EUpdateStream@@UEAAPEAXI@Z 0000000064045320 f i * CIL library *:* CIL module *
 0001:000443b0       ??0SimpleUpdateStream@@QEAA@AEBV?$basic_string@_WU?$char_traits@_W@std@@V?$allocator@_W@2@@std@@V?$shared_ptr@VArchiveUpdateProgress@@@2@@Z 00000000640453b0 f i update.obj
 0001:000444f0       ?QueryInterface@MultiVolumeUpdateStream@@UEAAJAEBU_GUID@@PEAPEAX@Z 00000000640454f0 f i update.obj
 0001:000444f0       ?QueryInterface@SfxUpdateStream@@UEAAJAEBU_GUID@@PEAPEAX@Z 00000000640454f0 f i update.obj
 0001:000444f0       ?QueryInterface@SimpleUpdateStream@@UEAAJAEBU_GUID@@PEAPEAX@Z 00000000640454f0 f i update.obj
 0001:00044590       ?Release@SfxUpdateStream@@UEAAKXZ 0000000064045590 f i update.obj
 0001:00044590       ?Release@SimpleUpdateStream@@UEAAKXZ 0000000064045590 f i update.obj
 0001:00044590       ?Release@MultiVolumeUpdateStream@@UEAAKXZ 0000000064045590 f i update.obj
 0001:000445b0       ?Write@SimpleUpdateStream@@UEAAJPEBXIPEAI@Z 00000000640455b0 f i update.obj
 0001:000445b0       ?Write@SfxUpdateStream@@UEAAJPEBXIPEAI@Z 00000000640455b0 f i update.obj
 0001:00044650       ?Seek@SimpleUpdateStream@@UEAAJ_JIPEA_K@Z 0000000064045650 f i update.obj
 0001:000446c0       ?SetSize@SimpleUpdateStream@@UEAAJ_K@Z 00000000640456c0 f i update.obj
 0001:00044720       ?clean_files@SimpleUpdateStream@@UEAAXXZ 0000000064045720 f i update.obj
 0001:00044720       ?clean_files@SfxUpdateStream@@UEAAXXZ 0000000064045720 f i update.obj
 0001:00044750       ??_GSimpleUpdateStream@@UEAAPEAXI@Z 0000000064045750 f i update.obj
 0001:00044750       ??_ESimpleUpdateStream@@UEAAPEAXI@Z 0000000064045750 f i * CIL library *:* CIL module *
 0001:00044790       ??1SfxUpdateStream@@UEAA@XZ 0000000064045790 f i update.obj
 0001:00044790       ??1SimpleUpdateStream@@UEAA@XZ 0000000064045790 f i update.obj
 0001:00044850       ??0SfxUpdateStream@@QEAA@AEBV?$basic_string@_WU?$char_traits@_W@std@@V?$allocator@_W@2@@std@@AEBUSfxOptions@@V?$shared_ptr@VArchiveUpdateProgress@@@2@@Z 0000000064045850 f i update.obj
 0001:000449d0       ?Seek@SfxUpdateStream@@UEAAJ_JIPEA_K@Z 00000000640459d0 f i update.obj
 0001:00044ab0       ?SetSize@SfxUpdateStream@@UEAAJ_K@Z 0000000064045ab0 f i update.obj
 0001:00044b20       ??_GSfxUpdateStream@@UEAAPEAXI@Z 0000000064045b20 f i update.obj
 0001:00044b20       ??_ESfxUpdateStream@@UEAAPEAXI@Z 0000000064045b20 f i * CIL library *:* CIL module *
 0001:00044b60       ?get_volume_path@MultiVolumeUpdateStream@@AEAA?AV?$basic_string@_WU?$char_traits@_W@std@@V?$allocator@_W@2@@std@@_K@Z 0000000064045b60 f i update.obj
 0001:00044d20       ?get_last_volume_idx@MultiVolumeUpdateStream@@AEAA_KXZ 0000000064045d20 f i update.obj
 0001:00044d40       ??0MultiVolumeUpdateStream@@QEAA@AEBV?$basic_string@_WU?$char_traits@_W@std@@V?$allocator@_W@2@@std@@_KV?$shared_ptr@VArchiveUpdateProgress@@@2@@Z 0000000064045d40 f i update.obj
 0001:00044f20       ?Write@MultiVolumeUpdateStream@@UEAAJPEBXIPEAI@Z 0000000064045f20 f i update.obj
 0001:00045500       ?Seek@MultiVolumeUpdateStream@@UEAAJ_JIPEA_K@Z 0000000064046500 f i update.obj
 0001:00045620       ?SetSize@MultiVolumeUpdateStream@@UEAAJ_K@Z 0000000064046620 f i update.obj
 0001:000459b0       ?clean_files@MultiVolumeUpdateStream@@UEAAXXZ 00000000640469b0 f i update.obj
 0001:00045c10       ??_GMultiVolumeUpdateStream@@UEAAPEAXI@Z 0000000064046c10 f i update.obj
 0001:00045c10       ??_EMultiVolumeUpdateStream@@UEAAPEAXI@Z 0000000064046c10 f i * CIL library *:* CIL module *
 0001:00045c50       ??1MultiVolumeUpdateStream@@UEAA@XZ 0000000064046c50 f i update.obj
 0001:00045d50       ??0FileReadStream@@QEAA@AEBV?$basic_string@_WU?$char_traits@_W@std@@V?$allocator@_W@2@@std@@_NV?$shared_ptr@VArchiveUpdateProgress@@@2@@Z 0000000064046d50 f i update.obj
 0001:00045e70       ?QueryInterface@FileReadStream@@UEAAJAEBU_GUID@@PEAPEAX@Z 0000000064046e70 f i update.obj
 0001:00045f10       ?Read@FileReadStream@@UEAAJPEAXIPEAI@Z 0000000064046f10 f i update.obj
 0001:00045f80       ?Seek@FileReadStream@@UEAAJ_JIPEA_K@Z 0000000064046f80 f i update.obj
 0001:00045f80       ?Seek@ArchiveFileDeleterStream@@UEAAJ_JIPEA_K@Z 0000000064046f80 f i delete.obj
 0001:00045ff0       ??_GArchiveFileDeleterStream@@UEAAPEAXI@Z 0000000064046ff0 f i delete.obj
 0001:00045ff0       ??_GFileReadStream@@UEAAPEAXI@Z 0000000064046ff0 f i update.obj
 0001:00045ff0       ??_EFileReadStream@@UEAAPEAXI@Z 0000000064046ff0 f i * CIL library *:* CIL module *
 0001:00045ff0       ??_EArchiveFileDeleterStream@@UEAAPEAXI@Z 0000000064046ff0 f i * CIL library *:* CIL module *
 0001:00046030       ??1ArchiveFileDeleterStream@@UEAA@XZ 0000000064047030 f i delete.obj
 0001:00046030       ??1FileReadStream@@UEAA@XZ 0000000064047030 f i update.obj
 0001:000460e0       ?do_update_ui@PrepareUpdate@@EEAAXXZ 00000000640470e0 f i update.obj
 0001:00046290       ?process_file@PrepareUpdate@@AEAA_NAEBV?$basic_string@_WU?$char_traits@_W@std@@V?$allocator@_W@2@@std@@AEBUFindData@@IAEAI@Z 0000000064047290 f i update.obj
 0001:000467a0       ?process_file_enum@PrepareUpdate@@AEAA_NAEAVFileEnum@@AEBV?$basic_string@_WU?$char_traits@_W@std@@V?$allocator@_W@2@@std@@I@Z 00000000640477a0 f i update.obj
 0001:00046de0       ??0PrepareUpdate@@QEAA@AEBV?$basic_string@_WU?$char_traits@_W@std@@V?$allocator@_W@2@@std@@AEBV?$vector@V?$basic_string@_WU?$char_traits@_W@std@@V?$allocator@_W@2@@std@@V?$allocator@V?$basic_string@_WU?$char_traits@_W@std@@V?$allocator@_W@2@@std@@@2@@2@IAEAVArchive@@AEAV?$map@IUFileIndexInfo@@U?$less@I@std@@V?$allocator@U?$pair@$$CBIUFileIndexInfo@@@std@@@3@@2@AEAIW4OverwriteAction@@AEA_NAEAV?$list@UError@@V?$allocator@UError@@@std@@@2@PEAVFileFilter@Far@@6@Z 0000000064047de0 f i update.obj
 0001:00047250       ??4FileIndexInfo@@QEAAAEAU0@AEBU0@@Z 0000000064048250 f i update.obj
 0001:00047320       ??1FileEnum@@QEAA@XZ       0000000064048320 f i sysutils.obj
 0001:00047320       ??1DirList@@QEAA@XZ        0000000064048320 f i update.obj
 0001:00047380       ??_GPrepareUpdate@@UEAAPEAXI@Z 0000000064048380 f i update.obj
 0001:00047380       ??_EPrepareUpdate@@UEAAPEAXI@Z 0000000064048380 f i * CIL library *:* CIL module *
 0001:00047400       ??0ArchiveUpdater@@QEAA@AEBV?$basic_string@_WU?$char_traits@_W@std@@V?$allocator@_W@2@@std@@0IV?$shared_ptr@V?$map@IUFileIndexInfo@@U?$less@I@std@@V?$allocator@U?$pair@$$CBIUFileIndexInfo@@@std@@@3@@std@@@2@AEBUUpdateOptions@@V?$shared_ptr@_N@2@V?$shared_ptr@V?$list@UError@@V?$allocator@UError@@@std@@@std@@@2@V?$shared_ptr@VArchiveUpdateProgress@@@2@@Z 0000000064048400 f i update.obj
 0001:00047660       ?QueryInterface@ArchiveUpdater@@UEAAJAEBU_GUID@@PEAPEAX@Z 0000000064048660 f i update.obj
 0001:00047730       ?SetTotal@ArchiveUpdater@@UEAAJ_K@Z 0000000064048730 f i update.obj
 0001:000477e0       ?SetCompleted@ArchiveUpdater@@UEAAJPEB_K@Z 00000000640487e0 f i update.obj
 0001:000478a0       ?GetUpdateItemInfo@ArchiveUpdater@@UEAAJIPEAH0PEAI@Z 00000000640488a0 f i update.obj
 0001:00047930       ?GetProperty@ArchiveUpdater@@UEAAJIKPEAUtagPROPVARIANT@@@Z 0000000064048930 f i update.obj
 0001:00047cf0       ?GetStream@ArchiveUpdater@@UEAAJIPEAPEAUISequentialInStream@@@Z 0000000064048cf0 f i update.obj
 0001:00048020       ?SetOperationResult@ArchiveUpdater@@UEAAJH@Z 0000000064049020 f i update.obj
 0001:00048160       ?CryptoGetTextPassword2@ArchiveUpdater@@UEAAJPEAHPEAPEA_W@Z 0000000064049160 f i update.obj
 0001:000482a0       ??_EArchiveUpdater@@UEAAPEAXI@Z 00000000640492a0 f i * CIL library *:* CIL module *
 0001:000482a0       ??_GArchiveUpdater@@UEAAPEAXI@Z 00000000640492a0 f i update.obj
 0001:000482e0       ??1ArchiveUpdater@@UEAA@XZ 00000000640492e0 f i update.obj
 0001:00048450       ?set_properties@Archive@@AEAAXPEAUIOutArchive@@AEBUUpdateOptions@@@Z 0000000064049450 f   update.obj
 0001:00048cf0       ?do_update_ui@DeleteSrcFiles@@EEAAXXZ 0000000064049cf0 f i update.obj
 0001:00048ea0       ?delete_src_file@DeleteSrcFiles@@AEAAXAEBV?$basic_string@_WU?$char_traits@_W@std@@V?$allocator@_W@2@@std@@@Z 0000000064049ea0 f i update.obj
 0001:00048ef0       ?delete_src_dir@DeleteSrcFiles@@AEAAXAEBV?$basic_string@_WU?$char_traits@_W@std@@V?$allocator@_W@2@@std@@@Z 0000000064049ef0 f i update.obj
 0001:00049360       ??0DeleteSrcFiles@@QEAA@AEBV?$basic_string@_WU?$char_traits@_W@std@@V?$allocator@_W@2@@std@@AEBV?$vector@V?$basic_string@_WU?$char_traits@_W@std@@V?$allocator@_W@2@@std@@V?$allocator@V?$basic_string@_WU?$char_traits@_W@std@@V?$allocator@_W@2@@std@@@2@@2@AEA_NAEAV?$list@UError@@V?$allocator@UError@@@std@@@2@@Z 000000006404a360 f i update.obj
 0001:00049700       ??_GDeleteSrcFiles@@UEAAPEAXI@Z 000000006404a700 f i update.obj
 0001:00049700       ??_EDeleteSrcFiles@@UEAAPEAXI@Z 000000006404a700 f i * CIL library *:* CIL module *
 0001:00049740       ?create@Archive@@QEAAXAEBV?$basic_string@_WU?$char_traits@_W@std@@V?$allocator@_W@2@@std@@AEBV?$vector@V?$basic_string@_WU?$char_traits@_W@std@@V?$allocator@_W@2@@std@@V?$allocator@V?$basic_string@_WU?$char_traits@_W@std@@V?$allocator@_W@2@@std@@@2@@3@AEBUUpdateOptions@@V?$shared_ptr@V?$list@UError@@V?$allocator@UError@@@std@@@std@@@3@@Z 000000006404a740 f   update.obj
 0001:0004a040       ?update@Archive@@QEAAXAEBV?$basic_string@_WU?$char_traits@_W@std@@V?$allocator@_W@2@@std@@AEBV?$vector@V?$basic_string@_WU?$char_traits@_W@std@@V?$allocator@_W@2@@std@@V?$allocator@V?$basic_string@_WU?$char_traits@_W@std@@V?$allocator@_W@2@@std@@@2@@3@0AEBUUpdateOptions@@V?$shared_ptr@V?$list@UError@@V?$allocator@UError@@@std@@@std@@@3@@Z 000000006404b040 f   update.obj
 0001:0004aa30       ?create_dir@Archive@@QEAAXAEBV?$basic_string@_WU?$char_traits@_W@std@@V?$allocator@_W@2@@std@@0@Z 000000006404ba30 f   update.obj
 0001:0004b390       ?push_back@?$vector@PEB_WV?$allocator@PEB_W@std@@@std@@QEAAX$$QEAPEB_W@Z 000000006404c390 f i update.obj
 0001:0004b420       ??1?$vector@VPropVariant@@V?$allocator@VPropVariant@@@std@@@std@@QEAA@XZ 000000006404c420 f i update.obj
 0001:0004b480       ?push_back@?$vector@VPropVariant@@V?$allocator@VPropVariant@@@std@@@std@@QEAAX$$QEAVPropVariant@@@Z 000000006404c480 f i update.obj
 0001:0004b510       ?erase@?$_Tree@V?$_Tmap_traits@IUFileIndexInfo@@U?$less@I@std@@V?$allocator@U?$pair@$$CBIUFileIndexInfo@@@std@@@3@$0A@@std@@@std@@QEAA_KAEBI@Z 000000006404c510 f i update.obj
 0001:0004b6c0       ??A?$map@IUFileIndexInfo@@U?$less@I@std@@V?$allocator@U?$pair@$$CBIUFileIndexInfo@@@std@@@3@@std@@QEAAAEAUFileIndexInfo@@AEBI@Z 000000006404c6c0 f i update.obj
 0001:0004b760       ??6?$basic_ostream@_WU?$char_traits@_W@std@@@std@@QEAAAEAV01@I@Z 000000006404c760 f i update.obj
 0001:0004b910       ?_Reserve@?$vector@PEB_WV?$allocator@PEB_W@std@@@std@@IEAAX_K@Z 000000006404c910 f i update.obj
 0001:0004b9a0       ?_Reallocate@?$vector@PEB_WV?$allocator@PEB_W@std@@@std@@IEAAX_K@Z 000000006404c9a0 f i update.obj
 0001:0004ba30       ?_Reserve@?$vector@VPropVariant@@V?$allocator@VPropVariant@@@std@@@std@@IEAAX_K@Z 000000006404ca30 f i update.obj
 0001:0004bb00       ?_Reallocate@?$vector@VPropVariant@@V?$allocator@VPropVariant@@@std@@@std@@IEAAX_K@Z 000000006404cb00 f i update.obj
 0001:0004bbe0       ?_Buyheadnode@?$_Tree_comp_alloc@V?$_Tmap_traits@IUFileIndexInfo@@U?$less@I@std@@V?$allocator@U?$pair@$$CBIUFileIndexInfo@@@std@@@3@$0A@@std@@@std@@QEAAPEAU?$_Tree_node@U?$pair@$$CBIUFileIndexInfo@@@std@@PEAX@2@XZ 000000006404cbe0 f i update.obj
 0001:0004bc20       ??$equal_range@V?$_Vector_iterator@V?$_Vector_val@U?$_Simple_types@I@std@@@std@@@std@@HV<lambda_d7845f6099b86cd6159bcc7a0902f05d>@@@std@@YA?AU?$pair@V?$_Vector_iterator@V?$_Vector_val@U?$_Simple_types@I@std@@@std@@@std@@V12@@0@V?$_Vector_iterator@V?$_Vector_val@U?$_Simple_types@I@std@@@std@@@0@0AEBHV<lambda_d7845f6099b86cd6159bcc7a0902f05d>@@@Z 000000006404cc20 f i update.obj
 0001:0004be40       ??$construct@VPropVariant@@V1@@?$_Wrap_alloc@V?$allocator@VPropVariant@@@std@@@std@@QEAAXPEAVPropVariant@@$$QEAV2@@Z 000000006404ce40 f i update.obj
 0001:0004bec0       ??$_For_each@V?$_List_unchecked_iterator@V?$_List_val@U?$_List_simple_types@V?$basic_string@_WU?$char_traits@_W@std@@V?$allocator@_W@2@@std@@@std@@@std@@@std@@V<lambda_3101c55787d5484aa62400d95ffdda88>@@@std@@YAXV?$_List_unchecked_iterator@V?$_List_val@U?$_List_simple_types@V?$basic_string@_WU?$char_traits@_W@std@@V?$allocator@_W@2@@std@@@std@@@std@@@0@0AEAV<lambda_3101c55787d5484aa62400d95ffdda88>@@@Z 000000006404cec0 f i update.obj
 0001:0004c340       ??$_Resetp@V?$map@IUFileIndexInfo@@U?$less@I@std@@V?$allocator@U?$pair@$$CBIUFileIndexInfo@@@std@@@3@@std@@@?$shared_ptr@V?$map@IUFileIndexInfo@@U?$less@I@std@@V?$allocator@U?$pair@$$CBIUFileIndexInfo@@@std@@@3@@std@@@std@@AEAAXPEAV?$map@IUFileIndexInfo@@U?$less@I@std@@V?$allocator@U?$pair@$$CBIUFileIndexInfo@@@std@@@3@@1@@Z 000000006404d340 f i update.obj
 0001:0004c3a0       ??$_Resetp@VArchiveUpdateProgress@@@?$shared_ptr@VArchiveUpdateProgress@@@std@@AEAAXPEAVArchiveUpdateProgress@@@Z 000000006404d3a0 f i update.obj
 0001:0004c400       ??$_Buynode@AEBUpiecewise_construct_t@std@@V?$tuple@AEBI@2@V?$tuple@$$V@2@@?$_Tree_comp_alloc@V?$_Tmap_traits@IUFileIndexInfo@@U?$less@I@std@@V?$allocator@U?$pair@$$CBIUFileIndexInfo@@@std@@@3@$0A@@std@@@std@@QEAAPEAU?$_Tree_node@U?$pair@$$CBIUFileIndexInfo@@@std@@PEAX@1@AEBUpiecewise_construct_t@1@$$QEAV?$tuple@AEBI@1@$$QEAV?$tuple@$$V@1@@Z 000000006404d400 f i update.obj
 0001:0004c470       ??$_Insert_hint@AEAU?$pair@$$CBIUFileIndexInfo@@@std@@PEAU?$_Tree_node@U?$pair@$$CBIUFileIndexInfo@@@std@@PEAX@2@@?$_Tree@V?$_Tmap_traits@IUFileIndexInfo@@U?$less@I@std@@V?$allocator@U?$pair@$$CBIUFileIndexInfo@@@std@@@3@$0A@@std@@@std@@IEAA?AV?$_Tree_iterator@V?$_Tree_val@U?$_Tree_simple_types@U?$pair@$$CBIUFileIndexInfo@@@std@@@std@@@std@@@1@V?$_Tree_const_iterator@V?$_Tree_val@U?$_Tree_simple_types@U?$pair@$$CBIUFileIndexInfo@@@std@@@std@@@std@@@1@AEAU?$pair@$$CBIUFileIndexInfo@@@1@PEAU?$_Tree_node@U?$pair@$$CBIUFileIndexInfo@@@std@@PEAX@1@@Z 000000006404d470 f i update.obj
 0001:0004c6c0       ??$_Destroy_range@U?$_Wrap_alloc@V?$allocator@VPropVariant@@@std@@@std@@@std@@YAXPEAVPropVariant@@0AEAU?$_Wrap_alloc@V?$allocator@VPropVariant@@@std@@@0@U_Nonscalar_ptr_iterator_tag@0@@Z 000000006404d6c0 f i update.obj
 0001:0004c750       ??_G?$map@IUFileIndexInfo@@U?$less@I@std@@V?$allocator@U?$pair@$$CBIUFileIndexInfo@@@std@@@3@@std@@QEAAPEAXI@Z 000000006404d750 f i update.obj
 0001:0004c790       ?_Destroy@?$_Ref_count@V?$map@IUFileIndexInfo@@U?$less@I@std@@V?$allocator@U?$pair@$$CBIUFileIndexInfo@@@std@@@3@@std@@@std@@EEAAXXZ 000000006404d790 f i update.obj
 0001:0004c7e0       ?_Buynode0@?$_Tree_comp_alloc@V?$_Tmap_traits@IUFileIndexInfo@@U?$less@I@std@@V?$allocator@U?$pair@$$CBIUFileIndexInfo@@@std@@@3@$0A@@std@@@std@@QEAAPEAU?$_Tree_node@U?$pair@$$CBIUFileIndexInfo@@@std@@PEAX@2@XZ 000000006404d7e0 f i update.obj
 0001:0004c830       ?_Destroy_if_not_nil@?$_Tree@V?$_Tmap_traits@IUFileIndexInfo@@U?$less@I@std@@V?$allocator@U?$pair@$$CBIUFileIndexInfo@@@std@@@3@$0A@@std@@@std@@IEAAXPEAU?$_Tree_node@U?$pair@$$CBIUFileIndexInfo@@@std@@PEAX@2@@Z 000000006404d830 f i update.obj
 0001:0004c890       ??$_Insert_at@AEAU?$pair@$$CBIUFileIndexInfo@@@std@@PEAU?$_Tree_node@U?$pair@$$CBIUFileIndexInfo@@@std@@PEAX@2@@?$_Tree@V?$_Tmap_traits@IUFileIndexInfo@@U?$less@I@std@@V?$allocator@U?$pair@$$CBIUFileIndexInfo@@@std@@@3@$0A@@std@@@std@@IEAA?AV?$_Tree_iterator@V?$_Tree_val@U?$_Tree_simple_types@U?$pair@$$CBIUFileIndexInfo@@@std@@@std@@@std@@@1@_NPEAU?$_Tree_node@U?$pair@$$CBIUFileIndexInfo@@@std@@PEAX@1@AEAU?$pair@$$CBIUFileIndexInfo@@@1@1@Z 000000006404d890 f i update.obj
 0001:0004cb80       ??$_Insert_nohint@AEAU?$pair@$$CBIUFileIndexInfo@@@std@@PEAU?$_Tree_node@U?$pair@$$CBIUFileIndexInfo@@@std@@PEAX@2@@?$_Tree@V?$_Tmap_traits@IUFileIndexInfo@@U?$less@I@std@@V?$allocator@U?$pair@$$CBIUFileIndexInfo@@@std@@@3@$0A@@std@@@std@@IEAA?AU?$pair@V?$_Tree_iterator@V?$_Tree_val@U?$_Tree_simple_types@U?$pair@$$CBIUFileIndexInfo@@@std@@@std@@@std@@@std@@_N@1@_NAEAU?$pair@$$CBIUFileIndexInfo@@@1@PEAU?$_Tree_node@U?$pair@$$CBIUFileIndexInfo@@@std@@PEAX@1@@Z 000000006404db80 f i update.obj
 0001:0004ccc0       ??$_Lower_bound@PEAIH_JV<lambda_d7845f6099b86cd6159bcc7a0902f05d>@@@std@@YAPEAIPEAI0AEBHV<lambda_d7845f6099b86cd6159bcc7a0902f05d>@@PEA_J@Z 000000006404dcc0 f i update.obj
 0001:0004cde0       ??$_Upper_bound@PEAIH_JV<lambda_d7845f6099b86cd6159bcc7a0902f05d>@@@std@@YAPEAIPEAI0AEBHV<lambda_d7845f6099b86cd6159bcc7a0902f05d>@@PEA_J@Z 000000006404dde0 f i update.obj
 0001:0004cf00       ??$_Uninit_move@PEAVPropVariant@@PEAV1@V?$allocator@VPropVariant@@@std@@V1@@std@@YAPEAVPropVariant@@PEAV1@00AEAU?$_Wrap_alloc@V?$allocator@VPropVariant@@@std@@@0@0U_Nonscalar_ptr_iterator_tag@0@@Z 000000006404df00 f i update.obj
 0001:0004cfc0       ??_GPropVariant@@QEAAPEAXI@Z 000000006404dfc0 f i update.obj
 0001:0004d034       ??_EArchiveUpdater@@WBA@EAAPEAXI@Z 000000006404e034 f i update.obj
 0001:0004d040       ?Release@SimpleUpdateStream@@WBI@EAAKXZ 000000006404e040 f i update.obj
 0001:0004d040       ?Release@SfxUpdateStream@@WBI@EAAKXZ 000000006404e040 f i update.obj
 0001:0004d040       ?Release@MultiVolumeUpdateStream@@WBI@EAAKXZ 000000006404e040 f i update.obj
 0001:0004d04c       ?QueryInterface@MultiVolumeUpdateStream@@WBI@EAAJAEBU_GUID@@PEAPEAX@Z 000000006404e04c f i update.obj
 0001:0004d04c       ?QueryInterface@SimpleUpdateStream@@WBI@EAAJAEBU_GUID@@PEAPEAX@Z 000000006404e04c f i update.obj
 0001:0004d04c       ?QueryInterface@SfxUpdateStream@@WBI@EAAJAEBU_GUID@@PEAPEAX@Z 000000006404e04c f i update.obj
 0001:0004d058       ??_EMultiVolumeUpdateStream@@WBI@EAAPEAXI@Z 000000006404e058 f i update.obj
 0001:0004d064       ??_ESimpleUpdateStream@@WBI@EAAPEAXI@Z 000000006404e064 f i update.obj
 0001:0004d070       ?QueryInterface@ArchiveUpdater@@W7EAAJAEBU_GUID@@PEAPEAX@Z 000000006404e070 f i update.obj
 0001:0004d07c       ??_EArchiveFileDeleterStream@@W7EAAPEAXI@Z 000000006404e07c f i delete.obj
 0001:0004d07c       ??_EFileReadStream@@W7EAAPEAXI@Z 000000006404e07c f i update.obj
 0001:0004d088       ?QueryInterface@FileReadStream@@W7EAAJAEBU_GUID@@PEAPEAX@Z 000000006404e088 f i update.obj
 0001:0004d094       ??_ESfxUpdateStream@@WBI@EAAPEAXI@Z 000000006404e094 f i update.obj
 0001:0004d0a0       ?QueryInterface@ArchiveUpdater@@WBA@EAAJAEBU_GUID@@PEAPEAX@Z 000000006404e0a0 f i update.obj
 0001:0004d0b0       ?do_update_ui@ArchiveFileDeleterProgress@@EEAAXXZ 000000006404e0b0 f i delete.obj
 0001:0004d520       ??0ArchiveFileDeleterProgress@@QEAA@XZ 000000006404e520 f i delete.obj
 0001:0004d5b0       ??_EArchiveFileDeleterProgress@@UEAAPEAXI@Z 000000006404e5b0 f i * CIL library *:* CIL module *
 0001:0004d5b0       ??_GArchiveFileDeleterProgress@@UEAAPEAXI@Z 000000006404e5b0 f i delete.obj
 0001:0004d5f0       ??0ArchiveFileDeleterStream@@QEAA@AEBV?$basic_string@_WU?$char_traits@_W@std@@V?$allocator@_W@2@@std@@V?$shared_ptr@VProgressMonitor@@@2@@Z 000000006404e5f0 f i delete.obj
 0001:0004d730       ?QueryInterface@ArchiveFileDeleterStream@@UEAAJAEBU_GUID@@PEAPEAX@Z 000000006404e730 f i delete.obj
 0001:0004d7d0       ?Write@ArchiveFileDeleterStream@@UEAAJPEBXIPEAI@Z 000000006404e7d0 f i delete.obj
 0001:0004d860       ?SetSize@ArchiveFileDeleterStream@@UEAAJ_K@Z 000000006404e860 f i delete.obj
 0001:0004d8c0       ?QueryInterface@ArchiveFileDeleter@@UEAAJAEBU_GUID@@PEAPEAX@Z 000000006404e8c0 f i delete.obj
 0001:0004d960       ?SetTotal@ArchiveFileDeleter@@UEAAJ_K@Z 000000006404e960 f i delete.obj
 0001:0004d990       ?SetCompleted@ArchiveFileDeleter@@UEAAJPEB_K@Z 000000006404e990 f i delete.obj
 0001:0004d9d0       ?GetUpdateItemInfo@ArchiveFileDeleter@@UEAAJIPEAH0PEAI@Z 000000006404e9d0 f i delete.obj
 0001:0004d9f0       ?GetProperty@ArchiveFileDeleter@@UEAAJIKPEAUtagPROPVARIANT@@@Z 000000006404e9f0 f i delete.obj
 0001:0004daa0       ?GetStream@ArchiveFileDeleter@@UEAAJIPEAPEAUISequentialInStream@@@Z 000000006404eaa0 f i delete.obj
 0001:0004dab0       ??_EArchiveFileDeleter@@UEAAPEAXI@Z 000000006404eab0 f i * CIL library *:* CIL module *
 0001:0004dab0       ??_GArchiveFileDeleter@@UEAAPEAXI@Z 000000006404eab0 f i delete.obj
 0001:0004daf0       ??1ArchiveFileDeleter@@UEAA@XZ 000000006404eaf0 f i delete.obj
 0001:0004db80       ?enum_deleted_indices@Archive@@AEAAXIAEAV?$vector@IV?$allocator@I@std@@@std@@@Z 000000006404eb80 f   delete.obj
 0001:0004dc90       ?delete_files@Archive@@QEAAXAEBV?$vector@IV?$allocator@I@std@@@std@@@Z 000000006404ec90 f   delete.obj
 0001:0004e730       ??$_Resetp@VArchiveFileDeleterProgress@@@?$shared_ptr@VArchiveFileDeleterProgress@@@std@@AEAAXPEAVArchiveFileDeleterProgress@@@Z 000000006404f730 f i delete.obj
 0001:0004e790       ??$_Set_difference@PEAIPEAIV?$back_insert_iterator@V?$vector@IV?$allocator@I@std@@@std@@@std@@U?$less@X@2@@std@@YA?AV?$back_insert_iterator@V?$vector@IV?$allocator@I@std@@@std@@@0@PEAI000V10@U?$less@X@0@@Z 000000006404f790 f i delete.obj
 0001:0004e960       ?QueryInterface@ArchiveFileDeleter@@W7EAAJAEBU_GUID@@PEAPEAX@Z 000000006404f960 f i delete.obj
 0001:0004e96c       ??_EArchiveFileDeleter@@W7EAAPEAXI@Z 000000006404f96c f i delete.obj
 0001:0004e978       ?QueryInterface@ArchiveFileDeleterStream@@W7EAAJAEBU_GUID@@PEAPEAX@Z 000000006404f978 f i delete.obj
 0001:0004e990       ?get_bool@OptionsKey@@QEAA_NPEB_W_N@Z 000000006404f990 f i options.obj
 0001:0004ea00       ?get_str@OptionsKey@@QEAA?AV?$basic_string@_WU?$char_traits@_W@std@@V?$allocator@_W@2@@std@@PEB_WAEBV23@@Z 000000006404fa00 f i options.obj
 0001:0004eb60       ?get_binary@OptionsKey@@QEAA?AV?$vector@EV?$allocator@E@std@@@std@@PEB_WAEBV23@@Z 000000006404fb60 f i options.obj
 0001:0004ec40       ?set_bool@OptionsKey@@QEAAXPEB_W_N1@Z 000000006404fc40 f i options.obj
 0001:0004ecd0       ?set_str@OptionsKey@@QEAAXPEB_WAEBV?$basic_string@_WU?$char_traits@_W@std@@V?$allocator@_W@2@@std@@1@Z 000000006404fcd0 f i options.obj
 0001:0004ed80       ?set_binary@OptionsKey@@QEAAXPEB_WAEBV?$vector@EV?$allocator@E@std@@@std@@1@Z 000000006404fd80 f i options.obj
 0001:0004ee30       ??0Options@@QEAA@XZ        000000006404fe30 f   options.obj
 0001:0004f040       ?load_sfx_options@@YAXAEAVOptionsKey@@AEAUSfxOptions@@@Z 0000000064050040 f   options.obj
 0001:0004f6b0       ?save_sfx_options@@YAXAEAVOptionsKey@@AEBUSfxOptions@@@Z 00000000640506b0 f   options.obj
 0001:00050080       ?load@Options@@QEAAXXZ     0000000064051080 f   options.obj
 0001:00050ed0       ??1OptionsKey@@QEAA@XZ     0000000064051ed0 f i options.obj
 0001:00050f20       ?save@Options@@QEBAXXZ     0000000064051f20 f   options.obj
 0001:000523d0       ?get_profile_key_name@@YA?AV?$basic_string@_WU?$char_traits@_W@std@@V?$allocator@_W@2@@std@@AEBV12@@Z 00000000640533d0 f   options.obj
 0001:000524d0       ??0ProfileOptions@@QEAA@XZ 00000000640534d0 f   options.obj
 0001:00052570       ??0UpdateOptions@@QEAA@XZ  0000000064053570 f   options.obj
 0001:000525d0       ??0SfxOptions@@QEAA@XZ     00000000640535d0 f   options.obj
 0001:00052740       ?load@UpdateProfiles@@QEAAXXZ 0000000064053740 f   options.obj
 0001:00053070       ?save@UpdateProfiles@@QEBAXXZ 0000000064054070 f   options.obj
 0001:000538f0       ?find_by_name@UpdateProfiles@@QEAAIAEBV?$basic_string@_WU?$char_traits@_W@std@@V?$allocator@_W@2@@std@@@Z 00000000640548f0 f   options.obj
 0001:00053bb0       ?find_by_options@UpdateProfiles@@QEAAIAEBUUpdateOptions@@@Z 0000000064054bb0 f   options.obj
 0001:00053c70       ?update@UpdateProfiles@@QEAAXAEBV?$basic_string@_WU?$char_traits@_W@std@@V?$allocator@_W@2@@std@@AEBUUpdateOptions@@@Z 0000000064054c70 f   options.obj
 0001:00053f90       ??4ProfileOptions@@QEAAAEAU0@AEBU0@@Z 0000000064054f90 f i options.obj
 0001:00054080       ?get_app_option@@YA_N_KPEB_WAEA_N@Z 0000000064055080 f   options.obj
 0001:00054190       ?push_back@?$vector@UUpdateProfile@@V?$allocator@UUpdateProfile@@@std@@@std@@QEAAXAEBUUpdateProfile@@@Z 0000000064055190 f i options.obj
 0001:00054260       ??1?$vector@UUpdateProfile@@V?$allocator@UUpdateProfile@@@std@@@std@@QEAA@XZ 0000000064055260 f i options.obj
 0001:000542d0       ?_Reserve@?$vector@UUpdateProfile@@V?$allocator@UUpdateProfile@@@std@@@std@@IEAAX_K@Z 00000000640552d0 f i options.obj
 0001:000543a0       ?deallocate@?$_Wrap_alloc@V?$allocator@UUpdateProfile@@@std@@@std@@QEAAXPEAUUpdateProfile@@_K@Z 00000000640553a0 f i options.obj
 0001:00054410       ?_Reallocate@?$vector@UUpdateProfile@@V?$allocator@UUpdateProfile@@@std@@@std@@IEAAX_K@Z 0000000064055410 f i options.obj
 0001:000544f0       ?allocate@?$allocator@UUpdateProfile@@@std@@QEAAPEAUUpdateProfile@@_K@Z 00000000640554f0 f i options.obj
 0001:00054570       ??0?$_Wrap_alloc@V?$allocator@UUpdateProfile@@@std@@@std@@QEAA@AEBV?$allocator@UUpdateProfile@@@1@@Z 0000000064055570 f i options.obj
 0001:00054580       ??$_Sort@PEAUUpdateProfile@@_JV<lambda_1367198350ae6bdc062efbe89a5a343e>@@@std@@YAXPEAUUpdateProfile@@0_JV<lambda_1367198350ae6bdc062efbe89a5a343e>@@@Z 0000000064055580 f i options.obj
 0001:00054740       ??$_Unguarded_partition@PEAUUpdateProfile@@V<lambda_1367198350ae6bdc062efbe89a5a343e>@@@std@@YA?AU?$pair@PEAUUpdateProfile@@PEAU1@@0@PEAUUpdateProfile@@0V<lambda_1367198350ae6bdc062efbe89a5a343e>@@@Z 0000000064055740 f i options.obj
 0001:00054ed0       ??0UpdateProfile@@QEAA@AEBU0@@Z 0000000064055ed0 f i options.obj
 0001:00054f40       ??$_Median@PEAUUpdateProfile@@V<lambda_1367198350ae6bdc062efbe89a5a343e>@@@std@@YAXPEAUUpdateProfile@@00V<lambda_1367198350ae6bdc062efbe89a5a343e>@@@Z 0000000064055f40 f i options.obj
 0001:00055040       ??$_Make_heap@PEAUUpdateProfile@@_JU1@V<lambda_1367198350ae6bdc062efbe89a5a343e>@@@std@@YAXPEAUUpdateProfile@@0V<lambda_1367198350ae6bdc062efbe89a5a343e>@@PEA_J0@Z 0000000064056040 f i options.obj
 0001:00055220       ??$_Sort_heap@PEAUUpdateProfile@@V<lambda_1367198350ae6bdc062efbe89a5a343e>@@@std@@YAXPEAUUpdateProfile@@0V<lambda_1367198350ae6bdc062efbe89a5a343e>@@@Z 0000000064056220 f i options.obj
 0001:000552d0       ??$_Insertion_sort1@PEAUUpdateProfile@@V<lambda_1367198350ae6bdc062efbe89a5a343e>@@U1@@std@@YAXPEAUUpdateProfile@@0V<lambda_1367198350ae6bdc062efbe89a5a343e>@@0@Z 00000000640562d0 f i options.obj
 0001:000557f0       ??$_Uninit_move@PEAUUpdateProfile@@PEAU1@V?$allocator@UUpdateProfile@@@std@@U1@@std@@YAPEAUUpdateProfile@@PEAU1@00AEAU?$_Wrap_alloc@V?$allocator@UUpdateProfile@@@std@@@0@0U_Nonscalar_ptr_iterator_tag@0@@Z 00000000640567f0 f i options.obj
 0001:000558d0       ??0ProfileOptions@@QEAA@$$QEAU0@@Z 00000000640568d0 f i options.obj
 0001:00055a00       ??0SfxOptions@@QEAA@$$QEAU0@@Z 0000000064056a00 f i options.obj
 0001:00055aa0       ??0SfxVersionInfo@@QEAA@$$QEAU0@@Z 0000000064056aa0 f i options.obj
 0001:00055b80       ??0SfxInstallConfig@@QEAA@$$QEAU0@@Z 0000000064056b80 f i options.obj
 0001:00055c80       ??$_Med3@PEAUUpdateProfile@@V<lambda_1367198350ae6bdc062efbe89a5a343e>@@@std@@YAXPEAUUpdateProfile@@00V<lambda_1367198350ae6bdc062efbe89a5a343e>@@@Z 0000000064056c80 f i options.obj
 0001:00055d00       ??$swap@UUpdateProfile@@@std@@YAXAEAUUpdateProfile@@0@Z 0000000064056d00 f i options.obj
 0001:00055dc0       ??$_Adjust_heap@PEAUUpdateProfile@@_JU1@V<lambda_1367198350ae6bdc062efbe89a5a343e>@@@std@@YAXPEAUUpdateProfile@@_J1$$QEAU1@V<lambda_1367198350ae6bdc062efbe89a5a343e>@@@Z 0000000064056dc0 f i options.obj
 0001:00055fd0       ??$_Push_heap@PEAUUpdateProfile@@_JU1@V<lambda_1367198350ae6bdc062efbe89a5a343e>@@@std@@YAXPEAUUpdateProfile@@_J1$$QEAU1@V<lambda_1367198350ae6bdc062efbe89a5a343e>@@@Z 0000000064056fd0 f i options.obj
 0001:00056190       ??$_Pop_heap_0@PEAUUpdateProfile@@U1@V<lambda_1367198350ae6bdc062efbe89a5a343e>@@@std@@YAXPEAUUpdateProfile@@0V<lambda_1367198350ae6bdc062efbe89a5a343e>@@0@Z 0000000064057190 f i options.obj
 0001:00056290       ??$_Move_backward@PEAUUpdateProfile@@PEAU1@@std@@YAPEAUUpdateProfile@@PEAU1@00U_Nonscalar_ptr_iterator_tag@0@@Z 0000000064057290 f i options.obj
 0001:000563b0       ?create_state_matrix@@YAPEAVStateMatrix@@AEBV?$vector@USigData@@V?$allocator@USigData@@@std@@@std@@@Z 00000000640573b0 f   msearch.obj
 0001:00056540       ?msearch@@YA?AV?$vector@UStrPos@@V?$allocator@UStrPos@@@std@@@std@@PEAE_KAEBV?$vector@USigData@@V?$allocator@USigData@@@std@@@2@_N@Z 0000000064057540 f   msearch.obj
 0001:00056a20       ??1?$auto_ptr@VStateMatrix@@@std@@QEAA@XZ 0000000064057a20 f i msearch.obj
 0001:00056a50       ?_Trim@?$vector@_NV?$allocator@_N@std@@@std@@QEAAX_K@Z 0000000064057a50 f i msearch.obj
 0001:00056b20       ?_Construct_n@?$vector@IV?$allocator@_N@std@@@std@@QEAAX_KPEBI@Z 0000000064057b20 f i msearch.obj
 0001:00056bc0       ??$_Sort@PEAUStrPos@@_JU?$less@X@std@@@std@@YAXPEAUStrPos@@0_JU?$less@X@0@@Z 0000000064057bc0 f i msearch.obj
 0001:00056d00       ??$_Unguarded_partition@PEAUStrPos@@U?$less@X@std@@@std@@YA?AU?$pair@PEAUStrPos@@PEAU1@@0@PEAUStrPos@@0U?$less@X@0@@Z 0000000064057d00 f i msearch.obj
 0001:00056ed0       ??$_Median@PEAUStrPos@@U?$less@X@std@@@std@@YAXPEAUStrPos@@00U?$less@X@0@@Z 0000000064057ed0 f i msearch.obj
 0001:000570a0       ??$_Make_heap@PEAUStrPos@@_JU1@U?$less@X@std@@@std@@YAXPEAUStrPos@@0U?$less@X@0@PEA_J0@Z 00000000640580a0 f i msearch.obj
 0001:000571f0       ??$_Sort_heap@PEAUStrPos@@U?$less@X@std@@@std@@YAXPEAUStrPos@@0U?$less@X@0@@Z 00000000640581f0 f i msearch.obj
 0001:00057330       ??$_Insertion_sort1@PEAUStrPos@@U?$less@X@std@@U1@@std@@YAXPEAUStrPos@@0U?$less@X@0@0@Z 0000000064058330 f i msearch.obj
 0001:000573d0       ?get_int@PropVariant@@QEBA_JXZ 00000000640583d0 f i attr.obj
 0001:00057470       ?get_int_size@PropVariant@@QEBAIXZ 0000000064058470 f i attr.obj
 0001:00057560       ?uint_to_hex_str@@YA?AV?$basic_string@_WU?$char_traits@_W@std@@V?$allocator@_W@2@@std@@_KI@Z 0000000064058560 f   attr.obj
 0001:00057620       ?format_str_prop@@YA?AV?$basic_string@_WU?$char_traits@_W@std@@V?$allocator@_W@2@@std@@AEBVPropVariant@@@Z 0000000064058620 f   attr.obj
 0001:000576b0       ?format_int_prop@@YA?AV?$basic_string@_WU?$char_traits@_W@std@@V?$allocator@_W@2@@std@@AEBVPropVariant@@@Z 00000000640586b0 f   attr.obj
 0001:00057810       ?format_uint_prop@@YA?AV?$basic_string@_WU?$char_traits@_W@std@@V?$allocator@_W@2@@std@@AEBVPropVariant@@@Z 0000000064058810 f   attr.obj
 0001:00057970       ?format_size_prop@@YA?AV?$basic_string@_WU?$char_traits@_W@std@@V?$allocator@_W@2@@std@@AEBVPropVariant@@@Z 0000000064058970 f   attr.obj
 0001:00057b80       ?format_filetime_prop@@YA?AV?$basic_string@_WU?$char_traits@_W@std@@V?$allocator@_W@2@@std@@AEBVPropVariant@@@Z 0000000064058b80 f   attr.obj
 0001:00057dc0       ?format_crc_prop@@YA?AV?$basic_string@_WU?$char_traits@_W@std@@V?$allocator@_W@2@@std@@AEBVPropVariant@@@Z 0000000064058dc0 f   attr.obj
 0001:00057e40       ?format_attrib_prop@@YA?AV?$basic_string@_WU?$char_traits@_W@std@@V?$allocator@_W@2@@std@@AEBVPropVariant@@@Z 0000000064058e40 f   attr.obj
 0001:00057f50       ?format_posix_attrib_prop@@YA?AV?$basic_string@_WU?$char_traits@_W@std@@V?$allocator@_W@2@@std@@AEBVPropVariant@@@Z 0000000064058f50 f   attr.obj
 0001:000581f0       ?get_attr_list@Archive@@QEAA?AV?$list@UAttr@@V?$allocator@UAttr@@@std@@@std@@I@Z 00000000640591f0 f   attr.obj
 0001:000587e0       ?load_arc_attr@Archive@@AEAAXXZ 00000000640597e0 f   attr.obj
 0001:00059650       ?load_update_props@Archive@@QEAAXXZ 000000006405a650 f   attr.obj
 0001:00059ab0       ?push_back@?$list@UAttr@@V?$allocator@UAttr@@@std@@@std@@QEAAXAEBUAttr@@@Z 000000006405aab0 f i attr.obj
 0001:00059b20       ??$?H_WU?$char_traits@_W@std@@V?$allocator@_W@1@@std@@YA?AV?$basic_string@_WU?$char_traits@_W@std@@V?$allocator@_W@2@@0@AEBV10@PEB_W@Z 000000006405ab20 f i attr.obj
 0001:00059c00       ??$_For_each@V?$_Tree_unchecked_const_iterator@V?$_Tree_val@U?$_Tree_simple_types@V?$basic_string@_WU?$char_traits@_W@std@@V?$allocator@_W@2@@std@@@std@@@std@@U_Iterator_base0@2@@std@@V<lambda_dec5808319870a3e477e677573e947df>@@@std@@YAXV?$_Tree_unchecked_const_iterator@V?$_Tree_val@U?$_Tree_simple_types@V?$basic_string@_WU?$char_traits@_W@std@@V?$allocator@_W@2@@std@@@std@@@std@@U_Iterator_base0@2@@0@0AEAV<lambda_dec5808319870a3e477e677573e947df>@@@Z 000000006405ac00 f i attr.obj
 0001:00059ca0       ?do_update_ui@ArchiveTester@@EEAAXXZ 000000006405aca0 f i test.obj
 0001:0005a0c0       ??0ArchiveTester@@QEAA@IV?$shared_ptr@VArchive@@@std@@@Z 000000006405b0c0 f i test.obj
 0001:0005a240       ?SetTotal@ArchiveTester@@UEAAJ_K@Z 000000006405b240 f i test.obj
 0001:0005a270       ?SetCompleted@ArchiveTester@@UEAAJPEB_K@Z 000000006405b270 f i test.obj
 0001:0005a2b0       ?GetStream@ArchiveTester@@UEAAJIPEAPEAUISequentialOutStream@@H@Z 000000006405b2b0 f i test.obj
 0001:0005a390       ?SetOperationResult@ArchiveTester@@UEAAJH@Z 000000006405b390 f i test.obj
 0001:0005a700       ?CryptoGetTextPassword@ArchiveTester@@UEAAJPEAPEA_W@Z 000000006405b700 f i test.obj
 0001:0005a880       ??_EArchiveTester@@UEAAPEAXI@Z 000000006405b880 f i * CIL library *:* CIL module *
 0001:0005a880       ??_GArchiveTester@@UEAAPEAXI@Z 000000006405b880 f i test.obj
 0001:0005a8c0       ??1ArchiveTester@@UEAA@XZ  000000006405b8c0 f i test.obj
 0001:0005a970       ?prepare_test@Archive@@AEAAXIAEAV?$list@IV?$allocator@I@std@@@std@@@Z 000000006405b970 f   test.obj
 0001:0005aa60       ?test@Archive@@QEAAXIAEBV?$vector@IV?$allocator@I@std@@@std@@@Z 000000006405ba60 f   test.obj
 0001:0005aee0       ??_EArchiveTester@@WBA@EAAPEAXI@Z 000000006405bee0 f i test.obj
 0001:0005aeec       ??_EArchiveTester@@WCA@EAAPEAXI@Z 000000006405beec f i test.obj
 0001:0005af00       ?calc_percent@@YAI_K0@Z    000000006405bf00 f   common.obj
 0001:0005af80       ?get_module_version@@YA_KAEBV?$basic_string@_WU?$char_traits@_W@std@@V?$allocator@_W@2@@std@@@Z 000000006405bf80 f   common.obj
 0001:0005b040       ?parse_size_string@@YA_KAEBV?$basic_string@_WU?$char_traits@_W@std@@V?$allocator@_W@2@@std@@@Z 000000006405c040 f   common.obj
 0001:0005b140       ?expand_macros@@YA?AV?$basic_string@_WU?$char_traits@_W@std@@V?$allocator@_W@2@@std@@AEBV12@@Z 000000006405c140 f   common.obj
 0001:0005b640       ?load_file@@YA?AV?$basic_string@_WU?$char_traits@_W@std@@V?$allocator@_W@2@@std@@AEBV12@PEAI@Z 000000006405c640 f   common.obj
 0001:0005b990       ?auto_rename@@YA?AV?$basic_string@_WU?$char_traits@_W@std@@V?$allocator@_W@2@@std@@AEBV12@@Z 000000006405c990 f   common.obj
 0001:0005bdc0       ?do_update_ui@AttachSfxModuleProgress@@EEAAXXZ 000000006405cdc0 f i sfx.obj
 0001:0005bfa0       ??0AttachSfxModuleProgress@@QEAA@AEBV?$basic_string@_WU?$char_traits@_W@std@@V?$allocator@_W@2@@std@@@Z 000000006405cfa0 f i sfx.obj
 0001:0005c090       ??_EAttachSfxModuleProgress@@UEAAPEAXI@Z 000000006405d090 f i * CIL library *:* CIL module *
 0001:0005c090       ??_GAttachSfxModuleProgress@@UEAAPEAXI@Z 000000006405d090 f i sfx.obj
 0001:0005c110       ??1AttachSfxModuleProgress@@UEAA@XZ 000000006405d110 f i sfx.obj
 0001:0005c170       ?generate_install_config@@YA?AV?$vector@EV?$allocator@E@std@@@std@@AEBUSfxInstallConfig@@@Z 000000006405d170 f   sfx.obj
 0001:0005c680       ?create_sfx_module@@YAXAEBV?$basic_string@_WU?$char_traits@_W@std@@V?$allocator@_W@2@@std@@AEBUSfxOptions@@@Z 000000006405d680 f   sfx.obj
 0001:0005cb30       ?attach_sfx_module@@YAXAEBV?$basic_string@_WU?$char_traits@_W@std@@V?$allocator@_W@2@@std@@AEBUSfxOptions@@@Z 000000006405db30 f   sfx.obj
 0001:0005d230       ?set_control_state@SfxOptionsDialog@@AEAAXXZ 000000006405e230 f i sfx.obj
 0001:0005d4b0       ?read_controls@SfxOptionsDialog@@AEAA?AUSfxOptions@@XZ 000000006405e4b0 f i sfx.obj
 0001:0005dbd0       ?write_controls@SfxOptionsDialog@@AEAAXAEBUSfxOptions@@@Z 000000006405ebd0 f i sfx.obj
 0001:0005df60       ?dialog_proc@SfxOptionsDialog@@EEAA_J_J0PEAX@Z 000000006405ef60 f i sfx.obj
 0001:0005e3e0       ??0SfxOptionsDialog@@QEAA@AEAUSfxOptions@@AEBUUpdateProfiles@@@Z 000000006405f3e0 f i sfx.obj
 0001:0005e510       ?show@SfxOptionsDialog@@QEAA_NXZ 000000006405f510 f i sfx.obj
 0001:0005f700       ??1SfxProfile@@QEAA@XZ     0000000064060700 f i sfx.obj
 0001:0005f760       ?sfx_options_dialog@@YA_NAEAUSfxOptions@@AEBUUpdateProfiles@@@Z 0000000064060760 f   sfx.obj
 0001:0005f880       ??1SfxOptionsDialog@@QEAA@XZ 0000000064060880 f i sfx.obj
 0001:0005f900       ??1?$vector@USfxProfile@@V?$allocator@USfxProfile@@@std@@@std@@QEAA@XZ 0000000064060900 f i sfx.obj
 0001:0005f960       ?_Reserve@?$vector@USfxProfile@@V?$allocator@USfxProfile@@@std@@@std@@IEAAX_K@Z 0000000064060960 f i sfx.obj
 0001:0005fa30       ?deallocate@?$_Wrap_alloc@V?$allocator@USfxProfile@@@std@@@std@@QEAAXPEAUSfxProfile@@_K@Z 0000000064060a30 f i sfx.obj
 0001:0005faa0       ?_Reallocate@?$vector@USfxProfile@@V?$allocator@USfxProfile@@@std@@@std@@IEAAX_K@Z 0000000064060aa0 f i sfx.obj
 0001:0005fb70       ?allocate@?$allocator@USfxProfile@@@std@@QEAAPEAUSfxProfile@@_K@Z 0000000064060b70 f i sfx.obj
 0001:0005fbf0       ??$_For_each@PEBUUpdateProfile@@V<lambda_671352295e5f760163bc507e3b8d3b16>@@@std@@YAXPEBUUpdateProfile@@0AEAV<lambda_671352295e5f760163bc507e3b8d3b16>@@@Z 0000000064060bf0 f i sfx.obj
 0001:0005fea0       ??$_For_each@PEBUSfxModule@@V<lambda_9cb41ff82600b49b347608fecf270266>@@@std@@YAXPEBUSfxModule@@0AEAV<lambda_9cb41ff82600b49b347608fecf270266>@@@Z 0000000064060ea0 f i sfx.obj
 0001:0005ffa0       ??$_Destroy_range@U?$_Wrap_alloc@V?$allocator@USfxProfile@@@std@@@std@@@std@@YAXPEAUSfxProfile@@0AEAU?$_Wrap_alloc@V?$allocator@USfxProfile@@@std@@@0@U_Nonscalar_ptr_iterator_tag@0@@Z 0000000064060fa0 f i sfx.obj
 0001:00060090       ??$_Construct@V?$_String_iterator@V?$_String_val@U?$_Simple_types@D@std@@@std@@@std@@@?$vector@EV?$allocator@E@std@@@std@@QEAAXV?$_String_iterator@V?$_String_val@U?$_Simple_types@D@std@@@std@@@1@0Uforward_iterator_tag@1@@Z 0000000064061090 f i sfx.obj
 0001:00060110       ??$_Uninit_move@PEAUSfxProfile@@PEAU1@V?$allocator@USfxProfile@@@std@@U1@@std@@YAPEAUSfxProfile@@PEAU1@00AEAU?$_Wrap_alloc@V?$allocator@USfxProfile@@@std@@@0@0U_Nonscalar_ptr_iterator_tag@0@@Z 0000000064061110 f i sfx.obj
 0001:000601f0       ??$_Uninit_copy@PEADPEAEV?$allocator@E@std@@@std@@YAPEAEPEAD0PEAEAEAU?$_Wrap_alloc@V?$allocator@E@std@@@0@U_Nonscalar_ptr_iterator_tag@0@@Z 00000000640611f0 f i sfx.obj
 0001:00060230       ?lc@@YA?AV?$basic_string@_WU?$char_traits@_W@std@@V?$allocator@_W@2@@std@@AEBV12@@Z 0000000064061230 f   cmdline.obj
 0001:000603a0       ?parse_command@@YA?AUCommandArgs@@AEBV?$basic_string@_WU?$char_traits@_W@std@@V?$allocator@_W@2@@std@@@Z 00000000640613a0 f   cmdline.obj
 0001:00060820       ?parse_param@@YA?AUParam@@AEBV?$basic_string@_WU?$char_traits@_W@std@@V?$allocator@_W@2@@std@@@Z 0000000064061820 f   cmdline.obj
 0001:00060a20       ?parse_bool_value@@YA_NAEBV?$basic_string@_WU?$char_traits@_W@std@@V?$allocator@_W@2@@std@@@Z 0000000064061a20 f   cmdline.obj
 0001:00060bf0       ?parse_tri_state_value@@YA?AW4TriState@@AEBV?$basic_string@_WU?$char_traits@_W@std@@V?$allocator@_W@2@@std@@@Z 0000000064061bf0 f   cmdline.obj
 0001:00060e50       ?parse_listfile@@YA?AV?$list@V?$basic_string@_WU?$char_traits@_W@std@@V?$allocator@_W@2@@std@@V?$allocator@V?$basic_string@_WU?$char_traits@_W@std@@V?$allocator@_W@2@@std@@@2@@std@@AEBV?$basic_string@_WU?$char_traits@_W@std@@V?$allocator@_W@2@@2@@Z 0000000064061e50 f   cmdline.obj
 0001:00061070       ?parse_open_command@@YA?AUOpenCommand@@AEBUCommandArgs@@@Z 0000000064062070 f   cmdline.obj
 0001:00061660       ?parse_update_command@@YA?AUUpdateCommand@@AEBUCommandArgs@@@Z 0000000064062660 f   cmdline.obj
 0001:00062620       ??0UpdateCommand@@QEAA@XZ  0000000064063620 f i cmdline.obj
 0001:000626c0       ?parse_extract_command@@YA?AUExtractCommand@@AEBUCommandArgs@@@Z 00000000640636c0 f   cmdline.obj
 0001:00062f80       ?parse_test_command@@YA?AUTestCommand@@AEBUCommandArgs@@@Z 0000000064063f80 f   cmdline.obj
 0001:000631c0       ??$_Move@PEAV?$basic_string@_WU?$char_traits@_W@std@@V?$allocator@_W@2@@std@@PEAV12@@std@@YAPEAV?$basic_string@_WU?$char_traits@_W@std@@V?$allocator@_W@2@@0@PEAV10@00U_Nonscalar_ptr_iterator_tag@0@@Z 00000000640641c0 f i cmdline.obj
 0001:000632d0       ??$_Find@PEAPEB_WV?$basic_string@_WU?$char_traits@_W@std@@V?$allocator@_W@2@@std@@@std@@YAPEAPEB_WPEAPEB_W0AEBV?$basic_string@_WU?$char_traits@_W@std@@V?$allocator@_W@2@@0@U?$integral_constant@_N$0A@@0@@Z 00000000640642d0 f i cmdline.obj
 0001:000633b0       ??BRsrcId@@QEBAPEB_WXZ     00000000640643b0 f i rsrc.obj
 0001:000633d0       ?load_icon_file@@YA?AV?$list@UIconImage@@V?$allocator@UIconImage@@@std@@@std@@AEBV?$basic_string@_WU?$char_traits@_W@std@@V?$allocator@_W@2@@2@@Z 00000000640643d0 f   rsrc.obj
 0001:00063ac0       ??1IconImage@@QEAA@XZ      0000000064064ac0 f i rsrc.obj
 0001:00063ad0       ?load_icon_rsrc@@YA?AUIconRsrc@@PEAUHINSTANCE__@@PEB_WG@Z 0000000064064ad0 f   rsrc.obj
 0001:00063ec0       ??0IconRsrc@@QEAA@XZ       0000000064064ec0 f i rsrc.obj
 0001:00063f50       ??1IconRsrc@@QEAA@XZ       0000000064064f50 f i rsrc.obj
 0001:00063fc0       ??1IconImageRsrc@@QEAA@XZ  0000000064064fc0 f i rsrc.obj
 0001:00063fd0       ??0IconRsrc@@QEAA@$$QEAU0@@Z 0000000064064fd0 f i rsrc.obj
 0001:00064070       ?enum_names_proc@@YAHPEAUHINSTANCE__@@PEB_WPEA_W_J@Z 0000000064065070 f   rsrc.obj
 0001:00064180       ?enum_rsrc_names@@YA?AV?$list@VRsrcId@@V?$allocator@VRsrcId@@@std@@@std@@PEAUHINSTANCE__@@PEB_W@Z 0000000064065180 f   rsrc.obj
 0001:000641e0       ?enum_langs_proc@@YAHPEAUHINSTANCE__@@PEB_W1G_J@Z 00000000640651e0 f   rsrc.obj
 0001:00064260       ?enum_rsrc_langs@@YA?AV?$list@GV?$allocator@G@std@@@std@@PEAUHINSTANCE__@@PEB_W1@Z 0000000064065260 f   rsrc.obj
 0001:000642d0       ??1RsrcModule@@QEAA@XZ     00000000640652d0 f i rsrc.obj
 0001:00064300       ??0ResourceUpdate@@QEAA@AEBV?$basic_string@_WU?$char_traits@_W@std@@V?$allocator@_W@2@@std@@@Z 0000000064065300 f i rsrc.obj
 0001:00064390       ??1ResourceUpdate@@QEAA@XZ 0000000064065390 f i rsrc.obj
 0001:000643b0       ?update@ResourceUpdate@@QEAAXPEB_W0GPEBEK@Z 00000000640653b0 f i rsrc.obj
 0001:00064410       ?finalize@ResourceUpdate@@QEAAXXZ 0000000064065410 f i rsrc.obj
 0001:00064470       ?replace_icon@@YAXAEBV?$basic_string@_WU?$char_traits@_W@std@@V?$allocator@_W@2@@std@@0@Z 0000000064065470 f   rsrc.obj
 0001:00064a10       ?encode_WORD@VersionEncoder@@QEAAXG@Z 0000000064065a10 f i rsrc.obj
 0001:00064a40       ?encode_string@VersionEncoder@@QEAAXPEB_W@Z 0000000064065a40 f i rsrc.obj
 0001:00064a80       ?pad@VersionEncoder@@QEAAXXZ 0000000064065a80 f i rsrc.obj
 0001:00064ac0       ?update_length@VersionEncoder@@QEAAX_K@Z 0000000064065ac0 f i rsrc.obj
 0001:00064ae0       ?replace_ver_info@@YAXAEBV?$basic_string@_WU?$char_traits@_W@std@@V?$allocator@_W@2@@std@@AEBUSfxVersionInfo@@@Z 0000000064065ae0 f   rsrc.obj
 0001:00065a00       ?cend@?$list@UIdLang@@V?$allocator@UIdLang@@@std@@@std@@QEBA?AV?$_List_const_iterator@V?$_List_val@U?$_List_simple_types@UIdLang@@@std@@@std@@@2@XZ 0000000064066a00 f i rsrc.obj
 0001:00065a10       ?cbegin@?$list@UIdLang@@V?$allocator@UIdLang@@@std@@@std@@QEBA?AV?$_List_const_iterator@V?$_List_val@U?$_List_simple_types@UIdLang@@@std@@@std@@@2@XZ 0000000064066a10 f i rsrc.obj
 0001:00065a20       ??1?$list@UIconRsrc@@V?$allocator@UIconRsrc@@@std@@@std@@QEAA@XZ 0000000064066a20 f i rsrc.obj
 0001:00065a40       ??1?$list@UIconImage@@V?$allocator@UIconImage@@@std@@@std@@QEAA@XZ 0000000064066a40 f i rsrc.obj
 0001:00065a60       ??6?$basic_ostream@_WU?$char_traits@_W@std@@@std@@QEAAAEAV01@G@Z 0000000064066a60 f i rsrc.obj
 0001:00065c10       ?_Insert_n@?$vector@EV?$allocator@E@std@@@std@@IEAA?AV?$_Vector_iterator@V?$_Vector_val@U?$_Simple_types@E@std@@@std@@@2@V?$_Vector_const_iterator@V?$_Vector_val@U?$_Simple_types@E@std@@@std@@@2@_KAEBE@Z 0000000064066c10 f i rsrc.obj
 0001:00065e00       ?_Reallocate@?$vector@EV?$allocator@E@std@@@std@@IEAAX_K@Z 0000000064066e00 f i rsrc.obj
 0001:00065ee0       ?clear@?$list@UIconRsrc@@V?$allocator@UIconRsrc@@@std@@@std@@QEAAXXZ 0000000064066ee0 f i rsrc.obj
 0001:00066000       ?clear@?$list@UIconImageRsrc@@V?$allocator@UIconImageRsrc@@@std@@@std@@QEAAXXZ 0000000064067000 f i rsrc.obj
 0001:000660d0       ?clear@?$list@UIconImage@@V?$allocator@UIconImage@@@std@@@std@@QEAAXXZ 00000000640670d0 f i rsrc.obj
 0001:000661a0       ?_Buynode0@?$_List_alloc@U?$_List_base_types@UIdLang@@V?$allocator@UIdLang@@@std@@@std@@@std@@QEAAPEAU?$_List_node@UIdLang@@PEAX@2@PEAU32@0@Z 00000000640671a0 f i rsrc.obj
 0001:000661f0       ??$for_each@V?$_List_const_iterator@V?$_List_val@U?$_List_simple_types@UIdLang@@@std@@@std@@@std@@V<lambda_17d23741ab926580c1de605bfdc986f2>@@@std@@YA?AV<lambda_17d23741ab926580c1de605bfdc986f2>@@V?$_List_const_iterator@V?$_List_val@U?$_List_simple_types@UIdLang@@@std@@@std@@@0@0V1@@Z 00000000640671f0 f i rsrc.obj
 0001:00066230       ??$_For_each@V?$_List_unchecked_const_iterator@V?$_List_val@U?$_List_simple_types@G@std@@@std@@U_Iterator_base0@2@@std@@V<lambda_7d307f2f13ff8b1e3aefe51bfe3be748>@@@std@@YAXV?$_List_unchecked_const_iterator@V?$_List_val@U?$_List_simple_types@G@std@@@std@@U_Iterator_base0@2@@0@0AEAV<lambda_7d307f2f13ff8b1e3aefe51bfe3be748>@@@Z 0000000064067230 f i rsrc.obj
 0001:000663c0       ??$_For_each@V?$_List_unchecked_const_iterator@V?$_List_val@U?$_List_simple_types@VRsrcId@@@std@@@std@@U_Iterator_base0@2@@std@@V<lambda_014b099dbaec3db53c3a2da8aecfc35e>@@@std@@YAXV?$_List_unchecked_const_iterator@V?$_List_val@U?$_List_simple_types@VRsrcId@@@std@@@std@@U_Iterator_base0@2@@0@0AEAV<lambda_014b099dbaec3db53c3a2da8aecfc35e>@@@Z 00000000640673c0 f i rsrc.obj
 0001:000664f0       ??$_For_each@V?$_List_unchecked_const_iterator@V?$_List_val@U?$_List_simple_types@UIconImageRsrc@@@std@@@std@@U_Iterator_base0@2@@std@@V<lambda_5315ae300c8a7c2eac3918c2cc5428f3>@@@std@@YAXV?$_List_unchecked_const_iterator@V?$_List_val@U?$_List_simple_types@UIconImageRsrc@@@std@@@std@@U_Iterator_base0@2@@0@0AEAV<lambda_5315ae300c8a7c2eac3918c2cc5428f3>@@@Z 00000000640674f0 f i rsrc.obj
 0001:000665b0       ??$_For_each@V?$_List_unchecked_const_iterator@V?$_List_val@U?$_List_simple_types@UIconRsrc@@@std@@@std@@U_Iterator_base0@2@@std@@V<lambda_ddb1424f293dc9652d5e626a17a49f05>@@@std@@YAXV?$_List_unchecked_const_iterator@V?$_List_val@U?$_List_simple_types@UIconRsrc@@@std@@@std@@U_Iterator_base0@2@@0@0AEAV<lambda_ddb1424f293dc9652d5e626a17a49f05>@@@Z 00000000640675b0 f i rsrc.obj
 0001:000666d0       ??$_For_each@V?$_List_unchecked_const_iterator@V?$_List_val@U?$_List_simple_types@UIconImage@@@std@@@std@@U_Iterator_base0@2@@std@@V<lambda_7d8a7d8ef281078b4a4568c198bd763a>@@@std@@YAXV?$_List_unchecked_const_iterator@V?$_List_val@U?$_List_simple_types@UIconImage@@@std@@@std@@U_Iterator_base0@2@@0@0AEAV<lambda_7d8a7d8ef281078b4a4568c198bd763a>@@@Z 00000000640676d0 f i rsrc.obj
 0001:00066840       ??$_For_each@V?$_List_unchecked_iterator@V?$_List_val@U?$_List_simple_types@UIconRsrc@@@std@@@std@@@std@@V<lambda_7ec0c4ac0afe4f1b3db6d0331669470a>@@@std@@YAXV?$_List_unchecked_iterator@V?$_List_val@U?$_List_simple_types@UIconRsrc@@@std@@@std@@@0@0AEAV<lambda_7ec0c4ac0afe4f1b3db6d0331669470a>@@@Z 0000000064067840 f i rsrc.obj
 0001:00066930       ??$_For_each@V?$_List_unchecked_const_iterator@V?$_List_val@U?$_List_simple_types@UIconImageRsrc@@@std@@@std@@U_Iterator_base0@2@@std@@V<lambda_e7b410aa814071c122b1fa20fa1dcb1f>@@@std@@YAXV?$_List_unchecked_const_iterator@V?$_List_val@U?$_List_simple_types@UIconImageRsrc@@@std@@@std@@U_Iterator_base0@2@@0@0AEAV<lambda_e7b410aa814071c122b1fa20fa1dcb1f>@@@Z 0000000064067930 f i rsrc.obj
 0001:00066a50       ??$_For_each@V?$_List_unchecked_const_iterator@V?$_List_val@U?$_List_simple_types@UIconRsrc@@@std@@@std@@U_Iterator_base0@2@@std@@V<lambda_120421bfcb1cf462d41136abea364246>@@@std@@YAXV?$_List_unchecked_const_iterator@V?$_List_val@U?$_List_simple_types@UIconRsrc@@@std@@@std@@U_Iterator_base0@2@@0@0AEAV<lambda_120421bfcb1cf462d41136abea364246>@@@Z 0000000064067a50 f i rsrc.obj
 0001:00066bd0       ??$_Insert@PEBE@?$vector@EV?$allocator@E@std@@@std@@QEAAXV?$_Vector_const_iterator@V?$_Vector_val@U?$_Simple_types@E@std@@@std@@@1@PEBE1Uforward_iterator_tag@1@@Z 0000000064067bd0 f i rsrc.obj
 0001:00066d30       ??$_For_each@V?$_List_unchecked_iterator@V?$_List_val@U?$_List_simple_types@G@std@@@std@@@std@@V<lambda_ecdb214d1947b8e481e482dbd5ca12c8>@@@std@@YAXV?$_List_unchecked_iterator@V?$_List_val@U?$_List_simple_types@G@std@@@std@@@0@0AEAV<lambda_ecdb214d1947b8e481e482dbd5ca12c8>@@@Z 0000000064067d30 f i rsrc.obj
 0001:00066ee0       ??$_For_each@V?$_List_unchecked_iterator@V?$_List_val@U?$_List_simple_types@VRsrcId@@@std@@@std@@@std@@V<lambda_41bfe42483dd29d95e499ed2586d4d62>@@@std@@YAXV?$_List_unchecked_iterator@V?$_List_val@U?$_List_simple_types@VRsrcId@@@std@@@std@@@0@0AEAV<lambda_41bfe42483dd29d95e499ed2586d4d62>@@@Z 0000000064067ee0 f i rsrc.obj
 0001:00066ff0       ??$_For_each@V?$_Tree_unchecked_const_iterator@V?$_Tree_val@U?$_Tree_simple_types@U?$pair@$$CBV?$basic_string@_WU?$char_traits@_W@std@@V?$allocator@_W@2@@std@@V12@@std@@@std@@@std@@U_Iterator_base0@2@@std@@V<lambda_75068fcb0d9a48bceaffde5b06f348b5>@@@std@@YAXV?$_Tree_unchecked_const_iterator@V?$_Tree_val@U?$_Tree_simple_types@U?$pair@$$CBV?$basic_string@_WU?$char_traits@_W@std@@V?$allocator@_W@2@@std@@V12@@std@@@std@@@std@@U_Iterator_base0@2@@0@0AEAV<lambda_75068fcb0d9a48bceaffde5b06f348b5>@@@Z 0000000064067ff0 f i rsrc.obj
 0001:00067220       ??$_For_each@V?$_List_unchecked_const_iterator@V?$_List_val@U?$_List_simple_types@UIdLang@@@std@@@std@@U_Iterator_base0@2@@std@@V<lambda_17d23741ab926580c1de605bfdc986f2>@@@std@@YAXV?$_List_unchecked_const_iterator@V?$_List_val@U?$_List_simple_types@UIdLang@@@std@@@std@@U_Iterator_base0@2@@0@0AEAV<lambda_17d23741ab926580c1de605bfdc986f2>@@@Z 0000000064068220 f i rsrc.obj
 0001:00067300       ??$_Buynode@AEBUIdLang@@@?$_List_buy@UIdLang@@V?$allocator@UIdLang@@@std@@@std@@QEAAPEAU?$_List_node@UIdLang@@PEAX@1@PEAU21@0AEBUIdLang@@@Z 0000000064068300 f i rsrc.obj
 0001:00067350       ??$_Buynode@AEBUIconRsrc@@@?$_List_buy@UIconRsrc@@V?$allocator@UIconRsrc@@@std@@@std@@QEAAPEAU?$_List_node@UIconRsrc@@PEAX@1@PEAU21@0AEBUIconRsrc@@@Z 0000000064068350 f i rsrc.obj
 0001:000673b0       ??$_Buynode@UIconRsrc@@@?$_List_buy@UIconRsrc@@V?$allocator@UIconRsrc@@@std@@@std@@QEAAPEAU?$_List_node@UIconRsrc@@PEAX@1@PEAU21@0$$QEAUIconRsrc@@@Z 00000000640683b0 f i rsrc.obj
 0001:00067410       ??$_Buynode@AEBG@?$_List_buy@GV?$allocator@G@std@@@std@@QEAAPEAU?$_List_node@GPEAX@1@PEAU21@0AEBG@Z 0000000064068410 f i rsrc.obj
 0001:00067440       ??$_Buynode@VRsrcId@@@?$_List_buy@VRsrcId@@V?$allocator@VRsrcId@@@std@@@std@@QEAAPEAU?$_List_node@VRsrcId@@PEAX@1@PEAU21@0$$QEAVRsrcId@@@Z 0000000064068440 f i rsrc.obj
 0001:000674a0       ??$_Buynode@AEBUIconImageRsrc@@@?$_List_buy@UIconImageRsrc@@V?$allocator@UIconImageRsrc@@@std@@@std@@QEAAPEAU?$_List_node@UIconImageRsrc@@PEAX@1@PEAU21@0AEBUIconImageRsrc@@@Z 00000000640684a0 f i rsrc.obj
 0001:00067540       ??$_Buynode@AEBUIconImage@@@?$_List_buy@UIconImage@@V?$allocator@UIconImage@@@std@@@std@@QEAAPEAU?$_List_node@UIconImage@@PEAX@1@PEAU21@0AEBUIconImage@@@Z 0000000064068540 f i rsrc.obj
 0001:000675c0       ??$construct@UIdLang@@AEBU1@@?$_Wrap_alloc@V?$allocator@U?$_List_node@UIdLang@@PEAX@std@@@std@@@std@@QEAAXPEAUIdLang@@AEBU2@@Z 00000000640685c0 f i rsrc.obj
 0001:00067640       ??$_Rotate@PEAE@std@@YAPEAEPEAE00Urandom_access_iterator_tag@0@@Z 0000000064068640 f i rsrc.obj
 0001:000676f0       ??0IconRsrc@@QEAA@AEBU0@@Z 00000000640686f0 f i rsrc.obj
 0001:00067770       ??0?$list@UIconImageRsrc@@V?$allocator@UIconImageRsrc@@@std@@@std@@QEAA@AEBV01@@Z 0000000064068770 f i rsrc.obj
 0001:000677d0       ??$_Insert_range@V?$_List_const_iterator@V?$_List_val@U?$_List_simple_types@UIconImageRsrc@@@std@@@std@@@std@@@?$list@UIconImageRsrc@@V?$allocator@UIconImageRsrc@@@std@@@std@@QEAAXV?$_List_unchecked_const_iterator@V?$_List_val@U?$_List_simple_types@UIconImageRsrc@@@std@@@std@@U_Iterator_base0@2@@1@V?$_List_const_iterator@V?$_List_val@U?$_List_simple_types@UIconImageRsrc@@@std@@@std@@@1@1Uforward_iterator_tag@1@@Z 00000000640687d0 f i rsrc.obj
 0001:00067880       ?dialog_proc@Dialog@Far@@MEAA_J_J0PEAX@Z 0000000064068880 f i farutils.obj
 0001:00067890       ?init@Far@@YAXPEBUPluginStartupInfo@@@Z 0000000064068890 f   farutils.obj
 0001:00067970       ?get_plugin_module_path@Far@@YA?AV?$basic_string@_WU?$char_traits@_W@std@@V?$allocator@_W@2@@std@@XZ 0000000064068970 f   farutils.obj
 0001:00067a20       ?get_msg@Far@@YA?AV?$basic_string@_WU?$char_traits@_W@std@@V?$allocator@_W@2@@std@@H@Z 0000000064068a20 f   farutils.obj
 0001:00067a90       ?get_optimal_msg_width@Far@@YAIXZ 0000000064068a90 f   farutils.obj
 0001:00067ae0       ?message@Far@@YA_JAEBU_GUID@@AEBV?$basic_string@_WU?$char_traits@_W@std@@V?$allocator@_W@2@@std@@H_K@Z 0000000064068ae0 f   farutils.obj
 0001:00067b30       ?menu@Far@@YA_JAEBU_GUID@@AEBV?$basic_string@_WU?$char_traits@_W@std@@V?$allocator@_W@2@@std@@AEBVMenuItems@1@PEB_W@Z 0000000064068b30 f   farutils.obj
 0001:00067e40       ?get_progress_bar_str@Far@@YA?AV?$basic_string@_WU?$char_traits@_W@std@@V?$allocator@_W@2@@std@@I_K0@Z 0000000064068e40 f   farutils.obj
 0001:00067f00       ?post_macro@Far@@YA_NAEBV?$basic_string@_WU?$char_traits@_W@std@@V?$allocator@_W@2@@std@@@Z 0000000064068f00 f   farutils.obj
 0001:00067f80       ?get_panel_dir@Far@@YA?AV?$basic_string@_WU?$char_traits@_W@std@@V?$allocator@_W@2@@std@@PEAX@Z 0000000064068f80 f   farutils.obj
 0001:00068160       ?get_panel_item@Far@@YAXPEAXW4FILE_CONTROL_COMMANDS@@_KAEAV?$Buffer@E@@@Z 0000000064069160 f   farutils.obj
 0001:000682c0       ?get_panel_item@Far@@YA?AUPanelItem@1@PEAXW4FILE_CONTROL_COMMANDS@@_K@Z 00000000640692c0 f   farutils.obj
 0001:00068410       ?get_current_panel_item@Far@@YA?AUPanelItem@1@PEAX@Z 0000000064069410 f   farutils.obj
 0001:00068440       ?get_selected_panel_item@Far@@YA?AUPanelItem@1@PEAX_K@Z 0000000064069440 f   farutils.obj
 0001:00068470       ?error_dlg@Far@@YAXAEBV?$basic_string@_WU?$char_traits@_W@std@@V?$allocator@_W@2@@std@@AEBUError@@@Z 0000000064069470 f   farutils.obj
 0001:00068ac0       ?info_dlg@Far@@YAXAEBU_GUID@@AEBV?$basic_string@_WU?$char_traits@_W@std@@V?$allocator@_W@2@@std@@1@Z 0000000064069ac0 f   farutils.obj
 0001:00068bc0       ?input_dlg@Far@@YA_NAEBU_GUID@@AEBV?$basic_string@_WU?$char_traits@_W@std@@V?$allocator@_W@2@@std@@1AEAV34@_K@Z 0000000064069bc0 f   farutils.obj
 0001:00068cd0       ?frame@Dialog@Far@@AEAAXAEBV?$basic_string@_WU?$char_traits@_W@std@@V?$allocator@_W@2@@std@@@Z 0000000064069cd0 f   farutils.obj
 0001:00068d80       ?internal_dialog_proc@Dialog@Far@@CA_JPEAX_J10@Z 0000000064069d80 f   farutils.obj
 0001:00068e20       ?separator@Dialog@Far@@QEAAIXZ 0000000064069e20 f   farutils.obj
 0001:00068ea0       ?separator@Dialog@Far@@QEAAIAEBV?$basic_string@_WU?$char_traits@_W@std@@V?$allocator@_W@2@@std@@@Z 0000000064069ea0 f   farutils.obj
 0001:00068f60       ?label@Dialog@Far@@QEAAIAEBV?$basic_string@_WU?$char_traits@_W@std@@V?$allocator@_W@2@@std@@_K1@Z 0000000064069f60 f   farutils.obj
 0001:000690b0       ?edit_box@Dialog@Far@@QEAAIAEBV?$basic_string@_WU?$char_traits@_W@std@@V?$allocator@_W@2@@std@@_K1@Z 000000006406a0b0 f   farutils.obj
 0001:000691b0       ?history_edit_box@Dialog@Far@@QEAAIAEBV?$basic_string@_WU?$char_traits@_W@std@@V?$allocator@_W@2@@std@@0_K1@Z 000000006406a1b0 f   farutils.obj
 0001:00069220       ?pwd_edit_box@Dialog@Far@@QEAAIAEBV?$basic_string@_WU?$char_traits@_W@std@@V?$allocator@_W@2@@std@@_K1@Z 000000006406a220 f   farutils.obj
 0001:00069310       ?button@Dialog@Far@@QEAAIAEBV?$basic_string@_WU?$char_traits@_W@std@@V?$allocator@_W@2@@std@@_K@Z 000000006406a310 f   farutils.obj
 0001:00069430       ?check_box@Dialog@Far@@QEAAIAEBV?$basic_string@_WU?$char_traits@_W@std@@V?$allocator@_W@2@@std@@H_K@Z 000000006406a430 f   farutils.obj
 0001:00069560       ?radio_button@Dialog@Far@@QEAAIAEBV?$basic_string@_WU?$char_traits@_W@std@@V?$allocator@_W@2@@std@@_N_K@Z 000000006406a560 f   farutils.obj
 0001:000696b0       ?combo_box@Dialog@Far@@QEAAIAEBV?$vector@V?$basic_string@_WU?$char_traits@_W@std@@V?$allocator@_W@2@@std@@V?$allocator@V?$basic_string@_WU?$char_traits@_W@std@@V?$allocator@_W@2@@std@@@2@@std@@_K11@Z 000000006406a6b0 f   farutils.obj
 0001:00069850       ?show@Dialog@Far@@QEAA_JXZ 000000006406a850 f   farutils.obj
 0001:00069c90       ?get_text@Dialog@Far@@QEBA?AV?$basic_string@_WU?$char_traits@_W@std@@V?$allocator@_W@2@@std@@I@Z 000000006406ac90 f   farutils.obj
 0001:00069d90       ?get_check@Dialog@Far@@QEBA_NI@Z 000000006406ad90 f   farutils.obj
 0001:00069dc0       ?get_check3@Dialog@Far@@QEBA?AW4TriState@@I@Z 000000006406adc0 f   farutils.obj
 0001:00069e00       ?set_list_pos@Dialog@Far@@QEAAXI_K@Z 000000006406ae00 f   farutils.obj
 0001:00069e60       ?create@FileFilter@Far@@QEAA_NPEAXH@Z 000000006406ae60 f   farutils.obj
 0001:00069eb0       ?get_absolute_path@Far@@YA?AV?$basic_string@_WU?$char_traits@_W@std@@V?$allocator@_W@2@@std@@AEBV23@@Z 000000006406aeb0 f   farutils.obj
 0001:00069ff0       ?panel_go_to_dir@Far@@YA_NPEAXAEBV?$basic_string@_WU?$char_traits@_W@std@@V?$allocator@_W@2@@std@@@Z 000000006406aff0 f   farutils.obj
 0001:0006a070       ?panel_go_to_file@Far@@YA_NPEAXAEBV?$basic_string@_WU?$char_traits@_W@std@@V?$allocator@_W@2@@std@@@Z 000000006406b070 f   farutils.obj
 0001:0006a4b0       ?get_lang_id@Far@@YAKXZ    000000006406b4b0 f   farutils.obj
 0001:0006a540       ??1Settings@Far@@QEAA@XZ   000000006406b540 f   farutils.obj
 0001:0006a590       ?set_dir@Settings@Far@@QEAA_NAEBV?$basic_string@_WU?$char_traits@_W@std@@V?$allocator@_W@2@@std@@@Z 000000006406b590 f   farutils.obj
 0001:0006a660       ?list_dir@Settings@Far@@QEAA_NAEAV?$vector@V?$basic_string@_WU?$char_traits@_W@std@@V?$allocator@_W@2@@std@@V?$allocator@V?$basic_string@_WU?$char_traits@_W@std@@V?$allocator@_W@2@@std@@@2@@std@@@Z 000000006406b660 f   farutils.obj
 0001:0006a8d0       ??1?$vector@UFarMenuItem@@V?$allocator@UFarMenuItem@@@std@@@std@@QEAA@XZ 000000006406b8d0 f i farutils.obj
 0001:0006a920       ?push_back@?$vector@UDialogItem@Far@@V?$allocator@UDialogItem@Far@@@std@@@std@@QEAAXAEBUDialogItem@Far@@@Z 000000006406b920 f i farutils.obj
 0001:0006aa30       ?_Reserve@?$vector@UFarMenuItem@@V?$allocator@UFarMenuItem@@@std@@@std@@IEAAX_K@Z 000000006406ba30 f i farutils.obj
 0001:0006ab00       ?_Reallocate@?$vector@UFarMenuItem@@V?$allocator@UFarMenuItem@@@std@@@std@@IEAAX_K@Z 000000006406bb00 f i farutils.obj
 0001:0006abc0       ?_Reserve@?$vector@UDialogItem@Far@@V?$allocator@UDialogItem@Far@@@std@@@std@@IEAAX_K@Z 000000006406bbc0 f i farutils.obj
 0001:0006ac90       ?_Reallocate@?$vector@UDialogItem@Far@@V?$allocator@UDialogItem@Far@@@std@@@std@@IEAAX_K@Z 000000006406bc90 f i farutils.obj
 0001:0006ad50       ?allocate@?$allocator@UDialogItem@Far@@@std@@QEAAPEAUDialogItem@Far@@_K@Z 000000006406bd50 f i farutils.obj
 0001:0006add0       ??$_Uninit_move@PEAUFarMenuItem@@PEAU1@V?$allocator@UFarMenuItem@@@std@@U1@@std@@YAPEAUFarMenuItem@@PEAU1@00AEAU?$_Wrap_alloc@V?$allocator@UFarMenuItem@@@std@@@0@0U_Nonscalar_ptr_iterator_tag@0@@Z 000000006406bdd0 f i farutils.obj
 0001:0006ae10       ??$_Uninit_move@PEAUDialogItem@Far@@PEAU12@V?$allocator@UDialogItem@Far@@@std@@U12@@std@@YAPEAUDialogItem@Far@@PEAU12@00AEAU?$_Wrap_alloc@V?$allocator@UDialogItem@Far@@@std@@@0@0U_Nonscalar_ptr_iterator_tag@0@@Z 000000006406be10 f i farutils.obj
 0001:0006ae70       ?long_path@@YA?AV?$basic_string@_WU?$char_traits@_W@std@@V?$allocator@_W@2@@std@@AEBV12@@Z 000000006406be70 f   pathutils.obj
 0001:0006b110       ?add_trailing_slash@@YA?AV?$basic_string@_WU?$char_traits@_W@std@@V?$allocator@_W@2@@std@@AEBV12@@Z 000000006406c110 f   pathutils.obj
 0001:0006b180       ?locate_path_root@@YAXAEBV?$basic_string@_WU?$char_traits@_W@std@@V?$allocator@_W@2@@std@@AEA_KAEA_N@Z 000000006406c180 f   pathutils.obj
 0001:0006b3a0       ?extract_file_name@@YA?AV?$basic_string@_WU?$char_traits@_W@std@@V?$allocator@_W@2@@std@@AEBV12@@Z 000000006406c3a0 f   pathutils.obj
 0001:0006b450       ?extract_file_path@@YA?AV?$basic_string@_WU?$char_traits@_W@std@@V?$allocator@_W@2@@std@@AEBV12@@Z 000000006406c450 f   pathutils.obj
 0001:0006b580       ?extract_file_ext@@YA?AV?$basic_string@_WU?$char_traits@_W@std@@V?$allocator@_W@2@@std@@AEBV12@@Z 000000006406c580 f   pathutils.obj
 0001:0006b650       ?is_root_path@@YA_NAEBV?$basic_string@_WU?$char_traits@_W@std@@V?$allocator@_W@2@@std@@@Z 000000006406c650 f   pathutils.obj
 0001:0006b6a0       ?is_absolute_path@@YA_NAEBV?$basic_string@_WU?$char_traits@_W@std@@V?$allocator@_W@2@@std@@@Z 000000006406c6a0 f   pathutils.obj
 0001:0006b770       ?remove_path_root@@YA?AV?$basic_string@_WU?$char_traits@_W@std@@V?$allocator@_W@2@@std@@AEBV12@@Z 000000006406c770 f   pathutils.obj
 0001:0006b7f0       ?substr_match@@YA_NAEBV?$basic_string@_WU?$char_traits@_W@std@@V?$allocator@_W@2@@std@@_KPEB_W@Z 000000006406c7f0 f   strutils.obj
 0001:0006b870       ?word_wrap@@YA?AV?$basic_string@_WU?$char_traits@_W@std@@V?$allocator@_W@2@@std@@AEBV12@_K@Z 000000006406c870 f   strutils.obj
 0001:0006ba80       ?fit_str@@YA?AV?$basic_string@_WU?$char_traits@_W@std@@V?$allocator@_W@2@@std@@AEBV12@_K@Z 000000006406ca80 f   strutils.obj
 0001:0006bb90       ?strip@@YA?AV?$basic_string@_WU?$char_traits@_W@std@@V?$allocator@_W@2@@std@@AEBV12@@Z 000000006406cb90 f   strutils.obj
 0001:0006bbb0       ?int_to_str@@YA?AV?$basic_string@_WU?$char_traits@_W@std@@V?$allocator@_W@2@@std@@H@Z 000000006406cbb0 f   strutils.obj
 0001:0006bc50       ?str_to_uint@@YA_KAEBV?$basic_string@_WU?$char_traits@_W@std@@V?$allocator@_W@2@@std@@@Z 000000006406cc50 f   strutils.obj
 0001:0006bcd0       ?uint_to_str@@YA?AV?$basic_string@_WU?$char_traits@_W@std@@V?$allocator@_W@2@@std@@_K@Z 000000006406ccd0 f   strutils.obj
 0001:0006bdc0       ?widen@@YA?AV?$basic_string@_WU?$char_traits@_W@std@@V?$allocator@_W@2@@std@@AEBV?$basic_string@DU?$char_traits@D@std@@V?$allocator@D@2@@2@@Z 000000006406cdc0 f   strutils.obj
 0001:0006be40       ?split@@YA?AV?$list@V?$basic_string@_WU?$char_traits@_W@std@@V?$allocator@_W@2@@std@@V?$allocator@V?$basic_string@_WU?$char_traits@_W@std@@V?$allocator@_W@2@@std@@@2@@std@@AEBV?$basic_string@_WU?$char_traits@_W@std@@V?$allocator@_W@2@@2@_W@Z 000000006406ce40 f   strutils.obj
 0001:0006bff0       ?format_data_size@@YA?AV?$basic_string@_WU?$char_traits@_W@std@@V?$allocator@_W@2@@std@@_KQEAPEB_W@Z 000000006406cff0 f   strutils.obj
 0001:0006c240       ?unquote@@YA?AV?$basic_string@_WU?$char_traits@_W@std@@V?$allocator@_W@2@@std@@AEBV12@@Z 000000006406d240 f   strutils.obj
 0001:0006c2e0       ?search_and_replace@@YA?AV?$basic_string@_WU?$char_traits@_W@std@@V?$allocator@_W@2@@std@@AEBV12@00@Z 000000006406d2e0 f   strutils.obj
 0001:0006c4c0       ??$strip@_W@@YA?AV?$basic_string@_WU?$char_traits@_W@std@@V?$allocator@_W@2@@std@@AEBV01@@Z 000000006406d4c0 f i strutils.obj
 0001:0006c570       ??_GCriticalSection@@UEAAPEAXI@Z 000000006406d570 f i sysutils.obj
 0001:0006c570       ??_ECriticalSection@@UEAAPEAXI@Z 000000006406d570 f i * CIL library *:* CIL module *
 0001:0006c5c0       ?get_system_message@@YA?AV?$basic_string@_WU?$char_traits@_W@std@@V?$allocator@_W@2@@std@@JK@Z 000000006406d5c0 f   sysutils.obj
 0001:0006c990       ?get_console_title@@YA?AV?$basic_string@_WU?$char_traits@_W@std@@V?$allocator@_W@2@@std@@XZ 000000006406d990 f   sysutils.obj
 0001:0006ca40       ?ansi_to_unicode@@YA?AV?$basic_string@_WU?$char_traits@_W@std@@V?$allocator@_W@2@@std@@AEBV?$basic_string@DU?$char_traits@D@std@@V?$allocator@D@2@@2@I@Z 000000006406da40 f   sysutils.obj
 0001:0006cbd0       ?unicode_to_ansi@@YA?AV?$basic_string@DU?$char_traits@D@std@@V?$allocator@D@2@@std@@AEBV?$basic_string@_WU?$char_traits@_W@std@@V?$allocator@_W@2@@2@I@Z 000000006406dbd0 f   sysutils.obj
 0001:0006cd50       ?expand_env_vars@@YA?AV?$basic_string@_WU?$char_traits@_W@std@@V?$allocator@_W@2@@std@@AEBV12@@Z 000000006406dd50 f   sysutils.obj
 0001:0006cec0       ??1File@@QEAA@XZ           000000006406dec0 f   sysutils.obj
 0001:0006cf30       ?open@File@@QEAAXAEBV?$basic_string@_WU?$char_traits@_W@std@@V?$allocator@_W@2@@std@@KKKK@Z 000000006406df30 f   sysutils.obj
 0001:0006cfe0       ?open_nt@File@@QEAA_NAEBV?$basic_string@_WU?$char_traits@_W@std@@V?$allocator@_W@2@@std@@KKKK@Z 000000006406dfe0 f   sysutils.obj
 0001:0006d100       ?size@File@@QEAA_KXZ       000000006406e100 f   sysutils.obj
 0001:0006d1a0       ?read@File@@QEAA_KPEAX_K@Z 000000006406e1a0 f   sysutils.obj
 0001:0006d250       ?write@File@@QEAA_KPEBX_K@Z 000000006406e250 f   sysutils.obj
 0001:0006d300       ?set_time@File@@QEAAXAEBU_FILETIME@@00@Z 000000006406e300 f   sysutils.obj
 0001:0006d3a0       ?set_pos@File@@QEAA_K_JK@Z 000000006406e3a0 f   sysutils.obj
 0001:0006d450       ?set_end@File@@QEAAXXZ     000000006406e450 f   sysutils.obj
 0001:0006d4f0       ?exists@File@@SA_NAEBV?$basic_string@_WU?$char_traits@_W@std@@V?$allocator@_W@2@@std@@@Z 000000006406e4f0 f   sysutils.obj
 0001:0006d580       ?set_attr@File@@SAXAEBV?$basic_string@_WU?$char_traits@_W@std@@V?$allocator@_W@2@@std@@K@Z 000000006406e580 f   sysutils.obj
 0001:0006d610       ?set_attr_nt@File@@SA_NAEBV?$basic_string@_WU?$char_traits@_W@std@@V?$allocator@_W@2@@std@@K@Z 000000006406e610 f   sysutils.obj
 0001:0006d6b0       ?delete_file@File@@SAXAEBV?$basic_string@_WU?$char_traits@_W@std@@V?$allocator@_W@2@@std@@@Z 000000006406e6b0 f   sysutils.obj
 0001:0006d740       ?delete_file_nt@File@@SA_NAEBV?$basic_string@_WU?$char_traits@_W@std@@V?$allocator@_W@2@@std@@@Z 000000006406e740 f   sysutils.obj
 0001:0006d7d0       ?create_dir_nt@File@@SA_NAEBV?$basic_string@_WU?$char_traits@_W@std@@V?$allocator@_W@2@@std@@@Z 000000006406e7d0 f   sysutils.obj
 0001:0006d860       ?remove_dir@File@@SAXAEBV?$basic_string@_WU?$char_traits@_W@std@@V?$allocator@_W@2@@std@@@Z 000000006406e860 f   sysutils.obj
 0001:0006d8f0       ?remove_dir_nt@File@@SA_NAEBV?$basic_string@_WU?$char_traits@_W@std@@V?$allocator@_W@2@@std@@@Z 000000006406e8f0 f   sysutils.obj
 0001:0006d980       ?move_file@File@@SAXAEBV?$basic_string@_WU?$char_traits@_W@std@@V?$allocator@_W@2@@std@@0K@Z 000000006406e980 f   sysutils.obj
 0001:0006da10       ?move_file_nt@File@@SA_NAEBV?$basic_string@_WU?$char_traits@_W@std@@V?$allocator@_W@2@@std@@0K@Z 000000006406ea10 f   sysutils.obj
 0001:0006db30       ?get_find_data@File@@SA?AUFindData@@AEBV?$basic_string@_WU?$char_traits@_W@std@@V?$allocator@_W@2@@std@@@Z 000000006406eb30 f   sysutils.obj
 0001:0006dbe0       ?get_find_data_nt@File@@SA_NAEBV?$basic_string@_WU?$char_traits@_W@std@@V?$allocator@_W@2@@std@@AEAUFindData@@@Z 000000006406ebe0 f   sysutils.obj
 0001:0006dc80       ??1Key@@QEAA@XZ            000000006406ec80 f   sysutils.obj
 0001:0006dcb0       ?query_str_nt@Key@@QEAA_NAEAV?$basic_string@_WU?$char_traits@_W@std@@V?$allocator@_W@2@@std@@PEB_W@Z 000000006406ecb0 f   sysutils.obj
 0001:0006dda0       ?next@FileEnum@@QEAA_NXZ   000000006406eda0 f   sysutils.obj
 0001:0006de40       ?next_nt@FileEnum@@QEAA_NAEA_N@Z 000000006406ee40 f   sysutils.obj
 0001:0006df30       ??0DirList@@QEAA@AEBV?$basic_string@_WU?$char_traits@_W@std@@V?$allocator@_W@2@@std@@@Z 000000006406ef30 f   sysutils.obj
 0001:0006e010       ?get_temp_path@@YA?AV?$basic_string@_WU?$char_traits@_W@std@@V?$allocator@_W@2@@std@@XZ 000000006406f010 f   sysutils.obj
 0001:0006e1b0       ??0TempFile@@QEAA@XZ       000000006406f1b0 f   sysutils.obj
 0001:0006e360       ??1TempFile@@QEAA@XZ       000000006406f360 f   sysutils.obj
 0001:0006e3c0       ?format_file_time@@YA?AV?$basic_string@_WU?$char_traits@_W@std@@V?$allocator@_W@2@@std@@AEBU_FILETIME@@@Z 000000006406f3c0 f   sysutils.obj
 0001:0006e710       ?upcase@@YA?AV?$basic_string@_WU?$char_traits@_W@std@@V?$allocator@_W@2@@std@@AEBV12@@Z 000000006406f710 f   sysutils.obj
 0001:0006e7f0       ?search_path@@YA?AV?$basic_string@_WU?$char_traits@_W@std@@V?$allocator@_W@2@@std@@AEBV12@@Z 000000006406f7f0 f   sysutils.obj
 0001:0006ea20       ??6?$basic_ostream@_WU?$char_traits@_W@std@@@std@@QEAAAEAV01@J@Z 000000006406fa20 f i sysutils.obj
 0001:0006ebd0       ?GetOEMCP@patched@@SAIXZ   000000006406fbd0 f i Patch7zCP.obj
 0001:0006ebe0       ?GetACP@patched@@SAIXZ     000000006406fbe0 f i Patch7zCP.obj
 0001:0006ebf0       ?MultiByteToWideChar@patched@@SAHIKPEBDHPEA_WH@Z 000000006406fbf0 f i Patch7zCP.obj
 0001:0006ec20       ?WideCharToMultiByte@patched@@SAHIKPEB_WHPEADHPEBDPEAH@Z 000000006406fc20 f i Patch7zCP.obj
 0001:0006ef30       ?SetCP@Patch7zCP@@SAXII@Z  000000006406ff30 f   Patch7zCP.obj
 0001:0006f004       ??0bad_alloc@std@@QEAA@AEBV01@@Z 0000000064070004 f i libcpmt:xthrow.obj
 0001:0006f044       ??0bad_alloc@std@@QEAA@XZ  0000000064070044 f i libcpmt:xthrow.obj
 0001:0006f064       ??0length_error@std@@QEAA@AEBV01@@Z 0000000064070064 f i libcpmt:xthrow.obj
 0001:0006f0a4       ??0length_error@std@@QEAA@PEBD@Z 00000000640700a4 f i libcpmt:xthrow.obj
 0001:0006f0f0       ??0logic_error@std@@QEAA@AEBV01@@Z 00000000640700f0 f i libcpmt:xthrow.obj
 0001:0006f130       ??0out_of_range@std@@QEAA@AEBV01@@Z 0000000064070130 f i libcpmt:xthrow.obj
 0001:0006f170       ??0out_of_range@std@@QEAA@PEBD@Z 0000000064070170 f i libcpmt:xthrow.obj
 0001:0006f1bc       ?__scrt_throw_std_bad_alloc@@YAXXZ 00000000640701bc f   LIBCMT:throw_bad_alloc.obj
 0001:0006f1bc       ?_Xbad_alloc@std@@YAXXZ    00000000640701bc f   libcpmt:xthrow.obj
 0001:0006f1dc       ?_Xlength_error@std@@YAXPEBD@Z 00000000640701dc f   libcpmt:xthrow.obj
 0001:0006f200       ?_Xout_of_range@std@@YAXPEBD@Z 0000000064070200 f   libcpmt:xthrow.obj
 0001:0006f224       ?_Ios_base_dtor@ios_base@std@@CAXPEAV12@@Z 0000000064070224 f   libcpmt:ios.obj
 0001:0006f268       ?_Tidy@ios_base@std@@AEAAXXZ 0000000064070268 f i libcpmt:ios.obj
 0001:0006f2f8       ?uncaught_exception@std@@YA_NXZ 00000000640702f8 f   libcpmt:uncaught.obj
 0001:0006f300       _Mbrtowc                   0000000064070300 f   libcpmt:xmbtowc.obj
 0001:0006f4d4       ??4?$_Yarn@D@std@@QEAAAEAV01@PEBD@Z 00000000640704d4 f i libcpmt:locale0.obj
 0001:0006f54c       ??_G_Fac_node@std@@QEAAPEAXI@Z 000000006407054c f i libcpmt:locale0.obj
 0001:0006f5d8       ??_G_Locimp@locale@std@@MEAAPEAXI@Z 00000000640705d8 f i libcpmt:locale0.obj
 0001:0006f5d8       ??_E_Locimp@locale@std@@MEAAPEAXI@Z 00000000640705d8 f i libcpmt:locale0.obj
 0001:0006f644       ?_Facet_Register@std@@YAXPEAV_Facet_base@1@@Z 0000000064070644 f   libcpmt:locale0.obj
 0001:0006f67c       ?_Getgloballocale@locale@std@@CAPEAV_Locimp@12@XZ 000000006407067c f   libcpmt:locale0.obj
 0001:0006f684       ?_Init@locale@std@@CAPEAV_Locimp@12@_N@Z 0000000064070684 f   libcpmt:locale0.obj
 0001:0006f740       ?_Locimp_dtor@_Locimp@locale@std@@CAXPEAV123@@Z 0000000064070740 f   libcpmt:locale0.obj
 0001:0006f7e8       ?_Locinfo_ctor@_Locinfo@std@@SAXPEAV12@PEBD@Z 00000000640707e8 f   libcpmt:locale0.obj
 0001:0006f854       ?_Locinfo_dtor@_Locinfo@std@@SAXPEAV12@@Z 0000000064070854 f   libcpmt:locale0.obj
 0001:0006f878       ?_New_Locimp@_Locimp@locale@std@@CAPEAV123@_N@Z 0000000064070878 f   libcpmt:locale0.obj
 0001:0006f8e8       ?_Setgloballocale@locale@std@@CAXPEAX@Z 00000000640708e8 f   libcpmt:locale0.obj
 0001:0006f91c       _Deletegloballocale        000000006407091c f   libcpmt:locale0.obj
 0001:0006f9a4       ?_Syserror_map@std@@YAPEBDH@Z 00000000640709a4 f   libcpmt:syserror.obj
 0001:0006f9cc       ??0_Init_locks@std@@QEAA@XZ 00000000640709cc f   libcpmt:xlock.obj
 0001:0006fa18       ??0_Lockit@std@@QEAA@H@Z   0000000064070a18 f   libcpmt:xlock.obj
 0001:0006fa54       ??1_Init_locks@std@@QEAA@XZ 0000000064070a54 f   libcpmt:xlock.obj
 0001:0006fa98       ??1_Lockit@std@@QEAA@XZ    0000000064070a98 f   libcpmt:xlock.obj
 0001:0006facc       _Getcvt                    0000000064070acc f   libcpmt:xwctomb.obj
 0001:0006fb5c       _Wcrtomb                   0000000064070b5c f   libcpmt:xwctomb.obj
 0001:0006fbd8       _Getctype                  0000000064070bd8 f   libcpmt:_tolower.obj
 0001:0006fc98       _Towupper                  0000000064070c98 f   libcpmt:xtowupper.obj
 0001:0006fd10       _Towlower                  0000000064070d10 f   libcpmt:xtowlower.obj
 0001:0006fd84       _Getwctype                 0000000064070d84 f   libcpmt:xgetwctype.obj
 0001:0006fdb8       _Getwctypes                0000000064070db8 f   libcpmt:xgetwctype.obj
 0001:0006fde8       ?setw@std@@YA?AU?$_Smanip@_J@1@_J@Z 0000000064070de8 f   libcpmt:iomanip.obj
 0001:0006fe04       ?_Atexit@@YAXP6AXXZ@Z      0000000064070e04 f   libcpmt:iosptrs.obj
 0001:0006fe44       _Mtxdst                    0000000064070e44 f   libcpmt:xmtx.obj
 0001:0006fe4c       _Mtxinit                   0000000064070e4c f   libcpmt:xmtx.obj
 0001:0006fe5c       _Mtxlock                   0000000064070e5c f   libcpmt:xmtx.obj
 0001:0006fe64       _Mtxunlock                 0000000064070e64 f   libcpmt:xmtx.obj
 0001:0006fe6c       __crtLCMapStringW          0000000064070e6c f   libcpmt:StlLCMapStringW.obj
 0001:00070398       __crtInitializeCriticalSectionEx 0000000064071398 f   libcpmt:winapisupp.obj
 0001:000703f8       GetTableIndexFromLocaleName 00000000640713f8 f   libcpmt:winapinls.obj
 0001:00070484       __crtDownlevelLocaleNameToLCID 0000000064071484 f   libcpmt:winapinls.obj
 0001:000704b8       __crtLCMapStringEx         00000000640714b8 f   libcpmt:winapinls.obj
 0001:00070574       __wcsnicmp_ascii           0000000064071574 f   libcpmt:winapinls.obj
 0001:000705e0       __security_check_cookie    00000000640715e0 f   LIBCMT:_amdsecgs_.obj
 0001:00070604       ??3@YAXPEAX@Z              0000000064071604 f   LIBCMT:delete_scalar.obj
 0001:0007060c       ??2@YAPEAX_K@Z             000000006407160c f   LIBCMT:new_scalar.obj
 0001:00070648       ??_Etype_info@@UEAAPEAXI@Z 0000000064071648 f i LIBCMT:std_type_info_static.obj
 0001:00070648       ??_Gtype_info@@UEAAPEAXI@Z 0000000064071648 f i LIBCMT:std_type_info_static.obj
 0001:00070674       __scrt_acquire_startup_lock 0000000064071674 f   LIBCMT:utility.obj
 0001:000706b0       __scrt_dllmain_after_initialize_c 00000000640716b0 f   LIBCMT:utility.obj
 0001:000706d0       __scrt_dllmain_before_initialize_c 00000000640716d0 f   LIBCMT:utility.obj
 0001:000706e8       __scrt_dllmain_crt_thread_attach 00000000640716e8 f   LIBCMT:utility.obj
 0001:00070710       __scrt_dllmain_crt_thread_detach 0000000064071710 f   LIBCMT:utility.obj
 0001:00070728       __scrt_dllmain_exception_filter 0000000064071728 f   LIBCMT:utility.obj
 0001:0007078c       __scrt_dllmain_uninitialize_c 000000006407178c f   LIBCMT:utility.obj
 0001:000707bc       __scrt_dllmain_uninitialize_critical 00000000640717bc f   LIBCMT:utility.obj
 0001:000707d0       __scrt_initialize_crt      00000000640717d0 f   LIBCMT:utility.obj
 0001:0007081c       __scrt_initialize_onexit_tables 000000006407181c f   LIBCMT:utility.obj
 0001:000708e8       __scrt_is_nonwritable_in_current_image 00000000640718e8 f   LIBCMT:utility.obj
 0001:00070984       __scrt_release_startup_lock 0000000064071984 f   LIBCMT:utility.obj
 0001:000709a8       __scrt_uninitialize_crt    00000000640719a8 f   LIBCMT:utility.obj
 0001:000709d4       _onexit                    00000000640719d4 f   LIBCMT:utility.obj
 0001:00070a24       atexit                     0000000064071a24 f   LIBCMT:utility.obj
 0001:00070a3c       ??_V@YAXPEAX@Z             0000000064071a3c f   LIBCMT:delete_array.obj
 0001:00070a3c       ??3@YAXPEAX_K@Z            0000000064071a3c f   LIBCMT:delete_scalar_size.obj
 0001:00070a44       ??_U@YAPEAX_K@Z            0000000064071a44 f   LIBCMT:new_array.obj
 0001:00070a4c       ?__scrt_initialize_type_info@@YAXXZ 0000000064071a4c f   LIBCMT:tncleanup.obj
 0001:00070a5c       ?__scrt_uninitialize_type_info@@YAXXZ 0000000064071a5c f   LIBCMT:tncleanup.obj
 0001:00070a68       ??_L@YAXPEAX_K1P6AX0@Z2@Z  0000000064071a68 f   LIBCMT:ehvecctr.obj
 0001:00070ad8       ??_M@YAXPEAX_K1P6AX0@Z@Z   0000000064071ad8 f   LIBCMT:ehvecdtr.obj
 0001:00070b44       ?__ArrayUnwind@@YAXPEAX_K1P6AX0@Z@Z 0000000064071b44 f   LIBCMT:ehvecdtr.obj
 0001:00070f04       _DllMainCRTStartup         0000000064071f04 f   LIBCMT:dll_dllmain.obj
 0001:00070f44       _guard_check_icall         0000000064071f44 f i LIBCMT:checkcfg.obj
 0001:00070f4c       __GSHandlerCheck           0000000064071f4c f   LIBCMT:_gshandler_.obj
 0001:00070f6c       __GSHandlerCheckCommon     0000000064071f6c f   LIBCMT:_gshandler_.obj
 0001:00070fc8       __GSHandlerCheck_EH        0000000064071fc8 f   LIBCMT:gshandlereh.obj
 0001:00071070       __chkstk                   0000000064072070 f   LIBCMT:_chkstk_.obj
 0001:00071070       _alloca_probe              0000000064072070 f   LIBCMT:_chkstk_.obj
 0001:000710c4       __raise_securityfailure    00000000640720c4 f   LIBCMT:gs_report.obj
 0001:000710f8       __report_gsfailure         00000000640720f8 f   LIBCMT:gs_report.obj
 0001:000711cc       __report_rangecheckfailure 00000000640721cc f   LIBCMT:gs_report.obj
 0001:000711e0       __report_securityfailure   00000000640721e0 f   LIBCMT:gs_report.obj
 0001:00071360       ??0bad_array_new_length@std@@QEAA@AEBV01@@Z 0000000064072360 f i LIBCMT:throw_bad_alloc.obj
 0001:000713a0       ??0bad_array_new_length@std@@QEAA@XZ 00000000640723a0 f i LIBCMT:throw_bad_alloc.obj
 0001:000713c0       ?__scrt_throw_std_bad_array_new_length@@YAXXZ 00000000640723c0 f   LIBCMT:throw_bad_alloc.obj
 0001:000713e0       __isa_available_init       00000000640723e0 f   LIBCMT:_cpu_disp_.obj
 0001:000715a4       __scrt_is_ucrt_dll_in_use  00000000640725a4 f   LIBCMT:ucrt_detection.obj
 0001:000715b0       __crt_debugger_hook        00000000640725b0 f   LIBCMT:utility_desktop.obj
 0001:000715b8       __scrt_fastfail            00000000640725b8 f   LIBCMT:utility_desktop.obj
 0001:00071700       __security_init_cookie     0000000064072700 f   LIBCMT:gs_support.obj
 0001:000717ac       __local_stdio_scanf_options 00000000640727ac f i LIBCMT:default_local_stdio_options.obj
 0001:000717b4       __scrt_initialize_default_local_stdio_options 00000000640727b4 f   LIBCMT:default_local_stdio_options.obj
 0001:000717d0       __scrt_get_dyn_tls_init_callback 00000000640727d0 f   LIBCMT:dyn_tls_init.obj
 0001:000717d8       _RTC_Initialize            00000000640727d8 f   LIBCMT:_initsect_.obj
 0001:00071824       _RTC_Terminate             0000000064072824 f   LIBCMT:_initsect_.obj
 0001:00071870       IsProcessorFeaturePresent  0000000064072870 f   kernel32:KERNEL32.dll
 0001:00071878       __DestructExceptionObject  0000000064072878 f   libvcruntime:frame.obj
 0001:00071900       ??0bad_exception@std@@QEAA@AEBV01@@Z 0000000064072900 f i libvcruntime:frame.obj
 0001:00071940       ??0bad_exception@std@@QEAA@XZ 0000000064072940 f i libvcruntime:frame.obj
 0001:00072288       ?_CallMemberFunction0@@YAXPEAXP6AX0@Z@Z 0000000064073288 f i libvcruntime:frame.obj
 0001:0007228c       ?_CallMemberFunction1@@YAXPEAXP6AX0@Z0@Z 000000006407328c f i libvcruntime:frame.obj
 0001:00072298       ?_CallMemberFunction2@@YAXPEAXP6AX0@Z0H@Z 0000000064073298 f i libvcruntime:frame.obj
 0001:000722a8       __AdjustPointer            00000000640732a8 f   libvcruntime:frame.obj
 0001:000722cc       __BuildCatchObject         00000000640732cc f   libvcruntime:frame.obj
 0001:00072394       __BuildCatchObjectHelper   0000000064073394 f   libvcruntime:frame.obj
 0001:00072578       __CxxCallCatchBlock        0000000064073578 f   libvcruntime:frame.obj
 0001:00072764       __FrameUnwindFilter        0000000064073764 f   libvcruntime:frame.obj
 0001:000727b0       __FrameUnwindToState       00000000640737b0 f   libvcruntime:frame.obj
 0001:00072944       __InternalCxxFrameHandler  0000000064073944 f   libvcruntime:frame.obj
 0001:00072b9c       __TypeMatch                0000000064073b9c f   libvcruntime:frame.obj
 0001:00072cdc       __std_terminate            0000000064073cdc f   libvcruntime:frame.obj
 0001:00072ce8       __uncaught_exception       0000000064073ce8 f   libvcruntime:frame.obj
 0001:00072d10       memmove                    0000000064073d10 f   libvcruntime:memcpy.obj
 0001:00072d10       memcpy                     0000000064073d10 f   libvcruntime:memcpy.obj
 0001:00073148       free                       0000000064074148 f   libucrt:free.obj
 0001:00073150       malloc                     0000000064074150 f   libucrt:malloc.obj
 0001:00073158       __std_type_info_compare    0000000064074158 f   libvcruntime:std_type_info.obj
 0001:00073180       __std_type_info_destroy_list 0000000064074180 f   libvcruntime:std_type_info.obj
 0001:000731ac       __std_type_info_name       00000000640741ac f   libvcruntime:std_type_info.obj
 0001:000732c8       ??0__non_rtti_object@std@@QEAA@AEBV01@@Z 00000000640742c8 f i libvcruntime:rtti.obj
 0001:00073308       ??0bad_typeid@std@@QEAA@AEBV01@@Z 0000000064074308 f i libvcruntime:rtti.obj
 0001:00073348       ?__construct_from_string_literal@__non_rtti_object@std@@SA?AV12@QEBD@Z 0000000064074348 f i libvcruntime:rtti.obj
 0001:0007336c       ?__construct_from_string_literal@bad_typeid@std@@SA?AV12@QEBD@Z 000000006407436c f i libvcruntime:rtti.obj
 0001:00073390       __RTtypeid                 0000000064074390 f   libvcruntime:rtti.obj
 0001:00073440       _purecall                  0000000064074440 f   libvcruntime:purevirt.obj
 0001:0007347c       __std_exception_copy       000000006407447c f   libvcruntime:std_exception.obj
 0001:0007350c       __std_exception_destroy    000000006407450c f   libvcruntime:std_exception.obj
 0001:00073534       _CxxThrowException         0000000064074534 f   libvcruntime:throw.obj
 0001:0007360c       ?_GetEstablisherFrame@@YAPEA_KPEA_KPEAU_xDISPATCHER_CONTEXT@@PEBU_s_FuncInfo@@0@Z 000000006407460c f   libvcruntime:trnsctrl.obj
 0001:000736d8       ?_GetRangeOfTrysToCheck@@YAPEBU_s_TryBlockMapEntry@@PEA_KPEBU_s_FuncInfo@@HHPEAI2PEAU_xDISPATCHER_CONTEXT@@@Z 00000000640746d8 f   libvcruntime:trnsctrl.obj
 0001:00073804       ?__FrameUnwindToEmptyState@@YAXPEA_KPEAU_xDISPATCHER_CONTEXT@@PEBU_s_FuncInfo@@@Z 0000000064074804 f   libvcruntime:trnsctrl.obj
 0001:00073898       ?__SehTransFilter@@YAHPEAU_EXCEPTION_POINTERS@@PEAUEHExceptionRecord@@PEA_KPEAU_CONTEXT@@PEAU_xDISPATCHER_CONTEXT@@PEBU_s_FuncInfo@@PEAH@Z 0000000064074898 f   libvcruntime:trnsctrl.obj
 0001:00073930       _CallSETranslator          0000000064074930 f   libvcruntime:trnsctrl.obj
 0001:00073988       _CreateFrameInfo           0000000064074988 f   libvcruntime:trnsctrl.obj
 0001:000739c4       _FindAndUnlinkFrame        00000000640749c4 f   libvcruntime:trnsctrl.obj
 0001:00073a1c       _GetImageBase              0000000064074a1c f   libvcruntime:trnsctrl.obj
 0001:00073a30       _GetThrowImageBase         0000000064074a30 f   libvcruntime:trnsctrl.obj
 0001:00073a44       _IsExceptionObjectToBeDestroyed 0000000064074a44 f   libvcruntime:trnsctrl.obj
 0001:00073a74       _SetImageBase              0000000064074a74 f   libvcruntime:trnsctrl.obj
 0001:00073a8c       _SetThrowImageBase         0000000064074a8c f   libvcruntime:trnsctrl.obj
 0001:00073aa4       _UnwindNestedFrames        0000000064074aa4 f   libvcruntime:trnsctrl.obj
 0001:00073bc8       __CxxFrameHandler3         0000000064074bc8 f   libvcruntime:trnsctrl.obj
 0001:00073c60       memset                     0000000064074c60 f   libvcruntime:memset.obj
 0001:00073e10       memcmp                     0000000064074e10 f   libvcruntime:memcmp.obj
 0001:00073ed8       __vcrt_initialize          0000000064074ed8 f   libvcruntime:initialization.obj
 0001:00073f10       __vcrt_thread_attach       0000000064074f10 f   libvcruntime:initialization.obj
 0001:00073f24       __vcrt_thread_detach       0000000064074f24 f   libvcruntime:initialization.obj
 0001:00073f38       __vcrt_uninitialize        0000000064074f38 f   libvcruntime:initialization.obj
 0001:00073f64       __vcrt_uninitialize_critical 0000000064074f64 f   libvcruntime:initialization.obj
 0001:00073f74       __C_specific_handler       0000000064074f74 f   libvcruntime:_chandler_.obj
 0001:00074168       __telemetry_main_invoke_trigger 0000000064075168 f   libvcruntime:telemetry.obj
 0001:00074280       __telemetry_main_return_trigger 0000000064075280 f   libvcruntime:telemetry.obj
 0001:00074398       __vcrt_initialize_telemetry_provider 0000000064075398 f   libvcruntime:telemetry.obj
 0001:000743ac       __vcrt_uninitialize_telemetry_provider 00000000640753ac f   libvcruntime:telemetry.obj
 0001:000743cc       __vcrt_freefls             00000000640753cc f   libvcruntime:per_thread_data.obj
 0001:000743ec       __vcrt_freeptd             00000000640753ec f   libvcruntime:per_thread_data.obj
 0001:0007443c       __vcrt_getptd              000000006407543c f   libvcruntime:per_thread_data.obj
 0001:00074458       __vcrt_getptd_noexit       0000000064075458 f   libvcruntime:per_thread_data.obj
 0001:00074500       __vcrt_initialize_ptd      0000000064075500 f   libvcruntime:per_thread_data.obj
 0001:00074540       __vcrt_uninitialize_ptd    0000000064075540 f   libvcruntime:per_thread_data.obj
 0001:00074564       ?__GetCurrentState@@YAHPEA_KPEAU_xDISPATCHER_CONTEXT@@PEBU_s_FuncInfo@@@Z 0000000064075564 f   libvcruntime:ehstate.obj
 0001:0007458c       ?__GetUnwindTryBlock@@YAHPEA_KPEAU_xDISPATCHER_CONTEXT@@PEBU_s_FuncInfo@@@Z 000000006407558c f   libvcruntime:ehstate.obj
 0001:000745b8       ?__SetState@@YAXPEA_KPEAU_xDISPATCHER_CONTEXT@@PEBU_s_FuncInfo@@H@Z 00000000640755b8 f   libvcruntime:ehstate.obj
 0001:000745c4       ?__SetUnwindTryBlock@@YAXPEA_KPEAU_xDISPATCHER_CONTEXT@@PEBU_s_FuncInfo@@H@Z 00000000640755c4 f   libvcruntime:ehstate.obj
 0001:00074600       ?__StateFromControlPc@@YAHPEBU_s_FuncInfo@@PEAU_xDISPATCHER_CONTEXT@@@Z 0000000064075600 f   libvcruntime:ehstate.obj
 0001:00074608       ?__StateFromIp@@YAHPEBU_s_FuncInfo@@PEAU_xDISPATCHER_CONTEXT@@_J@Z 0000000064075608 f   libvcruntime:ehstate.obj
 0001:00074690       _CallSettingFrame          0000000064075690 f   libvcruntime:handlers.obj
 0001:000746e0       _local_unwind              00000000640756e0 f   libvcruntime:_jmpuwind_.obj
 0001:00074710       _NLG_Notify                0000000064075710 f   libvcruntime:_jmpuwind_.obj
 0001:00074730       __NLG_Dispatch2            0000000064075730 f   libvcruntime:_jmpuwind_.obj
 0001:00074740       __NLG_Return2              0000000064075740 f   libvcruntime:_jmpuwind_.obj
 0001:00074744       ??0DName@@QEAA@AEAPEBDD@Z  0000000064075744 f   libvcruntime:undname.obj
 0001:00074824       ??0DName@@QEAA@AEBV0@@Z    0000000064075824 f i libvcruntime:undname.obj
 0001:00074830       ??0DName@@QEAA@D@Z         0000000064075830 f   libvcruntime:undname.obj
 0001:00074868       ??0DName@@QEAA@PEAV0@@Z    0000000064075868 f   libvcruntime:undname.obj
 0001:000748f0       ??0DName@@QEAA@PEBD@Z      00000000640758f0 f   libvcruntime:undname.obj
 0001:00074938       ??0DName@@QEAA@W4DNameStatus@@@Z 0000000064075938 f   libvcruntime:undname.obj
 0001:00074988       ??0DName@@QEAA@_J@Z        0000000064075988 f   libvcruntime:undname.obj
 0001:00074a34       ??0DName@@QEAA@_K@Z        0000000064075a34 f   libvcruntime:undname.obj
 0001:00074ac4       ??0UnDecorator@@QEAA@PEADPEBDHP6APEADJ@ZK@Z 0000000064075ac4 f i libvcruntime:undname.obj
 0001:00074b38       ??0pcharNode@@QEAA@PEBDH@Z 0000000064075b38 f   libvcruntime:undname.obj
 0001:00074bc0       ??4DName@@QEAAAEAV0@PEBD@Z 0000000064075bc0 f   libvcruntime:undname.obj
 0001:00074c00       ??4DName@@QEAAAEAV0@W4DNameStatus@@@Z 0000000064075c00 f   libvcruntime:undname.obj
 0001:00074c3c       ??AReplicator@@QEBA?AVDName@@H@Z 0000000064075c3c f   libvcruntime:undname.obj
 0001:00074c84       ??BUnDecorator@@QEAAPEADXZ 0000000064075c84 f i libvcruntime:undname.obj
 0001:00074e98       ??YDName@@QEAAAEAV0@AEBV0@@Z 0000000064075e98 f   libvcruntime:undname.obj
 0001:00074ed8       ??YDName@@QEAAAEAV0@D@Z    0000000064075ed8 f   libvcruntime:undname.obj
 0001:00074f5c       ??YDName@@QEAAAEAV0@PEBD@Z 0000000064075f5c f   libvcruntime:undname.obj
 0001:00074fe8       ??YDName@@QEAAAEAV0@W4DNameStatus@@@Z 0000000064075fe8 f   libvcruntime:undname.obj
 0001:0007502c       ??YReplicator@@QEAAAEAV0@AEBVDName@@@Z 000000006407602c f   libvcruntime:undname.obj
 0001:0007508c       ?append@DName@@AEAAXPEAVDNameNode@@@Z 000000006407608c f   libvcruntime:undname.obj
 0001:000750f0       ?composeDeclaration@UnDecorator@@CA?AVDName@@AEBV2@@Z 00000000640760f0 f i libvcruntime:undname.obj
 0001:00075e68       ?doPchar@DName@@AEAAXPEBDH@Z 0000000064076e68 f   libvcruntime:undname.obj
 0001:00075f18       ?getArgumentList@UnDecorator@@CA?AVDName@@XZ 0000000064076f18 f   libvcruntime:undname.obj
 0001:0007605c       ?getArgumentTypes@UnDecorator@@CA?AVDName@@XZ 000000006407705c f   libvcruntime:undname.obj
 0001:0007615c       ?getArrayType@UnDecorator@@CA?AVDName@@AEBV2@@Z 000000006407715c f i libvcruntime:undname.obj
 0001:00076398       ?getBasedType@UnDecorator@@CA?AVDName@@XZ 0000000064077398 f   libvcruntime:undname.obj
 0001:00076458       ?getBasicDataType@UnDecorator@@CA?AVDName@@AEBV2@@Z 0000000064077458 f   libvcruntime:undname.obj
 0001:00076890       ?getCallingConvention@UnDecorator@@CA?AVDName@@XZ 0000000064077890 f   libvcruntime:undname.obj
 0001:00076990       ?getDataIndirectType@UnDecorator@@CA?AVDName@@AEBV2@PEBD0H@Z 0000000064077990 f   libvcruntime:undname.obj
 0001:000770c8       ?getDataType@UnDecorator@@CA?AVDName@@PEAV2@@Z 00000000640780c8 f   libvcruntime:undname.obj
 0001:000771ac       ?getDecoratedName@UnDecorator@@CA?AVDName@@XZ 00000000640781ac f   libvcruntime:undname.obj
 0001:00077420       ?getDimension@UnDecorator@@CA?AVDName@@_N@Z 0000000064078420 f   libvcruntime:undname.obj
 0001:0007757c       ?getDispatchTarget@UnDecorator@@CA?AVDName@@XZ 000000006407857c f   libvcruntime:undname.obj
 0001:000775e0       ?getECSUDataType@UnDecorator@@CA?AVDName@@XZ 00000000640785e0 f   libvcruntime:undname.obj
 0001:00077744       ?getEnumType@UnDecorator@@CA?AVDName@@XZ 0000000064078744 f i libvcruntime:undname.obj
 0001:0007782c       ?getExtendedDataIndirectType@UnDecorator@@CA?AVDName@@AEAPEBDAEA_NH@Z 000000006407882c f   libvcruntime:undname.obj
 0001:00077a70       ?getExternalDataType@UnDecorator@@CA?AVDName@@AEBV2@@Z 0000000064078a70 f i libvcruntime:undname.obj
 0001:00077b44       ?getFunctionIndirectType@UnDecorator@@CA?AVDName@@AEBV2@@Z 0000000064078b44 f   libvcruntime:undname.obj
 0001:00078064       ?getLastChar@DNameStatusNode@@UEBADXZ 0000000064079064 f i libvcruntime:undname.obj
 0001:00078070       ?getLastChar@charNode@@UEBADXZ 0000000064079070 f i libvcruntime:undname.obj
 0001:00078074       ?getLastChar@pDNameNode@@UEBADXZ 0000000064079074 f i libvcruntime:undname.obj
 0001:000780b0       ?getLastChar@pairNode@@UEBADXZ 00000000640790b0 f i libvcruntime:undname.obj
 0001:00078108       ?getLastChar@pcharNode@@UEBADXZ 0000000064079108 f i libvcruntime:undname.obj
 0001:0007811c       ?getMemory@_HeapManager@@QEAAPEAX_KH@Z 000000006407911c f   libvcruntime:undname.obj
 0001:000781d8       ?getNumberOfDimensions@UnDecorator@@CAHXZ 00000000640791d8 f   libvcruntime:undname.obj
 0001:0007824c       ?getOperatorName@UnDecorator@@CA?AVDName@@_NPEA_N@Z 000000006407924c f i libvcruntime:undname.obj
 0001:000789a4       ?getPrimaryDataType@UnDecorator@@CA?AVDName@@AEBV2@@Z 00000000640799a4 f   libvcruntime:undname.obj
 0001:00078be8       ?getPtrRefDataType@UnDecorator@@CA?AVDName@@AEBV2@H@Z 0000000064079be8 f   libvcruntime:undname.obj
 0001:00078d10       ?getPtrRefType@UnDecorator@@CA?AVDName@@AEBV2@0PEBD@Z 0000000064079d10 f   libvcruntime:undname.obj
 0001:00078e44       ?getRestrictionSpec@UnDecorator@@CA?AVDName@@XZ 0000000064079e44 f   libvcruntime:undname.obj
 0001:00078f70       ?getReturnType@UnDecorator@@CA?AVDName@@PEAV2@@Z 0000000064079f70 f   libvcruntime:undname.obj
 0001:00078fa4       ?getScope@UnDecorator@@CA?AVDName@@XZ 0000000064079fa4 f   libvcruntime:undname.obj
 0001:00079450       ?getScopedName@UnDecorator@@CA?AVDName@@XZ 000000006407a450 f   libvcruntime:undname.obj
 0001:00079568       ?getSignedDimension@UnDecorator@@CA?AVDName@@XZ 000000006407a568 f   libvcruntime:undname.obj
 0001:000795e4       ?getString@DName@@QEBAPEADPEADH@Z 000000006407a5e4 f i libvcruntime:undname.obj
 0001:00079694       ?getString@DNameStatusNode@@UEBAPEADPEAD0@Z 000000006407a694 f i libvcruntime:undname.obj
 0001:000796d8       ?getString@charNode@@UEBAPEADPEAD0@Z 000000006407a6d8 f i libvcruntime:undname.obj
 0001:000796ec       ?getString@pDNameNode@@UEBAPEADPEAD0@Z 000000006407a6ec f i libvcruntime:undname.obj
 0001:0007974c       ?getString@pairNode@@UEBAPEADPEAD0@Z 000000006407a74c f i libvcruntime:undname.obj
 0001:000797d0       ?getString@pcharNode@@UEBAPEADPEAD0@Z 000000006407a7d0 f i libvcruntime:undname.obj
 0001:00079808       ?getStringEncoding@UnDecorator@@CA?AVDName@@PEADH@Z 000000006407a808 f   libvcruntime:undname.obj
 0001:000798c8       ?getSymbolName@UnDecorator@@CA?AVDName@@XZ 000000006407a8c8 f i libvcruntime:undname.obj
 0001:00079914       ?getTemplateArgumentList@UnDecorator@@CA?AVDName@@XZ 000000006407a914 f   libvcruntime:undname.obj
 0001:00079bec       ?getTemplateConstant@UnDecorator@@CA?AVDName@@XZ 000000006407abec f   libvcruntime:undname.obj
 0001:00079f94       ?getTemplateName@UnDecorator@@CA?AVDName@@_N@Z 000000006407af94 f   libvcruntime:undname.obj
 0001:0007a170       ?getThrowTypes@UnDecorator@@CA?AVDName@@XZ 000000006407b170 f   libvcruntime:undname.obj
 0001:0007a234       ?getTypeEncoding@UnDecorator@@CAHXZ 000000006407b234 f i libvcruntime:undname.obj
 0001:0007a720       ?getVfTableType@UnDecorator@@CA?AVDName@@AEBV2@@Z 000000006407b720 f i libvcruntime:undname.obj
 0001:0007a8f0       ?getZName@UnDecorator@@CA?AVDName@@_N0@Z 000000006407b8f0 f   libvcruntime:undname.obj
 0001:0007ab8c       ?length@DNameStatusNode@@UEBAHXZ 000000006407bb8c f i libvcruntime:undname.obj
 0001:0007ab90       DllMain                    000000006407bb90 f i LIBCMT:dll_dllmain_stub.obj
 0001:0007ab90       ?length@charNode@@UEBAHXZ  000000006407bb90 f i libvcruntime:undname.obj
 0001:0007ab98       ?length@pDNameNode@@UEBAHXZ 000000006407bb98 f i libvcruntime:undname.obj
 0001:0007abd4       ?length@pairNode@@UEBAHXZ  000000006407bbd4 f i libvcruntime:undname.obj
 0001:0007ac40       ?length@pcharNode@@UEBAHXZ 000000006407bc40 f i libvcruntime:undname.obj
 0001:0007ac44       ?make@DNameStatusNode@@SAPEAV1@W4DNameStatus@@@Z 000000006407bc44 f i libvcruntime:undname.obj
 0001:0007accc       __unDName                  000000006407bccc f   libvcruntime:undname.obj
 0001:0007adc4       __vcrt_initialize_pure_virtual_call_handler 000000006407bdc4 f   libvcruntime:purevirt_data.obj
 0001:0007ade8       __vcrt_initialize_locks    000000006407bde8 f   libvcruntime:locks.obj
 0001:0007ae30       __vcrt_lock                000000006407be30 f   libvcruntime:locks.obj
 0001:0007ae4c       __vcrt_uninitialize_locks  000000006407be4c f   libvcruntime:locks.obj
 0001:0007ae84       __vcrt_unlock              000000006407be84 f   libvcruntime:locks.obj
 0001:0007b068       __vcrt_EventRegister       000000006407c068 f   libvcruntime:winapi_downlevel.obj
 0001:0007b0ec       __vcrt_EventSetInformation 000000006407c0ec f   libvcruntime:winapi_downlevel.obj
 0001:0007b170       __vcrt_EventUnregister     000000006407c170 f   libvcruntime:winapi_downlevel.obj
 0001:0007b1c4       __vcrt_EventWriteTransfer  000000006407c1c4 f   libvcruntime:winapi_downlevel.obj
 0001:0007b25c       __vcrt_FlsAlloc            000000006407c25c f   libvcruntime:winapi_downlevel.obj
 0001:0007b2b0       __vcrt_FlsFree             000000006407c2b0 f   libvcruntime:winapi_downlevel.obj
 0001:0007b304       __vcrt_FlsGetValue         000000006407c304 f   libvcruntime:winapi_downlevel.obj
 0001:0007b358       __vcrt_FlsSetValue         000000006407c358 f   libvcruntime:winapi_downlevel.obj
 0001:0007b3c0       __vcrt_InitializeCriticalSectionEx 000000006407c3c0 f   libvcruntime:winapi_downlevel.obj
 0001:0007b438       __vcrt_initialize_winapi_thunks 000000006407c438 f   libvcruntime:winapi_downlevel.obj
 0001:0007b470       __vcrt_uninitialize_winapi_thunks 000000006407c470 f   libvcruntime:winapi_downlevel.obj
 0001:0007b4b0       __acrt_call_reportfault    000000006407c4b0 f   libucrt:invalid_parameter.obj
 0001:0007b60c       __acrt_initialize_invalid_parameter_handler 000000006407c60c f   libucrt:invalid_parameter.obj
 0001:0007b614       _invalid_parameter         000000006407c614 f   libucrt:invalid_parameter.obj
 0001:0007b6bc       _invalid_parameter_noinfo  000000006407c6bc f   libucrt:invalid_parameter.obj
 0001:0007b6dc       _invalid_parameter_noinfo_noreturn 000000006407c6dc f   libucrt:invalid_parameter.obj
 0001:0007b70c       _invoke_watson             000000006407c70c f   libucrt:invalid_parameter.obj
 0001:0007b754       wcscpy_s                   000000006407c754 f   libucrt:wcscpy_s.obj
 0001:0007b7bc       ??0_LocaleUpdate@@QEAA@QEAU__crt_locale_pointers@@@Z 000000006407c7bc f i libucrt:wcsicmp.obj
 0001:0007b84c       _wcsicmp                   000000006407c84c f   libucrt:wcsicmp.obj
 0001:0007b8d4       _wcsicmp_l                 000000006407c8d4 f   libucrt:wcsicmp.obj
 0001:0007bb6c       ??$ensure_buffer_is_big_enough@D@formatting_buffer@__crt_stdio_output@@QEAA_N_K@Z 000000006407cb6c f i libucrt:output.obj
 0001:0007bc18       ??$is_wide_character_specifier@D@__crt_stdio_output@@YA_N_KDW4length_modifier@0@@Z 000000006407cc18 f i libucrt:output.obj
 0001:0007bc48       ??$type_case_integer_parse_into_buffer@I@?$output_processor@DV?$string_output_adapter@D@__crt_stdio_output@@V?$format_validation_base@DV?$string_output_adapter@D@__crt_stdio_output@@@2@@__crt_stdio_output@@AEAAXII_N@Z 000000006407cc48 f i libucrt:output.obj
 0001:0007bce4       ??$type_case_integer_parse_into_buffer@_K@?$output_processor@DV?$string_output_adapter@D@__crt_stdio_output@@V?$format_validation_base@DV?$string_output_adapter@D@__crt_stdio_output@@@2@@__crt_stdio_output@@AEAAX_KI_N@Z 000000006407cce4 f i libucrt:output.obj
 0001:0007bd80       ??$write_multiple_characters@V?$string_output_adapter@D@__crt_stdio_output@@D@__crt_stdio_output@@YAXAEBV?$string_output_adapter@D@0@DHQEAH@Z 000000006407cd80 f i libucrt:output.obj
 0001:0007bddc       ??0?$output_processor@DV?$string_output_adapter@D@__crt_stdio_output@@V?$format_validation_base@DV?$string_output_adapter@D@__crt_stdio_output@@@2@@__crt_stdio_output@@QEAA@AEBV?$string_output_adapter@D@1@_KQEBDQEAU__crt_locale_pointers@@QEAD@Z 000000006407cddc f i libucrt:output.obj
 0001:0007be58       ?force_decimal_point@__crt_stdio_output@@YAXPEADQEAU__crt_locale_pointers@@@Z 000000006407ce58 f i libucrt:output.obj
 0001:0007bec8       ?parse_int_from_format_string@?$output_processor@DV?$string_output_adapter@D@__crt_stdio_output@@V?$format_validation_base@DV?$string_output_adapter@D@__crt_stdio_output@@@2@@__crt_stdio_output@@AEAA_NQEAH@Z 000000006407cec8 f i libucrt:output.obj
 0001:0007bf4c       ?process@?$output_processor@DV?$string_output_adapter@D@__crt_stdio_output@@V?$format_validation_base@DV?$string_output_adapter@D@__crt_stdio_output@@@2@@__crt_stdio_output@@QEAAHXZ 000000006407cf4c f i libucrt:output.obj
 0001:0007c160       ?state_case_normal@?$output_processor@DV?$string_output_adapter@D@__crt_stdio_output@@V?$format_validation_base@DV?$string_output_adapter@D@__crt_stdio_output@@@2@@__crt_stdio_output@@AEAA_NXZ 000000006407d160 f i libucrt:output.obj
 0001:0007c1d4       ?state_case_normal_tchar@?$output_processor@DV?$string_output_adapter@D@__crt_stdio_output@@V?$format_validation_base@DV?$string_output_adapter@D@__crt_stdio_output@@@2@@__crt_stdio_output@@AEAA_ND@Z 000000006407d1d4 f i libucrt:output.obj
 0001:0007c26c       ?state_case_size@?$output_processor@DV?$string_output_adapter@D@__crt_stdio_output@@V?$format_validation_base@DV?$string_output_adapter@D@__crt_stdio_output@@@2@@__crt_stdio_output@@AEAA_NXZ 000000006407d26c f i libucrt:output.obj
 0001:0007c3e8       ?state_case_type@?$output_processor@DV?$string_output_adapter@D@__crt_stdio_output@@V?$format_validation_base@DV?$string_output_adapter@D@__crt_stdio_output@@@2@@__crt_stdio_output@@AEAA_NXZ 000000006407d3e8 f i libucrt:output.obj
 0001:0007c664       ?type_case_Z@?$output_processor@DV?$string_output_adapter@D@__crt_stdio_output@@V?$format_validation_base@DV?$string_output_adapter@D@__crt_stdio_output@@@2@@__crt_stdio_output@@AEAA_NXZ 000000006407d664 f i libucrt:output.obj
 0001:0007c6e4       ?type_case_a@?$output_processor@DV?$string_output_adapter@D@__crt_stdio_output@@V?$format_validation_base@DV?$string_output_adapter@D@__crt_stdio_output@@@2@@__crt_stdio_output@@AEAA_NXZ 000000006407d6e4 f i libucrt:output.obj
 0001:0007c900       ?type_case_c_tchar@?$output_processor@DV?$string_output_adapter@D@__crt_stdio_output@@V?$format_validation_base@DV?$string_output_adapter@D@__crt_stdio_output@@@2@@__crt_stdio_output@@AEAA_ND@Z 000000006407d900 f i libucrt:output.obj
 0001:0007c9b4       ?type_case_integer@?$output_processor@DV?$string_output_adapter@D@__crt_stdio_output@@V?$format_validation_base@DV?$string_output_adapter@D@__crt_stdio_output@@@2@@__crt_stdio_output@@AEAA_NI_N@Z 000000006407d9b4 f i libucrt:output.obj
 0001:0007cb54       ?type_case_n@?$output_processor@DV?$string_output_adapter@D@__crt_stdio_output@@V?$format_validation_base@DV?$string_output_adapter@D@__crt_stdio_output@@@2@@__crt_stdio_output@@AEAA_NXZ 000000006407db54 f i libucrt:output.obj
 0001:0007cc30       ?type_case_s@?$output_processor@DV?$string_output_adapter@D@__crt_stdio_output@@V?$format_validation_base@DV?$string_output_adapter@D@__crt_stdio_output@@@2@@__crt_stdio_output@@AEAA_NXZ 000000006407dc30 f i libucrt:output.obj
 0001:0007ccc0       ?write_stored_string_tchar@?$output_processor@DV?$string_output_adapter@D@__crt_stdio_output@@V?$format_validation_base@DV?$string_output_adapter@D@__crt_stdio_output@@@2@@__crt_stdio_output@@AEAA_ND@Z 000000006407dcc0 f i libucrt:output.obj
 0001:0007cd98       ?write_string@?$string_output_adapter@D@__crt_stdio_output@@QEBAXQEBDHQEAH1@Z 000000006407dd98 f i libucrt:output.obj
 0001:0007ce54       __stdio_common_vsprintf_s  000000006407de54 f   libucrt:output.obj
 0001:0007ceb8       frexp                      000000006407deb8 f   libucrt:frexp.obj
 0001:0007cfb0       strcspn                    000000006407dfb0 f   libucrt:strcspn.obj
 0001:0007d050       localeconv                 000000006407e050 f   libucrt:localeconv.obj
 0001:0007d084       calloc                     000000006407e084 f   libucrt:calloc.obj
 0001:0007d2e0       _i64tow_s                  000000006407e2e0 f   libucrt:xtoa.obj
 0001:0007d304       _itow_s                    000000006407e304 f   libucrt:xtoa.obj
 0001:0007d324       _ui64tow_s                 000000006407e324 f   libucrt:xtoa.obj
 0001:0007d388       _tolower_l                 000000006407e388 f   libucrt:tolower_toupper.obj
 0001:0007d4c8       tolower                    000000006407e4c8 f   libucrt:tolower_toupper.obj
 0001:0007d4f4       ??$is_overflow_condition@K@__crt_strtox@@YA_NIK@Z 000000006407e4f4 f i libucrt:atox.obj
 0001:0007d520       ??$make_c_string_character_source@D$$T@__crt_strtox@@YA?AV?$c_string_character_source@D@0@QEBD$$T@Z 000000006407e520 f i libucrt:atox.obj
 0001:0007d520       ??$make_c_string_character_source@DPEAPEAD@__crt_strtox@@YA?AV?$c_string_character_source@D@0@QEBDQEAPEAD@Z 000000006407e520 f i libucrt:strtox.obj
 0001:0007d520       ??$make_c_string_character_source@_W$$T@__crt_strtox@@YA?AV?$c_string_character_source@_W@0@QEB_W$$T@Z 000000006407e520 f i libucrt:atox.obj
 0001:0007d534       ??$parse_integer@KV?$c_string_character_source@D@__crt_strtox@@@__crt_strtox@@YAKQEAU__crt_locale_pointers@@V?$c_string_character_source@D@0@H_N@Z 000000006407e534 f i libucrt:atox.obj
 0001:0007d848       ??$parse_integer@KV?$c_string_character_source@_W@__crt_strtox@@@__crt_strtox@@YAKQEAU__crt_locale_pointers@@V?$c_string_character_source@_W@0@H_N@Z 000000006407e848 f i libucrt:atox.obj
 0001:0007df1c       _wtol                      000000006407ef1c f   libucrt:atox.obj
 0001:0007df1c       _wtoi                      000000006407ef1c f   libucrt:atox.obj
 0001:0007df48       atol                       000000006407ef48 f   libucrt:atox.obj
 0001:0007df74       __acrt_initialize_heap     000000006407ef74 f   libucrt:heap_handle.obj
 0001:0007df90       __acrt_uninitialize_heap   000000006407ef90 f   libucrt:heap_handle.obj
 0001:0007df9c       _get_heap_handle           000000006407ef9c f   libucrt:heap_handle.obj
 0001:0007dfa4       __ascii_memicmp            000000006407efa4 f   libucrt:memicmp.obj
 0001:0007dff0       _memicmp                   000000006407eff0 f   libucrt:memicmp.obj
 0001:0007e044       _memicmp_l                 000000006407f044 f   libucrt:memicmp.obj
 0001:0007e124       __acrt_errno_from_os_error 000000006407f124 f   libucrt:errno.obj
 0001:0007e16c       __acrt_errno_map_os_error  000000006407f16c f   libucrt:errno.obj
 0001:0007e1bc       __doserrno                 000000006407f1bc f   libucrt:errno.obj
 0001:0007e1dc       _errno                     000000006407f1dc f   libucrt:errno.obj
 0001:0007e2e4       setlocale                  000000006407f2e4 f   libucrt:setlocale.obj
 0001:0007e4b0       __acrt_initialize_locks    000000006407f4b0 f   libucrt:locks.obj
 0001:0007e4f8       __acrt_lock                000000006407f4f8 f   libucrt:locks.obj
 0001:0007e514       __acrt_uninitialize_locks  000000006407f514 f   libucrt:locks.obj
 0001:0007e54c       __acrt_unlock              000000006407f54c f   libucrt:locks.obj
 0001:0007e568       _lock_locales              000000006407f568 f   libucrt:locks.obj
 0001:0007e578       _unlock_locales            000000006407f578 f   libucrt:locks.obj
 0001:0007e588       ___lc_codepage_func        000000006407f588 f   libucrt:initctype.obj
 0001:0007e5b8       ___lc_locale_name_func     000000006407f5b8 f   libucrt:initctype.obj
 0001:0007e5ec       ___mb_cur_max_func         000000006407f5ec f   libucrt:initctype.obj
 0001:0007e61c       __acrt_locale_initialize_ctype 000000006407f61c f   libucrt:initctype.obj
 0001:0007ec68       _ismbblead                 000000006407fc68 f   libucrt:ismbbyte.obj
 0001:0007ec7c       _calloc_base               000000006407fc7c f   libucrt:calloc_base.obj
 0001:0007ecf4       __pctype_func              000000006407fcf4 f   libucrt:ctype.obj
 0001:0007ed24       isdigit                    000000006407fd24 f i libucrt:_ctype.obj
 0001:0007ed98       _wcsdup                    000000006407fd98 f   libucrt:wcsdup.obj
 0001:0007ee1c       abort                      000000006407fe1c f   libucrt:abort.obj
 0001:0007ee74       _malloc_base               000000006407fe74 f   libucrt:malloc_base.obj
 0001:0007eed4       _realloc_base              000000006407fed4 f   libucrt:realloc_base.obj
 0001:0007ef58       __strncnt                  000000006407ff58 f   libucrt:strncnt.obj
 0001:0007ef70       _free_base                 000000006407ff70 f   libucrt:free_base.obj
 0001:0007efb0       strnlen                    000000006407ffb0 f   libucrt:strnlen.obj
 0001:0007f10c       wcsnlen                    000000006408010c f   libucrt:strnlen.obj
 0001:0007f2fc       __acrt_initialize_new_handler 00000000640802fc f   libucrt:new_handler.obj
 0001:0007f304       _callnewh                  0000000064080304 f   libucrt:new_handler.obj
 0001:0007f344       _query_new_handler         0000000064080344 f   libucrt:new_handler.obj
 0001:0007f378       _seh_filter_dll            0000000064080378 f   libucrt:exception_filter.obj
 0001:0007f38c       _seh_filter_exe            000000006408038c f   libucrt:exception_filter.obj
 0001:0007f74c       __acrt_initialize_thread_local_exit_callback 000000006408074c f   libucrt:exit.obj
 0001:0007f754       _cexit                     0000000064080754 f   libucrt:exit.obj
 0001:0007f764       _exit                      0000000064080764 f   libucrt:exit.obj
 0001:0007f770       _is_c_termination_complete 0000000064080770 f   libucrt:exit.obj
 0001:0007f95c       __dcrt_uninitialize_environments_nolock 000000006408095c f   libucrt:environment_initialization.obj
 0001:0007f994       _initialize_narrow_environment 0000000064080994 f   libucrt:environment_initialization.obj
 0001:0007f99c       ??$?RV<lambda_b8c45f8f788dd370798f47cfe8ac3a86>@@AEAV<lambda_4e60a939b0d047cfe11ddc22648dfba9>@@V<lambda_332c3edc96d0294ec56c57d38c1cdfd5>@@@?$__crt_seh_guarded_call@H@@QEAAH$$QEAV<lambda_b8c45f8f788dd370798f47cfe8ac3a86>@@AEAV<lambda_4e60a939b0d047cfe11ddc22648dfba9>@@$$QEAV<lambda_332c3edc96d0294ec56c57d38c1cdfd5>@@@Z 000000006408099c f i libucrt:onexit.obj
 0001:0007f9d8       ??$?RV<lambda_e24bbb7b643b32fcea6fa61b31d4c984>@@AEAV<lambda_275893d493268fdec8709772e3fcec0e>@@V<lambda_9d71df4d7cf3f480f8d633942495c3b0>@@@?$__crt_seh_guarded_call@H@@QEAAH$$QEAV<lambda_e24bbb7b643b32fcea6fa61b31d4c984>@@AEAV<lambda_275893d493268fdec8709772e3fcec0e>@@$$QEAV<lambda_9d71df4d7cf3f480f8d633942495c3b0>@@@Z 00000000640809d8 f i libucrt:onexit.obj
 0001:0007fd54       _crt_atexit                0000000064080d54 f   libucrt:onexit.obj
 0001:0007fd64       _execute_onexit_table      0000000064080d64 f   libucrt:onexit.obj
 0001:0007fda0       _initialize_onexit_table   0000000064080da0 f   libucrt:onexit.obj
 0001:0007fde0       _register_onexit_function  0000000064080de0 f   libucrt:onexit.obj
 0001:0007fe70       __acrt_uninitialize_command_line 0000000064080e70 f   libucrt:argv_data.obj
 0001:0007ff60       __acrt_initialize          0000000064080f60 f   libucrt:initialization.obj
 0001:0007ff74       __acrt_thread_attach       0000000064080f74 f   libucrt:initialization.obj
 0001:0007ff88       __acrt_thread_detach       0000000064080f88 f   libucrt:initialization.obj
 0001:0007ff98       __acrt_uninitialize        0000000064080f98 f   libucrt:initialization.obj
 0001:0007ffac       __acrt_uninitialize_critical 0000000064080fac f   libucrt:initialization.obj
 0001:0007ffbc       terminate                  0000000064080fbc f   libucrt:terminate.obj
 0001:0007ffe4       _initterm                  0000000064080fe4 f   libucrt:initterm.obj
 0001:0008005c       _initterm_e                000000006408105c f   libucrt:initterm.obj
 0001:000800a8       strcpy_s                   00000000640810a8 f   libucrt:strcpy_s.obj
 0001:00080108       ??$?RV<lambda_46352004c1216016012b18bd6f87e700>@@AEAV<lambda_3bd07e1a1191394380780325891bf33f>@@V<lambda_334532d3f185bcaa59b5be82d7d22bff>@@@?$__crt_seh_guarded_call@X@@QEAAX$$QEAV<lambda_46352004c1216016012b18bd6f87e700>@@AEAV<lambda_3bd07e1a1191394380780325891bf33f>@@$$QEAV<lambda_334532d3f185bcaa59b5be82d7d22bff>@@@Z 0000000064081108 f i libucrt:per_thread_data.obj
 0001:00080168       ??$?RV<lambda_5e887d1dcbef67a5eb4283622ba103bf>@@AEAV<lambda_4466841279450cc726390878d4a41900>@@V<lambda_341c25c0346d94847f1f3c463c57e077>@@@?$__crt_seh_guarded_call@X@@QEAAX$$QEAV<lambda_5e887d1dcbef67a5eb4283622ba103bf>@@AEAV<lambda_4466841279450cc726390878d4a41900>@@$$QEAV<lambda_341c25c0346d94847f1f3c463c57e077>@@@Z 0000000064081168 f i libucrt:per_thread_data.obj
 0001:000801b0       ??$?RV<lambda_72d1df2b273a38828b1ce30cbf4cdab5>@@AEAV<lambda_876a65b173b8412d3a47c70a915b0cf4>@@V<lambda_41932305e351933ebe8f8be3ed8bb5dc>@@@?$__crt_seh_guarded_call@X@@QEAAX$$QEAV<lambda_72d1df2b273a38828b1ce30cbf4cdab5>@@AEAV<lambda_876a65b173b8412d3a47c70a915b0cf4>@@$$QEAV<lambda_41932305e351933ebe8f8be3ed8bb5dc>@@@Z 00000000640811b0 f i libucrt:per_thread_data.obj
 0001:000801f0       ??$?RV<lambda_fb3a7dec4e47f37f22dae91bb15c9095>@@AEAV<lambda_698284760c8add0bfb0756c19673e34b>@@V<lambda_dfb8eca1e75fef3034a8fb18dd509707>@@@?$__crt_seh_guarded_call@X@@QEAAX$$QEAV<lambda_fb3a7dec4e47f37f22dae91bb15c9095>@@AEAV<lambda_698284760c8add0bfb0756c19673e34b>@@$$QEAV<lambda_dfb8eca1e75fef3034a8fb18dd509707>@@@Z 00000000640811f0 f i libucrt:per_thread_data.obj
 0001:00080480       __acrt_freeptd             0000000064081480 f   libucrt:per_thread_data.obj
 0001:000804c4       __acrt_getptd              00000000640814c4 f   libucrt:per_thread_data.obj
 0001:00080558       __acrt_getptd_noexit       0000000064081558 f   libucrt:per_thread_data.obj
 0001:000805f8       __acrt_initialize_ptd      00000000640815f8 f   libucrt:per_thread_data.obj
 0001:00080634       __acrt_uninitialize_ptd    0000000064081634 f   libucrt:per_thread_data.obj
 0001:00080658       _towlower_l                0000000064081658 f   libucrt:towlower.obj
 0001:0008071c       __acrt_update_locale_info  000000006408171c f   libucrt:locale_update.obj
 0001:00080750       __acrt_update_multibyte_info 0000000064081750 f   libucrt:locale_update.obj
 0001:00080784       ??$?RV<lambda_5df02c53a8f32f81fd64e5bbb78039f1>@@AEAV<lambda_2af78c5f5901b1372d98f9ab3177dfa6>@@AEAV<lambda_f51fe5fd7c79a33db34fc9310f277369>@@@?$__crt_seh_guarded_call@X@@QEAAX$$QEAV<lambda_5df02c53a8f32f81fd64e5bbb78039f1>@@AEAV<lambda_2af78c5f5901b1372d98f9ab3177dfa6>@@AEAV<lambda_f51fe5fd7c79a33db34fc9310f277369>@@@Z 0000000064081784 f i libucrt:wsetlocale.obj
 0001:000807b0       ??$?RV<lambda_d67e8342c384adda8f857579ab50b2ae>@@AEAV<lambda_30712929f77e709619002f448b6a9510>@@V<lambda_4525336fd7e478d965fb7ca7a337cad8>@@@?$__crt_seh_guarded_call@X@@QEAAX$$QEAV<lambda_d67e8342c384adda8f857579ab50b2ae>@@AEAV<lambda_30712929f77e709619002f448b6a9510>@@$$QEAV<lambda_4525336fd7e478d965fb7ca7a337cad8>@@@Z 00000000640817b0 f i libucrt:wsetlocale.obj
 0001:0008097c       __acrt_copy_locale_name    000000006408197c f   libucrt:wsetlocale.obj
 0001:00080a00       __acrt_set_locale_changed  0000000064081a00 f   libucrt:wsetlocale.obj
 0001:00080a0c       __acrt_uninitialize_locale 0000000064081a0c f   libucrt:wsetlocale.obj
 0001:00080a54       __lc_lctowcs               0000000064081a54 f   libucrt:wsetlocale.obj
 0001:00080af8       __lc_wcstolc               0000000064081af8 f   libucrt:wsetlocale.obj
 0001:00080d70       _expandlocale              0000000064081d70 f   libucrt:wsetlocale.obj
 0001:0008116c       _wcscats                   000000006408216c f   libucrt:wsetlocale.obj
 0001:000811d4       _wsetlocale                00000000640821d4 f   libucrt:wsetlocale.obj
 0001:00081a20       strtol                     0000000064082a20 f   libucrt:strtox.obj
 0001:00081a50       _mbtowc_l                  0000000064082a50 f   libucrt:mbtowc.obj
 0001:00081b98       mbtowc                     0000000064082b98 f   libucrt:mbtowc.obj
 0001:00081ba0       _wctomb_s_l                0000000064082ba0 f   libucrt:wctomb.obj
 0001:00081d24       wctomb_s                   0000000064082d24 f   libucrt:wctomb.obj
 0001:00081d38       ?__acrt_fp_classify@@YA?AW4__acrt_fp_class@@AEBN@Z 0000000064082d38 f i libucrt:cvt.obj
 0001:00082770       __acrt_fp_format           0000000064083770 f   libucrt:cvt.obj
 0001:000829b4       _fileno                    00000000640839b4 f   libucrt:fileno.obj
 0001:000829dc       __acrt_initialize_stdio    00000000640839dc f   libucrt:_file.obj
 0001:00082afc       __acrt_uninitialize_stdio  0000000064083afc f   libucrt:_file.obj
 0001:00082b58       _lock_file                 0000000064083b58 f   libucrt:_file.obj
 0001:00082b64       _unlock_file               0000000064083b64 f   libucrt:_file.obj
 0001:00082b70       _get_printf_count_output   0000000064083b70 f   libucrt:printf_count_output.obj
 0001:00082d70       __acrt_initialize_lowio    0000000064083d70 f   libucrt:ioinit.obj
 0001:00082dac       __acrt_uninitialize_lowio  0000000064083dac f   libucrt:ioinit.obj
 0001:00082dec       _dsign                     0000000064083dec f   libucrt:nan.obj
 0001:00082e04       _errcode                   0000000064083e04 f   libucrt:fpexcept.obj
 0001:00082e48       _except1                   0000000064083e48 f   libucrt:fpexcept.obj
 0001:00082f3c       _handle_exc                0000000064083f3c f   libucrt:fpexcept.obj
 0001:000831a4       _raise_exc                 00000000640841a4 f   libucrt:fpexcept.obj
 0001:000831cc       _raise_exc_ex              00000000640841cc f   libucrt:fpexcept.obj
 0001:000834d4       _set_errno_from_matherr    00000000640844d4 f   libucrt:fpexcept.obj
 0001:00083504       _umatherr                  0000000064084504 f   libucrt:fpexcept.obj
 0001:000835d8       _decomp                    00000000640845d8 f   libucrt:util.obj
 0001:0008370c       _sptype                    000000006408470c f   libucrt:util.obj
 0001:00083780       _clrfp                     0000000064084780 f   libucrt:fpctrl.obj
 0001:000837a0       _ctrlfp                    00000000640847a0 f   libucrt:fpctrl.obj
 0001:0008381c       _set_statfp                000000006408481c f   libucrt:fpctrl.obj
 0001:0008383c       _statfp                    000000006408483c f   libucrt:fpctrl.obj
 0001:00083850       _isleadbyte_l              0000000064084850 f i libucrt:_wctype.obj
 0001:00083890       _isctype_l                 0000000064084890 f   libucrt:isctype.obj
 0001:00083cfc       __acrt_LCMapStringA        0000000064084cfc f   libucrt:lcmapstringa.obj
 0001:00083d94       iswctype                   0000000064084d94 f   libucrt:iswctype.obj
 0001:00083fe0       _mbstowcs_s_l              0000000064084fe0 f   libucrt:mbstowcs.obj
 0001:00084110       mbstowcs_s                 0000000064085110 f   libucrt:mbstowcs.obj
 0001:00084464       _wcstombs_s_l              0000000064085464 f   libucrt:wcstombs.obj
 0001:00084594       ??$?RV<lambda_630b2aca97f6d20d5b5ea6529ea6b6af>@@AEAV<lambda_af91936f1d075d609f72d9d8cba980af>@@V<lambda_e82fa975f615b5c7c7b0e4d178fdae67>@@@?$__crt_seh_guarded_call@H@@QEAAH$$QEAV<lambda_630b2aca97f6d20d5b5ea6529ea6b6af>@@AEAV<lambda_af91936f1d075d609f72d9d8cba980af>@@$$QEAV<lambda_e82fa975f615b5c7c7b0e4d178fdae67>@@@Z 0000000064085594 f i libucrt:winapi_thunks.obj
 0001:000847cc       __acrt_EnumSystemLocalesEx 00000000640857cc f   libucrt:winapi_thunks.obj
 0001:00084874       __acrt_FlsAlloc            0000000064085874 f   libucrt:winapi_thunks.obj
 0001:000848cc       __acrt_FlsFree             00000000640858cc f   libucrt:winapi_thunks.obj
 0001:00084924       __acrt_FlsGetValue         0000000064085924 f   libucrt:winapi_thunks.obj
 0001:0008497c       __acrt_FlsSetValue         000000006408597c f   libucrt:winapi_thunks.obj
 0001:000849e4       __acrt_GetLocaleInfoEx     00000000640859e4 f   libucrt:winapi_thunks.obj
 0001:00084a7c       __acrt_GetUserDefaultLocaleName 0000000064085a7c f   libucrt:winapi_thunks.obj
 0001:00084af0       __acrt_InitializeCriticalSectionEx 0000000064085af0 f   libucrt:winapi_thunks.obj
 0001:00084b68       __acrt_IsValidLocaleName   0000000064085b68 f   libucrt:winapi_thunks.obj
 0001:00084bd0       __acrt_LCIDToLocaleName    0000000064085bd0 f   libucrt:winapi_thunks.obj
 0001:00084c5c       __acrt_LCMapStringEx       0000000064085c5c f   libucrt:winapi_thunks.obj
 0001:00084d4c       __acrt_LocaleNameToLCID    0000000064085d4c f   libucrt:winapi_thunks.obj
 0001:00084db4       __acrt_can_use_vista_locale_apis 0000000064085db4 f   libucrt:winapi_thunks.obj
 0001:00084de4       __acrt_initialize_winapi_thunks 0000000064085de4 f   libucrt:winapi_thunks.obj
 0001:00084e1c       __acrt_is_packaged_app     0000000064085e1c f   libucrt:winapi_thunks.obj
 0001:00084ea4       __acrt_uninitialize_winapi_thunks 0000000064085ea4 f   libucrt:winapi_thunks.obj
 0001:00085088       __acrt_GetLocaleInfoA      0000000064086088 f   libucrt:getlocaleinfoa.obj
 0001:00085250       __acrt_GetStringTypeA      0000000064086250 f   libucrt:getstringtypea.obj
 0001:00085404       _query_new_mode            0000000064086404 f   libucrt:new_mode.obj
 0001:0008540c       ??$?RV<lambda_c36588078e9f5dfd39652860aa6b3aaf>@@AEAV<lambda_ec61778202f4f5fc7e7711acc23c3bca>@@V<lambda_dc9d2797ccde5d239b4a0efae8ebd7db>@@@?$__crt_seh_guarded_call@P6AXH@Z@@QEAAP6AXH@Z$$QEAV<lambda_c36588078e9f5dfd39652860aa6b3aaf>@@AEAV<lambda_ec61778202f4f5fc7e7711acc23c3bca>@@$$QEAV<lambda_dc9d2797ccde5d239b4a0efae8ebd7db>@@@Z 000000006408640c f i libucrt:signal.obj
 0001:00085454       __acrt_get_sigabrt_handler 0000000064086454 f   libucrt:signal.obj
 0001:00085484       __acrt_initialize_signal_handlers 0000000064086484 f   libucrt:signal.obj
 0001:000854a4       raise                      00000000640864a4 f   libucrt:signal.obj
 0001:00085740       __acrt_initialize_timeset  0000000064086740 f   libucrt:timeset.obj
 0001:00085894       _handle_error              0000000064086894 f   libucrt:libm_error.obj
 0001:000859bc       _handle_nan                00000000640869bc f   libucrt:libm_error.obj
 0001:000859d8       ??$?RV<lambda_99476a1ad63dd22509b5d3e65b0ffc95>@@AEAV<lambda_ad1ced32f4ac17aa236e5ef05d6b3b7c>@@V<lambda_f7424dd8d45958661754dc4f2697e9c3>@@@?$__crt_seh_guarded_call@X@@QEAAX$$QEAV<lambda_99476a1ad63dd22509b5d3e65b0ffc95>@@AEAV<lambda_ad1ced32f4ac17aa236e5ef05d6b3b7c>@@$$QEAV<lambda_f7424dd8d45958661754dc4f2697e9c3>@@@Z 00000000640869d8 f i libucrt:mbctype.obj
 0001:000860d4       __acrt_initialize_multibyte 00000000640870d4 f   libucrt:mbctype.obj
 0001:000860fc       __acrt_update_thread_multibyte_data 00000000640870fc f   libucrt:mbctype.obj
 0001:000861bc       _setmbcp_nolock            00000000640871bc f   libucrt:mbctype.obj
 0001:00086464       __dcrt_get_narrow_environment_from_os 0000000064087464 f   libucrt:get_environment_from_os.obj
 0001:00086568       _recalloc                  0000000064087568 f   libucrt:recalloc.obj
 0001:00086570       _recalloc_base             0000000064087570 f   libucrt:recalloc.obj
 0001:00086608       __acrt_initialize_command_line 0000000064087608 f   libucrt:argv_data.obj
 0001:00086630       __acrt_execute_initializers 0000000064087630 f   libucrt:shared_initialization.obj
 0001:000866c4       __acrt_execute_uninitializers 00000000640876c4 f   libucrt:shared_initialization.obj
 0001:00086714       __acrt_has_user_matherr    0000000064087714 f   libucrt:matherr.obj
 0001:00086734       __acrt_initialize_user_matherr 0000000064087734 f   libucrt:matherr.obj
 0001:0008673c       __acrt_invoke_user_matherr 000000006408773c f   libucrt:matherr.obj
 0001:00086784       __acrt_add_locale_ref      0000000064087784 f   libucrt:locale_refcounting.obj
 0001:00086810       __acrt_free_locale         0000000064087810 f   libucrt:locale_refcounting.obj
 0001:00086988       __acrt_locale_add_lc_time_reference 0000000064087988 f   libucrt:locale_refcounting.obj
 0001:000869b0       __acrt_locale_free_lc_time_if_unreferenced 00000000640879b0 f   libucrt:locale_refcounting.obj
 0001:000869e8       __acrt_locale_release_lc_time_reference 00000000640879e8 f   libucrt:locale_refcounting.obj
 0001:00086a10       __acrt_release_locale_ref  0000000064087a10 f   libucrt:locale_refcounting.obj
 0001:00086ab8       __acrt_update_thread_locale_data 0000000064087ab8 f   libucrt:locale_refcounting.obj
 0001:00086b28       _updatetlocinfoEx_nolock   0000000064087b28 f   libucrt:locale_refcounting.obj
 0001:00086b90       __acrt_LCMapStringW        0000000064087b90 f   libucrt:lcmapstringw.obj
 0001:00086c18       __acrt_locale_free_monetary 0000000064087c18 f   libucrt:initmon.obj
 0001:00086d24       __acrt_locale_initialize_monetary 0000000064087d24 f   libucrt:initmon.obj
 0001:0008725c       __acrt_locale_free_numeric 000000006408825c f   libucrt:initnum.obj
 0001:000872c8       __acrt_locale_initialize_numeric 00000000640882c8 f   libucrt:initnum.obj
 0001:0008794c       __acrt_locale_free_time    000000006408894c f   libucrt:inittime.obj
 0001:00087a54       __acrt_locale_initialize_time 0000000064088a54 f   libucrt:inittime.obj
 0001:00087ae8       wcscat_s                   0000000064088ae8 f   libucrt:wcscat_s.obj
 0001:00087b68       wcsncpy_s                  0000000064088b68 f   libucrt:wcsncpy_s.obj
 0001:00087c4c       wcscspn                    0000000064088c4c f   libucrt:wcscspn.obj
 0001:00087c8c       wcsncmp                    0000000064088c8c f   libucrt:wcsncmp.obj
 0001:00087cb8       wcspbrk                    0000000064088cb8 f   libucrt:wcspbrk.obj
 0001:0008855c       __acrt_get_qualified_locale 000000006408955c f   libucrt:get_qualified_locale.obj
 0001:00088f48       __acrt_get_qualified_locale_downlevel 0000000064089f48 f   libucrt:getqloc_downlevel.obj
 0001:000891d8       __acrt_fp_strflt_to_string 000000006408a1d8 f   libucrt:_fptostr.obj
 0001:000892a0       ?divide@__crt_strtox@@YA_KAEAUbig_integer@1@AEBU21@@Z 000000006408a2a0 f i libucrt:cfout.obj
 0001:00089770       __acrt_fltout              000000006408a770 f   libucrt:cfout.obj
 0001:0008ab64       _fcloseall                 000000006408bb64 f   libucrt:closeall.obj
 0001:0008ac18       __acrt_stdio_flush_nolock  000000006408bc18 f   libucrt:fflush.obj
 0001:0008ac90       _fflush_nolock             000000006408bc90 f   libucrt:fflush.obj
 0001:0008acdc       _flushall                  000000006408bcdc f   libucrt:fflush.obj
 0001:0008adcc       __acrt_stdio_free_buffer_nolock 000000006408bdcc f   libucrt:_freebuf.obj
 0001:0008ae0c       _isatty                    000000006408be0c f   libucrt:isatty.obj
 0001:0008ae6c       __acrt_lowio_create_handle_array 000000006408be6c f   libucrt:osfinfo.obj
 0001:0008af04       __acrt_lowio_destroy_handle_array 000000006408bf04 f   libucrt:osfinfo.obj
 0001:0008af54       __acrt_lowio_ensure_fh_exists 000000006408bf54 f   libucrt:osfinfo.obj
 0001:0008b00c       __acrt_lowio_lock_fh       000000006408c00c f   libucrt:osfinfo.obj
 0001:0008b030       __acrt_lowio_unlock_fh     000000006408c030 f   libucrt:osfinfo.obj
 0001:0008b054       _free_osfhnd               000000006408c054 f   libucrt:osfinfo.obj
 0001:0008b110       _get_osfhandle             000000006408c110 f   libucrt:osfinfo.obj
 0001:0008b1a0       _get_fpsr                  000000006408c1a0 f   libucrt:fpsr.obj
 0001:0008b1b0       _set_fpsr                  000000006408c1b0 f   libucrt:fpsr.obj
 0001:0008b1ba       _fclrf                     000000006408c1ba f   libucrt:fpsr.obj
 0001:0008b1ce       _frnd                      000000006408c1ce f   libucrt:fpsr.obj
 0001:0008b2b8       __acrt_DownlevelLCIDToLocaleName 000000006408c2b8 f   libucrt:lcidtoname_downlevel.obj
 0001:0008b39c       __acrt_DownlevelLocaleNameToLCID 000000006408c39c f   libucrt:lcidtoname_downlevel.obj
 0001:0008b3d0       strncpy_s                  000000006408c3d0 f   libucrt:strncpy_s.obj
 0001:0008b4bc       _msize                     000000006408c4bc f   libucrt:msize.obj
 0001:0008b4f8       _wcsnicmp                  000000006408c4f8 f   libucrt:wcsnicmp.obj
 0001:0008b594       _wcsnicmp_l                000000006408c594 f   libucrt:wcsnicmp.obj
 0001:0008b6ac       wcscmp                     000000006408c6ac f   libucrt:wcscmp.obj
 0001:0008b6e4       fegetenv                   000000006408c6e4 f   libucrt:fegetenv.obj
 0001:0008b704       fesetenv                   000000006408c704 f   libucrt:fesetenv.obj
 0001:0008b750       feholdexcept               000000006408c750 f   libucrt:feholdexcept.obj
 0001:0008b7a0       ceil                       000000006408c7a0 f   libucrt:ceil.obj
 0001:0008b870       log10                      000000006408c870 f   libucrt:log10.obj
 0001:0008c3bc       _write                     000000006408d3bc f   libucrt:write.obj
 0001:0008c4a8       _write_nolock              000000006408d4a8 f   libucrt:write.obj
 0001:0008c828       _lseeki64_nolock           000000006408d828 f   libucrt:lseek.obj
 0001:0008c830       _fclose_nolock             000000006408d830 f   libucrt:fclose.obj
 0001:0008c8b4       fclose                     000000006408d8b4 f   libucrt:fclose.obj
 0001:0008c920       ??$?RV<lambda_b521505b218e5242e90febf6bfebc422>@@AEAV<lambda_6978c1fb23f02e42e1d9e99668cc68aa>@@V<lambda_314360699dd331753a4119843814e9a7>@@@?$__crt_seh_guarded_call@H@@QEAAH$$QEAV<lambda_b521505b218e5242e90febf6bfebc422>@@AEAV<lambda_6978c1fb23f02e42e1d9e99668cc68aa>@@$$QEAV<lambda_314360699dd331753a4119843814e9a7>@@@Z 000000006408d920 f i libucrt:commit.obj
 0001:0008c9ac       _commit                    000000006408d9ac f   libucrt:commit.obj
 0001:0008ca40       _query_app_type            000000006408da40 f   libucrt:report_runtime_error.obj
 0001:0008ca48       _getfpcontrolword          000000006408da48 f   libucrt:_fenvutils.obj
 0001:0008ca60       _getfpstatusword           000000006408da60 f   libucrt:_fenvutils.obj
 0001:0008ca74       _setfpcontrolword          000000006408da74 f   libucrt:_fenvutils.obj
 0001:0008ca80       _setfpstatusword           000000006408da80 f   libucrt:_fenvutils.obj
 0001:0008cad0       _clearfp                   000000006408dad0 f   libucrt:ieee.obj
 0001:0008cb24       _controlfp                 000000006408db24 f   libucrt:ieee.obj
 0001:0008cb30       _statusfp                  000000006408db30 f   libucrt:ieee.obj
 0001:0008ce10       __acrt_initialize_fma3     000000006408de10 f   libucrt:fma3_available.obj
 0001:0008ce80       _log10_special             000000006408de80 f   libucrt:log_special.obj
 0001:0008cf38       _putwch_nolock             000000006408df38 f   libucrt:putwch.obj
 0001:0008cf94       ??$?RV<lambda_bfedae4ebbf01fab1bb6dcc6a9e276e0>@@AEAV<lambda_2fe9b910cf3cbf4a0ab98a02ba45b3ec>@@V<lambda_237c231691f317818eb88cc1d5d642d6>@@@?$__crt_seh_guarded_call@H@@QEAAH$$QEAV<lambda_bfedae4ebbf01fab1bb6dcc6a9e276e0>@@AEAV<lambda_2fe9b910cf3cbf4a0ab98a02ba45b3ec>@@$$QEAV<lambda_237c231691f317818eb88cc1d5d642d6>@@@Z 000000006408df94 f i libucrt:close.obj
 0001:0008d008       _close                     000000006408e008 f   libucrt:close.obj
 0001:0008d0ac       _close_nolock              000000006408e0ac f   libucrt:close.obj
 0001:0008d168       ?__acrt_stdio_free_stream@@YAXV__crt_stdio_stream@@@Z 000000006408e168 f   libucrt:stream.obj
 0001:0008d1ac       __dcrt_lowio_initialize_console_output 000000006408e1ac f   libucrt:initcon.obj
 0001:0008d1e8       __dcrt_terminate_console_output 000000006408e1e8 f   libucrt:initcon.obj
 0001:0008d208       SystemFunction036          000000006408e208 f   advapi32:ADVAPI32.dll
 0001:0008d210       _FindPESection             000000006408e210 f   LIBCMT:pesect.obj
 0001:0008d260       _IsNonwritableInCurrentImage 000000006408e260 f   LIBCMT:pesect.obj
 0001:0008d2b0       _ValidateImageBase         000000006408e2b0 f   LIBCMT:pesect.obj
 0001:0008d2de       RtlUnwindEx                000000006408e2de f   kernel32:KERNEL32.dll
 0001:0008d2e4       strrchr                    000000006408e2e4 f   libvcruntime:strrchr.obj
 0001:0008d428       wcschr                     000000006408e428 f   libvcruntime:wcschr.obj
 0001:0008d4d0       _guard_dispatch_icall_nop  000000006408e4d0 f   LIBCMT:_guard_dispatch_.obj
 0001:0009a380       ??__Fbatch_options@?1??extract@Plugin@@QEAAXAEBVPluginPanelItemAccessor@1@AEAV?$basic_string@_WU?$char_traits@_W@std@@V?$allocator@_W@2@@std@@_N_K@Z@YAXXZ 000000006409b380 f i plugin.obj
 0001:0009a3b0       ??__F_Static@?1???$_Immortalize@V_Iostream_error_category@std@@@std@@YAAEAV_Iostream_error_category@0@XZ@YAXXZ 000000006409b3b0 f i ui.obj
 0002:00000000       __imp_SystemFunction036    000000006409c000     advapi32:ADVAPI32.dll
 0002:00000008       __imp_RegCloseKey          000000006409c008     advapi32:ADVAPI32.dll
 0002:00000010       __imp_RegOpenKeyExW        000000006409c010     advapi32:ADVAPI32.dll
 0002:00000018       __imp_RegQueryValueExW     000000006409c018     advapi32:ADVAPI32.dll
 0002:00000020       \177ADVAPI32_NULL_THUNK_DATA 000000006409c020     advapi32:ADVAPI32.dll
 0002:00000028       __imp_WriteConsoleW        000000006409c028     kernel32:KERNEL32.dll
 0002:00000030       __imp_FlushFileBuffers     000000006409c030     kernel32:KERNEL32.dll
 0002:00000038       __imp_GetConsoleMode       000000006409c038     kernel32:KERNEL32.dll
 0002:00000040       __imp_GetConsoleCP         000000006409c040     kernel32:KERNEL32.dll
 0002:00000048       __imp_HeapSize             000000006409c048     kernel32:KERNEL32.dll
 0002:00000050       __imp_SetStdHandle         000000006409c050     kernel32:KERNEL32.dll
 0002:00000058       __imp_GetCommandLineW      000000006409c058     kernel32:KERNEL32.dll
 0002:00000060       __imp_GetCommandLineA      000000006409c060     kernel32:KERNEL32.dll
 0002:00000068       __imp_FreeEnvironmentStringsW 000000006409c068     kernel32:KERNEL32.dll
 0002:00000070       __imp_GetEnvironmentStringsW 000000006409c070     kernel32:KERNEL32.dll
 0002:00000078       __imp_FreeLibrary          000000006409c078     kernel32:KERNEL32.dll
 0002:00000080       __imp_LoadLibraryW         000000006409c080     kernel32:KERNEL32.dll
 0002:00000088       __imp_GetProcAddress       000000006409c088     kernel32:KERNEL32.dll
 0002:00000090       __imp_lstrcmpiW            000000006409c090     kernel32:KERNEL32.dll
 0002:00000098       __imp_QueryPerformanceCounter 000000006409c098     kernel32:KERNEL32.dll
 0002:000000a0       __imp_QueryPerformanceFrequency 000000006409c0a0     kernel32:KERNEL32.dll
 0002:000000a8       __imp_GetPriorityClass     000000006409c0a8     kernel32:KERNEL32.dll
 0002:000000b0       __imp_GetCurrentProcess    000000006409c0b0     kernel32:KERNEL32.dll
 0002:000000b8       __imp_SetConsoleTitleW     000000006409c0b8     kernel32:KERNEL32.dll
 0002:000000c0       __imp_GetStdHandle         000000006409c0c0     kernel32:KERNEL32.dll
 0002:000000c8       __imp_PeekConsoleInputW    000000006409c0c8     kernel32:KERNEL32.dll
 0002:000000d0       __imp_ReadConsoleInputW    000000006409c0d0     kernel32:KERNEL32.dll
 0002:000000d8       __imp_SetPriorityClass     000000006409c0d8     kernel32:KERNEL32.dll
 0002:000000e0       __imp_CompareFileTime      000000006409c0e0     kernel32:KERNEL32.dll
 0002:000000e8       __imp_EnterCriticalSection 000000006409c0e8     kernel32:KERNEL32.dll
 0002:000000f0       __imp_LeaveCriticalSection 000000006409c0f0     kernel32:KERNEL32.dll
 0002:000000f8       __imp_SetThreadExecutionState 000000006409c0f8     kernel32:KERNEL32.dll
 0002:00000100       __imp_GlobalMemoryStatus   000000006409c100     kernel32:KERNEL32.dll
 0002:00000108       __imp_VirtualAlloc         000000006409c108     kernel32:KERNEL32.dll
 0002:00000110       __imp_GetLastError         000000006409c110     kernel32:KERNEL32.dll
 0002:00000118       __imp_VirtualFree          000000006409c118     kernel32:KERNEL32.dll
 0002:00000120       __imp_GetDiskFreeSpaceW    000000006409c120     kernel32:KERNEL32.dll
 0002:00000128       __imp_DeviceIoControl      000000006409c128     kernel32:KERNEL32.dll
 0002:00000130       __imp_GetSystemTime        000000006409c130     kernel32:KERNEL32.dll
 0002:00000138       __imp_SystemTimeToFileTime 000000006409c138     kernel32:KERNEL32.dll
 0002:00000140       __imp_FileTimeToLocalFileTime 000000006409c140     kernel32:KERNEL32.dll
 0002:00000148       __imp_FileTimeToSystemTime 000000006409c148     kernel32:KERNEL32.dll
 0002:00000150       __imp_GetDateFormatW       000000006409c150     kernel32:KERNEL32.dll
 0002:00000158       __imp_GetTimeFormatW       000000006409c158     kernel32:KERNEL32.dll
 0002:00000160       __imp_FindResourceExW      000000006409c160     kernel32:KERNEL32.dll
 0002:00000168       __imp_LoadResource         000000006409c168     kernel32:KERNEL32.dll
 0002:00000170       __imp_LockResource         000000006409c170     kernel32:KERNEL32.dll
 0002:00000178       __imp_EnumResourceNamesW   000000006409c178     kernel32:KERNEL32.dll
 0002:00000180       __imp_EnumResourceLanguagesW 000000006409c180     kernel32:KERNEL32.dll
 0002:00000188       __imp_LoadLibraryExW       000000006409c188     kernel32:KERNEL32.dll
 0002:00000190       __imp_BeginUpdateResourceW 000000006409c190     kernel32:KERNEL32.dll
 0002:00000198       __imp_EndUpdateResourceW   000000006409c198     kernel32:KERNEL32.dll
 0002:000001a0       __imp_UpdateResourceW      000000006409c1a0     kernel32:KERNEL32.dll
 0002:000001a8       __imp_InitializeCriticalSection 000000006409c1a8     kernel32:KERNEL32.dll
 0002:000001b0       __imp_DeleteCriticalSection 000000006409c1b0     kernel32:KERNEL32.dll
 0002:000001b8       __imp_FormatMessageW       000000006409c1b8     kernel32:KERNEL32.dll
 0002:000001c0       __imp_GetModuleHandleW     000000006409c1c0     kernel32:KERNEL32.dll
 0002:000001c8       __imp_LocalFree            000000006409c1c8     kernel32:KERNEL32.dll
 0002:000001d0       __imp_GetConsoleTitleW     000000006409c1d0     kernel32:KERNEL32.dll
 0002:000001d8       __imp_MultiByteToWideChar  000000006409c1d8     kernel32:KERNEL32.dll
 0002:000001e0       __imp_WideCharToMultiByte  000000006409c1e0     kernel32:KERNEL32.dll
 0002:000001e8       __imp_ExpandEnvironmentStringsW 000000006409c1e8     kernel32:KERNEL32.dll
 0002:000001f0       __imp_CreateFileW          000000006409c1f0     kernel32:KERNEL32.dll
 0002:000001f8       __imp_CloseHandle          000000006409c1f8     kernel32:KERNEL32.dll
 0002:00000200       __imp_GetFileSizeEx        000000006409c200     kernel32:KERNEL32.dll
 0002:00000208       __imp_ReadFile             000000006409c208     kernel32:KERNEL32.dll
 0002:00000210       __imp_WriteFile            000000006409c210     kernel32:KERNEL32.dll
 0002:00000218       __imp_SetFileTime          000000006409c218     kernel32:KERNEL32.dll
 0002:00000220       __imp_SetFilePointerEx     000000006409c220     kernel32:KERNEL32.dll
 0002:00000228       __imp_SetEndOfFile         000000006409c228     kernel32:KERNEL32.dll
 0002:00000230       __imp_GetFileInformationByHandle 000000006409c230     kernel32:KERNEL32.dll
 0002:00000238       __imp_SetFileAttributesW   000000006409c238     kernel32:KERNEL32.dll
 0002:00000240       __imp_DeleteFileW          000000006409c240     kernel32:KERNEL32.dll
 0002:00000248       __imp_CreateDirectoryW     000000006409c248     kernel32:KERNEL32.dll
 0002:00000250       __imp_RemoveDirectoryW     000000006409c250     kernel32:KERNEL32.dll
 0002:00000258       __imp_MoveFileExW          000000006409c258     kernel32:KERNEL32.dll
 0002:00000260       __imp_FindFirstFileW       000000006409c260     kernel32:KERNEL32.dll
 0002:00000268       __imp_FindClose            000000006409c268     kernel32:KERNEL32.dll
 0002:00000270       __imp_SetLastError         000000006409c270     kernel32:KERNEL32.dll
 0002:00000278       __imp_FindNextFileW        000000006409c278     kernel32:KERNEL32.dll
 0002:00000280       __imp_GetTempPathW         000000006409c280     kernel32:KERNEL32.dll
 0002:00000288       __imp_GetTempFileNameW     000000006409c288     kernel32:KERNEL32.dll
 0002:00000290       __imp_HeapSetInformation   000000006409c290     kernel32:KERNEL32.dll
 0002:00000298       __imp_SearchPathW          000000006409c298     kernel32:KERNEL32.dll
 0002:000002a0       __imp_VirtualQuery         000000006409c2a0     kernel32:KERNEL32.dll
 0002:000002a8       __imp_VirtualProtect       000000006409c2a8     kernel32:KERNEL32.dll
 0002:000002b0       __imp_GetModuleHandleA     000000006409c2b0     kernel32:KERNEL32.dll
 0002:000002b8       __imp_GetCPInfo            000000006409c2b8     kernel32:KERNEL32.dll
 0002:000002c0       __imp_GetOEMCP             000000006409c2c0     kernel32:KERNEL32.dll
 0002:000002c8       __imp_GetACP               000000006409c2c8     kernel32:KERNEL32.dll
 0002:000002d0       __imp_GetStringTypeW       000000006409c2d0     kernel32:KERNEL32.dll
 0002:000002d8       __imp_EncodePointer        000000006409c2d8     kernel32:KERNEL32.dll
 0002:000002e0       __imp_DecodePointer        000000006409c2e0     kernel32:KERNEL32.dll
 0002:000002e8       __imp_InitializeCriticalSectionAndSpinCount 000000006409c2e8     kernel32:KERNEL32.dll
 0002:000002f0       __imp_TlsAlloc             000000006409c2f0     kernel32:KERNEL32.dll
 0002:000002f8       __imp_TlsGetValue          000000006409c2f8     kernel32:KERNEL32.dll
 0002:00000300       __imp_TlsSetValue          000000006409c300     kernel32:KERNEL32.dll
 0002:00000308       __imp_TlsFree              000000006409c308     kernel32:KERNEL32.dll
 0002:00000310       __imp_GetSystemTimeAsFileTime 000000006409c310     kernel32:KERNEL32.dll
 0002:00000318       __imp_LCMapStringW         000000006409c318     kernel32:KERNEL32.dll
 0002:00000320       __imp_GetLocaleInfoW       000000006409c320     kernel32:KERNEL32.dll
 0002:00000328       __imp_InitializeSListHead  000000006409c328     kernel32:KERNEL32.dll
 0002:00000330       __imp_RtlCaptureContext    000000006409c330     kernel32:KERNEL32.dll
 0002:00000338       __imp_RtlLookupFunctionEntry 000000006409c338     kernel32:KERNEL32.dll
 0002:00000340       __imp_RtlVirtualUnwind     000000006409c340     kernel32:KERNEL32.dll
 0002:00000348       __imp_UnhandledExceptionFilter 000000006409c348     kernel32:KERNEL32.dll
 0002:00000350       __imp_SetUnhandledExceptionFilter 000000006409c350     kernel32:KERNEL32.dll
 0002:00000358       __imp_TerminateProcess     000000006409c358     kernel32:KERNEL32.dll
 0002:00000360       __imp_IsProcessorFeaturePresent 000000006409c360     kernel32:KERNEL32.dll
 0002:00000368       __imp_IsDebuggerPresent    000000006409c368     kernel32:KERNEL32.dll
 0002:00000370       __imp_GetStartupInfoW      000000006409c370     kernel32:KERNEL32.dll
 0002:00000378       __imp_GetCurrentProcessId  000000006409c378     kernel32:KERNEL32.dll
 0002:00000380       __imp_GetCurrentThreadId   000000006409c380     kernel32:KERNEL32.dll
 0002:00000388       __imp_GetFileAttributesW   000000006409c388     kernel32:KERNEL32.dll
 0002:00000390       __imp_RtlPcToFileHeader    000000006409c390     kernel32:KERNEL32.dll
 0002:00000398       __imp_RaiseException       000000006409c398     kernel32:KERNEL32.dll
 0002:000003a0       __imp_InterlockedPushEntrySList 000000006409c3a0     kernel32:KERNEL32.dll
 0002:000003a8       __imp_InterlockedFlushSList 000000006409c3a8     kernel32:KERNEL32.dll
 0002:000003b0       __imp_RtlUnwindEx          000000006409c3b0     kernel32:KERNEL32.dll
 0002:000003b8       __imp_GetModuleFileNameW   000000006409c3b8     kernel32:KERNEL32.dll
 0002:000003c0       __imp_GetProcessHeap       000000006409c3c0     kernel32:KERNEL32.dll
 0002:000003c8       __imp_HeapAlloc            000000006409c3c8     kernel32:KERNEL32.dll
 0002:000003d0       __imp_HeapReAlloc          000000006409c3d0     kernel32:KERNEL32.dll
 0002:000003d8       __imp_HeapFree             000000006409c3d8     kernel32:KERNEL32.dll
 0002:000003e0       __imp_ExitProcess          000000006409c3e0     kernel32:KERNEL32.dll
 0002:000003e8       __imp_GetModuleHandleExW   000000006409c3e8     kernel32:KERNEL32.dll
 0002:000003f0       __imp_GetFileType          000000006409c3f0     kernel32:KERNEL32.dll
 0002:000003f8       __imp_IsValidLocale        000000006409c3f8     kernel32:KERNEL32.dll
 0002:00000400       __imp_GetUserDefaultLCID   000000006409c400     kernel32:KERNEL32.dll
 0002:00000408       __imp_EnumSystemLocalesW   000000006409c408     kernel32:KERNEL32.dll
 0002:00000410       __imp_IsValidCodePage      000000006409c410     kernel32:KERNEL32.dll
 0002:00000418       \177KERNEL32_NULL_THUNK_DATA 000000006409c418     kernel32:KERNEL32.dll
 0002:00000420       __imp_SysAllocStringLen    000000006409c420     oleaut32:OLEAUT32.dll
 0002:00000428       __imp_SysFreeString        000000006409c428     oleaut32:OLEAUT32.dll
 0002:00000430       __imp_SysStringByteLen     000000006409c430     oleaut32:OLEAUT32.dll
 0002:00000438       __imp_SysStringLen         000000006409c438     oleaut32:OLEAUT32.dll
 0002:00000440       \177OLEAUT32_NULL_THUNK_DATA 000000006409c440     oleaut32:OLEAUT32.dll
 0002:00000448       __imp_CharUpperBuffW       000000006409c448     user32:USER32.dll
 0002:00000450       \177USER32_NULL_THUNK_DATA 000000006409c450     user32:USER32.dll
 0002:00000458       __imp_GetFileVersionInfoSizeW 000000006409c458     version:VERSION.dll
 0002:00000460       __imp_GetFileVersionInfoW  000000006409c460     version:VERSION.dll
 0002:00000468       __imp_VerQueryValueW       000000006409c468     version:VERSION.dll
 0002:00000470       \177VERSION_NULL_THUNK_DATA 000000006409c470     version:VERSION.dll
 0002:00000478       __imp_CoCreateGuid         000000006409c478     ole32:ole32.dll
 0002:00000480       __imp_PropVariantClear     000000006409c480     ole32:ole32.dll
 0002:00000488       __imp_StringFromGUID2      000000006409c488     ole32:ole32.dll
 0002:00000490       __imp_PropVariantCopy      000000006409c490     ole32:ole32.dll
 0002:00000498       \177ole32_NULL_THUNK_DATA  000000006409c498     ole32:ole32.dll
 0002:000004a0       __guard_check_icall_fptr   000000006409c4a0     LIBCMT:guard_support.obj
 0002:000004a8       __guard_dispatch_icall_fptr 000000006409c4a8     LIBCMT:guard_support.obj
 0002:000004b0       __xc_a                     000000006409c4b0     LIBCMT:initializers.obj
 0002:00000558       __xc_z                     000000006409c558     LIBCMT:initializers.obj
 0002:00000560       __xi_a                     000000006409c560     LIBCMT:initializers.obj
 0002:00000570       __acrt_stdio_initializer   000000006409c570     libucrt:stdio_initializer.obj
 0002:00000578       __acrt_timeset_initializer 000000006409c578     libucrt:timeset_initializer.obj
 0002:00000580       __acrt_multibyte_initializer 000000006409c580     libucrt:multibyte_initializer.obj
 0002:00000588       __acrt_tran_fma3_initializer 000000006409c588     libucrt:fma3_initializer.obj
 0002:00000590       __xi_z                     000000006409c590     LIBCMT:initializers.obj
 0002:00000598       __xp_a                     000000006409c598     LIBCMT:initializers.obj
 0002:000005a0       __acrt_locale_terminator   000000006409c5a0     libucrt:locale_initializer.obj
 0002:000005a8       __dcrt_console_output_terminator 000000006409c5a8     libucrt:console_output_initializer.obj
 0002:000005b0       __acrt_stdio_terminator    000000006409c5b0     libucrt:stdio_initializer.obj
 0002:000005b8       __xp_z                     000000006409c5b8     LIBCMT:initializers.obj
 0002:000005c0       __xt_a                     000000006409c5c0     LIBCMT:initializers.obj
 0002:000005c8       __xt_z                     000000006409c5c8     LIBCMT:initializers.obj
 0002:000005d0       IID_IUnknown               000000006409c5d0     uuid:unknwn_i.obj
 0002:000005e8       ??_7exception@std@@6B@     000000006409c5e8     libcpmt:xthrow.obj
 0002:00000600       ??_7bad_alloc@std@@6B@     000000006409c600     libcpmt:xthrow.obj
 0002:00000610       ??_C@_0P@GHFPNOJB@bad?5allocation?$AA@ 000000006409c610     libcpmt:xthrow.obj
 0002:00000628       ??_7logic_error@std@@6B@   000000006409c628     libcpmt:xthrow.obj
 0002:00000640       ??_7length_error@std@@6B@  000000006409c640     libcpmt:xthrow.obj
 0002:00000658       ??_7out_of_range@std@@6B@  000000006409c658     libcpmt:xthrow.obj
 0002:00000670       ??_7runtime_error@std@@6B@ 000000006409c670     libcpmt:xthrow.obj
 0002:00000680       ?_BADOFF@std@@3_JB         000000006409c680     libcpmt:ios.obj
 0002:00000758       ??_7_Facet_base@std@@6B@   000000006409c758     libcpmt:locale0.obj
 0002:00000778       ??_7_Locimp@locale@std@@6B@ 000000006409c778     libcpmt:locale0.obj
 0002:00000790       ??_C@_01NBENCBCI@?$CK?$AA@ 000000006409c790     libcpmt:locale0.obj
 0002:00000794       ??_C@_01GFHCPBMG@C?$AA@    000000006409c794     libcpmt:locale0.obj
 0002:00000ed0       ??_C@_0BN@LKKBCCDB@address?5family?5not?5supported?$AA@ 000000006409ced0     libcpmt:syserror.obj
 0002:00000ef0       ??_C@_0P@LDMLAFHI@address?5in?5use?$AA@ 000000006409cef0     libcpmt:syserror.obj
 0002:00000f00       ??_C@_0BG@DHPCNBJB@address?5not?5available?$AA@ 000000006409cf00     libcpmt:syserror.obj
 0002:00000f18       ??_C@_0BC@DFIBIBIL@already?5connected?$AA@ 000000006409cf18     libcpmt:syserror.obj
 0002:00000f30       ??_C@_0BH@CAKOHOMI@argument?5list?5too?5long?$AA@ 000000006409cf30     libcpmt:syserror.obj
 0002:00000f48       ??_C@_0BH@CGIMPKIM@argument?5out?5of?5domain?$AA@ 000000006409cf48     libcpmt:syserror.obj
 0002:00000f60       ??_C@_0M@KGHGGJGL@bad?5address?$AA@ 000000006409cf60     libcpmt:syserror.obj
 0002:00000f70       ??_C@_0BE@MPJPGCEO@bad?5file?5descriptor?$AA@ 000000006409cf70     libcpmt:syserror.obj
 0002:00000f88       ??_C@_0M@PMMIEFCP@bad?5message?$AA@ 000000006409cf88     libcpmt:syserror.obj
 0002:00000f98       ??_C@_0M@KPHOFDBE@broken?5pipe?$AA@ 000000006409cf98     libcpmt:syserror.obj
 0002:00000fa8       ??_C@_0BD@MGNDDEGM@connection?5aborted?$AA@ 000000006409cfa8     libcpmt:syserror.obj
 0002:00000fc0       ??_C@_0BP@KAIHPOGN@connection?5already?5in?5progress?$AA@ 000000006409cfc0     libcpmt:syserror.obj
 0002:00000fe0       ??_C@_0BD@PJLIIJEL@connection?5refused?$AA@ 000000006409cfe0     libcpmt:syserror.obj
 0002:00000ff8       ??_C@_0BB@IECNJNOI@connection?5reset?$AA@ 000000006409cff8     libcpmt:syserror.obj
 0002:00001010       ??_C@_0BC@PPHBOELF@cross?5device?5link?$AA@ 000000006409d010     libcpmt:syserror.obj
 0002:00001028       ??_C@_0BN@KDMIFEIP@destination?5address?5required?$AA@ 000000006409d028     libcpmt:syserror.obj
 0002:00001048       ??_C@_0BI@NGCEHDD@device?5or?5resource?5busy?$AA@ 000000006409d048     libcpmt:syserror.obj
 0002:00001060       ??_C@_0BE@JIDOCPHM@directory?5not?5empty?$AA@ 000000006409d060     libcpmt:syserror.obj
 0002:00001078       ??_C@_0BI@BNCLIGPB@executable?5format?5error?$AA@ 000000006409d078     libcpmt:syserror.obj
 0002:00001090       ??_C@_0M@MIDIAGJP@file?5exists?$AA@ 000000006409d090     libcpmt:syserror.obj
 0002:000010a0       ??_C@_0P@DNAJLBJK@file?5too?5large?$AA@ 000000006409d0a0     libcpmt:syserror.obj
 0002:000010b0       ??_C@_0BC@EJHOMAAK@filename?5too?5long?$AA@ 000000006409d0b0     libcpmt:syserror.obj
 0002:000010c8       ??_C@_0BH@KEFGLDAF@function?5not?5supported?$AA@ 000000006409d0c8     libcpmt:syserror.obj
 0002:000010e0       ??_C@_0BB@DHFDFGDM@host?5unreachable?$AA@ 000000006409d0e0     libcpmt:syserror.obj
 0002:000010f8       ??_C@_0BD@JPHBMONG@identifier?5removed?$AA@ 000000006409d0f8     libcpmt:syserror.obj
 0002:00001110       ??_C@_0BG@CDNPAGJK@illegal?5byte?5sequence?$AA@ 000000006409d110     libcpmt:syserror.obj
 0002:00001128       ??_C@_0CD@BNPLBMNA@inappropriate?5io?5control?5operati@ 000000006409d128     libcpmt:syserror.obj
 0002:00001150       ??_C@_0M@EGEKIIMP@interrupted?$AA@ 000000006409d150     libcpmt:syserror.obj
 0002:00001160       ??_C@_0BB@FCMFBGOM@invalid?5argument?$AA@ 000000006409d160     libcpmt:syserror.obj
 0002:00001178       ??_C@_0N@OHAFKDEK@invalid?5seek?$AA@ 000000006409d178     libcpmt:syserror.obj
 0002:00001188       ??_C@_08GLNPIFBN@io?5error?$AA@ 000000006409d188     libcpmt:syserror.obj
 0002:00001198       ??_C@_0P@FLLDBIDK@is?5a?5directory?$AA@ 000000006409d198     libcpmt:syserror.obj
 0002:000011a8       ??_C@_0N@IFLPBIOP@message?5size?$AA@ 000000006409d1a8     libcpmt:syserror.obj
 0002:000011b8       ??_C@_0N@KIIEAAIO@network?5down?$AA@ 000000006409d1b8     libcpmt:syserror.obj
 0002:000011c8       ??_C@_0O@FNPDBHEE@network?5reset?$AA@ 000000006409d1c8     libcpmt:syserror.obj
 0002:000011d8       ??_C@_0BE@IFNCKGE@network?5unreachable?$AA@ 000000006409d1d8     libcpmt:syserror.obj
 0002:000011f0       ??_C@_0BA@PFFCAOFK@no?5buffer?5space?$AA@ 000000006409d1f0     libcpmt:syserror.obj
 0002:00001200       ??_C@_0BB@IEPBLJHK@no?5child?5process?$AA@ 000000006409d200     libcpmt:syserror.obj
 0002:00001218       ??_C@_07PLECNNKG@no?5link?$AA@ 000000006409d218     libcpmt:syserror.obj
 0002:00001220       ??_C@_0BC@NJECKMKE@no?5lock?5available?$AA@ 000000006409d220     libcpmt:syserror.obj
 0002:00001238       ??_C@_0BF@PBGGPKKE@no?5message?5available?$AA@ 000000006409d238     libcpmt:syserror.obj
 0002:00001250       ??_C@_0L@EDOLMPAK@no?5message?$AA@ 000000006409d250     libcpmt:syserror.obj
 0002:00001260       ??_C@_0BD@EAMBFIDF@no?5protocol?5option?$AA@ 000000006409d260     libcpmt:syserror.obj
 0002:00001278       ??_C@_0BD@IJDJKDEA@no?5space?5on?5device?$AA@ 000000006409d278     libcpmt:syserror.obj
 0002:00001290       ??_C@_0BE@MKFDAFMP@no?5stream?5resources?$AA@ 000000006409d290     libcpmt:syserror.obj
 0002:000012a8       ??_C@_0BK@IMCPHCBI@no?5such?5device?5or?5address?$AA@ 000000006409d2a8     libcpmt:syserror.obj
 0002:000012c8       ??_C@_0P@FDINDDOK@no?5such?5device?$AA@ 000000006409d2c8     libcpmt:syserror.obj
 0002:000012d8       ??_C@_0BK@NDOCBPGE@no?5such?5file?5or?5directory?$AA@ 000000006409d2d8     libcpmt:syserror.obj
 0002:000012f8       ??_C@_0BA@ENLPPKBN@no?5such?5process?$AA@ 000000006409d2f8     libcpmt:syserror.obj
 0002:00001308       ??_C@_0BA@DOCPFFJG@not?5a?5directory?$AA@ 000000006409d308     libcpmt:syserror.obj
 0002:00001318       ??_C@_0N@POEIPGGF@not?5a?5socket?$AA@ 000000006409d318     libcpmt:syserror.obj
 0002:00001328       ??_C@_0N@LGAPMMPI@not?5a?5stream?$AA@ 000000006409d328     libcpmt:syserror.obj
 0002:00001338       ??_C@_0O@GLMIBBEG@not?5connected?$AA@ 000000006409d338     libcpmt:syserror.obj
 0002:00001348       ??_C@_0BC@ENOOLCNF@not?5enough?5memory?$AA@ 000000006409d348     libcpmt:syserror.obj
 0002:00001360       ??_C@_0O@NHEDABJP@not?5supported?$AA@ 000000006409d360     libcpmt:syserror.obj
 0002:00001370       ??_C@_0BD@MOLBPMEA@operation?5canceled?$AA@ 000000006409d370     libcpmt:syserror.obj
 0002:00001388       ??_C@_0BG@KDKHOPCO@operation?5in?5progress?$AA@ 000000006409d388     libcpmt:syserror.obj
 0002:000013a0       ??_C@_0BI@OHIEJAAB@operation?5not?5permitted?$AA@ 000000006409d3a0     libcpmt:syserror.obj
 0002:000013b8       ??_C@_0BI@LNEGIFLN@operation?5not?5supported?$AA@ 000000006409d3b8     libcpmt:syserror.obj
 0002:000013d0       ??_C@_0BG@OEMDKMEE@operation?5would?5block?$AA@ 000000006409d3d0     libcpmt:syserror.obj
 0002:000013e8       ??_C@_0L@BLPOFLNJ@owner?5dead?$AA@ 000000006409d3e8     libcpmt:syserror.obj
 0002:000013f8       ??_C@_0BC@CIJDGCDI@permission?5denied?$AA@ 000000006409d3f8     libcpmt:syserror.obj
 0002:00001410       ??_C@_0P@FNPOCJBE@protocol?5error?$AA@ 000000006409d410     libcpmt:syserror.obj
 0002:00001420       ??_C@_0BH@JPPPLHJB@protocol?5not?5supported?$AA@ 000000006409d420     libcpmt:syserror.obj
 0002:00001438       ??_C@_0BG@EICBIHDP@read?5only?5file?5system?$AA@ 000000006409d438     libcpmt:syserror.obj
 0002:00001450       ??_C@_0BO@BJBOMOEJ@resource?5deadlock?5would?5occur?$AA@ 000000006409d450     libcpmt:syserror.obj
 0002:00001470       ??_C@_0BP@LKNGHENJ@resource?5unavailable?5try?5again?$AA@ 000000006409d470     libcpmt:syserror.obj
 0002:00001490       ??_C@_0BE@GOIPJJHG@result?5out?5of?5range?$AA@ 000000006409d490     libcpmt:syserror.obj
 0002:000014a8       ??_C@_0BG@MPLKFPAE@state?5not?5recoverable?$AA@ 000000006409d4a8     libcpmt:syserror.obj
 0002:000014c0       ??_C@_0P@DIIFGFCG@stream?5timeout?$AA@ 000000006409d4c0     libcpmt:syserror.obj
 0002:000014d0       ??_C@_0P@IPFDMIFL@text?5file?5busy?$AA@ 000000006409d4d0     libcpmt:syserror.obj
 0002:000014e0       ??_C@_09KJPPMAOI@timed?5out?$AA@ 000000006409d4e0     libcpmt:syserror.obj
 0002:000014f0       ??_C@_0BO@HACHBEKI@too?5many?5files?5open?5in?5system?$AA@ 000000006409d4f0     libcpmt:syserror.obj
 0002:00001510       ??_C@_0BE@GHAFMPAH@too?5many?5files?5open?$AA@ 000000006409d510     libcpmt:syserror.obj
 0002:00001528       ??_C@_0P@HCOMKFCC@too?5many?5links?$AA@ 000000006409d528     libcpmt:syserror.obj
 0002:00001538       ??_C@_0BO@EFGOJEF@too?5many?5symbolic?5link?5levels?$AA@ 000000006409d538     libcpmt:syserror.obj
 0002:00001558       ??_C@_0BA@KGKGOOJA@value?5too?5large?$AA@ 000000006409d558     libcpmt:syserror.obj
 0002:00001568       ??_C@_0BE@MIEJDDNH@wrong?5protocol?5type?$AA@ 000000006409d568     libcpmt:syserror.obj
 0002:00001580       ??_C@_0O@BFJCFAAK@unknown?5error?$AA@ 000000006409d580     libcpmt:syserror.obj
 0002:000015c0       ??_7bad_cast@std@@6B@      000000006409d5c0     libcpmt:locale.obj
 0002:000015d8       ??_7?$ctype@_W@std@@6B@    000000006409d5d8     libcpmt:wlocale.obj
 0002:00001658       ??_7?$num_put@_WV?$ostreambuf_iterator@_WU?$char_traits@_W@std@@@std@@@std@@6B@ 000000006409d658     libcpmt:wlocale.obj
 0002:000016b8       ??_7?$numpunct@_W@std@@6B@ 000000006409d6b8     libcpmt:wlocale.obj
 0002:000016f8       ??_C@_01CLKCMJKC@?5?$AA@   000000006409d6f8     libcpmt:wlocale.obj
 0002:000016fc       ??_C@_01JOAMLHOP@?9?$AA@   000000006409d6fc     libcpmt:wlocale.obj
 0002:00001700       __xmm@80000000000000008000000000000000 000000006409d700     libcpmt:wlocale.obj
 0002:000017b0       ??_C@_1BK@MGMFAEKH@?$AAk?$AAe?$AAr?$AAn?$AAe?$AAl?$AA3?$AA2?$AA?4?$AAd?$AAl?$AAl?$AA?$AA@ 000000006409d7b0     libcpmt:winapisupp.obj
 0002:000017d0       ??_C@_08KNHFBNJ@FlsAlloc?$AA@ 000000006409d7d0     libcpmt:winapisupp.obj
 0002:000017e0       ??_C@_07PEJMOBNF@FlsFree?$AA@ 000000006409d7e0     libcpmt:winapisupp.obj
 0002:000017e8       ??_C@_0M@GDNOONDI@FlsGetValue?$AA@ 000000006409d7e8     libcpmt:winapisupp.obj
 0002:000017f8       ??_C@_0M@JCPCPOEF@FlsSetValue?$AA@ 000000006409d7f8     libcpmt:winapisupp.obj
 0002:00001808       ??_C@_0BM@HCFOFFN@InitializeCriticalSectionEx?$AA@ 000000006409d808     libcpmt:winapisupp.obj
 0002:00001828       ??_C@_0BE@GPLMMCMH@InitOnceExecuteOnce?$AA@ 000000006409d828     libcpmt:winapisupp.obj
 0002:00001840       ??_C@_0P@DLHPPCNH@CreateEventExW?$AA@ 000000006409d840     libcpmt:winapisupp.obj
 0002:00001850       ??_C@_0BB@MEFPJLHN@CreateSemaphoreW?$AA@ 000000006409d850     libcpmt:winapisupp.obj
 0002:00001868       ??_C@_0BD@KIEEOEEH@CreateSemaphoreExW?$AA@ 000000006409d868     libcpmt:winapisupp.obj
 0002:00001880       ??_C@_0BG@OGFAJCKC@CreateThreadpoolTimer?$AA@ 000000006409d880     libcpmt:winapisupp.obj
 0002:00001898       ??_C@_0BD@LPLEMMDI@SetThreadpoolTimer?$AA@ 000000006409d898     libcpmt:winapisupp.obj
 0002:000018b0       ??_C@_0CA@FMNJENH@WaitForThreadpoolTimerCallbacks?$AA@ 000000006409d8b0     libcpmt:winapisupp.obj
 0002:000018d0       ??_C@_0BF@DCFCCNOC@CloseThreadpoolTimer?$AA@ 000000006409d8d0     libcpmt:winapisupp.obj
 0002:000018e8       ??_C@_0BF@FLABGKKM@CreateThreadpoolWait?$AA@ 000000006409d8e8     libcpmt:winapisupp.obj
 0002:00001900       ??_C@_0BC@MGCOHNA@SetThreadpoolWait?$AA@ 000000006409d900     libcpmt:winapisupp.obj
 0002:00001918       ??_C@_0BE@OCIOMIMP@CloseThreadpoolWait?$AA@ 000000006409d918     libcpmt:winapisupp.obj
 0002:00001930       ??_C@_0BJ@LKGHFHBO@FlushProcessWriteBuffers?$AA@ 000000006409d930     libcpmt:winapisupp.obj
 0002:00001950       ??_C@_0BP@KALKKPMO@FreeLibraryWhenCallbackReturns?$AA@ 000000006409d950     libcpmt:winapisupp.obj
 0002:00001970       ??_C@_0BK@DFNBACLA@GetCurrentProcessorNumber?$AA@ 000000006409d970     libcpmt:winapisupp.obj
 0002:00001990       ??_C@_0BE@FKKLLFLM@CreateSymbolicLinkW?$AA@ 000000006409d990     libcpmt:winapisupp.obj
 0002:000019a8       ??_C@_0BE@JOGNEJCI@GetCurrentPackageId?$AA@ 000000006409d9a8     libcpmt:winapisupp.obj
 0002:000019c0       ??_C@_0P@CDHHOHKP@GetTickCount64?$AA@ 000000006409d9c0     libcpmt:winapisupp.obj
 0002:000019d0       ??_C@_0BN@NEEHBBPO@GetFileInformationByHandleEx?$AA@ 000000006409d9d0     libcpmt:winapisupp.obj
 0002:000019f0       ??_C@_0BL@KBBHGKCM@SetFileInformationByHandle?$AA@ 000000006409d9f0     libcpmt:winapisupp.obj
 0002:00001a10       ??_C@_0BP@FPNJPEJC@GetSystemTimePreciseAsFileTime?$AA@ 000000006409da10     libcpmt:winapisupp.obj
 0002:00001a30       ??_C@_0BM@HLJJNPAH@InitializeConditionVariable?$AA@ 000000006409da30     libcpmt:winapisupp.obj
 0002:00001a50       ??_C@_0BG@BFNILBLN@WakeConditionVariable?$AA@ 000000006409da50     libcpmt:winapisupp.obj
 0002:00001a68       ??_C@_0BJ@PGPPEPCC@WakeAllConditionVariable?$AA@ 000000006409da68     libcpmt:winapisupp.obj
 0002:00001a88       ??_C@_0BJ@JEBJOJFJ@SleepConditionVariableCS?$AA@ 000000006409da88     libcpmt:winapisupp.obj
 0002:00001aa8       ??_C@_0BC@MMLHEBPB@InitializeSRWLock?$AA@ 000000006409daa8     libcpmt:winapisupp.obj
 0002:00001ac0       ??_C@_0BI@OMNLIJDB@AcquireSRWLockExclusive?$AA@ 000000006409dac0     libcpmt:winapisupp.obj
 0002:00001ad8       ??_C@_0BL@OGHFEMNA@TryAcquireSRWLockExclusive?$AA@ 000000006409dad8     libcpmt:winapisupp.obj
 0002:00001af8       ??_C@_0BI@HMIEPCNJ@ReleaseSRWLockExclusive?$AA@ 000000006409daf8     libcpmt:winapisupp.obj
 0002:00001b10       ??_C@_0BK@LGACAGIC@SleepConditionVariableSRW?$AA@ 000000006409db10     libcpmt:winapisupp.obj
 0002:00001b30       ??_C@_0BF@GGPHFPJA@CreateThreadpoolWork?$AA@ 000000006409db30     libcpmt:winapisupp.obj
 0002:00001b48       ??_C@_0BF@NHDAIMMO@SubmitThreadpoolWork?$AA@ 000000006409db48     libcpmt:winapisupp.obj
 0002:00001b60       ??_C@_0BE@NPHIPNPD@CloseThreadpoolWork?$AA@ 000000006409db60     libcpmt:winapisupp.obj
 0002:00001b78       ??_C@_0BA@IHGNDAEB@CompareStringEx?$AA@ 000000006409db78     libcpmt:winapisupp.obj
 0002:00001b88       ??_C@_0BA@ONOKGCMP@GetLocaleInfoEx?$AA@ 000000006409db88     libcpmt:winapisupp.obj
 0002:00001b98       ??_C@_0O@KKBNKAPF@LCMapStringEx?$AA@ 000000006409db98     libcpmt:winapisupp.obj
 0002:00001ba8       ??_C@_1M@GMDGLDOB@?$AAe?$AAn?$AA?9?$AAp?$AAh?$AA?$AA@ 000000006409dba8     libcpmt:winapinls.obj
 0002:00001bb8       ??_C@_1M@ONGIBJNA@?$AAe?$AAn?$AA?9?$AAt?$AAt?$AA?$AA@ 000000006409dbb8     libcpmt:winapinls.obj
 0002:00001bc8       ??_C@_1M@LLODPCMM@?$AAe?$AAn?$AA?9?$AAu?$AAs?$AA?$AA@ 000000006409dbc8     libcpmt:winapinls.obj
 0002:00001bd8       ??_C@_1M@LAKFNPAN@?$AAe?$AAn?$AA?9?$AAz?$AAa?$AA?$AA@ 000000006409dbd8     libcpmt:winapinls.obj
 0002:00001be8       ??_C@_1M@MFNHNHEO@?$AAe?$AAn?$AA?9?$AAz?$AAw?$AA?$AA@ 000000006409dbe8     libcpmt:winapinls.obj
 0002:00001bf8       ??_C@_1M@EJEINPHM@?$AAe?$AAs?$AA?9?$AAa?$AAr?$AA?$AA@ 000000006409dbf8     libcpmt:winapinls.obj
 0002:00001c08       ??_C@_1M@GNKPCCJA@?$AAe?$AAs?$AA?9?$AAb?$AAo?$AA?$AA@ 000000006409dc08     libcpmt:winapinls.obj
 0002:00001c18       ??_C@_1M@LEEGFONL@?$AAe?$AAs?$AA?9?$AAc?$AAl?$AA?$AA@ 000000006409dc18     libcpmt:winapinls.obj
 0002:00001c28       ??_C@_1M@KGPDPBDF@?$AAe?$AAs?$AA?9?$AAc?$AAo?$AA?$AA@ 000000006409dc28     libcpmt:winapinls.obj
 0002:00001c38       ??_C@_1M@EIAHOHH@?$AAe?$AAs?$AA?9?$AAc?$AAr?$AA?$AA@ 000000006409dc38     libcpmt:winapinls.obj
 0002:00001c48       ??_C@_1M@LLPGMBIN@?$AAe?$AAs?$AA?9?$AAd?$AAo?$AA?$AA@ 000000006409dc48     libcpmt:winapinls.obj
 0002:00001c58       ??_C@_1M@DKHMKNJA@?$AAe?$AAs?$AA?9?$AAe?$AAc?$AA?$AA@ 000000006409dc58     libcpmt:winapinls.obj
 0002:00001c68       ??_C@_1M@GKGFPKAP@?$AAe?$AAs?$AA?9?$AAe?$AAs?$AA?$AA@ 000000006409dc68     libcpmt:winapinls.obj
 0002:00001c78       ??_C@_1M@LKHKGDLN@?$AAe?$AAs?$AA?9?$AAg?$AAt?$AA?$AA@ 000000006409dc78     libcpmt:winapinls.obj
 0002:00001c88       ??_C@_1M@HEIIGGJD@?$AAe?$AAs?$AA?9?$AAh?$AAn?$AA?$AA@ 000000006409dc88     libcpmt:winapinls.obj
 0002:00001c98       ??_C@_1M@FBDHPPGD@?$AAe?$AAs?$AA?9?$AAm?$AAx?$AA?$AA@ 000000006409dc98     libcpmt:winapinls.obj
 0002:00001ca8       ??_C@_1M@DPAGLNDH@?$AAe?$AAs?$AA?9?$AAn?$AAi?$AA?$AA@ 000000006409dca8     libcpmt:winapinls.obj
 0002:00001cb8       ??_C@_1M@MDGOPGDD@?$AAe?$AAs?$AA?9?$AAp?$AAa?$AA?$AA@ 000000006409dcb8     libcpmt:winapinls.obj
 0002:00001cc8       ??_C@_1M@EMAMGBGE@?$AAe?$AAs?$AA?9?$AAp?$AAe?$AA?$AA@ 000000006409dcc8     libcpmt:winapinls.obj
 0002:00001cd8       ??_C@_1M@IBMCAOEC@?$AAe?$AAs?$AA?9?$AAp?$AAr?$AA?$AA@ 000000006409dcd8     libcpmt:winapinls.obj
 0002:00001ce8       ??_C@_1M@FGMDIJED@?$AAe?$AAs?$AA?9?$AAp?$AAy?$AA?$AA@ 000000006409dce8     libcpmt:winapinls.obj
 0002:00001cf8       ??_C@_1M@IIDEOLLL@?$AAe?$AAs?$AA?9?$AAs?$AAv?$AA?$AA@ 000000006409dcf8     libcpmt:winapinls.obj
 0002:00001d08       ??_C@_1M@GAOBIPA@?$AAe?$AAs?$AA?9?$AAu?$AAy?$AA?$AA@ 000000006409dd08     libcpmt:winapinls.obj
 0002:00001d18       ??_C@_1M@JKFFICHJ@?$AAe?$AAs?$AA?9?$AAv?$AAe?$AA?$AA@ 000000006409dd18     libcpmt:winapinls.obj
 0002:00001d28       ??_C@_1M@PNMLOJDF@?$AAe?$AAt?$AA?9?$AAe?$AAe?$AA?$AA@ 000000006409dd28     libcpmt:winapinls.obj
 0002:00001d38       ??_C@_1M@GHHLIKEI@?$AAe?$AAu?$AA?9?$AAe?$AAs?$AA?$AA@ 000000006409dd38     libcpmt:winapinls.obj
 0002:00001d48       ??_C@_1M@PBNONODE@?$AAf?$AAa?$AA?9?$AAi?$AAr?$AA?$AA@ 000000006409dd48     libcpmt:winapinls.obj
 0002:00001d58       ??_C@_1M@JEEHPMIL@?$AAf?$AAi?$AA?9?$AAf?$AAi?$AA?$AA@ 000000006409dd58     libcpmt:winapinls.obj
 0002:00001d68       ??_C@_1M@LMDCNDBA@?$AAf?$AAo?$AA?9?$AAf?$AAo?$AA?$AA@ 000000006409dd68     libcpmt:winapinls.obj
 0002:00001d78       ??_C@_1M@JKEOHLDK@?$AAf?$AAr?$AA?9?$AAb?$AAe?$AA?$AA@ 000000006409dd78     libcpmt:winapinls.obj
 0002:00001d88       ??_C@_1M@NOHADPMI@?$AAf?$AAr?$AA?9?$AAc?$AAa?$AA?$AA@ 000000006409dd88     libcpmt:winapinls.obj
 0002:00001d98       ??_C@_1M@KDHIHAEC@?$AAf?$AAr?$AA?9?$AAc?$AAh?$AA?$AA@ 000000006409dd98     libcpmt:winapinls.obj
 0002:00001da8       ??_C@_1M@MMBBFGAK@?$AAf?$AAr?$AA?9?$AAf?$AAr?$AA?$AA@ 000000006409dda8     libcpmt:winapinls.obj
 0002:00001db8       ??_C@_1M@PAFNENNF@?$AAf?$AAr?$AA?9?$AAl?$AAu?$AA?$AA@ 000000006409ddb8     libcpmt:winapinls.obj
 0002:00001dc8       ??_C@_1M@EOHDJGDD@?$AAf?$AAr?$AA?9?$AAm?$AAc?$AA?$AA@ 000000006409ddc8     libcpmt:winapinls.obj
 0002:00001dd8       ??_C@_1M@FAPLLOPF@?$AAg?$AAl?$AA?9?$AAe?$AAs?$AA?$AA@ 000000006409ddd8     libcpmt:winapinls.obj
 0002:00001de8       ??_C@_1M@FOPBFLOO@?$AAg?$AAu?$AA?9?$AAi?$AAn?$AA?$AA@ 000000006409dde8     libcpmt:winapinls.obj
 0002:00001df8       ??_C@_1M@KBMCINPM@?$AAh?$AAe?$AA?9?$AAi?$AAl?$AA?$AA@ 000000006409ddf8     libcpmt:winapinls.obj
 0002:00001e08       ??_C@_1M@BBPHKFPJ@?$AAh?$AAi?$AA?9?$AAi?$AAn?$AA?$AA@ 000000006409de08     libcpmt:winapinls.obj
 0002:00001e18       ??_C@_1M@PMBNDPHD@?$AAh?$AAr?$AA?9?$AAb?$AAa?$AA?$AA@ 000000006409de18     libcpmt:winapinls.obj
 0002:00001e28       ??_C@_1M@BPCKOEGE@?$AAh?$AAr?$AA?9?$AAh?$AAr?$AA?$AA@ 000000006409de28     libcpmt:winapinls.obj
 0002:00001e38       ??_C@_1M@GACBMHKE@?$AAh?$AAu?$AA?9?$AAh?$AAu?$AA?$AA@ 000000006409de38     libcpmt:winapinls.obj
 0002:00001e48       ??_C@_1M@MILPAJJC@?$AAh?$AAy?$AA?9?$AAa?$AAm?$AA?$AA@ 000000006409de48     libcpmt:winapinls.obj
 0002:00001e58       ??_C@_1M@BABBICEC@?$AAi?$AAd?$AA?9?$AAi?$AAd?$AA?$AA@ 000000006409de58     libcpmt:winapinls.obj
 0002:00001e68       ??_C@_1M@BIKNHHPF@?$AAi?$AAs?$AA?9?$AAi?$AAs?$AA?$AA@ 000000006409de68     libcpmt:winapinls.obj
 0002:00001e78       ??_C@_1M@NMPCJPHE@?$AAi?$AAt?$AA?9?$AAc?$AAh?$AA?$AA@ 000000006409de78     libcpmt:winapinls.obj
 0002:00001e88       ??_C@_1M@GHKGFEDF@?$AAi?$AAt?$AA?9?$AAi?$AAt?$AA?$AA@ 000000006409de88     libcpmt:winapinls.obj
 0002:00001e98       ??_C@_1M@NIEJCJJA@?$AAj?$AAa?$AA?9?$AAj?$AAp?$AA?$AA@ 000000006409de98     libcpmt:winapinls.obj
 0002:00001ea8       ??_C@_1M@JILFNBIM@?$AAk?$AAa?$AA?9?$AAg?$AAe?$AA?$AA@ 000000006409dea8     libcpmt:winapinls.obj
 0002:00001eb8       ??_C@_1M@PACPMGPH@?$AAk?$AAk?$AA?9?$AAk?$AAz?$AA?$AA@ 000000006409deb8     libcpmt:winapinls.obj
 0002:00001ec8       ??_C@_1M@IELFGMHA@?$AAk?$AAn?$AA?9?$AAi?$AAn?$AA?$AA@ 000000006409dec8     libcpmt:winapinls.obj
 0002:00001ed8       ??_C@_1M@DMHAEOGC@?$AAk?$AAo?$AA?9?$AAk?$AAr?$AA?$AA@ 000000006409ded8     libcpmt:winapinls.obj
 0002:00001ee8       ??_C@_1O@IBBJHCH@?$AAk?$AAo?$AAk?$AA?9?$AAi?$AAn?$AA?$AA@ 000000006409dee8     libcpmt:winapinls.obj
 0002:00001ef8       ??_C@_1M@HBAHBIGA@?$AAk?$AAy?$AA?9?$AAk?$AAg?$AA?$AA@ 000000006409def8     libcpmt:winapinls.obj
 0002:00001f08       ??_C@_1M@KPMILCJG@?$AAl?$AAt?$AA?9?$AAl?$AAt?$AA?$AA@ 000000006409df08     libcpmt:winapinls.obj
 0002:00001f18       ??_C@_1M@BDEKKCA@?$AAl?$AAv?$AA?9?$AAl?$AAv?$AA?$AA@ 000000006409df18     libcpmt:winapinls.obj
 0002:00001f28       ??_C@_1M@ELCKCCJJ@?$AAm?$AAi?$AA?9?$AAn?$AAz?$AA?$AA@ 000000006409df28     libcpmt:winapinls.obj
 0002:00001f38       ??_C@_1M@CBOOLAPA@?$AAm?$AAk?$AA?9?$AAm?$AAk?$AA?$AA@ 000000006409df38     libcpmt:winapinls.obj
 0002:00001f48       ??_C@_1M@GPHNBJKN@?$AAm?$AAl?$AA?9?$AAi?$AAn?$AA?$AA@ 000000006409df48     libcpmt:winapinls.obj
 0002:00001f58       ??_C@_1M@PABJILIG@?$AAm?$AAn?$AA?9?$AAm?$AAn?$AA?$AA@ 000000006409df58     libcpmt:winapinls.obj
 0002:00001f68       ??_C@_1M@FGBKKIPG@?$AAm?$AAr?$AA?9?$AAi?$AAn?$AA?$AA@ 000000006409df68     libcpmt:winapinls.obj
 0002:00001f78       ??_C@_1M@NDBPDDAL@?$AAm?$AAs?$AA?9?$AAb?$AAn?$AA?$AA@ 000000006409df78     libcpmt:winapinls.obj
 0002:00001f88       ??_C@_1M@OPIHOOPI@?$AAm?$AAs?$AA?9?$AAm?$AAy?$AA?$AA@ 000000006409df88     libcpmt:winapinls.obj
 0002:00001f98       ??_C@_1M@PPDBCNFM@?$AAm?$AAt?$AA?9?$AAm?$AAt?$AA?$AA@ 000000006409df98     libcpmt:winapinls.obj
 0002:00001fa8       ??_C@_1M@KDJDKMDD@?$AAn?$AAb?$AA?9?$AAn?$AAo?$AA?$AA@ 000000006409dfa8     libcpmt:winapinls.obj
 0002:00001fb8       ??_C@_1M@KFCFLMJP@?$AAn?$AAl?$AA?9?$AAb?$AAe?$AA?$AA@ 000000006409dfb8     libcpmt:winapinls.obj
 0002:00001fc8       ??_C@_1M@KPOPDDGO@?$AAn?$AAl?$AA?9?$AAn?$AAl?$AA?$AA@ 000000006409dfc8     libcpmt:winapinls.obj
 0002:00001fd8       ??_C@_1M@LJKPEMLN@?$AAn?$AAn?$AA?9?$AAn?$AAo?$AA?$AA@ 000000006409dfd8     libcpmt:winapinls.obj
 0002:00001fe8       ??_C@_1M@BDGHHBFL@?$AAn?$AAs?$AA?9?$AAz?$AAa?$AA?$AA@ 000000006409dfe8     libcpmt:winapinls.obj
 0002:00001ff8       ??_C@_1M@IDEHOAP@?$AAp?$AAa?$AA?9?$AAi?$AAn?$AA?$AA@ 000000006409dff8     libcpmt:winapinls.obj
 0002:00002008       ??_C@_1M@HDBKGOGH@?$AAp?$AAl?$AA?9?$AAp?$AAl?$AA?$AA@ 000000006409e008     libcpmt:winapinls.obj
 0002:00002018       ??_C@_1M@LJLLCMEH@?$AAp?$AAt?$AA?9?$AAb?$AAr?$AA?$AA@ 000000006409e018     libcpmt:winapinls.obj
 0002:00002028       ??_C@_1M@NCMONAAL@?$AAp?$AAt?$AA?9?$AAp?$AAt?$AA?$AA@ 000000006409e028     libcpmt:winapinls.obj
 0002:00002038       ??_C@_1O@EAKMAJDN@?$AAq?$AAu?$AAz?$AA?9?$AAb?$AAo?$AA?$AA@ 000000006409e038     libcpmt:winapinls.obj
 0002:00002048       ??_C@_1O@BHHPIGDN@?$AAq?$AAu?$AAz?$AA?9?$AAe?$AAc?$AA?$AA@ 000000006409e048     libcpmt:winapinls.obj
 0002:00002058       ??_C@_1O@GBAPEKMJ@?$AAq?$AAu?$AAz?$AA?9?$AAp?$AAe?$AA?$AA@ 000000006409e058     libcpmt:winapinls.obj
 0002:00002068       ??_C@_1M@CLGLEFBO@?$AAr?$AAo?$AA?9?$AAr?$AAo?$AA?$AA@ 000000006409e068     libcpmt:winapinls.obj
 0002:00002078       ??_C@_1M@CEEDODME@?$AAr?$AAu?$AA?9?$AAr?$AAu?$AA?$AA@ 000000006409e078     libcpmt:winapinls.obj
 0002:00002088       ??_C@_1M@HPKKKMPP@?$AAs?$AAa?$AA?9?$AAi?$AAn?$AA?$AA@ 000000006409e088     libcpmt:winapinls.obj
 0002:00002098       ??_C@_1M@BKMAIGOJ@?$AAs?$AAe?$AA?9?$AAf?$AAi?$AA?$AA@ 000000006409e098     libcpmt:winapinls.obj
 0002:000020a8       ??_C@_1M@NDPIFLFI@?$AAs?$AAe?$AA?9?$AAn?$AAo?$AA?$AA@ 000000006409e0a8     libcpmt:winapinls.obj
 0002:000020b8       ??_C@_1M@DANKKHJ@?$AAs?$AAe?$AA?9?$AAs?$AAe?$AA?$AA@ 000000006409e0b8     libcpmt:winapinls.obj
 0002:000020c8       ??_C@_1M@PNBLONPJ@?$AAs?$AAk?$AA?9?$AAs?$AAk?$AA?$AA@ 000000006409e0c8     libcpmt:winapinls.obj
 0002:000020d8       ??_C@_1M@LFMODOAL@?$AAs?$AAl?$AA?9?$AAs?$AAi?$AA?$AA@ 000000006409e0d8     libcpmt:winapinls.obj
 0002:000020e8       ??_C@_1O@DFKOMPG@?$AAs?$AAm?$AAa?$AA?9?$AAn?$AAo?$AA?$AA@ 000000006409e0e8     libcpmt:winapinls.obj
 0002:000020f8       ??_C@_1O@NDKPBNNH@?$AAs?$AAm?$AAa?$AA?9?$AAs?$AAe?$AA?$AA@ 000000006409e0f8     libcpmt:winapinls.obj
 0002:00002108       ??_C@_1O@PLLKBHAB@?$AAs?$AAm?$AAj?$AA?9?$AAn?$AAo?$AA?$AA@ 000000006409e108     libcpmt:winapinls.obj
 0002:00002118       ??_C@_1O@CLEPOGCA@?$AAs?$AAm?$AAj?$AA?9?$AAs?$AAe?$AA?$AA@ 000000006409e118     libcpmt:winapinls.obj
 0002:00002128       ??_C@_1O@DLGJGKMK@?$AAs?$AAm?$AAn?$AA?9?$AAf?$AAi?$AA?$AA@ 000000006409e128     libcpmt:winapinls.obj
 0002:00002138       ??_C@_1O@OJDJGAJC@?$AAs?$AAm?$AAs?$AA?9?$AAf?$AAi?$AA?$AA@ 000000006409e138     libcpmt:winapinls.obj
 0002:00002148       ??_C@_1M@BOFOGHPB@?$AAs?$AAq?$AA?9?$AAa?$AAl?$AA?$AA@ 000000006409e148     libcpmt:winapinls.obj
 0002:00002158       ??_C@_1BG@LJBBIPGB@?$AAs?$AAr?$AA?9?$AAb?$AAa?$AA?9?$AAc?$AAy?$AAr?$AAl?$AA?$AA@ 000000006409e158     libcpmt:winapinls.obj
 0002:00002170       ??_C@_1BG@JLBENFOE@?$AAs?$AAr?$AA?9?$AAb?$AAa?$AA?9?$AAl?$AAa?$AAt?$AAn?$AA?$AA@ 000000006409e170     libcpmt:winapinls.obj
 0002:00002188       ??_C@_1BG@KODPNHE@?$AAs?$AAr?$AA?9?$AAs?$AAp?$AA?9?$AAc?$AAy?$AAr?$AAl?$AA?$AA@ 000000006409e188     libcpmt:winapinls.obj
 0002:000021a0       ??_C@_1BG@CIOGKHPB@?$AAs?$AAr?$AA?9?$AAs?$AAp?$AA?9?$AAl?$AAa?$AAt?$AAn?$AA?$AA@ 000000006409e1a0     libcpmt:winapinls.obj
 0002:000021b8       ??_C@_1M@NGFJLMAC@?$AAs?$AAv?$AA?9?$AAf?$AAi?$AA?$AA@ 000000006409e1b8     libcpmt:winapinls.obj
 0002:000021c8       ??_C@_1M@MPJEJAJC@?$AAs?$AAv?$AA?9?$AAs?$AAe?$AA?$AA@ 000000006409e1c8     libcpmt:winapinls.obj
 0002:000021d8       ??_C@_1M@MPNDHLFK@?$AAs?$AAw?$AA?9?$AAk?$AAe?$AA?$AA@ 000000006409e1d8     libcpmt:winapinls.obj
 0002:000021e8       ??_C@_1O@KOHBJJI@?$AAs?$AAy?$AAr?$AA?9?$AAs?$AAy?$AA?$AA@ 000000006409e1e8     libcpmt:winapinls.obj
 0002:000021f8       ??_C@_1M@LDCEFHA@?$AAt?$AAa?$AA?9?$AAi?$AAn?$AA?$AA@ 000000006409e1f8     libcpmt:winapinls.obj
 0002:00002208       ??_C@_1M@CNJOFAK@?$AAt?$AAe?$AA?9?$AAi?$AAn?$AA?$AA@ 000000006409e208     libcpmt:winapinls.obj
 0002:00002218       ??_C@_1M@GNAECACD@?$AAt?$AAh?$AA?9?$AAt?$AAh?$AA?$AA@ 000000006409e218     libcpmt:winapinls.obj
 0002:00002228       ??_C@_1M@CHBIHOJO@?$AAt?$AAn?$AA?9?$AAz?$AAa?$AA?$AA@ 000000006409e228     libcpmt:winapinls.obj
 0002:00002238       ??_C@_1M@GCCMIGPJ@?$AAt?$AAr?$AA?9?$AAt?$AAr?$AA?$AA@ 000000006409e238     libcpmt:winapinls.obj
 0002:00002248       ??_C@_1M@CELMCNBK@?$AAt?$AAt?$AA?9?$AAr?$AAu?$AA?$AA@ 000000006409e248     libcpmt:winapinls.obj
 0002:00002258       ??_C@_1M@KLMCELGA@?$AAu?$AAk?$AA?9?$AAu?$AAa?$AA?$AA@ 000000006409e258     libcpmt:winapinls.obj
 0002:00002268       ??_C@_1M@EPAJJAJF@?$AAu?$AAr?$AA?9?$AAp?$AAk?$AA?$AA@ 000000006409e268     libcpmt:winapinls.obj
 0002:00002278       ??_C@_1BG@GEGPMCDJ@?$AAu?$AAz?$AA?9?$AAu?$AAz?$AA?9?$AAc?$AAy?$AAr?$AAl?$AA?$AA@ 000000006409e278     libcpmt:winapinls.obj
 0002:00002290       ??_C@_1BG@EGGKJILM@?$AAu?$AAz?$AA?9?$AAu?$AAz?$AA?9?$AAl?$AAa?$AAt?$AAn?$AA?$AA@ 000000006409e290     libcpmt:winapinls.obj
 0002:000022a8       ??_C@_1M@GFOCLFF@?$AAv?$AAi?$AA?9?$AAv?$AAn?$AA?$AA@ 000000006409e2a8     libcpmt:winapinls.obj
 0002:000022b8       ??_C@_1M@CPAMEDFI@?$AAx?$AAh?$AA?9?$AAz?$AAa?$AA?$AA@ 000000006409e2b8     libcpmt:winapinls.obj
 0002:000022c8       ??_C@_1O@EBKIFIGN@?$AAz?$AAh?$AA?9?$AAc?$AAh?$AAs?$AA?$AA@ 000000006409e2c8     libcpmt:winapinls.obj
 0002:000022d8       ??_C@_1O@NMHPGANE@?$AAz?$AAh?$AA?9?$AAc?$AAh?$AAt?$AA?$AA@ 000000006409e2d8     libcpmt:winapinls.obj
 0002:000022e8       ??_C@_1M@LPINJOMC@?$AAz?$AAh?$AA?9?$AAc?$AAn?$AA?$AA@ 000000006409e2e8     libcpmt:winapinls.obj
 0002:000022f8       ??_C@_1M@OCJEJODD@?$AAz?$AAh?$AA?9?$AAh?$AAk?$AA?$AA@ 000000006409e2f8     libcpmt:winapinls.obj
 0002:00002308       ??_C@_1M@DNDLJINH@?$AAz?$AAh?$AA?9?$AAm?$AAo?$AA?$AA@ 000000006409e308     libcpmt:winapinls.obj
 0002:00002318       ??_C@_1M@MBFDNDND@?$AAz?$AAh?$AA?9?$AAs?$AAg?$AA?$AA@ 000000006409e318     libcpmt:winapinls.obj
 0002:00002328       ??_C@_1M@IMEPLEPE@?$AAz?$AAh?$AA?9?$AAt?$AAw?$AA?$AA@ 000000006409e328     libcpmt:winapinls.obj
 0002:00002338       ??_C@_1M@BBGHNHJP@?$AAz?$AAu?$AA?9?$AAz?$AAa?$AA?$AA@ 000000006409e338     libcpmt:winapinls.obj
 0002:00003fd0       ??_C@_15EMKDOKLE@?$AAa?$AAr?$AA?$AA@ 000000006409ffd0     libcpmt:winapinls.obj
 0002:00003fd8       ??_C@_15KNPADPLH@?$AAb?$AAg?$AA?$AA@ 000000006409ffd8     libcpmt:winapinls.obj
 0002:00003fe0       ??_C@_15EDMHLDMO@?$AAc?$AAa?$AA?$AA@ 000000006409ffe0     libcpmt:winapinls.obj
 0002:00003fe8       ??_C@_1O@BPEAJADD@?$AAz?$AAh?$AA?9?$AAC?$AAH?$AAS?$AA?$AA@ 000000006409ffe8     libcpmt:winapinls.obj
 0002:00003ff8       ??_C@_15LJNHCMNK@?$AAc?$AAs?$AA?$AA@ 000000006409fff8     libcpmt:winapinls.obj
 0002:00004000       ??_C@_15NBKABECB@?$AAd?$AAe?$AA?$AA@ 00000000640a0000     libcpmt:winapinls.obj
 0002:00004008       ??_C@_15GHPEIIAO@?$AAe?$AAl?$AA?$AA@ 00000000640a0008     libcpmt:winapinls.obj
 0002:00004010       ??_C@_15MNPNEAIF@?$AAe?$AAn?$AA?$AA@ 00000000640a0010     libcpmt:winapinls.obj
 0002:00004018       ??_C@_15GPIOMPMH@?$AAe?$AAs?$AA?$AA@ 00000000640a0018     libcpmt:winapinls.obj
 0002:00004020       ??_C@_15NGLOAKJC@?$AAf?$AAi?$AA?$AA@ 00000000640a0020     libcpmt:winapinls.obj
 0002:00004028       ??_C@_15FBKGNKAM@?$AAf?$AAr?$AA?$AA@ 00000000640a0028     libcpmt:winapinls.obj
 0002:00004030       ??_C@_15PGHLIDMF@?$AAh?$AAu?$AA?$AA@ 00000000640a0030     libcpmt:winapinls.obj
 0002:00004038       ??_C@_15BIEMAPLM@?$AAi?$AAs?$AA?$AA@ 00000000640a0038     libcpmt:winapinls.obj
 0002:00004040       ??_C@_15IFJLDHAF@?$AAi?$AAt?$AA?$AA@ 00000000640a0040     libcpmt:winapinls.obj
 0002:00004048       ??_C@_15GEMIOCAG@?$AAj?$AAa?$AA?$AA@ 00000000640a0048     libcpmt:winapinls.obj
 0002:00004050       ??_C@_15EPELEGJA@?$AAk?$AAo?$AA?$AA@ 00000000640a0050     libcpmt:winapinls.obj
 0002:00004058       ??_C@_15NDDHIMN@?$AAn?$AAl?$AA?$AA@ 00000000640a0058     libcpmt:winapinls.obj
 0002:00004060       ??_C@_15DEOPBLCG@?$AAp?$AAl?$AA?$AA@ 00000000640a0060     libcpmt:winapinls.obj
 0002:00004068       ??_C@_15KBECGEFG@?$AAp?$AAt?$AA?$AA@ 00000000640a0068     libcpmt:winapinls.obj
 0002:00004070       ??_C@_15GLJCBFMD@?$AAr?$AAo?$AA?$AA@ 00000000640a0070     libcpmt:winapinls.obj
 0002:00004078       ??_C@_15GLKMLLHM@?$AAh?$AAr?$AA?$AA@ 00000000640a0078     libcpmt:winapinls.obj
 0002:00004080       ??_C@_15CPKMFBDB@?$AAs?$AAk?$AA?$AA@ 00000000640a0080     libcpmt:winapinls.obj
 0002:00004088       ??_C@_15BAAIOGMK@?$AAs?$AAq?$AA?$AA@ 00000000640a0088     libcpmt:winapinls.obj
 0002:00004090       ??_C@_15INNPNOHD@?$AAs?$AAv?$AA?$AA@ 00000000640a0090     libcpmt:winapinls.obj
 0002:00004098       ??_C@_15CABMMOGH@?$AAt?$AAh?$AA?$AA@ 00000000640a0098     libcpmt:winapinls.obj
 0002:000040a0       ??_C@_15BPLIHJJM@?$AAt?$AAr?$AA?$AA@ 00000000640a00a0     libcpmt:winapinls.obj
 0002:000040a8       ??_C@_15NEOEKKDJ@?$AAu?$AAr?$AA?$AA@ 00000000640a00a8     libcpmt:winapinls.obj
 0002:000040b0       ??_C@_15NFICGAJK@?$AAi?$AAd?$AA?$AA@ 00000000640a00b0     libcpmt:winapinls.obj
 0002:000040b8       ??_C@_15PJPFLCCM@?$AAu?$AAk?$AA?$AA@ 00000000640a00b8     libcpmt:winapinls.obj
 0002:000040c0       ??_C@_15HPJPHDM@?$AAb?$AAe?$AA?$AA@ 00000000640a00c0     libcpmt:winapinls.obj
 0002:000040c8       ??_C@_15LCHLGJII@?$AAs?$AAl?$AA?$AA@ 00000000640a00c8     libcpmt:winapinls.obj
 0002:000040d0       ??_C@_15PCFJPHHO@?$AAe?$AAt?$AA?$AA@ 00000000640a00d0     libcpmt:winapinls.obj
 0002:000040d8       ??_C@_15HPFPGODN@?$AAl?$AAv?$AA?$AA@ 00000000640a00d8     libcpmt:winapinls.obj
 0002:000040e0       ??_C@_15NFFGKGLG@?$AAl?$AAt?$AA?$AA@ 00000000640a00e0     libcpmt:winapinls.obj
 0002:000040e8       ??_C@_15BDAKCCHN@?$AAf?$AAa?$AA?$AA@ 00000000640a00e8     libcpmt:winapinls.obj
 0002:000040f0       ??_C@_15NFGIAIAJ@?$AAv?$AAi?$AA?$AA@ 00000000640a00f0     libcpmt:winapinls.obj
 0002:000040f8       ??_C@_15LMKNDMHN@?$AAh?$AAy?$AA?$AA@ 00000000640a00f8     libcpmt:winapinls.obj
 0002:00004100       ??_C@_15IJBHMCFL@?$AAa?$AAz?$AA?$AA@ 00000000640a0100     libcpmt:winapinls.obj
 0002:00004108       ??_C@_15EKOFJABL@?$AAe?$AAu?$AA?$AA@ 00000000640a0108     libcpmt:winapinls.obj
 0002:00004110       ??_C@_15BGHADCNK@?$AAm?$AAk?$AA?$AA@ 00000000640a0110     libcpmt:winapinls.obj
 0002:00004118       ??_C@_15JDNICKHM@?$AAa?$AAf?$AA?$AA@ 00000000640a0118     libcpmt:winapinls.obj
 0002:00004120       ??_C@_15KPJEDBKD@?$AAk?$AAa?$AA?$AA@ 00000000640a0120     libcpmt:winapinls.obj
 0002:00004128       ??_C@_15PDNFFFEO@?$AAf?$AAo?$AA?$AA@ 00000000640a0128     libcpmt:winapinls.obj
 0002:00004130       ??_C@_15OMLEGLOC@?$AAh?$AAi?$AA?$AA@ 00000000640a0130     libcpmt:winapinls.obj
 0002:00004138       ??_C@_15IDNNENKK@?$AAm?$AAs?$AA?$AA@ 00000000640a0138     libcpmt:winapinls.obj
 0002:00004140       ??_C@_15MACJNBMH@?$AAk?$AAk?$AA?$AA@ 00000000640a0140     libcpmt:winapinls.obj
 0002:00004148       ??_C@_15DKDJEOND@?$AAk?$AAy?$AA?$AA@ 00000000640a0148     libcpmt:winapinls.obj
 0002:00004150       ??_C@_15DFGDLJBG@?$AAs?$AAw?$AA?$AA@ 00000000640a0150     libcpmt:winapinls.obj
 0002:00004158       ??_C@_15BBFAICNG@?$AAu?$AAz?$AA?$AA@ 00000000640a0158     libcpmt:winapinls.obj
 0002:00004160       ??_C@_15DKNDCGEA@?$AAt?$AAt?$AA?$AA@ 00000000640a0160     libcpmt:winapinls.obj
 0002:00004168       ??_C@_15MGIFMDPL@?$AAp?$AAa?$AA?$AA@ 00000000640a0168     libcpmt:winapinls.obj
 0002:00004170       ??_C@_15HCNDBBA@?$AAg?$AAu?$AA?$AA@ 00000000640a0170     libcpmt:winapinls.obj
 0002:00004178       ??_C@_15FNBEIBON@?$AAt?$AAa?$AA?$AA@ 00000000640a0178     libcpmt:winapinls.obj
 0002:00004180       ??_C@_15NCHGBGLK@?$AAt?$AAe?$AA?$AA@ 00000000640a0180     libcpmt:winapinls.obj
 0002:00004188       ??_C@_15PHPHCBPF@?$AAk?$AAn?$AA?$AA@ 00000000640a0188     libcpmt:winapinls.obj
 0002:00004190       ??_C@_15DLGBCKMP@?$AAm?$AAr?$AA?$AA@ 00000000640a0190     libcpmt:winapinls.obj
 0002:00004198       ??_C@_15EABBLBFF@?$AAs?$AAa?$AA?$AA@ 00000000640a0198     libcpmt:winapinls.obj
 0002:000041a0       ??_C@_15CBKOMCOI@?$AAm?$AAn?$AA?$AA@ 00000000640a01a0     libcpmt:winapinls.obj
 0002:000041a8       ??_C@_15CKDMCJAF@?$AAg?$AAl?$AA?$AA@ 00000000640a01a8     libcpmt:winapinls.obj
 0002:000041b0       ??_C@_17CNJFBPG@?$AAk?$AAo?$AAk?$AA?$AA@ 00000000640a01b0     libcpmt:winapinls.obj
 0002:000041b8       ??_C@_17FFBJICPL@?$AAs?$AAy?$AAr?$AA?$AA@ 00000000640a01b8     libcpmt:winapinls.obj
 0002:000041c0       ??_C@_17KPNDCPAF@?$AAd?$AAi?$AAv?$AA?$AA@ 00000000640a01c0     libcpmt:winapinls.obj
 0002:000041c8       ??_C@_1M@OKAHONE@?$AAa?$AAr?$AA?9?$AAS?$AAA?$AA?$AA@ 00000000640a01c8     libcpmt:winapinls.obj
 0002:000041d8       ??_C@_1M@FFFIGIGK@?$AAb?$AAg?$AA?9?$AAB?$AAG?$AA?$AA@ 00000000640a01d8     libcpmt:winapinls.obj
 0002:000041e8       ??_C@_1M@BJNKEDC@?$AAc?$AAa?$AA?9?$AAE?$AAS?$AA?$AA@ 00000000640a01e8     libcpmt:winapinls.obj
 0002:000041f8       ??_C@_1M@CLNBBOPM@?$AAz?$AAh?$AA?9?$AAT?$AAW?$AA?$AA@ 00000000640a01f8     libcpmt:winapinls.obj
 0002:00004208       ??_C@_1M@IJJHFJHA@?$AAc?$AAs?$AA?9?$AAC?$AAZ?$AA?$AA@ 00000000640a0208     libcpmt:winapinls.obj
 0002:00004218       ??_C@_1M@CLPEOBGI@?$AAd?$AAa?$AA?9?$AAD?$AAK?$AA?$AA@ 00000000640a0218     libcpmt:winapinls.obj
 0002:00004228       ??_C@_1M@MCMADGCB@?$AAd?$AAe?$AA?9?$AAD?$AAE?$AA?$AA@ 00000000640a0228     libcpmt:winapinls.obj
 0002:00004238       ??_C@_1M@OOCKEMAM@?$AAe?$AAl?$AA?9?$AAG?$AAR?$AA?$AA@ 00000000640a0238     libcpmt:winapinls.obj
 0002:00004248       ??_C@_1M@BMHNFIME@?$AAe?$AAn?$AA?9?$AAU?$AAS?$AA?$AA@ 00000000640a0248     libcpmt:winapinls.obj
 0002:00004258       ??_C@_1M@DDNJFGID@?$AAf?$AAi?$AA?9?$AAF?$AAI?$AA?$AA@ 00000000640a0258     libcpmt:winapinls.obj
 0002:00004268       ??_C@_1M@GLIPPMAC@?$AAf?$AAr?$AA?9?$AAF?$AAR?$AA?$AA@ 00000000640a0268     libcpmt:winapinls.obj
 0002:00004278       ??_C@_1M@GFMCHPE@?$AAh?$AAe?$AA?9?$AAI?$AAL?$AA?$AA@ 00000000640a0278     libcpmt:winapinls.obj
 0002:00004288       ??_C@_1M@MHLPGNKM@?$AAh?$AAu?$AA?9?$AAH?$AAU?$AA?$AA@ 00000000640a0288     libcpmt:winapinls.obj
 0002:00004298       ??_C@_1M@LPDDNNPN@?$AAi?$AAs?$AA?9?$AAI?$AAS?$AA?$AA@ 00000000640a0298     libcpmt:winapinls.obj
 0002:000042a8       ??_C@_1M@MADIPODN@?$AAi?$AAt?$AA?9?$AAI?$AAT?$AA?$AA@ 00000000640a02a8     libcpmt:winapinls.obj
 0002:000042b8       ??_C@_1M@HPNHIDJI@?$AAj?$AAa?$AA?9?$AAJ?$AAP?$AA?$AA@ 00000000640a02b8     libcpmt:winapinls.obj
 0002:000042c8       ??_C@_1M@JLOOOEGK@?$AAk?$AAo?$AA?9?$AAK?$AAR?$AA?$AA@ 00000000640a02c8     libcpmt:winapinls.obj
 0002:000042d8       ??_C@_1M@IHBJJGG@?$AAn?$AAl?$AA?9?$AAN?$AAL?$AA?$AA@ 00000000640a02d8     libcpmt:winapinls.obj
 0002:000042e8       ??_C@_1M@EANAGDL@?$AAn?$AAb?$AA?9?$AAN?$AAO?$AA?$AA@ 00000000640a02e8     libcpmt:winapinls.obj
 0002:000042f8       ??_C@_1M@NEIEMEGP@?$AAp?$AAl?$AA?9?$AAP?$AAL?$AA?$AA@ 00000000640a02f8     libcpmt:winapinls.obj
 0002:00004308       ??_C@_1M@BOCFIGEP@?$AAp?$AAt?$AA?9?$AAB?$AAR?$AA?$AA@ 00000000640a0308     libcpmt:winapinls.obj
 0002:00004318       ??_C@_1M@IMPFOPBG@?$AAr?$AAo?$AA?9?$AAR?$AAO?$AA?$AA@ 00000000640a0318     libcpmt:winapinls.obj
 0002:00004328       ??_C@_1M@IDNNEJMM@?$AAr?$AAu?$AA?9?$AAR?$AAU?$AA?$AA@ 00000000640a0328     libcpmt:winapinls.obj
 0002:00004338       ??_C@_1M@LILEEOGM@?$AAh?$AAr?$AA?9?$AAH?$AAR?$AA?$AA@ 00000000640a0338     libcpmt:winapinls.obj
 0002:00004348       ??_C@_1M@FKIFEHPB@?$AAs?$AAk?$AA?9?$AAS?$AAK?$AA?$AA@ 00000000640a0348     libcpmt:winapinls.obj
 0002:00004358       ??_C@_1M@LJMAMNPJ@?$AAs?$AAq?$AA?9?$AAA?$AAL?$AA?$AA@ 00000000640a0358     libcpmt:winapinls.obj
 0002:00004368       ??_C@_1M@GIAKDKJK@?$AAs?$AAv?$AA?9?$AAS?$AAE?$AA?$AA@ 00000000640a0368     libcpmt:winapinls.obj
 0002:00004378       ??_C@_1M@MKJKIKCL@?$AAt?$AAh?$AA?9?$AAT?$AAH?$AA?$AA@ 00000000640a0378     libcpmt:winapinls.obj
 0002:00004388       ??_C@_1M@MFLCCMPB@?$AAt?$AAr?$AA?9?$AAT?$AAR?$AA?$AA@ 00000000640a0388     libcpmt:winapinls.obj
 0002:00004398       ??_C@_1M@OIJHDKJN@?$AAu?$AAr?$AA?9?$AAP?$AAK?$AA?$AA@ 00000000640a0398     libcpmt:winapinls.obj
 0002:000043a8       ??_C@_1M@LHIPCIEK@?$AAi?$AAd?$AA?9?$AAI?$AAD?$AA?$AA@ 00000000640a03a8     libcpmt:winapinls.obj
 0002:000043b8       ??_C@_1M@MFMOBGI@?$AAu?$AAk?$AA?9?$AAU?$AAA?$AA?$AA@ 00000000640a03b8     libcpmt:winapinls.obj
 0002:000043c8       ??_C@_1M@OBGLJIPL@?$AAb?$AAe?$AA?9?$AAB?$AAY?$AA?$AA@ 00000000640a03c8     libcpmt:winapinls.obj
 0002:000043d8       ??_C@_1M@BCFAJEAD@?$AAs?$AAl?$AA?9?$AAS?$AAI?$AA?$AA@ 00000000640a03d8     libcpmt:winapinls.obj
 0002:000043e8       ??_C@_1M@FKFFEDDN@?$AAe?$AAt?$AA?9?$AAE?$AAE?$AA?$AA@ 00000000640a03e8     libcpmt:winapinls.obj
 0002:000043f8       ??_C@_1M@KGKKAACI@?$AAl?$AAv?$AA?9?$AAL?$AAV?$AA?$AA@ 00000000640a03f8     libcpmt:winapinls.obj
 0002:00004408       ??_C@_1M@IFGBIJO@?$AAl?$AAt?$AA?9?$AAL?$AAT?$AA?$AA@ 00000000640a0408     libcpmt:winapinls.obj
 0002:00004418       ??_C@_1M@FGEAHEDM@?$AAf?$AAa?$AA?9?$AAI?$AAR?$AA?$AA@ 00000000640a0418     libcpmt:winapinls.obj
 0002:00004428       ??_C@_1M@KBMAIBFN@?$AAv?$AAi?$AA?9?$AAV?$AAN?$AA?$AA@ 00000000640a0428     libcpmt:winapinls.obj
 0002:00004438       ??_C@_1M@GPCBKDJK@?$AAh?$AAy?$AA?9?$AAA?$AAM?$AA?$AA@ 00000000640a0438     libcpmt:winapinls.obj
 0002:00004448       ??_C@_1BG@BECMDDJB@?$AAa?$AAz?$AA?9?$AAA?$AAZ?$AA?9?$AAL?$AAa?$AAt?$AAn?$AA?$AA@ 00000000640a0448     libcpmt:winapinls.obj
 0002:00004460       ??_C@_1M@MAOFCAEA@?$AAe?$AAu?$AA?9?$AAE?$AAS?$AA?$AA@ 00000000640a0460     libcpmt:winapinls.obj
 0002:00004470       ??_C@_1M@IGHABKPI@?$AAm?$AAk?$AA?9?$AAM?$AAK?$AA?$AA@ 00000000640a0470     libcpmt:winapinls.obj
 0002:00004480       ??_C@_1M@IAIGNEJG@?$AAt?$AAn?$AA?9?$AAZ?$AAA?$AA?$AA@ 00000000640a0480     libcpmt:winapinls.obj
 0002:00004490       ??_C@_1M@IIJCOJFA@?$AAx?$AAh?$AA?9?$AAZ?$AAA?$AA?$AA@ 00000000640a0490     libcpmt:winapinls.obj
 0002:000044a0       ??_C@_1M@LGPJHNJH@?$AAz?$AAu?$AA?9?$AAZ?$AAA?$AA?$AA@ 00000000640a04a0     libcpmt:winapinls.obj
 0002:000044b0       ??_C@_1M@HOKAOIO@?$AAa?$AAf?$AA?9?$AAZ?$AAA?$AA?$AA@ 00000000640a04b0     libcpmt:winapinls.obj
 0002:000044c0       ??_C@_1M@DPCLHLIE@?$AAk?$AAa?$AA?9?$AAG?$AAE?$AA?$AA@ 00000000640a04c0     libcpmt:winapinls.obj
 0002:000044d0       ??_C@_1M@BLKMHJBI@?$AAf?$AAo?$AA?9?$AAF?$AAO?$AA?$AA@ 00000000640a04d0     libcpmt:winapinls.obj
 0002:000044e0       ??_C@_1M@LGGJAPPB@?$AAh?$AAi?$AA?9?$AAI?$AAN?$AA?$AA@ 00000000640a04e0     libcpmt:winapinls.obj
 0002:000044f0       ??_C@_1M@FIKPIHFE@?$AAm?$AAt?$AA?9?$AAM?$AAT?$AA?$AA@ 00000000640a04f0     libcpmt:winapinls.obj
 0002:00004500       ??_C@_1M@HEGGPBFA@?$AAs?$AAe?$AA?9?$AAN?$AAO?$AA?$AA@ 00000000640a0500     libcpmt:winapinls.obj
 0002:00004510       ??_C@_1M@EIBJEEPA@?$AAm?$AAs?$AA?9?$AAM?$AAY?$AA?$AA@ 00000000640a0510     libcpmt:winapinls.obj
 0002:00004520       ??_C@_1M@FHLBGMPP@?$AAk?$AAk?$AA?9?$AAK?$AAZ?$AA?$AA@ 00000000640a0520     libcpmt:winapinls.obj
 0002:00004530       ??_C@_1M@NGJJLCGI@?$AAk?$AAy?$AA?9?$AAK?$AAG?$AA?$AA@ 00000000640a0530     libcpmt:winapinls.obj
 0002:00004540       ??_C@_1M@GIENNBFC@?$AAs?$AAw?$AA?9?$AAK?$AAE?$AA?$AA@ 00000000640a0540     libcpmt:winapinls.obj
 0002:00004550       ??_C@_1BG@NDGMJIMJ@?$AAu?$AAz?$AA?9?$AAU?$AAZ?$AA?9?$AAL?$AAa?$AAt?$AAn?$AA?$AA@ 00000000640a0550     libcpmt:winapinls.obj
 0002:00004568       ??_C@_1M@IDCCIHBC@?$AAt?$AAt?$AA?9?$AAR?$AAU?$AA?$AA@ 00000000640a0568     libcpmt:winapinls.obj
 0002:00004578       ??_C@_1M@LOICPMOJ@?$AAb?$AAn?$AA?9?$AAI?$AAN?$AA?$AA@ 00000000640a0578     libcpmt:winapinls.obj
 0002:00004588       ??_C@_1M@KPKKNEAH@?$AAp?$AAa?$AA?9?$AAI?$AAN?$AA?$AA@ 00000000640a0588     libcpmt:winapinls.obj
 0002:00004598       ??_C@_1M@PJGPPBOG@?$AAg?$AAu?$AA?9?$AAI?$AAN?$AA?$AA@ 00000000640a0598     libcpmt:winapinls.obj
 0002:000045a8       ??_C@_1M@KMKMOPHI@?$AAt?$AAa?$AA?9?$AAI?$AAN?$AA?$AA@ 00000000640a05a8     libcpmt:winapinls.obj
 0002:000045b8       ??_C@_1M@KFEHEPAC@?$AAt?$AAe?$AA?9?$AAI?$AAN?$AA?$AA@ 00000000640a05b8     libcpmt:winapinls.obj
 0002:000045c8       ??_C@_1M@CDCLMGHI@?$AAk?$AAn?$AA?9?$AAI?$AAN?$AA?$AA@ 00000000640a05c8     libcpmt:winapinls.obj
 0002:000045d8       ??_C@_1M@MIODLDKF@?$AAm?$AAl?$AA?9?$AAI?$AAN?$AA?$AA@ 00000000640a05d8     libcpmt:winapinls.obj
 0002:000045e8       ??_C@_1M@PBIEACPO@?$AAm?$AAr?$AA?9?$AAI?$AAN?$AA?$AA@ 00000000640a05e8     libcpmt:winapinls.obj
 0002:000045f8       ??_C@_1M@NIDEAGPH@?$AAs?$AAa?$AA?9?$AAI?$AAN?$AA?$AA@ 00000000640a05f8     libcpmt:winapinls.obj
 0002:00004608       ??_C@_1M@FHIHCBIO@?$AAm?$AAn?$AA?9?$AAM?$AAN?$AA?$AA@ 00000000640a0608     libcpmt:winapinls.obj
 0002:00004618       ??_C@_1M@JAIJPENP@?$AAc?$AAy?$AA?9?$AAG?$AAB?$AA?$AA@ 00000000640a0618     libcpmt:winapinls.obj
 0002:00004628       ??_C@_1M@PHGFBEPN@?$AAg?$AAl?$AA?9?$AAE?$AAS?$AA?$AA@ 00000000640a0628     libcpmt:winapinls.obj
 0002:00004638       ??_C@_1O@KPIPDNCP@?$AAk?$AAo?$AAk?$AA?9?$AAI?$AAN?$AA?$AA@ 00000000640a0638     libcpmt:winapinls.obj
 0002:00004648       ??_C@_1O@KNHJLDJA@?$AAs?$AAy?$AAr?$AA?9?$AAS?$AAY?$AA?$AA@ 00000000640a0648     libcpmt:winapinls.obj
 0002:00004658       ??_C@_1O@MKEKBLAH@?$AAd?$AAi?$AAv?$AA?9?$AAM?$AAV?$AA?$AA@ 00000000640a0658     libcpmt:winapinls.obj
 0002:00004668       ??_C@_1O@OHDCKDDF@?$AAq?$AAu?$AAz?$AA?9?$AAB?$AAO?$AA?$AA@ 00000000640a0668     libcpmt:winapinls.obj
 0002:00004678       ??_C@_1M@LEPJNLFD@?$AAn?$AAs?$AA?9?$AAZ?$AAA?$AA?$AA@ 00000000640a0678     libcpmt:winapinls.obj
 0002:00004688       ??_C@_1M@OMLEIIJB@?$AAm?$AAi?$AA?9?$AAN?$AAZ?$AA?$AA@ 00000000640a0688     libcpmt:winapinls.obj
 0002:00004698       ??_C@_1M@PMPEAILG@?$AAa?$AAr?$AA?9?$AAI?$AAQ?$AA?$AA@ 00000000640a0698     libcpmt:winapinls.obj
 0002:000046a8       ??_C@_1M@BIBDDEMK@?$AAz?$AAh?$AA?9?$AAC?$AAN?$AA?$AA@ 00000000640a06a8     libcpmt:winapinls.obj
 0002:000046b8       ??_C@_1M@CNKPNOEE@?$AAd?$AAe?$AA?9?$AAC?$AAH?$AA?$AA@ 00000000640a06b8     libcpmt:winapinls.obj
 0002:000046c8       ??_C@_1M@LKMGMLKO@?$AAe?$AAn?$AA?9?$AAG?$AAB?$AA?$AA@ 00000000640a06c8     libcpmt:winapinls.obj
 0002:000046d8       ??_C@_1M@PGKJFFGL@?$AAe?$AAs?$AA?9?$AAM?$AAX?$AA?$AA@ 00000000640a06d8     libcpmt:winapinls.obj
 0002:000046e8       ??_C@_1M@DNNANBDC@?$AAf?$AAr?$AA?9?$AAB?$AAE?$AA?$AA@ 00000000640a06e8     libcpmt:winapinls.obj
 0002:000046f8       ??_C@_1M@HLGMDFHM@?$AAi?$AAt?$AA?9?$AAC?$AAH?$AA?$AA@ 00000000640a06f8     libcpmt:winapinls.obj
 0002:00004708       ??_C@_1M@CLLBGJH@?$AAn?$AAl?$AA?9?$AAB?$AAE?$AA?$AA@ 00000000640a0708     libcpmt:winapinls.obj
 0002:00004718       ??_C@_1M@BODBOGLF@?$AAn?$AAn?$AA?9?$AAN?$AAO?$AA?$AA@ 00000000640a0718     libcpmt:winapinls.obj
 0002:00004728       ??_C@_1M@HFFAHKAD@?$AAp?$AAt?$AA?9?$AAP?$AAT?$AA?$AA@ 00000000640a0728     libcpmt:winapinls.obj
 0002:00004738       ??_C@_1BG@LNOAKHIE@?$AAs?$AAr?$AA?9?$AAS?$AAP?$AA?9?$AAL?$AAa?$AAt?$AAn?$AA?$AA@ 00000000640a0738     libcpmt:winapinls.obj
 0002:00004750       ??_C@_1M@HBMHBGAK@?$AAs?$AAv?$AA?9?$AAF?$AAI?$AA?$AA@ 00000000640a0750     libcpmt:winapinls.obj
 0002:00004760       ??_C@_1BG@DGCJGJBE@?$AAa?$AAz?$AA?9?$AAA?$AAZ?$AA?9?$AAC?$AAy?$AAr?$AAl?$AA?$AA@ 00000000640a0760     libcpmt:winapinls.obj
 0002:00004778       ??_C@_1M@KEJDAAHB@?$AAs?$AAe?$AA?9?$AAS?$AAE?$AA?$AA@ 00000000640a0778     libcpmt:winapinls.obj
 0002:00004788       ??_C@_1M@HEIBJJAD@?$AAm?$AAs?$AA?9?$AAB?$AAN?$AA?$AA@ 00000000640a0788     libcpmt:winapinls.obj
 0002:00004798       ??_C@_1BG@PBGJMCEM@?$AAu?$AAz?$AA?9?$AAU?$AAZ?$AA?9?$AAC?$AAy?$AAr?$AAl?$AA?$AA@ 00000000640a0798     libcpmt:winapinls.obj
 0002:000047b0       ??_C@_1O@LAOBCMDF@?$AAq?$AAu?$AAz?$AA?9?$AAE?$AAC?$AA?$AA@ 00000000640a07b0     libcpmt:winapinls.obj
 0002:000047c0       ??_C@_1M@POEEMAIO@?$AAa?$AAr?$AA?9?$AAE?$AAG?$AA?$AA@ 00000000640a07c0     libcpmt:winapinls.obj
 0002:000047d0       ??_C@_1M@EFAKDEDL@?$AAz?$AAh?$AA?9?$AAH?$AAK?$AA?$AA@ 00000000640a07d0     libcpmt:winapinls.obj
 0002:000047e0       ??_C@_1M@HKKIJHGI@?$AAd?$AAe?$AA?9?$AAA?$AAT?$AA?$AA@ 00000000640a07e0     libcpmt:winapinls.obj
 0002:000047f0       ??_C@_1M@KBFBEHJF@?$AAe?$AAn?$AA?9?$AAA?$AAU?$AA?$AA@ 00000000640a07f0     libcpmt:winapinls.obj
 0002:00004800       ??_C@_1M@MNPLFAAH@?$AAe?$AAs?$AA?9?$AAE?$AAS?$AA?$AA@ 00000000640a0800     libcpmt:winapinls.obj
 0002:00004810       ??_C@_1M@HJOOJFMA@?$AAf?$AAr?$AA?9?$AAC?$AAA?$AA?$AA@ 00000000640a0810     libcpmt:winapinls.obj
 0002:00004820       ??_C@_1BG@JPOFPNAB@?$AAs?$AAr?$AA?9?$AAS?$AAP?$AA?9?$AAC?$AAy?$AAr?$AAl?$AA?$AA@ 00000000640a0820     libcpmt:winapinls.obj
 0002:00004838       ??_C@_1M@LNFOCMOB@?$AAs?$AAe?$AA?9?$AAF?$AAI?$AA?$AA@ 00000000640a0838     libcpmt:winapinls.obj
 0002:00004848       ??_C@_1O@MGJBOAMB@?$AAq?$AAu?$AAz?$AA?9?$AAP?$AAE?$AA?$AA@ 00000000640a0848     libcpmt:winapinls.obj
 0002:00004858       ??_C@_1M@GJINLBOK@?$AAa?$AAr?$AA?9?$AAL?$AAY?$AA?$AA@ 00000000640a0858     libcpmt:winapinls.obj
 0002:00004868       ??_C@_1M@GGMNHJNL@?$AAz?$AAh?$AA?9?$AAS?$AAG?$AA?$AA@ 00000000640a0868     libcpmt:winapinls.obj
 0002:00004878       ??_C@_1M@HOIKODND@?$AAd?$AAe?$AA?9?$AAL?$AAU?$AA?$AA@ 00000000640a0878     libcpmt:winapinls.obj
 0002:00004888       ??_C@_1M@DDOCCGFG@?$AAe?$AAn?$AA?9?$AAC?$AAA?$AA?$AA@ 00000000640a0888     libcpmt:winapinls.obj
 0002:00004898       ??_C@_1M@BNOEMJLF@?$AAe?$AAs?$AA?9?$AAG?$AAT?$AA?$AA@ 00000000640a0898     libcpmt:winapinls.obj
 0002:000048a8       ??_C@_1M@EOGNKEK@?$AAf?$AAr?$AA?9?$AAC?$AAH?$AA?$AA@ 00000000640a08a8     libcpmt:winapinls.obj
 0002:000048b8       ??_C@_1M@FLIDJFHL@?$AAh?$AAr?$AA?9?$AAB?$AAA?$AA?$AA@ 00000000640a08b8     libcpmt:winapinls.obj
 0002:000048c8       ??_C@_1O@FMCELNAJ@?$AAs?$AAm?$AAj?$AA?9?$AAN?$AAO?$AA?$AA@ 00000000640a08c8     libcpmt:winapinls.obj
 0002:000048d8       ??_C@_1M@JHGLJMGJ@?$AAa?$AAr?$AA?9?$AAD?$AAZ?$AA?$AA@ 00000000640a08d8     libcpmt:winapinls.obj
 0002:000048e8       ??_C@_1M@JKKFDCNP@?$AAz?$AAh?$AA?9?$AAM?$AAO?$AA?$AA@ 00000000640a08e8     libcpmt:winapinls.obj
 0002:000048f8       ??_C@_1M@GEEFALPE@?$AAd?$AAe?$AA?9?$AAL?$AAI?$AA?$AA@ 00000000640a08f8     libcpmt:winapinls.obj
 0002:00004908       ??_C@_1M@IGEOFBG@?$AAe?$AAn?$AA?9?$AAN?$AAZ?$AA?$AA@ 00000000640a0908     libcpmt:winapinls.obj
 0002:00004918       ??_C@_1M@KDBONEHP@?$AAe?$AAs?$AA?9?$AAC?$AAR?$AA?$AA@ 00000000640a0918     libcpmt:winapinls.obj
 0002:00004928       ??_C@_1M@FHMDOHNN@?$AAf?$AAr?$AA?9?$AAL?$AAU?$AA?$AA@ 00000000640a0928     libcpmt:winapinls.obj
 0002:00004938       ??_C@_1BG@NFKKMAFG@?$AAb?$AAs?$AA?9?$AAB?$AAA?$AA?9?$AAL?$AAa?$AAt?$AAn?$AA?$AA@ 00000000640a0938     libcpmt:winapinls.obj
 0002:00004950       ??_C@_1O@IMNBEMCI@?$AAs?$AAm?$AAj?$AA?9?$AAS?$AAE?$AA?$AA@ 00000000640a0950     libcpmt:winapinls.obj
 0002:00004960       ??_C@_1M@DHHMBNDP@?$AAa?$AAr?$AA?9?$AAM?$AAA?$AA?$AA@ 00000000640a0960     libcpmt:winapinls.obj
 0002:00004970       ??_C@_1M@BNBLJCGH@?$AAe?$AAn?$AA?9?$AAI?$AAE?$AA?$AA@ 00000000640a0970     libcpmt:winapinls.obj
 0002:00004980       ??_C@_1M@GEPAFMDL@?$AAe?$AAs?$AA?9?$AAP?$AAA?$AA?$AA@ 00000000640a0980     libcpmt:winapinls.obj
 0002:00004990       ??_C@_1M@OJONDMDL@?$AAf?$AAr?$AA?9?$AAM?$AAC?$AA?$AA@ 00000000640a0990     libcpmt:winapinls.obj
 0002:000049a0       ??_C@_1BG@OBCNFJB@?$AAs?$AAr?$AA?9?$AAB?$AAA?$AA?9?$AAL?$AAa?$AAt?$AAn?$AA?$AA@ 00000000640a09a0     libcpmt:winapinls.obj
 0002:000049b8       ??_C@_1O@KEMEEGPO@?$AAs?$AAm?$AAa?$AA?9?$AAN?$AAO?$AA?$AA@ 00000000640a09b8     libcpmt:winapinls.obj
 0002:000049c8       ??_C@_1M@ELMGFODK@?$AAa?$AAr?$AA?9?$AAT?$AAN?$AA?$AA@ 00000000640a09c8     libcpmt:winapinls.obj
 0002:000049d8       ??_C@_1M@BHDLHFAF@?$AAe?$AAn?$AA?9?$AAZ?$AAA?$AA?$AA@ 00000000640a09d8     libcpmt:winapinls.obj
 0002:000049e8       ??_C@_1M@BMGIGLIF@?$AAe?$AAs?$AA?9?$AAD?$AAO?$AA?$AA@ 00000000640a09e8     libcpmt:winapinls.obj
 0002:000049f8       ??_C@_1BG@CMBHIPBE@?$AAs?$AAr?$AA?9?$AAB?$AAA?$AA?9?$AAC?$AAy?$AAr?$AAl?$AA?$AA@ 00000000640a09f8     libcpmt:winapinls.obj
 0002:00004a10       ??_C@_1O@HEDBLHNP@?$AAs?$AAm?$AAa?$AA?9?$AAS?$AAE?$AA?$AA@ 00000000640a0a10     libcpmt:winapinls.obj
 0002:00004a20       ??_C@_1M@DAGCADIM@?$AAa?$AAr?$AA?9?$AAO?$AAM?$AA?$AA@ 00000000640a0a20     libcpmt:winapinls.obj
 0002:00004a30       ??_C@_1M@FODLMICG@?$AAe?$AAn?$AA?9?$AAJ?$AAM?$AA?$AA@ 00000000640a0a30     libcpmt:winapinls.obj
 0002:00004a40       ??_C@_1M@DNMLCIHB@?$AAe?$AAs?$AA?9?$AAV?$AAE?$AA?$AA@ 00000000640a0a40     libcpmt:winapinls.obj
 0002:00004a50       ??_C@_1O@EOKHMKJK@?$AAs?$AAm?$AAs?$AA?9?$AAF?$AAI?$AA?$AA@ 00000000640a0a50     libcpmt:winapinls.obj
 0002:00004a60       ??_C@_1M@CAFJMKOF@?$AAa?$AAr?$AA?9?$AAY?$AAE?$AA?$AA@ 00000000640a0a60     libcpmt:winapinls.obj
 0002:00004a70       ??_C@_1M@CBFHIJLI@?$AAe?$AAn?$AA?9?$AAC?$AAB?$AA?$AA@ 00000000640a0a70     libcpmt:winapinls.obj
 0002:00004a80       ??_C@_1M@BGNFLDN@?$AAe?$AAs?$AA?9?$AAC?$AAO?$AA?$AA@ 00000000640a0a80     libcpmt:winapinls.obj
 0002:00004a90       ??_C@_1O@JMPHMAMC@?$AAs?$AAm?$AAn?$AA?9?$AAF?$AAI?$AA?$AA@ 00000000640a0a90     libcpmt:winapinls.obj
 0002:00004aa0       ??_C@_1M@JLANABKE@?$AAa?$AAr?$AA?9?$AAS?$AAY?$AA?$AA@ 00000000640a0aa0     libcpmt:winapinls.obj
 0002:00004ab0       ??_C@_1M@HPKGCFGN@?$AAe?$AAn?$AA?9?$AAB?$AAZ?$AA?$AA@ 00000000640a0ab0     libcpmt:winapinls.obj
 0002:00004ac0       ??_C@_1M@OLJCMLGM@?$AAe?$AAs?$AA?9?$AAP?$AAE?$AA?$AA@ 00000000640a0ac0     libcpmt:winapinls.obj
 0002:00004ad0       ??_C@_1M@MKKGFKLE@?$AAa?$AAr?$AA?9?$AAJ?$AAO?$AA?$AA@ 00000000640a0ad0     libcpmt:winapinls.obj
 0002:00004ae0       ??_C@_1M@EKPGLDNI@?$AAe?$AAn?$AA?9?$AAT?$AAT?$AA?$AA@ 00000000640a0ae0     libcpmt:winapinls.obj
 0002:00004af0       ??_C@_1M@OONGHFHE@?$AAe?$AAs?$AA?9?$AAA?$AAR?$AA?$AA@ 00000000640a0af0     libcpmt:winapinls.obj
 0002:00004b00       ??_C@_1M@OOJFGBHE@?$AAa?$AAr?$AA?9?$AAL?$AAB?$AA?$AA@ 00000000640a0b00     libcpmt:winapinls.obj
 0002:00004b10       ??_C@_1M@GCEJHNEG@?$AAe?$AAn?$AA?9?$AAZ?$AAW?$AA?$AA@ 00000000640a0b10     libcpmt:winapinls.obj
 0002:00004b20       ??_C@_1M@JNOCAHJI@?$AAe?$AAs?$AA?9?$AAE?$AAC?$AA?$AA@ 00000000640a0b20     libcpmt:winapinls.obj
 0002:00004b30       ??_C@_1M@JEFHPGGB@?$AAa?$AAr?$AA?9?$AAK?$AAW?$AA?$AA@ 00000000640a0b30     libcpmt:winapinls.obj
 0002:00004b40       ??_C@_1M@MLKIBJOJ@?$AAe?$AAn?$AA?9?$AAP?$AAH?$AA?$AA@ 00000000640a0b40     libcpmt:winapinls.obj
 0002:00004b50       ??_C@_1M@BDNIPEND@?$AAe?$AAs?$AA?9?$AAC?$AAL?$AA?$AA@ 00000000640a0b50     libcpmt:winapinls.obj
 0002:00004b60       ??_C@_1M@MPNMEKBD@?$AAa?$AAr?$AA?9?$AAA?$AAE?$AA?$AA@ 00000000640a0b60     libcpmt:winapinls.obj
 0002:00004b70       ??_C@_1M@KBJALCPI@?$AAe?$AAs?$AA?9?$AAU?$AAY?$AA?$AA@ 00000000640a0b70     libcpmt:winapinls.obj
 0002:00004b80       ??_C@_1M@LLCCOAGA@?$AAa?$AAr?$AA?9?$AAB?$AAH?$AA?$AA@ 00000000640a0b80     libcpmt:winapinls.obj
 0002:00004b90       ??_C@_1M@PBFNCDEL@?$AAe?$AAs?$AA?9?$AAP?$AAY?$AA?$AA@ 00000000640a0b90     libcpmt:winapinls.obj
 0002:00004ba0       ??_C@_1M@EDGINPNP@?$AAa?$AAr?$AA?9?$AAQ?$AAA?$AA?$AA@ 00000000640a0ba0     libcpmt:winapinls.obj
 0002:00004bb0       ??_C@_1M@MKDBIIJI@?$AAe?$AAs?$AA?9?$AAB?$AAO?$AA?$AA@ 00000000640a0bb0     libcpmt:winapinls.obj
 0002:00004bc0       ??_C@_1M@CPKKEBLD@?$AAe?$AAs?$AA?9?$AAS?$AAV?$AA?$AA@ 00000000640a0bc0     libcpmt:winapinls.obj
 0002:00004bd0       ??_C@_1M@NDBGMMJL@?$AAe?$AAs?$AA?9?$AAH?$AAN?$AA?$AA@ 00000000640a0bd0     libcpmt:winapinls.obj
 0002:00004be0       ??_C@_1M@JIJIBHDP@?$AAe?$AAs?$AA?9?$AAN?$AAI?$AA?$AA@ 00000000640a0be0     libcpmt:winapinls.obj
 0002:00004bf0       ??_C@_1M@CGFMKEEK@?$AAe?$AAs?$AA?9?$AAP?$AAR?$AA?$AA@ 00000000640a0bf0     libcpmt:winapinls.obj
 0002:00004c00       ??_C@_1O@ICJHKIIK@?$AAz?$AAh?$AA?9?$AAC?$AAH?$AAT?$AA?$AA@ 00000000640a0c00     libcpmt:winapinls.obj
 0002:00004c10       ??_C@_15CLNEJCE@?$AAs?$AAr?$AA?$AA@ 00000000640a0c10     libcpmt:winapinls.obj
 0002:00004c18       ??_C@_1M@KAHEKEIG@?$AAa?$AAf?$AA?9?$AAz?$AAa?$AA?$AA@ 00000000640a0c18     libcpmt:winapinls.obj
 0002:00004c28       ??_C@_1M@GIECOABL@?$AAa?$AAr?$AA?9?$AAa?$AAe?$AA?$AA@ 00000000640a0c28     libcpmt:winapinls.obj
 0002:00004c38       ??_C@_1M@BMLMEKGI@?$AAa?$AAr?$AA?9?$AAb?$AAh?$AA?$AA@ 00000000640a0c38     libcpmt:winapinls.obj
 0002:00004c48       ??_C@_1M@DAPFDGGB@?$AAa?$AAr?$AA?9?$AAd?$AAz?$AA?$AA@ 00000000640a0c48     libcpmt:winapinls.obj
 0002:00004c58       ??_C@_1M@FJNKGKIG@?$AAa?$AAr?$AA?9?$AAe?$AAg?$AA?$AA@ 00000000640a0c58     libcpmt:winapinls.obj
 0002:00004c68       ??_C@_1M@FLGKKCLO@?$AAa?$AAr?$AA?9?$AAi?$AAq?$AA?$AA@ 00000000640a0c68     libcpmt:winapinls.obj
 0002:00004c78       ??_C@_1M@GNDIPALM@?$AAa?$AAr?$AA?9?$AAj?$AAo?$AA?$AA@ 00000000640a0c78     libcpmt:winapinls.obj
 0002:00004c88       ??_C@_1M@DDMJFMGJ@?$AAa?$AAr?$AA?9?$AAk?$AAw?$AA?$AA@ 00000000640a0c88     libcpmt:winapinls.obj
 0002:00004c98       ??_C@_1M@EJALMLHM@?$AAa?$AAr?$AA?9?$AAl?$AAb?$AA?$AA@ 00000000640a0c98     libcpmt:winapinls.obj
 0002:00004ca8       ??_C@_1M@MOBDBLOC@?$AAa?$AAr?$AA?9?$AAl?$AAy?$AA?$AA@ 00000000640a0ca8     libcpmt:winapinls.obj
 0002:00004cb8       ??_C@_1M@JAOCLHDH@?$AAa?$AAr?$AA?9?$AAm?$AAa?$AA?$AA@ 00000000640a0cb8     libcpmt:winapinls.obj
 0002:00004cc8       ??_C@_1M@JHPMKJIE@?$AAa?$AAr?$AA?9?$AAo?$AAm?$AA?$AA@ 00000000640a0cc8     libcpmt:winapinls.obj
 0002:00004cd8       ??_C@_1M@OEPGHFNH@?$AAa?$AAr?$AA?9?$AAq?$AAa?$AA?$AA@ 00000000640a0cd8     libcpmt:winapinls.obj
 0002:00004ce8       ??_C@_1M@KJDONENM@?$AAa?$AAr?$AA?9?$AAs?$AAa?$AA?$AA@ 00000000640a0ce8     libcpmt:winapinls.obj
 0002:00004cf8       ??_C@_1M@DMJDKLKM@?$AAa?$AAr?$AA?9?$AAs?$AAy?$AA?$AA@ 00000000640a0cf8     libcpmt:winapinls.obj
 0002:00004d08       ??_C@_1M@OMFIPEDC@?$AAa?$AAr?$AA?9?$AAt?$AAn?$AA?$AA@ 00000000640a0d08     libcpmt:winapinls.obj
 0002:00004d18       ??_C@_1M@IHMHGAON@?$AAa?$AAr?$AA?9?$AAy?$AAe?$AA?$AA@ 00000000640a0d18     libcpmt:winapinls.obj
 0002:00004d28       ??_C@_1BG@KDCPGJGB@?$AAa?$AAz?$AA?9?$AAa?$AAz?$AA?9?$AAc?$AAy?$AAr?$AAl?$AA?$AA@ 00000000640a0d28     libcpmt:winapinls.obj
 0002:00004d40       ??_C@_1BG@IBCKDDOE@?$AAa?$AAz?$AA?9?$AAa?$AAz?$AA?9?$AAl?$AAa?$AAt?$AAn?$AA?$AA@ 00000000640a0d40     libcpmt:winapinls.obj
 0002:00004d58       ??_C@_1M@EGPFDCPD@?$AAb?$AAe?$AA?9?$AAb?$AAy?$AA?$AA@ 00000000640a0d58     libcpmt:winapinls.obj
 0002:00004d68       ??_C@_1M@PCMGMCGC@?$AAb?$AAg?$AA?9?$AAb?$AAg?$AA?$AA@ 00000000640a0d68     libcpmt:winapinls.obj
 0002:00004d78       ??_C@_1M@BJBMFGOB@?$AAb?$AAn?$AA?9?$AAi?$AAn?$AA?$AA@ 00000000640a0d78     libcpmt:winapinls.obj
 0002:00004d88       ??_C@_1BG@EAKMMACD@?$AAb?$AAs?$AA?9?$AAb?$AAa?$AA?9?$AAl?$AAa?$AAt?$AAn?$AA?$AA@ 00000000640a0d88     libcpmt:winapinls.obj
 0002:00004da0       ??_C@_1M@KGADAODK@?$AAc?$AAa?$AA?9?$AAe?$AAs?$AA?$AA@ 00000000640a0da0     libcpmt:winapinls.obj
 0002:00004db0       ??_C@_1M@COAJPDHI@?$AAc?$AAs?$AA?9?$AAc?$AAz?$AA?$AA@ 00000000640a0db0     libcpmt:winapinls.obj
 0002:00004dc0       ??_C@_1M@DHBHFONH@?$AAc?$AAy?$AA?9?$AAg?$AAb?$AA?$AA@ 00000000640a0dc0     libcpmt:winapinls.obj
 0002:00004dd0       ??_C@_1M@IMGKELGA@?$AAd?$AAa?$AA?9?$AAd?$AAk?$AA?$AA@ 00000000640a0dd0     libcpmt:winapinls.obj
 0002:00004de0       ??_C@_1M@NNDGDNGA@?$AAd?$AAe?$AA?9?$AAa?$AAt?$AA?$AA@ 00000000640a0de0     libcpmt:winapinls.obj
 0002:00004df0       ??_C@_1M@IKDBHEEM@?$AAd?$AAe?$AA?9?$AAc?$AAh?$AA?$AA@ 00000000640a0df0     libcpmt:winapinls.obj
 0002:00004e00       ??_C@_1M@GFFOJMCJ@?$AAd?$AAe?$AA?9?$AAd?$AAe?$AA?$AA@ 00000000640a0e00     libcpmt:winapinls.obj
 0002:00004e10       ??_C@_1M@MDNLKBPM@?$AAd?$AAe?$AA?9?$AAl?$AAi?$AA?$AA@ 00000000640a0e10     libcpmt:winapinls.obj
 0002:00004e20       ??_C@_1M@NJBEEJNL@?$AAd?$AAe?$AA?9?$AAl?$AAu?$AA?$AA@ 00000000640a0e20     libcpmt:winapinls.obj
 0002:00004e30       ??_C@_1O@GNNELBAP@?$AAd?$AAi?$AAv?$AA?9?$AAm?$AAv?$AA?$AA@ 00000000640a0e30     libcpmt:winapinls.obj
 0002:00004e40       ??_C@_1M@EJLEOGAE@?$AAe?$AAl?$AA?9?$AAg?$AAr?$AA?$AA@ 00000000640a0e40     libcpmt:winapinls.obj
 0002:00004e50       ??_C@_1M@GMPONJN@?$AAe?$AAn?$AA?9?$AAa?$AAu?$AA?$AA@ 00000000640a0e50     libcpmt:winapinls.obj
 0002:00004e60       ??_C@_1M@NIDIIPGF@?$AAe?$AAn?$AA?9?$AAb?$AAz?$AA?$AA@ 00000000640a0e60     libcpmt:winapinls.obj
 0002:00004e70       ??_C@_1M@JEHMIMFO@?$AAe?$AAn?$AA?9?$AAc?$AAa?$AA?$AA@ 00000000640a0e70     libcpmt:winapinls.obj
 0002:00004e80       ??_C@_1M@IGMJCDLA@?$AAe?$AAn?$AA?9?$AAc?$AAb?$AA?$AA@ 00000000640a0e80     libcpmt:winapinls.obj
 0002:00004e90       ??_C@_1M@BNFIGBKG@?$AAe?$AAn?$AA?9?$AAg?$AAb?$AA?$AA@ 00000000640a0e90     libcpmt:winapinls.obj
 0002:00004ea0       ??_C@_1M@LKIFDIGP@?$AAe?$AAn?$AA?9?$AAi?$AAe?$AA?$AA@ 00000000640a0ea0     libcpmt:winapinls.obj
 0002:00004eb0       ??_C@_1M@PJKFGCCO@?$AAe?$AAn?$AA?9?$AAj?$AAm?$AA?$AA@ 00000000640a0eb0     libcpmt:winapinls.obj
 0002:00004ec0       ??_C@_1M@KPPKEPBO@?$AAe?$AAn?$AA?9?$AAn?$AAz?$AA?$AA@ 00000000640a0ec0     libcpmt:winapinls.obj
 0002:00004f00       __real@3ff0000000000000    00000000640a0f00     libcpmt:xfprec.obj
 0002:00004f18       __real@0000000000000000    00000000640a0f18     libcpmt:xprec.obj
 0002:00004fd8       ??_7type_info@@6B@         00000000640a0fd8     LIBCMT:std_type_info_static.obj
 0002:00004fe0       _pDefaultRawDllMain        00000000640a0fe0     LIBCMT:dll_dllmain.obj
 0002:00004fe0       _pRawDllMain               00000000640a0fe0     LIBCMT:dll_dllmain.obj
 0002:00005000       ??_7bad_array_new_length@std@@6B@ 00000000640a1000     LIBCMT:throw_bad_alloc.obj
 0002:00005010       ??_C@_0BF@KINCDENJ@bad?5array?5new?5length?$AA@ 00000000640a1010     LIBCMT:throw_bad_alloc.obj
 0002:00005028       _pDestructExceptionObject  00000000640a1028     libvcruntime:frame.obj
 0002:00005038       ??_7bad_exception@std@@6B@ 00000000640a1038     libvcruntime:frame.obj
 0002:00005048       ??_C@_0O@DPKOEFFH@bad?5exception?$AA@ 00000000640a1048     libvcruntime:frame.obj
 0002:00005060       ??_7bad_typeid@std@@6B@    00000000640a1060     libvcruntime:rtti.obj
 0002:00005078       ??_7__non_rtti_object@std@@6B@ 00000000640a1078     libvcruntime:rtti.obj
 0002:00005088       ??_C@_0CB@CGKGGDFI@Access?5violation?5?9?5no?5RTTI?5data?$CB@ 00000000640a1088     libvcruntime:rtti.obj
 0002:000050b0       ??_C@_0CH@OLLMPELC@Attempted?5a?5typeid?5of?5nullptr?5po@ 00000000640a10b0     libvcruntime:rtti.obj
 0002:000050d8       ??_C@_0CB@EEENAAHH@Bad?5read?5pointer?5?9?5no?5RTTI?5data?$CB@ 00000000640a10d8     libvcruntime:rtti.obj
 0002:000051d8       _Microsoft_CRTProvider     00000000640a11d8     libvcruntime:telemetry.obj
 0002:000051e0       ??_C@_0O@JEOPJOMI@Main?5Invoked?4?$AA@ 00000000640a11e0     libvcruntime:telemetry.obj
 0002:000051f0       ??_C@_0P@NEAEIBDO@Main?5Returned?4?$AA@ 00000000640a11f0     libvcruntime:telemetry.obj
 0002:00005200       ??_C@_01MIFGBAGJ@?$CL?$AA@ 00000000640a1200     libvcruntime:undname.obj
 0002:00005204       ??_C@_01HNPIGOCE@?$CG?$AA@ 00000000640a1204     libvcruntime:undname.obj
 0002:00005208       ??_C@_03MNHNFDLC@?9?$DO?$CK?$AA@ 00000000640a1208     libvcruntime:undname.obj
 0002:0000520c       ??_C@_01KMDKNFGN@?1?$AA@   00000000640a120c     libvcruntime:undname.obj
 0002:00005210       ??_C@_01FGNFDNOH@?$CF?$AA@ 00000000640a1210     libvcruntime:undname.obj
 0002:00005214       ??_C@_01MNNFJEPP@?$DM?$AA@ 00000000640a1214     libvcruntime:undname.obj
 0002:00005218       ??_C@_02EHCHHCKH@?$DM?$DN?$AA@ 00000000640a1218     libvcruntime:undname.obj
 0002:0000521c       ??_C@_01PPODPGHN@?$DO?$AA@ 00000000640a121c     libvcruntime:undname.obj
 0002:00005220       ??_C@_02EEKDKGMJ@?$DO?$DN?$AA@ 00000000640a1220     libvcruntime:undname.obj
 0002:00005224       ??_C@_01IHBHIGKO@?0?$AA@   00000000640a1224     libvcruntime:undname.obj
 0002:00005228       ??_C@_02HCKGKOFO@?$CI?$CJ?$AA@ 00000000640a1228     libvcruntime:undname.obj
 0002:0000522c       ??_C@_01PJKLJHI@?$HO?$AA@  00000000640a122c     libvcruntime:undname.obj
 0002:00005230       ??_C@_01JKBOJNNK@?$FO?$AA@ 00000000640a1230     libvcruntime:undname.obj
 0002:00005234       ??_C@_01DNKMNLPK@?$HM?$AA@ 00000000640a1234     libvcruntime:undname.obj
 0002:00005238       ??_C@_02PPKAJPJL@?$CG?$CG?$AA@ 00000000640a1238     libvcruntime:undname.obj
 0002:0000523c       ??_C@_02NONPIBCD@?$HM?$HM?$AA@ 00000000640a123c     libvcruntime:undname.obj
 0002:00005240       ??_C@_02FPIMKNGF@?$CK?$DN?$AA@ 00000000640a1240     libvcruntime:undname.obj
 0002:00005244       ??_C@_02FOEOMHFC@?$CL?$DN?$AA@ 00000000640a1244     libvcruntime:undname.obj
 0002:00005248       ??_C@_02FKMDLLOA@?9?$DN?$AA@ 00000000640a1248     libvcruntime:undname.obj
 0002:0000524c       ??_C@_02FJEHGPIO@?1?$DN?$AA@ 00000000640a124c     libvcruntime:undname.obj
 0002:00005250       ??_C@_02FENAOKFI@?$CF?$DN?$AA@ 00000000640a1250     libvcruntime:undname.obj
 0002:00005254       ??_C@_03IKFCCPFF@?$DO?$DO?$DN?$AA@ 00000000640a1254     libvcruntime:undname.obj
 0002:00005258       ??_C@_03CDNPDDLA@?$DM?$DM?$DN?$AA@ 00000000640a1258     libvcruntime:undname.obj
 0002:0000525c       ??_C@_02FGJGFEAB@?$CG?$DN?$AA@ 00000000640a125c     libvcruntime:undname.obj
 0002:00005260       ??_C@_02DHLNPPGH@?$HM?$DN?$AA@ 00000000640a1260     libvcruntime:undname.obj
 0002:00005264       ??_C@_02MHEGNOJ@?$FO?$DN?$AA@ 00000000640a1264     libvcruntime:undname.obj
 0002:00005268       ??_C@_09IFPLHPGF@?$GAvftable?8?$AA@ 00000000640a1268     libvcruntime:undname.obj
 0002:00005278       ??_C@_09BLBHBJP@?$GAvbtable?8?$AA@ 00000000640a1278     libvcruntime:undname.obj
 0002:00005288       ??_C@_07FEEIOKP@?$GAvcall?8?$AA@ 00000000640a1288     libvcruntime:undname.obj
 0002:00005290       ??_C@_08LLFFHHDJ@?$GAtypeof?8?$AA@ 00000000640a1290     libvcruntime:undname.obj
 0002:000052a0       ??_C@_0BF@KDPPACIK@?$GAlocal?5static?5guard?8?$AA@ 00000000640a12a0     libvcruntime:undname.obj
 0002:000052b8       ??_C@_08OBABFOLI@?$GAstring?8?$AA@ 00000000640a12b8     libvcruntime:undname.obj
 0002:000052c8       ??_C@_0BD@JDLKDPAB@?$GAvbase?5destructor?8?$AA@ 00000000640a12c8     libvcruntime:undname.obj
 0002:000052e0       ??_C@_0BN@DEGPLNFK@?$GAvector?5deleting?5destructor?8?$AA@ 00000000640a12e0     libvcruntime:undname.obj
 0002:00005300       ??_C@_0BO@OBMKPJIG@?$GAdefault?5constructor?5closure?8?$AA@ 00000000640a1300     libvcruntime:undname.obj
 0002:00005320       ??_C@_0BN@IMDCHIKM@?$GAscalar?5deleting?5destructor?8?$AA@ 00000000640a1320     libvcruntime:undname.obj
 0002:00005340       ??_C@_0BO@PFGOCPJJ@?$GAvector?5constructor?5iterator?8?$AA@ 00000000640a1340     libvcruntime:undname.obj
 0002:00005360       ??_C@_0BN@LFPFMEDL@?$GAvector?5destructor?5iterator?8?$AA@ 00000000640a1360     libvcruntime:undname.obj
 0002:00005380       ??_C@_0CE@IKBNEHA@?$GAvector?5vbase?5constructor?5iterat@ 00000000640a1380     libvcruntime:undname.obj
 0002:000053a8       ??_C@_0BL@NILFHHPC@?$GAvirtual?5displacement?5map?8?$AA@ 00000000640a13a8     libvcruntime:undname.obj
 0002:000053c8       ??_C@_0CB@JONCMFFK@?$GAeh?5vector?5constructor?5iterator?8@ 00000000640a13c8     libvcruntime:undname.obj
 0002:000053f0       ??_C@_0CA@GCEOPDGL@?$GAeh?5vector?5destructor?5iterator?8?$AA@ 00000000640a13f0     libvcruntime:undname.obj
 0002:00005410       ??_C@_0CH@OOJPLCPH@?$GAeh?5vector?5vbase?5constructor?5ite@ 00000000640a1410     libvcruntime:undname.obj
 0002:00005438       ??_C@_0BL@LLKPOHJI@?$GAcopy?5constructor?5closure?8?$AA@ 00000000640a1438     libvcruntime:undname.obj
 0002:00005458       ??_C@_0BA@KBCDOMBN@?$GAudt?5returning?8?$AA@ 00000000640a1458     libvcruntime:undname.obj
 0002:00005468       ??_C@_03KLGMFNMG@?$GAEH?$AA@ 00000000640a1468     libvcruntime:undname.obj
 0002:0000546c       ??_C@_05KHLCHHI@?$GARTTI?$AA@ 00000000640a146c     libvcruntime:undname.obj
 0002:00005478       ??_C@_0BA@KKLDJDLB@?$GAlocal?5vftable?8?$AA@ 00000000640a1478     libvcruntime:undname.obj
 0002:00005488       ??_C@_0CE@IIHCMGGL@?$GAlocal?5vftable?5constructor?5closu@ 00000000640a1488     libvcruntime:undname.obj
 0002:000054ac       ??_C@_06FHBGPFGH@?5new?$FL?$FN?$AA@ 00000000640a14ac     libvcruntime:undname.obj
 0002:000054b8       ??_C@_09LBNFPBCA@?5delete?$FL?$FN?$AA@ 00000000640a14b8     libvcruntime:undname.obj
 0002:000054c8       ??_C@_0P@HJKNJFNN@?$GAomni?5callsig?8?$AA@ 00000000640a14c8     libvcruntime:undname.obj
 0002:000054d8       ??_C@_0BL@CNOONJFP@?$GAplacement?5delete?5closure?8?$AA@ 00000000640a14d8     libvcruntime:undname.obj
 0002:000054f8       ??_C@_0BN@CKNJLHMB@?$GAplacement?5delete?$FL?$FN?5closure?8?$AA@ 00000000640a14f8     libvcruntime:undname.obj
 0002:00005518       ??_C@_0CG@CFDHKGGD@?$GAmanaged?5vector?5constructor?5iter@ 00000000640a1518     libvcruntime:undname.obj
 0002:00005540       ??_C@_0CF@IMGKMJNO@?$GAmanaged?5vector?5destructor?5itera@ 00000000640a1540     libvcruntime:undname.obj
 0002:00005568       ??_C@_0CG@HLDDJMAG@?$GAeh?5vector?5copy?5constructor?5iter@ 00000000640a1568     libvcruntime:undname.obj
 0002:00005590       ??_C@_0CM@FCBBDIGB@?$GAeh?5vector?5vbase?5copy?5constructo@ 00000000640a1590     libvcruntime:undname.obj
 0002:000055c0       ??_C@_0BL@CLIPGLGB@?$GAdynamic?5initializer?5for?5?8?$AA@ 00000000640a15c0     libvcruntime:undname.obj
 0002:000055e0       ??_C@_0CB@PDBIFEP@?$GAdynamic?5atexit?5destructor?5for?5?8@ 00000000640a15e0     libvcruntime:undname.obj
 0002:00005608       ??_C@_0CD@CGAJBKEJ@?$GAvector?5copy?5constructor?5iterato@ 00000000640a1608     libvcruntime:undname.obj
 0002:00005630       ??_C@_0CJ@GJELGAMM@?$GAvector?5vbase?5copy?5constructor?5i@ 00000000640a1630     libvcruntime:undname.obj
 0002:00005660       ??_C@_0CL@FGIJHLCE@?$GAmanaged?5vector?5copy?5constructor@ 00000000640a1660     libvcruntime:undname.obj
 0002:00005690       ??_C@_0BM@PMGGMLDN@?$GAlocal?5static?5thread?5guard?8?$AA@ 00000000640a1690     libvcruntime:undname.obj
 0002:000056b0       ??_C@_0N@BDNMDMOL@operator?5?$CC?$CC?5?$AA@ 00000000640a16b0     libvcruntime:undname.obj
 0002:000059e8       ??_C@_0BC@DAFEJGAK@?5Type?5Descriptor?8?$AA@ 00000000640a19e8     libvcruntime:undname.obj
 0002:00005a00       ??_C@_0BM@LDKODKLH@?5Base?5Class?5Descriptor?5at?5?$CI?$AA@ 00000000640a1a00     libvcruntime:undname.obj
 0002:00005a20       ??_C@_0BD@LGICGFMM@?5Base?5Class?5Array?8?$AA@ 00000000640a1a20     libvcruntime:undname.obj
 0002:00005a38       ??_C@_0BN@MECKDCOJ@?5Class?5Hierarchy?5Descriptor?8?$AA@ 00000000640a1a38     libvcruntime:undname.obj
 0002:00005a58       ??_C@_0BK@CFCOFLF@?5Complete?5Object?5Locator?8?$AA@ 00000000640a1a58     libvcruntime:undname.obj
 0002:00005a78       ??_C@_08EHJDFFNH@__based?$CI?$AA@ 00000000640a1a78     libvcruntime:undname.obj
 0002:00005a88       ??_C@_07KOLFKCDI@__cdecl?$AA@ 00000000640a1a88     libvcruntime:undname.obj
 0002:00005a90       ??_C@_08GHMPAG@__pascal?$AA@ 00000000640a1a90     libvcruntime:undname.obj
 0002:00005aa0       ??_C@_09IFJBGAPI@__stdcall?$AA@ 00000000640a1aa0     libvcruntime:undname.obj
 0002:00005ab0       ??_C@_0L@NPHFGOKO@__thiscall?$AA@ 00000000640a1ab0     libvcruntime:undname.obj
 0002:00005ac0       ??_C@_0L@JMKHOMEK@__fastcall?$AA@ 00000000640a1ac0     libvcruntime:undname.obj
 0002:00005ad0       ??_C@_0N@BCKKPABJ@__vectorcall?$AA@ 00000000640a1ad0     libvcruntime:undname.obj
 0002:00005ae0       ??_C@_09HIJEGCPM@__clrcall?$AA@ 00000000640a1ae0     libvcruntime:undname.obj
 0002:00005aec       ??_C@_06GHPCKEAG@__eabi?$AA@ 00000000640a1aec     libvcruntime:undname.obj
 0002:00005af8       ??_C@_07JOMMBBKO@__ptr64?$AA@ 00000000640a1af8     libvcruntime:undname.obj
 0002:00005b00       ??_C@_0L@PILCLIHE@__restrict?$AA@ 00000000640a1b00     libvcruntime:undname.obj
 0002:00005b10       ??_C@_0M@GFIIJFMG@__unaligned?$AA@ 00000000640a1b10     libvcruntime:undname.obj
 0002:00005b20       ??_C@_09DHDLOLLB@restrict?$CI?$AA@ 00000000640a1b20     libvcruntime:undname.obj
 0002:00005b2c       ??_C@_04NIHEBCM@?5new?$AA@ 00000000640a1b2c     libvcruntime:undname.obj
 0002:00005b38       ??_C@_07FPCDHGMM@?5delete?$AA@ 00000000640a1b38     libvcruntime:undname.obj
 0002:00005b40       ??_C@_01NEMOKFLO@?$DN?$AA@ 00000000640a1b40     libvcruntime:undname.obj
 0002:00005b44       ??_C@_02GPIOPFAK@?$DO?$DO?$AA@ 00000000640a1b44     libvcruntime:undname.obj
 0002:00005b48       ??_C@_02FODMEDOG@?$DM?$DM?$AA@ 00000000640a1b48     libvcruntime:undname.obj
 0002:00005b4c       ??_C@_01DCLJPIOD@?$CB?$AA@ 00000000640a1b4c     libvcruntime:undname.obj
 0002:00005b50       ??_C@_02EGOFBIJA@?$DN?$DN?$AA@ 00000000640a1b50     libvcruntime:undname.obj
 0002:00005b54       ??_C@_02FDNJECIE@?$CB?$DN?$AA@ 00000000640a1b54     libvcruntime:undname.obj
 0002:00005b58       ??_C@_02GPECMEKF@?$FL?$FN?$AA@ 00000000640a1b58     libvcruntime:undname.obj
 0002:00005b60       ??_C@_08LHJFAFGD@operator?$AA@ 00000000640a1b60     libvcruntime:undname.obj
 0002:00005b6c       ??_C@_02HBOOOICD@?9?$DO?$AA@ 00000000640a1b6c     libvcruntime:undname.obj
 0002:00005b70       ??_C@_02ECNGHCIF@?$CL?$CL?$AA@ 00000000640a1b70     libvcruntime:undname.obj
 0002:00005b74       ??_C@_02BAABKJLB@?9?9?$AA@ 00000000640a1b74     libvcruntime:undname.obj
 0002:00005b78       ??_C@_04HEJADOOB@CV?3?5?$AA@ 00000000640a1b78     libvcruntime:undname.obj
 0002:00005b80       ??_C@_02MOLJINC@?3?3?$AA@  00000000640a1b80     libvcruntime:undname.obj
 0002:00005b88       ??_C@_0BE@JAEOCHPE@template?9parameter?9?$AA@ 00000000640a1b88     libvcruntime:undname.obj
 0002:00005ba0       ??_C@_0O@KHGCOMHP@generic?9type?9?$AA@ 00000000640a1ba0     libvcruntime:undname.obj
 0002:00005bb0       ??_C@_01NLNLIGKH@?$GA?$AA@ 00000000640a1bb0     libvcruntime:undname.obj
 0002:00005bb4       ??_C@_01GEODFPGF@?8?$AA@   00000000640a1bb4     libvcruntime:undname.obj
 0002:00005bb8       ??_C@_0BG@JNJLAMPM@?$GAanonymous?5namespace?8?$AA@ 00000000640a1bb8     libvcruntime:undname.obj
 0002:00005bd0       ??_C@_02OHHJMEON@?8?8?$AA@ 00000000640a1bd0     libvcruntime:undname.obj
 0002:00005bd8       ??_C@_0BN@IBLMMFAP@?$GAnon?9type?9template?9parameter?$AA@ 00000000640a1bd8     libvcruntime:undname.obj
 0002:00005bf8       ??_C@_04GKJNKENE@void?$AA@ 00000000640a1bf8     libvcruntime:undname.obj
 0002:00005c00       ??_C@_0BE@EODMJLIF@?$GAtemplate?9parameter?$AA@ 00000000640a1c00     libvcruntime:undname.obj
 0002:00005c14       ??_C@_03KHICJKCI@?4?4?4?$AA@ 00000000640a1c14     libvcruntime:undname.obj
 0002:00005c18       ??_C@_04HIBGFPH@NULL?$AA@  00000000640a1c18     libvcruntime:undname.obj
 0002:00005c20       ??_C@_02DPKJAMEF@?$CFd?$AA@ 00000000640a1c20     libvcruntime:undname.obj
 0002:00005c28       ??_C@_0BK@IHCCFNEL@?$GAtemplate?9type?9parameter?9?$AA@ 00000000640a1c28     libvcruntime:undname.obj
 0002:00005c48       ??_C@_0BK@OFCNNNKO@?$GAgeneric?9class?9parameter?9?$AA@ 00000000640a1c48     libvcruntime:undname.obj
 0002:00005c68       ??_C@_0BL@NGJBLFIL@?$GAgeneric?9method?9parameter?9?$AA@ 00000000640a1c68     libvcruntime:undname.obj
 0002:00005c84       ??_C@_03OPGICMGF@?$HN?8?5?$AA@ 00000000640a1c84     libvcruntime:undname.obj
 0002:00005c88       ??_C@_02IGFCGPIL@?$HN?8?$AA@ 00000000640a1c88     libvcruntime:undname.obj
 0002:00005c90       ??_C@_0N@CBHHHENL@?$GAvtordispex?$HL?$AA@ 00000000640a1c90     libvcruntime:undname.obj
 0002:00005ca0       ??_C@_0L@GHPFDFH@?$GAvtordisp?$HL?$AA@ 00000000640a1ca0     libvcruntime:undname.obj
 0002:00005cb0       ??_C@_0L@HNGCOGAE@?$GAadjustor?$HL?$AA@ 00000000640a1cb0     libvcruntime:undname.obj
 0002:00005cc0       ??_C@_0CB@KJDOOODE@?$GAlocal?5static?5destructor?5helper?8@ 00000000640a1cc0     libvcruntime:undname.obj
 0002:00005ce8       ??_C@_0DB@ILEFOCIJ@?$GAtemplate?5static?5data?5member?5con@ 00000000640a1ce8     libvcruntime:undname.obj
 0002:00005d20       ??_C@_0DA@HGFJFBBE@?$GAtemplate?5static?5data?5member?5des@ 00000000640a1d20     libvcruntime:undname.obj
 0002:00005d50       ??_C@_07PGOEDBHP@static?5?$AA@ 00000000640a1d50     libvcruntime:undname.obj
 0002:00005d58       ??_C@_08NIEOINHE@virtual?5?$AA@ 00000000640a1d58     libvcruntime:undname.obj
 0002:00005d68       ??_C@_09LAPHOOG@private?3?5?$AA@ 00000000640a1d68     libvcruntime:undname.obj
 0002:00005d78       ??_C@_0M@GAIFPFIP@protected?3?5?$AA@ 00000000640a1d78     libvcruntime:undname.obj
 0002:00005d88       ??_C@_08GPDDCMKI@public?3?5?$AA@ 00000000640a1d88     libvcruntime:undname.obj
 0002:00005d98       ??_C@_08KJLFOPNE@?$FLthunk?$FN?3?$AA@ 00000000640a1d98     libvcruntime:undname.obj
 0002:00005da8       ??_C@_0M@DHNBOJMP@extern?5?$CCC?$CC?5?$AA@ 00000000640a1da8     libvcruntime:undname.obj
 0002:00005db4       ??_C@_02KCKGHPCA@?$CJ?5?$AA@ 00000000640a1db4     libvcruntime:undname.obj
 0002:00005db8       ??_C@_05CIHEBHNO@char?5?$AA@ 00000000640a1db8     libvcruntime:undname.obj
 0002:00005dc0       ??_C@_06EHJMALKF@short?5?$AA@ 00000000640a1dc0     libvcruntime:undname.obj
 0002:00005dc8       ??_C@_04LAHKHJMA@int?5?$AA@ 00000000640a1dc8     libvcruntime:undname.obj
 0002:00005dd0       ??_C@_05CJIMAING@long?5?$AA@ 00000000640a1dd0     libvcruntime:undname.obj
 0002:00005dd8       ??_C@_09EBBEKKIH@unsigned?5?$AA@ 00000000640a1dd8     libvcruntime:undname.obj
 0002:00005de4       ??_C@_05BEFAKPML@void?5?$AA@ 00000000640a1de4     libvcruntime:undname.obj
 0002:00005df0       ??_C@_08PABEKFH@volatile?$AA@ 00000000640a1df0     libvcruntime:undname.obj
 0002:00005e00       ??_C@_0P@GCOCNKDM@std?3?3nullptr_t?$AA@ 00000000640a1e00     libvcruntime:undname.obj
 0002:00005e10       ??_C@_0L@EGPHHEKN@?$DMellipsis?$DO?$AA@ 00000000640a1e10     libvcruntime:undname.obj
 0002:00005e1c       ??_C@_04EENFHACM@?0?4?4?4?$AA@ 00000000640a1e1c     libvcruntime:undname.obj
 0002:00005e28       ??_C@_0M@ELJOJFFH@?0?$DMellipsis?$DO?$AA@ 00000000640a1e28     libvcruntime:undname.obj
 0002:00005e38       ??_C@_07HDJPLPEK@?5throw?$CI?$AA@ 00000000640a1e38     libvcruntime:undname.obj
 0002:00005e40       ??_C@_03PBJBJNON@cpu?$AA@  00000000640a1e40     libvcruntime:undname.obj
 0002:00005e44       ??_C@_03DCBBJBAA@amp?$AA@  00000000640a1e44     libvcruntime:undname.obj
 0002:00005e48       ??_C@_02KEGNLNML@?0?5?$AA@ 00000000640a1e48     libvcruntime:undname.obj
 0002:00005e4c       ??_C@_04ENMBGAPA@char?$AA@ 00000000640a1e4c     libvcruntime:undname.obj
 0002:00005e54       ??_C@_05BFKKPKCG@short?$AA@ 00000000640a1e54     libvcruntime:undname.obj
 0002:00005e5c       ??_C@_03JBIPMCLC@int?$AA@  00000000640a1e5c     libvcruntime:undname.obj
 0002:00005e60       ??_C@_04GOKPGOLB@long?$AA@ 00000000640a1e60     libvcruntime:undname.obj
 0002:00005e68       ??_C@_05KNFBNCOH@float?$AA@ 00000000640a1e68     libvcruntime:undname.obj
 0002:00005e70       ??_C@_06BNJCAIGJ@double?$AA@ 00000000640a1e70     libvcruntime:undname.obj
 0002:00005e78       ??_C@_04DDKJGDCM@bool?$AA@ 00000000640a1e78     libvcruntime:undname.obj
 0002:00005e80       ??_C@_06EBGKOKIG@__int8?$AA@ 00000000640a1e80     libvcruntime:undname.obj
 0002:00005e88       ??_C@_07ICFHOGAF@__int16?$AA@ 00000000640a1e88     libvcruntime:undname.obj
 0002:00005e90       ??_C@_07OFLPPHGP@__int32?$AA@ 00000000640a1e90     libvcruntime:undname.obj
 0002:00005e98       ??_C@_07LFCOJCAC@__int64?$AA@ 00000000640a1e98     libvcruntime:undname.obj
 0002:00005ea0       ??_C@_08GAHOLHEO@__int128?$AA@ 00000000640a1ea0     libvcruntime:undname.obj
 0002:00005eb0       ??_C@_09EEKGDCPH@?$DMunknown?$DO?$AA@ 00000000640a1eb0     libvcruntime:undname.obj
 0002:00005ec0       ??_C@_08HBIPOFJB@char16_t?$AA@ 00000000640a1ec0     libvcruntime:undname.obj
 0002:00005ed0       ??_C@_08IECNCBKG@char32_t?$AA@ 00000000640a1ed0     libvcruntime:undname.obj
 0002:00005ee0       ??_C@_07CLGGIAMF@wchar_t?$AA@ 00000000640a1ee0     libvcruntime:undname.obj
 0002:00005ee8       ??_C@_06GCICPBLB@__w64?5?$AA@ 00000000640a1ee8     libvcruntime:undname.obj
 0002:00005ef0       ??_C@_07NFANNNEC@UNKNOWN?$AA@ 00000000640a1ef0     libvcruntime:undname.obj
 0002:00005ef8       ??_C@_07EDHNAJHC@signed?5?$AA@ 00000000640a1ef8     libvcruntime:undname.obj
 0002:00005f00       ??_C@_05BNCCCJPP@const?$AA@ 00000000640a1f00     libvcruntime:undname.obj
 0002:00005f08       ??_C@_09EFNPDFFP@?5volatile?$AA@ 00000000640a1f08     libvcruntime:undname.obj
 0002:00005f18       ??_C@_0P@GCIFDJCJ@?$GAunknown?5ecsu?8?$AA@ 00000000640a1f18     libvcruntime:undname.obj
 0002:00005f28       ??_C@_06MOJHIBMG@union?5?$AA@ 00000000640a1f28     libvcruntime:undname.obj
 0002:00005f30       ??_C@_07DIBCDNGL@struct?5?$AA@ 00000000640a1f30     libvcruntime:undname.obj
 0002:00005f38       ??_C@_06LJBABKPM@class?5?$AA@ 00000000640a1f38     libvcruntime:undname.obj
 0002:00005f40       ??_C@_08KOFANOFK@coclass?5?$AA@ 00000000640a1f40     libvcruntime:undname.obj
 0002:00005f50       ??_C@_0N@DLIEFKNA@cointerface?5?$AA@ 00000000640a1f50     libvcruntime:undname.obj
 0002:00005f60       ??_C@_05LJGMCFOG@enum?5?$AA@ 00000000640a1f60     libvcruntime:undname.obj
 0002:00005f68       ??_C@_09GAIEOBLP@volatile?5?$AA@ 00000000640a1f68     libvcruntime:undname.obj
 0002:00005f74       ??_C@_06LIJLOJAG@const?5?$AA@ 00000000640a1f74     libvcruntime:undname.obj
 0002:00005f7c       ??_C@_02KJPKDIBN@?$CG?5?$AA@ 00000000640a1f7c     libvcruntime:undname.obj
 0002:00005f80       ??_C@_03PCKGMOPB@?$CG?$CG?5?$AA@ 00000000640a1f80     libvcruntime:undname.obj
 0002:00005f88       ??_C@_0M@EALIELKG@cli?3?3array?$DM?$AA@ 00000000640a1f88     libvcruntime:undname.obj
 0002:00005f98       ??_C@_0O@GKABPPIF@cli?3?3pin_ptr?$DM?$AA@ 00000000640a1f98     libvcruntime:undname.obj
 0002:00005fa8       ??_C@_02GOGNNPBN@?$CJ?$FL?$AA@ 00000000640a1fa8     libvcruntime:undname.obj
 0002:00005fac       ??_C@_06EEGAIFAK@?$HLflat?$HN?$AA@ 00000000640a1fac     libvcruntime:undname.obj
 0002:00005fb4       ??_C@_05JIBOFOHK@?$HLfor?5?$AA@ 00000000640a1fb4     libvcruntime:undname.obj
 0002:00005fbc       ??_C@_02MDINNEEG@s?5?$AA@  00000000640a1fbc     libvcruntime:undname.obj
 0002:00005fc8       ??_7charNode@@6B@          00000000640a1fc8     libvcruntime:undname.obj
 0002:00005fe8       ??_7pcharNode@@6B@         00000000640a1fe8     libvcruntime:undname.obj
 0002:00006008       ??_7pDNameNode@@6B@        00000000640a2008     libvcruntime:undname.obj
 0002:00006028       ??_7DNameStatusNode@@6B@   00000000640a2028     libvcruntime:undname.obj
 0002:00006048       ??_7pairNode@@6B@          00000000640a2048     libvcruntime:undname.obj
 0002:00006060       ??_C@_04OKOHEJBO@?5?$DP?$DP?5?$AA@ 00000000640a2060     libvcruntime:undname.obj
 0002:00006088       ??_C@_1BC@DNHGCMLG@?$AAa?$AAd?$AAv?$AAa?$AAp?$AAi?$AA3?$AA2?$AA?$AA@ 00000000640a2088     libvcruntime:winapi_downlevel.obj
 0002:000060a0       ??_C@_1DM@KHCHBNEB@?$AAa?$AAp?$AAi?$AA?9?$AAm?$AAs?$AA?9?$AAw?$AAi?$AAn?$AA?9?$AAc?$AAo?$AAr?$AAe?$AA?9?$AAf?$AAi?$AAb?$AAe?$AAr?$AAs?$AA?9?$AAl?$AA1?$AA?9?$AA1?$AA?9?$AA1?$AA?$AA@ 00000000640a20a0     libvcruntime:winapi_downlevel.obj
 0002:000060e0       ??_C@_1DK@LPPGFMPP@?$AAa?$AAp?$AAi?$AA?9?$AAm?$AAs?$AA?9?$AAw?$AAi?$AAn?$AA?9?$AAc?$AAo?$AAr?$AAe?$AA?9?$AAs?$AAy?$AAn?$AAc?$AAh?$AA?9?$AAl?$AA1?$AA?9?$AA2?$AA?9?$AA0?$AA?$AA@ 00000000640a20e0     libvcruntime:winapi_downlevel.obj
 0002:00006120       ??_C@_1BC@GDMECMAK@?$AAk?$AAe?$AAr?$AAn?$AAe?$AAl?$AA3?$AA2?$AA?$AA@ 00000000640a2120     libvcruntime:winapi_downlevel.obj
 0002:00006138       ??_C@_0O@BAMBGLIE@EventRegister?$AA@ 00000000640a2138     libvcruntime:winapi_downlevel.obj
 0002:00006150       ??_C@_0BE@BJEEGHGK@EventSetInformation?$AA@ 00000000640a2150     libvcruntime:winapi_downlevel.obj
 0002:00006168       ??_C@_0BA@FAKLIPIC@EventUnregister?$AA@ 00000000640a2168     libvcruntime:winapi_downlevel.obj
 0002:00006180       ??_C@_0BD@PKLHJPHD@EventWriteTransfer?$AA@ 00000000640a2180     libvcruntime:winapi_downlevel.obj
 0002:000061c0       format_validation_lookup_table 00000000640a21c0     libucrt:output.obj
 0002:0000621c       ??_C@_06OJHGLDPL@?$CInull?$CJ?$AA@ 00000000640a221c     libucrt:output.obj
 0002:00006228       ??_C@_1O@CEDCILHN@?$AA?$CI?$AAn?$AAu?$AAl?$AAl?$AA?$CJ?$AA?$AA@ 00000000640a2228     libucrt:output.obj
 0002:00006238       __real@8000000000000000    00000000640a2238     libucrt:frexp.obj
 0002:000063b0       __newctype                 00000000640a23b0     libucrt:ctype.obj
 0002:000066b0       __newclmap                 00000000640a26b0     libucrt:ctype.obj
 0002:00006830       __newcumap                 00000000640a2830     libucrt:ctype.obj
 0002:000069b0       _wctype                    00000000640a29b0     libucrt:ctype.obj
 0002:00006bb4       ??_C@_04EIAKFFMI@sqrt?$AA@ 00000000640a2bb4     libucrt:sqrt.obj
 0002:00006bc0       __acrt_exception_action_table 00000000640a2bc0     libucrt:exception_filter.obj
 0002:00006c80       __acrt_signal_action_table_count 00000000640a2c80     libucrt:exception_filter.obj
 0002:00006c88       __acrt_signal_action_first_fpe_index 00000000640a2c88     libucrt:exception_filter.obj
 0002:00006c90       __acrt_signal_action_fpe_count 00000000640a2c90     libucrt:exception_filter.obj
 0002:00006c98       ??_C@_1BI@BGOHAHKC@?$AAm?$AAs?$AAc?$AAo?$AAr?$AAe?$AAe?$AA?4?$AAd?$AAl?$AAl?$AA?$AA@ 00000000640a2c98     libucrt:exit.obj
 0002:00006cb0       ??_C@_0P@MIGLKIOC@CorExitProcess?$AA@ 00000000640a2cb0     libucrt:exit.obj
 0002:00006db0       __lc_category              00000000640a2db0     libucrt:wsetlocale.obj
 0002:00006e40       ??_C@_1O@GIFLHMA@?$AAL?$AAC?$AA_?$AAA?$AAL?$AAL?$AA?$AA@ 00000000640a2e40     libucrt:wsetlocale.obj
 0002:00006e50       ??_C@_1BG@PPOMIBNJ@?$AAL?$AAC?$AA_?$AAC?$AAO?$AAL?$AAL?$AAA?$AAT?$AAE?$AA?$AA@ 00000000640a2e50     libucrt:wsetlocale.obj
 0002:00006e68       ??_C@_1BC@FFJGAPJM@?$AAL?$AAC?$AA_?$AAC?$AAT?$AAY?$AAP?$AAE?$AA?$AA@ 00000000640a2e68     libucrt:wsetlocale.obj
 0002:00006e80       ??_C@_1BI@PCKFNJFB@?$AAL?$AAC?$AA_?$AAM?$AAO?$AAN?$AAE?$AAT?$AAA?$AAR?$AAY?$AA?$AA@ 00000000640a2e80     libucrt:wsetlocale.obj
 0002:00006e98       ??_C@_1BG@ENIEDKID@?$AAL?$AAC?$AA_?$AAN?$AAU?$AAM?$AAE?$AAR?$AAI?$AAC?$AA?$AA@ 00000000640a2e98     libucrt:wsetlocale.obj
 0002:00006eb0       ??_C@_1BA@HAAOMIIG@?$AAL?$AAC?$AA_?$AAT?$AAI?$AAM?$AAE?$AA?$AA@ 00000000640a2eb0     libucrt:wsetlocale.obj
 0002:00006f40       ??_C@_15NBPDDFIP@?$AA?$DN?$AA?$DL?$AA?$AA@ 00000000640a2f40     libucrt:wsetlocale.obj
 0002:00006f48       ??_C@_13PJJBFPED@?$AA?$DL?$AA?$AA@ 00000000640a2f48     libucrt:wsetlocale.obj
 0002:00006f4c       ??_C@_13NMPKAAJP@?$AA?$DN?$AA?$AA@ 00000000640a2f4c     libucrt:wsetlocale.obj
 0002:00006f50       ??_C@_13FHBKNHDA@?$AAC?$AA?$AA@ 00000000640a2f50     libucrt:wsetlocale.obj
 0002:00006f58       ??_C@_17MBJJLFDM@?$AA_?$AA?4?$AA?0?$AA?$AA@ 00000000640a2f58     libucrt:wsetlocale.obj
 0002:00006f60       __lc_time_c                00000000640a2f60     libucrt:nlsdata.obj
 0002:00007220       ??_C@_03KOEHGMDN@Sun?$AA@  00000000640a3220     libucrt:nlsdata.obj
 0002:00007224       ??_C@_03PDAGKDH@Mon?$AA@   00000000640a3224     libucrt:nlsdata.obj
 0002:00007228       ??_C@_03NAGEINEP@Tue?$AA@  00000000640a3228     libucrt:nlsdata.obj
 0002:0000722c       ??_C@_03MHOMLAJA@Wed?$AA@  00000000640a322c     libucrt:nlsdata.obj
 0002:00007230       ??_C@_03IOFIKPDN@Thu?$AA@  00000000640a3230     libucrt:nlsdata.obj
 0002:00007234       ??_C@_03IDIOELNC@Fri?$AA@  00000000640a3234     libucrt:nlsdata.obj
 0002:00007238       ??_C@_03FEFJNEK@Sat?$AA@   00000000640a3238     libucrt:nlsdata.obj
 0002:0000723c       ??_C@_06OOPIFAJ@Sunday?$AA@ 00000000640a323c     libucrt:nlsdata.obj
 0002:00007244       ??_C@_06JLEDEDGH@Monday?$AA@ 00000000640a3244     libucrt:nlsdata.obj
 0002:00007250       ??_C@_07BAAGCFCM@Tuesday?$AA@ 00000000640a3250     libucrt:nlsdata.obj
 0002:00007258       ??_C@_09DLIGFAKA@Wednesday?$AA@ 00000000640a3258     libucrt:nlsdata.obj
 0002:00007268       ??_C@_08HACCIKIA@Thursday?$AA@ 00000000640a3268     libucrt:nlsdata.obj
 0002:00007274       ??_C@_06JECMNKMI@Friday?$AA@ 00000000640a3274     libucrt:nlsdata.obj
 0002:00007280       ??_C@_08INBOOONO@Saturday?$AA@ 00000000640a3280     libucrt:nlsdata.obj
 0002:0000728c       ??_C@_03JIHJHPIE@Jan?$AA@  00000000640a328c     libucrt:nlsdata.obj
 0002:00007290       ??_C@_03HJBDCHOM@Feb?$AA@  00000000640a3290     libucrt:nlsdata.obj
 0002:00007294       ??_C@_03ODNJBKGA@Mar?$AA@  00000000640a3294     libucrt:nlsdata.obj
 0002:00007298       ??_C@_03LEOLGMJP@Apr?$AA@  00000000640a3298     libucrt:nlsdata.obj
 0002:0000729c       ??_C@_03CNMDKL@May?$AA@    00000000640a329c     libucrt:nlsdata.obj
 0002:000072a0       ??_C@_03IDFGHECI@Jun?$AA@  00000000640a32a0     libucrt:nlsdata.obj
 0002:000072a4       ??_C@_03LBGABGKK@Jul?$AA@  00000000640a32a4     libucrt:nlsdata.obj
 0002:000072a8       ??_C@_03IFJFEIGA@Aug?$AA@  00000000640a32a8     libucrt:nlsdata.obj
 0002:000072ac       ??_C@_03GGCAPAJC@Sep?$AA@  00000000640a32ac     libucrt:nlsdata.obj
 0002:000072b0       ??_C@_03BMAOKBAD@Oct?$AA@  00000000640a32b0     libucrt:nlsdata.obj
 0002:000072b4       ??_C@_03JPJOFNIA@Nov?$AA@  00000000640a32b4     libucrt:nlsdata.obj
 0002:000072b8       ??_C@_03MKABNOCG@Dec?$AA@  00000000640a32b8     libucrt:nlsdata.obj
 0002:000072c0       ??_C@_07CGJPFGJA@January?$AA@ 00000000640a32c0     libucrt:nlsdata.obj
 0002:000072c8       ??_C@_08GNJGEPFN@February?$AA@ 00000000640a32c8     libucrt:nlsdata.obj
 0002:000072d4       ??_C@_05HPCKOFNC@March?$AA@ 00000000640a32d4     libucrt:nlsdata.obj
 0002:000072dc       ??_C@_05DMJDNLEJ@April?$AA@ 00000000640a32dc     libucrt:nlsdata.obj
 0002:000072e4       ??_C@_04CNLMGBGM@June?$AA@ 00000000640a32e4     libucrt:nlsdata.obj
 0002:000072ec       ??_C@_04MIEPOIFP@July?$AA@ 00000000640a32ec     libucrt:nlsdata.obj
 0002:000072f4       ??_C@_06LBBHFDDG@August?$AA@ 00000000640a32f4     libucrt:nlsdata.obj
 0002:00007300       ??_C@_09BHHEALKD@September?$AA@ 00000000640a3300     libucrt:nlsdata.obj
 0002:00007310       ??_C@_07JJNFCEND@October?$AA@ 00000000640a3310     libucrt:nlsdata.obj
 0002:00007318       ??_C@_08HCHEGEOA@November?$AA@ 00000000640a3318     libucrt:nlsdata.obj
 0002:00007328       ??_C@_08EDHMEBNP@December?$AA@ 00000000640a3328     libucrt:nlsdata.obj
 0002:00007334       ??_C@_02DEDBPAFC@AM?$AA@   00000000640a3334     libucrt:nlsdata.obj
 0002:00007338       ??_C@_02CJNFDJBF@PM?$AA@   00000000640a3338     libucrt:nlsdata.obj
 0002:00007340       ??_C@_08BPBNCDIB@MM?1dd?1yy?$AA@ 00000000640a3340     libucrt:nlsdata.obj
 0002:00007350       ??_C@_0BE@CKGJFCPC@dddd?0?5MMMM?5dd?0?5yyyy?$AA@ 00000000640a3350     libucrt:nlsdata.obj
 0002:00007368       ??_C@_08JCCMCCIL@HH?3mm?3ss?$AA@ 00000000640a3368     libucrt:nlsdata.obj
 0002:00007378       ??_C@_17MBGCMIPB@?$AAS?$AAu?$AAn?$AA?$AA@ 00000000640a3378     libucrt:nlsdata.obj
 0002:00007380       ??_C@_17KBOMKBF@?$AAM?$AAo?$AAn?$AA?$AA@ 00000000640a3380     libucrt:nlsdata.obj
 0002:00007388       ??_C@_17BMKGEGOJ@?$AAT?$AAu?$AAe?$AA?$AA@ 00000000640a3388     libucrt:nlsdata.obj
 0002:00007390       ??_C@_17CJEDCEPE@?$AAW?$AAe?$AAd?$AA?$AA@ 00000000640a3390     libucrt:nlsdata.obj
 0002:00007398       ??_C@_17PDPHAADD@?$AAT?$AAh?$AAu?$AA?$AA@ 00000000640a3398     libucrt:nlsdata.obj
 0002:000073a0       ??_C@_17HFOLPPLP@?$AAF?$AAr?$AAi?$AA?$AA@ 00000000640a33a0     libucrt:nlsdata.obj
 0002:000073a8       ??_C@_17GGIBDPIH@?$AAS?$AAa?$AAt?$AA?$AA@ 00000000640a33a8     libucrt:nlsdata.obj
 0002:000073b0       ??_C@_1O@IHNHDHPB@?$AAS?$AAu?$AAn?$AAd?$AAa?$AAy?$AA?$AA@ 00000000640a33b0     libucrt:nlsdata.obj
 0002:000073c0       ??_C@_1O@MMNBFLIA@?$AAM?$AAo?$AAn?$AAd?$AAa?$AAy?$AA?$AA@ 00000000640a33c0     libucrt:nlsdata.obj
 0002:000073d0       ??_C@_1BA@ENFBFFEK@?$AAT?$AAu?$AAe?$AAs?$AAd?$AAa?$AAy?$AA?$AA@ 00000000640a33d0     libucrt:nlsdata.obj
 0002:000073e0       ??_C@_1BE@EBOGMDOH@?$AAW?$AAe?$AAd?$AAn?$AAe?$AAs?$AAd?$AAa?$AAy?$AA?$AA@ 00000000640a33e0     libucrt:nlsdata.obj
 0002:000073f8       ??_C@_1BC@HHMNLIHE@?$AAT?$AAh?$AAu?$AAr?$AAs?$AAd?$AAa?$AAy?$AA?$AA@ 00000000640a33f8     libucrt:nlsdata.obj
 0002:00007410       ??_C@_1O@PDICJHAG@?$AAF?$AAr?$AAi?$AAd?$AAa?$AAy?$AA?$AA@ 00000000640a3410     libucrt:nlsdata.obj
 0002:00007420       ??_C@_1BC@ENMNNPAJ@?$AAS?$AAa?$AAt?$AAu?$AAr?$AAd?$AAa?$AAy?$AA?$AA@ 00000000640a3420     libucrt:nlsdata.obj
 0002:00007438       ??_C@_17DKNBKCHM@?$AAJ?$AAa?$AAn?$AA?$AA@ 00000000640a3438     libucrt:nlsdata.obj
 0002:00007440       ??_C@_17LMDJEKJN@?$AAF?$AAe?$AAb?$AA?$AA@ 00000000640a3440     libucrt:nlsdata.obj
 0002:00007448       ??_C@_17CKNLEDEC@?$AAM?$AAa?$AAr?$AA?$AA@ 00000000640a3448     libucrt:nlsdata.obj
 0002:00007450       ??_C@_17LFPOIHDD@?$AAA?$AAp?$AAr?$AA?$AA@ 00000000640a3450     libucrt:nlsdata.obj
 0002:00007458       ??_C@_17PNNKMEED@?$AAM?$AAa?$AAy?$AA?$AA@ 00000000640a3458     libucrt:nlsdata.obj
 0002:00007460       ??_C@_17KCJGOCPB@?$AAJ?$AAu?$AAn?$AA?$AA@ 00000000640a3460     libucrt:nlsdata.obj
 0002:00007468       ??_C@_17IJPCKHK@?$AAJ?$AAu?$AAl?$AA?$AA@ 00000000640a3468     libucrt:nlsdata.obj
 0002:00007470       ??_C@_17ICPELBCN@?$AAA?$AAu?$AAg?$AA?$AA@ 00000000640a3470     libucrt:nlsdata.obj
 0002:00007478       ??_C@_17HCHCOKMG@?$AAS?$AAe?$AAp?$AA?$AA@ 00000000640a3478     libucrt:nlsdata.obj
 0002:00007480       ??_C@_17FNLKOI@?$AAO?$AAc?$AAt?$AA?$AA@ 00000000640a3480     libucrt:nlsdata.obj
 0002:00007488       ??_C@_17BBDMLCIG@?$AAN?$AAo?$AAv?$AA?$AA@ 00000000640a3488     libucrt:nlsdata.obj
 0002:00007490       ??_C@_17EGKACKIF@?$AAD?$AAe?$AAc?$AA?$AA@ 00000000640a3490     libucrt:nlsdata.obj
 0002:00007498       ??_C@_1BA@EFMEIEBA@?$AAJ?$AAa?$AAn?$AAu?$AAa?$AAr?$AAy?$AA?$AA@ 00000000640a3498     libucrt:nlsdata.obj
 0002:000074a8       ??_C@_1BC@JGDDFFAM@?$AAF?$AAe?$AAb?$AAr?$AAu?$AAa?$AAr?$AAy?$AA?$AA@ 00000000640a34a8     libucrt:nlsdata.obj
 0002:000074c0       ??_C@_1M@IKEENEDF@?$AAM?$AAa?$AAr?$AAc?$AAh?$AA?$AA@ 00000000640a34c0     libucrt:nlsdata.obj
 0002:000074d0       ??_C@_1M@GJNLMHFD@?$AAA?$AAp?$AAr?$AAi?$AAl?$AA?$AA@ 00000000640a34d0     libucrt:nlsdata.obj
 0002:000074e0       ??_C@_19EPFLPGAP@?$AAJ?$AAu?$AAn?$AAe?$AA?$AA@ 00000000640a34e0     libucrt:nlsdata.obj
 0002:000074f0       ??_C@_19BIFMLPCD@?$AAJ?$AAu?$AAl?$AAy?$AA?$AA@ 00000000640a34f0     libucrt:nlsdata.obj
 0002:00007500       ??_C@_1O@PAHLKOAC@?$AAA?$AAu?$AAg?$AAu?$AAs?$AAt?$AA?$AA@ 00000000640a3500     libucrt:nlsdata.obj
 0002:00007510       ??_C@_1BE@DKAAMBJL@?$AAS?$AAe?$AAp?$AAt?$AAe?$AAm?$AAb?$AAe?$AAr?$AA?$AA@ 00000000640a3510     libucrt:nlsdata.obj
 0002:00007528       ??_C@_1BA@EPANDLNG@?$AAO?$AAc?$AAt?$AAo?$AAb?$AAe?$AAr?$AA?$AA@ 00000000640a3528     libucrt:nlsdata.obj
 0002:00007538       ??_C@_1BC@BGLIFPF@?$AAN?$AAo?$AAv?$AAe?$AAm?$AAb?$AAe?$AAr?$AA?$AA@ 00000000640a3538     libucrt:nlsdata.obj
 0002:00007550       ??_C@_1BC@FEMKIFH@?$AAD?$AAe?$AAc?$AAe?$AAm?$AAb?$AAe?$AAr?$AA?$AA@ 00000000640a3550     libucrt:nlsdata.obj
 0002:00007564       ??_C@_15ODEHAHHF@?$AAA?$AAM?$AA?$AA@ 00000000640a3564     libucrt:nlsdata.obj
 0002:0000756c       ??_C@_15CLMNNGEL@?$AAP?$AAM?$AA?$AA@ 00000000640a356c     libucrt:nlsdata.obj
 0002:00007578       ??_C@_1BC@IEBCMHCM@?$AAM?$AAM?$AA?1?$AAd?$AAd?$AA?1?$AAy?$AAy?$AA?$AA@ 00000000640a3578     libucrt:nlsdata.obj
 0002:00007590       ??_C@_1CI@KNAKOEBC@?$AAd?$AAd?$AAd?$AAd?$AA?0?$AA?5?$AAM?$AAM?$AAM?$AAM?$AA?5?$AAd?$AAd?$AA?0?$AA?5?$AAy?$AAy?$AAy?$AAy?$AA?$AA@ 00000000640a3590     libucrt:nlsdata.obj
 0002:000075b8       ??_C@_1BC@GDGBMEMK@?$AAH?$AAH?$AA?3?$AAm?$AAm?$AA?3?$AAs?$AAs?$AA?$AA@ 00000000640a35b8     libucrt:nlsdata.obj
 0002:000075cc       ??_C@_03OEIAHPBN@INF?$AA@  00000000640a35cc     libucrt:cvt.obj
 0002:000075d0       ??_C@_03OJHLLCGB@inf?$AA@  00000000640a35d0     libucrt:cvt.obj
 0002:000075d4       ??_C@_03LKNCIKJB@NAN?$AA@  00000000640a35d4     libucrt:cvt.obj
 0002:000075d8       ??_C@_03LHCJEHON@nan?$AA@  00000000640a35d8     libucrt:cvt.obj
 0002:000075e0       ??_C@_09OFJJIMPC@NAN?$CISNAN?$CJ?$AA@ 00000000640a35e0     libucrt:cvt.obj
 0002:000075f0       ??_C@_09IPFBKMDL@nan?$CIsnan?$CJ?$AA@ 00000000640a35f0     libucrt:cvt.obj
 0002:00007600       ??_C@_08IKHNHAJ@NAN?$CIIND?$CJ?$AA@ 00000000640a3600     libucrt:cvt.obj
 0002:00007610       ??_C@_08OFCDMILK@nan?$CIind?$CJ?$AA@ 00000000640a3610     libucrt:cvt.obj
 0002:0000761c       ??_C@_05KLBDPFGC@e?$CL000?$AA@ 00000000640a361c     libucrt:cvt.obj
 0002:00007800       ??_C@_03KHJOGHMM@exp?$AA@  00000000640a3800     libucrt:fpexcept.obj
 0002:00007804       ??_C@_03JGHBODFD@pow?$AA@  00000000640a3804     libucrt:fpexcept.obj
 0002:00007808       ??_C@_03MGHMBJCF@log?$AA@  00000000640a3808     libucrt:fpexcept.obj
 0002:0000780c       ??_C@_05HGHHAHAP@log10?$AA@ 00000000640a380c     libucrt:fpexcept.obj
 0002:00007814       ??_C@_04COOMCNPB@sinh?$AA@ 00000000640a3814     libucrt:fpexcept.obj
 0002:0000781c       ??_C@_04HPJJNFIM@cosh?$AA@ 00000000640a381c     libucrt:fpexcept.obj
 0002:00007824       ??_C@_04FJHINJAO@tanh?$AA@ 00000000640a3824     libucrt:fpexcept.obj
 0002:0000782c       ??_C@_04FIHNOPOL@asin?$AA@ 00000000640a382c     libucrt:fpexcept.obj
 0002:00007834       ??_C@_04PDIFKINK@acos?$AA@ 00000000640a3834     libucrt:fpexcept.obj
 0002:0000783c       ??_C@_04MLLJIGOK@atan?$AA@ 00000000640a383c     libucrt:fpexcept.obj
 0002:00007844       ??_C@_05KNGEOGJB@atan2?$AA@ 00000000640a3844     libucrt:fpexcept.obj
 0002:0000784c       ??_C@_03BLEJJJBH@sin?$AA@  00000000640a384c     libucrt:fpexcept.obj
 0002:00007850       ??_C@_03LALBNOCG@cos?$AA@  00000000640a3850     libucrt:fpexcept.obj
 0002:00007854       ??_C@_03IIINPABG@tan?$AA@  00000000640a3854     libucrt:fpexcept.obj
 0002:00007858       ??_C@_04GFPJNGEK@ceil?$AA@ 00000000640a3858     libucrt:fpexcept.obj
 0002:00007860       ??_C@_05PBJFFIGL@floor?$AA@ 00000000640a3860     libucrt:fpexcept.obj
 0002:00007868       ??_C@_04ODHECPBC@fabs?$AA@ 00000000640a3868     libucrt:fpexcept.obj
 0002:00007870       ??_C@_04EHEDPDJG@modf?$AA@ 00000000640a3870     libucrt:fpexcept.obj
 0002:00007878       ??_C@_05CEJMAHNP@ldexp?$AA@ 00000000640a3878     libucrt:fpexcept.obj
 0002:00007880       ??_C@_05KBKMEMPO@_cabs?$AA@ 00000000640a3880     libucrt:fpexcept.obj
 0002:00007888       ??_C@_06MEIMCGCF@_hypot?$AA@ 00000000640a3888     libucrt:fpexcept.obj
 0002:00007890       ??_C@_04KEPJIHGP@fmod?$AA@ 00000000640a3890     libucrt:fpexcept.obj
 0002:00007898       ??_C@_05GKKHEGJL@frexp?$AA@ 00000000640a3898     libucrt:fpexcept.obj
 0002:000078a0       ??_C@_03MJLDFKDL@_y0?$AA@  00000000640a38a0     libucrt:fpexcept.obj
 0002:000078a4       ??_C@_03NAKIGLHK@_y1?$AA@  00000000640a38a4     libucrt:fpexcept.obj
 0002:000078a8       ??_C@_03ONILCKOB@_yn?$AA@  00000000640a38a8     libucrt:fpexcept.obj
 0002:000078ac       ??_C@_05JGDBENOH@_logb?$AA@ 00000000640a38ac     libucrt:fpexcept.obj
 0002:000078b8       ??_C@_0L@KDOEJCKC@_nextafter?$AA@ 00000000640a38b8     libucrt:fpexcept.obj
 0002:000078c8       _d_inf                     00000000640a38c8     libucrt:util.obj
 0002:000078d0       _d_max                     00000000640a38d0     libucrt:util.obj
 0002:00007980       ??_C@_1EG@CNNIPFIM@?$AAa?$AAp?$AAi?$AA?9?$AAm?$AAs?$AA?9?$AAw?$AAi?$AAn?$AA?9?$AAa?$AAp?$AAp?$AAm?$AAo?$AAd?$AAe?$AAl?$AA?9?$AAr?$AAu?$AAn?$AAt?$AAi?$AAm?$AAe?$AA?9?$AAl?$AA1?$AA?9?$AA1@ 00000000640a3980     libucrt:winapi_thunks.obj
 0002:000079d0       ??_C@_1EA@JGEFHKEI@?$AAa?$AAp?$AAi?$AA?9?$AAm?$AAs?$AA?9?$AAw?$AAi?$AAn?$AA?9?$AAc?$AAo?$AAr?$AAe?$AA?9?$AAd?$AAa?$AAt?$AAe?$AAt?$AAi?$AAm?$AAe?$AA?9?$AAl?$AA1?$AA?9?$AA1?$AA?9?$AA1?$AA?$AA@ 00000000640a39d0     libucrt:winapi_thunks.obj
 0002:00007a10       ??_C@_1DI@GCIAAENM@?$AAa?$AAp?$AAi?$AA?9?$AAm?$AAs?$AA?9?$AAw?$AAi?$AAn?$AA?9?$AAc?$AAo?$AAr?$AAe?$AA?9?$AAf?$AAi?$AAl?$AAe?$AA?9?$AAl?$AA2?$AA?9?$AA1?$AA?9?$AA1?$AA?$AA@ 00000000640a3a10     libucrt:winapi_thunks.obj
 0002:00007a50       ??_C@_1EI@MPIAOHOC@?$AAa?$AAp?$AAi?$AA?9?$AAm?$AAs?$AA?9?$AAw?$AAi?$AAn?$AA?9?$AAc?$AAo?$AAr?$AAe?$AA?9?$AAl?$AAo?$AAc?$AAa?$AAl?$AAi?$AAz?$AAa?$AAt?$AAi?$AAo?$AAn?$AA?9?$AAl?$AA1?$AA?9@ 00000000640a3a50     libucrt:winapi_thunks.obj
 0002:00007aa0       ??_C@_1FK@FPHCKFIE@?$AAa?$AAp?$AAi?$AA?9?$AAm?$AAs?$AA?9?$AAw?$AAi?$AAn?$AA?9?$AAc?$AAo?$AAr?$AAe?$AA?9?$AAl?$AAo?$AAc?$AAa?$AAl?$AAi?$AAz?$AAa?$AAt?$AAi?$AAo?$AAn?$AA?9?$AAo?$AAb?$AAs@ 00000000640a3aa0     libucrt:winapi_thunks.obj
 0002:00007b00       ??_C@_1EM@DILCGIIO@?$AAa?$AAp?$AAi?$AA?9?$AAm?$AAs?$AA?9?$AAw?$AAi?$AAn?$AA?9?$AAc?$AAo?$AAr?$AAe?$AA?9?$AAp?$AAr?$AAo?$AAc?$AAe?$AAs?$AAs?$AAt?$AAh?$AAr?$AAe?$AAa?$AAd?$AAs?$AA?9?$AAl@ 00000000640a3b00     libucrt:winapi_thunks.obj
 0002:00007b50       ??_C@_1DM@LNCGDDPN@?$AAa?$AAp?$AAi?$AA?9?$AAm?$AAs?$AA?9?$AAw?$AAi?$AAn?$AA?9?$AAc?$AAo?$AAr?$AAe?$AA?9?$AAs?$AAt?$AAr?$AAi?$AAn?$AAg?$AA?9?$AAl?$AA1?$AA?9?$AA1?$AA?9?$AA0?$AA?$AA@ 00000000640a3b50     libucrt:winapi_thunks.obj
 0002:00007b90       ??_C@_1DO@FPAPJEMD@?$AAa?$AAp?$AAi?$AA?9?$AAm?$AAs?$AA?9?$AAw?$AAi?$AAn?$AA?9?$AAc?$AAo?$AAr?$AAe?$AA?9?$AAs?$AAy?$AAs?$AAi?$AAn?$AAf?$AAo?$AA?9?$AAl?$AA1?$AA?9?$AA2?$AA?9?$AA1?$AA?$AA@ 00000000640a3b90     libucrt:winapi_thunks.obj
 0002:00007bd0       ??_C@_1DK@NDHNAHIO@?$AAa?$AAp?$AAi?$AA?9?$AAm?$AAs?$AA?9?$AAw?$AAi?$AAn?$AA?9?$AAc?$AAo?$AAr?$AAe?$AA?9?$AAw?$AAi?$AAn?$AAr?$AAt?$AA?9?$AAl?$AA1?$AA?9?$AA1?$AA?9?$AA0?$AA?$AA@ 00000000640a3bd0     libucrt:winapi_thunks.obj
 0002:00007c10       ??_C@_1DM@KGHDGBCM@?$AAa?$AAp?$AAi?$AA?9?$AAm?$AAs?$AA?9?$AAw?$AAi?$AAn?$AA?9?$AAc?$AAo?$AAr?$AAe?$AA?9?$AAx?$AAs?$AAt?$AAa?$AAt?$AAe?$AA?9?$AAl?$AA2?$AA?9?$AA1?$AA?9?$AA0?$AA?$AA@ 00000000640a3c10     libucrt:winapi_thunks.obj
 0002:00007c50       ??_C@_1EO@IJIOEFOH@?$AAa?$AAp?$AAi?$AA?9?$AAm?$AAs?$AA?9?$AAw?$AAi?$AAn?$AA?9?$AAr?$AAt?$AAc?$AAo?$AAr?$AAe?$AA?9?$AAn?$AAt?$AAu?$AAs?$AAe?$AAr?$AA?9?$AAw?$AAi?$AAn?$AAd?$AAo?$AAw?$AA?9@ 00000000640a3c50     libucrt:winapi_thunks.obj
 0002:00007ca0       ??_C@_1FG@HHGEKANL@?$AAa?$AAp?$AAi?$AA?9?$AAm?$AAs?$AA?9?$AAw?$AAi?$AAn?$AA?9?$AAs?$AAe?$AAc?$AAu?$AAr?$AAi?$AAt?$AAy?$AA?9?$AAs?$AAy?$AAs?$AAt?$AAe?$AAm?$AAf?$AAu?$AAn?$AAc?$AAt?$AAi@ 00000000640a3ca0     libucrt:winapi_thunks.obj
 0002:00007d00       ??_C@_1FG@NCKKOLKO@?$AAe?$AAx?$AAt?$AA?9?$AAm?$AAs?$AA?9?$AAw?$AAi?$AAn?$AA?9?$AAk?$AAe?$AAr?$AAn?$AAe?$AAl?$AA3?$AA2?$AA?9?$AAp?$AAa?$AAc?$AAk?$AAa?$AAg?$AAe?$AA?9?$AAc?$AAu?$AAr?$AAr@ 00000000640a3d00     libucrt:winapi_thunks.obj
 0002:00007d60       ??_C@_1EG@DBIOJECG@?$AAe?$AAx?$AAt?$AA?9?$AAm?$AAs?$AA?9?$AAw?$AAi?$AAn?$AA?9?$AAn?$AAt?$AAu?$AAs?$AAe?$AAr?$AA?9?$AAd?$AAi?$AAa?$AAl?$AAo?$AAg?$AAb?$AAo?$AAx?$AA?9?$AAl?$AA1?$AA?9?$AA1@ 00000000640a3d60     libucrt:winapi_thunks.obj
 0002:00007db0       ??_C@_1EO@FIHMJCLF@?$AAe?$AAx?$AAt?$AA?9?$AAm?$AAs?$AA?9?$AAw?$AAi?$AAn?$AA?9?$AAn?$AAt?$AAu?$AAs?$AAe?$AAr?$AA?9?$AAw?$AAi?$AAn?$AAd?$AAo?$AAw?$AAs?$AAt?$AAa?$AAt?$AAi?$AAo?$AAn?$AA?9@ 00000000640a3db0     libucrt:winapi_thunks.obj
 0002:00007e00       ??_C@_1O@BCCLBEOE@?$AAu?$AAs?$AAe?$AAr?$AA3?$AA2?$AA?$AA@ 00000000640a3e00     libucrt:winapi_thunks.obj
 0002:00007e20       ??_C@_0BE@LJANKFHF@EnumSystemLocalesEx?$AA@ 00000000640a3e20     libucrt:winapi_thunks.obj
 0002:00007e70       ??_C@_0BJ@PBCCBIPI@GetUserDefaultLocaleName?$AA@ 00000000640a3e70     libucrt:winapi_thunks.obj
 0002:00007ea0       ??_C@_0BC@CELBKLLA@IsValidLocaleName?$AA@ 00000000640a3ea0     libucrt:winapi_thunks.obj
 0002:00007ec8       ??_C@_0BB@CDHDDLLP@LCIDToLocaleName?$AA@ 00000000640a3ec8     libucrt:winapi_thunks.obj
 0002:00007ee8       ??_C@_0BB@HBDEELFH@LocaleNameToLCID?$AA@ 00000000640a3ee8     libucrt:winapi_thunks.obj
 0002:00007f20       __acrt_rg_language         00000000640a3f20     libucrt:get_qualified_locale.obj
 0002:00008330       __acrt_rg_language_count   00000000640a4330     libucrt:get_qualified_locale.obj
 0002:00008340       __acrt_rg_country          00000000640a4340     libucrt:get_qualified_locale.obj
 0002:000084b0       __acrt_rg_country_count    00000000640a44b0     libucrt:get_qualified_locale.obj
 0002:000084b8       ??_C@_1BC@LLOKLNP@?$AAa?$AAm?$AAe?$AAr?$AAi?$AAc?$AAa?$AAn?$AA?$AA@ 00000000640a44b8     libucrt:get_qualified_locale.obj
 0002:000084d0       ??_C@_1CC@HEIGCDGG@?$AAa?$AAm?$AAe?$AAr?$AAi?$AAc?$AAa?$AAn?$AA?5?$AAe?$AAn?$AAg?$AAl?$AAi?$AAs?$AAh?$AA?$AA@ 00000000640a44d0     libucrt:get_qualified_locale.obj
 0002:000084f8       ??_C@_1CC@IHCNOMIN@?$AAa?$AAm?$AAe?$AAr?$AAi?$AAc?$AAa?$AAn?$AA?9?$AAe?$AAn?$AAg?$AAl?$AAi?$AAs?$AAh?$AA?$AA@ 00000000640a44f8     libucrt:get_qualified_locale.obj
 0002:00008520       ??_C@_1BG@GKAGPCGG@?$AAa?$AAu?$AAs?$AAt?$AAr?$AAa?$AAl?$AAi?$AAa?$AAn?$AA?$AA@ 00000000640a4520     libucrt:get_qualified_locale.obj
 0002:00008538       ??_C@_1BA@GMENCENF@?$AAb?$AAe?$AAl?$AAg?$AAi?$AAa?$AAn?$AA?$AA@ 00000000640a4538     libucrt:get_qualified_locale.obj
 0002:00008548       ??_C@_1BC@PJMIIAAN@?$AAc?$AAa?$AAn?$AAa?$AAd?$AAi?$AAa?$AAn?$AA?$AA@ 00000000640a4548     libucrt:get_qualified_locale.obj
 0002:00008560       ??_C@_17NOIMNFBF@?$AAc?$AAh?$AAh?$AA?$AA@ 00000000640a4560     libucrt:get_qualified_locale.obj
 0002:00008568       ??_C@_17GGDALCHA@?$AAc?$AAh?$AAi?$AA?$AA@ 00000000640a4568     libucrt:get_qualified_locale.obj
 0002:00008570       ??_C@_1BA@NPNJKIBL@?$AAc?$AAh?$AAi?$AAn?$AAe?$AAs?$AAe?$AA?$AA@ 00000000640a4570     libucrt:get_qualified_locale.obj
 0002:00008580       ??_C@_1CC@DINBAMMJ@?$AAc?$AAh?$AAi?$AAn?$AAe?$AAs?$AAe?$AA?9?$AAh?$AAo?$AAn?$AAg?$AAk?$AAo?$AAn?$AAg?$AA?$AA@ 00000000640a4580     libucrt:get_qualified_locale.obj
 0002:000085a8       ??_C@_1CG@IOBJPACO@?$AAc?$AAh?$AAi?$AAn?$AAe?$AAs?$AAe?$AA?9?$AAs?$AAi?$AAm?$AAp?$AAl?$AAi?$AAf?$AAi?$AAe?$AAd?$AA?$AA@ 00000000640a45a8     libucrt:get_qualified_locale.obj
 0002:000085d0       ??_C@_1CE@GAJNDCKG@?$AAc?$AAh?$AAi?$AAn?$AAe?$AAs?$AAe?$AA?9?$AAs?$AAi?$AAn?$AAg?$AAa?$AAp?$AAo?$AAr?$AAe?$AA?$AA@ 00000000640a45d0     libucrt:get_qualified_locale.obj
 0002:000085f8       ??_C@_1CI@PAJPIOOD@?$AAc?$AAh?$AAi?$AAn?$AAe?$AAs?$AAe?$AA?9?$AAt?$AAr?$AAa?$AAd?$AAi?$AAt?$AAi?$AAo?$AAn?$AAa?$AAl?$AA?$AA@ 00000000640a45f8     libucrt:get_qualified_locale.obj
 0002:00008620       ??_C@_1BM@NILJBMMD@?$AAd?$AAu?$AAt?$AAc?$AAh?$AA?9?$AAb?$AAe?$AAl?$AAg?$AAi?$AAa?$AAn?$AA?$AA@ 00000000640a4620     libucrt:get_qualified_locale.obj
 0002:00008640       ??_C@_1CC@OOJPJNEJ@?$AAe?$AAn?$AAg?$AAl?$AAi?$AAs?$AAh?$AA?9?$AAa?$AAm?$AAe?$AAr?$AAi?$AAc?$AAa?$AAn?$AA?$AA@ 00000000640a4640     libucrt:get_qualified_locale.obj
 0002:00008668       ??_C@_1BI@IOLFEEM@?$AAe?$AAn?$AAg?$AAl?$AAi?$AAs?$AAh?$AA?9?$AAa?$AAu?$AAs?$AA?$AA@ 00000000640a4668     libucrt:get_qualified_locale.obj
 0002:00008680       ??_C@_1BO@HFFNLENJ@?$AAe?$AAn?$AAg?$AAl?$AAi?$AAs?$AAh?$AA?9?$AAb?$AAe?$AAl?$AAi?$AAz?$AAe?$AA?$AA@ 00000000640a4680     libucrt:get_qualified_locale.obj
 0002:000086a0       ??_C@_1BI@HAPKJMPO@?$AAe?$AAn?$AAg?$AAl?$AAi?$AAs?$AAh?$AA?9?$AAc?$AAa?$AAn?$AA?$AA@ 00000000640a46a0     libucrt:get_qualified_locale.obj
 0002:000086b8       ??_C@_1CE@HLNDMIOJ@?$AAe?$AAn?$AAg?$AAl?$AAi?$AAs?$AAh?$AA?9?$AAc?$AAa?$AAr?$AAi?$AAb?$AAb?$AAe?$AAa?$AAn?$AA?$AA@ 00000000640a46b8     libucrt:get_qualified_locale.obj
 0002:000086e0       ??_C@_1BI@LDHJHHAC@?$AAe?$AAn?$AAg?$AAl?$AAi?$AAs?$AAh?$AA?9?$AAi?$AAr?$AAe?$AA?$AA@ 00000000640a46e0     libucrt:get_qualified_locale.obj
 0002:000086f8       ??_C@_1CA@NJMMCFOC@?$AAe?$AAn?$AAg?$AAl?$AAi?$AAs?$AAh?$AA?9?$AAj?$AAa?$AAm?$AAa?$AAi?$AAc?$AAa?$AA?$AA@ 00000000640a46f8     libucrt:get_qualified_locale.obj
 0002:00008718       ??_C@_1BG@BHJEBBGG@?$AAe?$AAn?$AAg?$AAl?$AAi?$AAs?$AAh?$AA?9?$AAn?$AAz?$AA?$AA@ 00000000640a4718     libucrt:get_qualified_locale.obj
 0002:00008730       ??_C@_1CK@FGOEJJCO@?$AAe?$AAn?$AAg?$AAl?$AAi?$AAs?$AAh?$AA?9?$AAs?$AAo?$AAu?$AAt?$AAh?$AA?5?$AAa?$AAf?$AAr?$AAi?$AAc?$AAa?$AA?$AA@ 00000000640a4730     libucrt:get_qualified_locale.obj
 0002:00008760       ??_C@_1DE@PDBJPCJ@?$AAe?$AAn?$AAg?$AAl?$AAi?$AAs?$AAh?$AA?9?$AAt?$AAr?$AAi?$AAn?$AAi?$AAd?$AAa?$AAd?$AA?5?$AAy?$AA?5?$AAt?$AAo?$AAb?$AAa?$AAg?$AAo?$AA?$AA@ 00000000640a4760     libucrt:get_qualified_locale.obj
 0002:00008798       ??_C@_1BG@JGCANDME@?$AAe?$AAn?$AAg?$AAl?$AAi?$AAs?$AAh?$AA?9?$AAu?$AAk?$AA?$AA@ 00000000640a4798     libucrt:get_qualified_locale.obj
 0002:000087b0       ??_C@_1BG@DINKMLE@?$AAe?$AAn?$AAg?$AAl?$AAi?$AAs?$AAh?$AA?9?$AAu?$AAs?$AA?$AA@ 00000000640a47b0     libucrt:get_qualified_locale.obj
 0002:000087c8       ??_C@_1BI@NMFDBHJE@?$AAe?$AAn?$AAg?$AAl?$AAi?$AAs?$AAh?$AA?9?$AAu?$AAs?$AAa?$AA?$AA@ 00000000640a47c8     libucrt:get_qualified_locale.obj
 0002:000087e0       ??_C@_1BO@OIHKJKII@?$AAf?$AAr?$AAe?$AAn?$AAc?$AAh?$AA?9?$AAb?$AAe?$AAl?$AAg?$AAi?$AAa?$AAn?$AA?$AA@ 00000000640a47e0     libucrt:get_qualified_locale.obj
 0002:00008800       ??_C@_1CA@NKAELJKI@?$AAf?$AAr?$AAe?$AAn?$AAc?$AAh?$AA?9?$AAc?$AAa?$AAn?$AAa?$AAd?$AAi?$AAa?$AAn?$AA?$AA@ 00000000640a4800     libucrt:get_qualified_locale.obj
 0002:00008820       ??_C@_1CE@MGKCNLGN@?$AAf?$AAr?$AAe?$AAn?$AAc?$AAh?$AA?9?$AAl?$AAu?$AAx?$AAe?$AAm?$AAb?$AAo?$AAu?$AAr?$AAg?$AA?$AA@ 00000000640a4820     libucrt:get_qualified_locale.obj
 0002:00008848       ??_C@_1BK@CEGEAILM@?$AAf?$AAr?$AAe?$AAn?$AAc?$AAh?$AA?9?$AAs?$AAw?$AAi?$AAs?$AAs?$AA?$AA@ 00000000640a4848     libucrt:get_qualified_locale.obj
 0002:00008868       ??_C@_1CA@PAFKEOCC@?$AAg?$AAe?$AAr?$AAm?$AAa?$AAn?$AA?9?$AAa?$AAu?$AAs?$AAt?$AAr?$AAi?$AAa?$AAn?$AA?$AA@ 00000000640a4868     libucrt:get_qualified_locale.obj
 0002:00008888       ??_C@_1CI@HCFHGOFD@?$AAg?$AAe?$AAr?$AAm?$AAa?$AAn?$AA?9?$AAl?$AAi?$AAc?$AAh?$AAt?$AAe?$AAn?$AAs?$AAt?$AAe?$AAi?$AAn?$AA?$AA@ 00000000640a4888     libucrt:get_qualified_locale.obj
 0002:000088b0       ??_C@_1CE@FEDDNPDG@?$AAg?$AAe?$AAr?$AAm?$AAa?$AAn?$AA?9?$AAl?$AAu?$AAx?$AAe?$AAm?$AAb?$AAo?$AAu?$AAr?$AAg?$AA?$AA@ 00000000640a48b0     libucrt:get_qualified_locale.obj
 0002:000088d8       ??_C@_1BK@LIMINNMN@?$AAg?$AAe?$AAr?$AAm?$AAa?$AAn?$AA?9?$AAs?$AAw?$AAi?$AAs?$AAs?$AA?$AA@ 00000000640a48d8     libucrt:get_qualified_locale.obj
 0002:000088f8       ??_C@_1BM@LGMDBEPD@?$AAi?$AAr?$AAi?$AAs?$AAh?$AA?9?$AAe?$AAn?$AAg?$AAl?$AAi?$AAs?$AAh?$AA?$AA@ 00000000640a48f8     libucrt:get_qualified_locale.obj
 0002:00008918       ??_C@_1BM@NNCFBAEE@?$AAi?$AAt?$AAa?$AAl?$AAi?$AAa?$AAn?$AA?9?$AAs?$AAw?$AAi?$AAs?$AAs?$AA?$AA@ 00000000640a4918     libucrt:get_qualified_locale.obj
 0002:00008938       ??_C@_1BE@FEDJNPIB@?$AAn?$AAo?$AAr?$AAw?$AAe?$AAg?$AAi?$AAa?$AAn?$AA?$AA@ 00000000640a4938     libucrt:get_qualified_locale.obj
 0002:00008950       ??_C@_1CC@CILKDEIE@?$AAn?$AAo?$AAr?$AAw?$AAe?$AAg?$AAi?$AAa?$AAn?$AA?9?$AAb?$AAo?$AAk?$AAm?$AAa?$AAl?$AA?$AA@ 00000000640a4950     libucrt:get_qualified_locale.obj
 0002:00008978       ??_C@_1CE@DHMMHEPL@?$AAn?$AAo?$AAr?$AAw?$AAe?$AAg?$AAi?$AAa?$AAn?$AA?9?$AAn?$AAy?$AAn?$AAo?$AAr?$AAs?$AAk?$AA?$AA@ 00000000640a4978     libucrt:get_qualified_locale.obj
 0002:000089a0       ??_C@_1CK@OPNMHECD@?$AAp?$AAo?$AAr?$AAt?$AAu?$AAg?$AAu?$AAe?$AAs?$AAe?$AA?9?$AAb?$AAr?$AAa?$AAz?$AAi?$AAl?$AAi?$AAa?$AAn?$AA?$AA@ 00000000640a49a0     libucrt:get_qualified_locale.obj
 0002:000089d0       ??_C@_1CE@KEEHCDB@?$AAs?$AAp?$AAa?$AAn?$AAi?$AAs?$AAh?$AA?9?$AAa?$AAr?$AAg?$AAe?$AAn?$AAt?$AAi?$AAn?$AAa?$AA?$AA@ 00000000640a49d0     libucrt:get_qualified_locale.obj
 0002:000089f8       ??_C@_1CA@GIAOLHJD@?$AAs?$AAp?$AAa?$AAn?$AAi?$AAs?$AAh?$AA?9?$AAb?$AAo?$AAl?$AAi?$AAv?$AAi?$AAa?$AA?$AA@ 00000000640a49f8     libucrt:get_qualified_locale.obj
 0002:00008a18       ??_C@_1BM@OJNDFNPD@?$AAs?$AAp?$AAa?$AAn?$AAi?$AAs?$AAh?$AA?9?$AAc?$AAh?$AAi?$AAl?$AAe?$AA?$AA@ 00000000640a4a18     libucrt:get_qualified_locale.obj
 0002:00008a38       ??_C@_1CC@OCOLPALL@?$AAs?$AAp?$AAa?$AAn?$AAi?$AAs?$AAh?$AA?9?$AAc?$AAo?$AAl?$AAo?$AAm?$AAb?$AAi?$AAa?$AA?$AA@ 00000000640a4a38     libucrt:get_qualified_locale.obj
 0002:00008a60       ??_C@_1CG@BPOFMKBB@?$AAs?$AAp?$AAa?$AAn?$AAi?$AAs?$AAh?$AA?9?$AAc?$AAo?$AAs?$AAt?$AAa?$AA?5?$AAr?$AAi?$AAc?$AAa?$AA?$AA@ 00000000640a4a60     libucrt:get_qualified_locale.obj
 0002:00008a88       ??_C@_1DG@IGOBAPBB@?$AAs?$AAp?$AAa?$AAn?$AAi?$AAs?$AAh?$AA?9?$AAd?$AAo?$AAm?$AAi?$AAn?$AAi?$AAc?$AAa?$AAn?$AA?5?$AAr?$AAe?$AAp?$AAu?$AAb?$AAl?$AAi?$AAc?$AA?$AA@ 00000000640a4a88     libucrt:get_qualified_locale.obj
 0002:00008ac0       ??_C@_1CA@JHAPGEGI@?$AAs?$AAp?$AAa?$AAn?$AAi?$AAs?$AAh?$AA?9?$AAe?$AAc?$AAu?$AAa?$AAd?$AAo?$AAr?$AA?$AA@ 00000000640a4ac0     libucrt:get_qualified_locale.obj
 0002:00008ae0       ??_C@_1CI@LAPALJPP@?$AAs?$AAp?$AAa?$AAn?$AAi?$AAs?$AAh?$AA?9?$AAe?$AAl?$AA?5?$AAs?$AAa?$AAl?$AAv?$AAa?$AAd?$AAo?$AAr?$AA?$AA@ 00000000640a4ae0     libucrt:get_qualified_locale.obj
 0002:00008b08       ??_C@_1CE@PDGBOFOM@?$AAs?$AAp?$AAa?$AAn?$AAi?$AAs?$AAh?$AA?9?$AAg?$AAu?$AAa?$AAt?$AAe?$AAm?$AAa?$AAl?$AAa?$AA?$AA@ 00000000640a4b08     libucrt:get_qualified_locale.obj
 0002:00008b30       ??_C@_1CC@NBEBAODI@?$AAs?$AAp?$AAa?$AAn?$AAi?$AAs?$AAh?$AA?9?$AAh?$AAo?$AAn?$AAd?$AAu?$AAr?$AAa?$AAs?$AA?$AA@ 00000000640a4b30     libucrt:get_qualified_locale.obj
 0002:00008b58       ??_C@_1CA@LLKGHBMF@?$AAs?$AAp?$AAa?$AAn?$AAi?$AAs?$AAh?$AA?9?$AAm?$AAe?$AAx?$AAi?$AAc?$AAa?$AAn?$AA?$AA@ 00000000640a4b58     libucrt:get_qualified_locale.obj
 0002:00008b78       ??_C@_1BO@LKNDOIGD@?$AAs?$AAp?$AAa?$AAn?$AAi?$AAs?$AAh?$AA?9?$AAm?$AAo?$AAd?$AAe?$AAr?$AAn?$AA?$AA@ 00000000640a4b78     libucrt:get_qualified_locale.obj
 0002:00008b98       ??_C@_1CE@NMDMOEEB@?$AAs?$AAp?$AAa?$AAn?$AAi?$AAs?$AAh?$AA?9?$AAn?$AAi?$AAc?$AAa?$AAr?$AAa?$AAg?$AAu?$AAa?$AA?$AA@ 00000000640a4b98     libucrt:get_qualified_locale.obj
 0002:00008bc0       ??_C@_1BO@LLCBEJGB@?$AAs?$AAp?$AAa?$AAn?$AAi?$AAs?$AAh?$AA?9?$AAp?$AAa?$AAn?$AAa?$AAm?$AAa?$AA?$AA@ 00000000640a4bc0     libucrt:get_qualified_locale.obj
 0002:00008be0       ??_C@_1CC@FKPGGIHO@?$AAs?$AAp?$AAa?$AAn?$AAi?$AAs?$AAh?$AA?9?$AAp?$AAa?$AAr?$AAa?$AAg?$AAu?$AAa?$AAy?$AA?$AA@ 00000000640a4be0     libucrt:get_qualified_locale.obj
 0002:00008c08       ??_C@_1BK@CDEIHOOP@?$AAs?$AAp?$AAa?$AAn?$AAi?$AAs?$AAh?$AA?9?$AAp?$AAe?$AAr?$AAu?$AA?$AA@ 00000000640a4c08     libucrt:get_qualified_locale.obj
 0002:00008c28       ??_C@_1CI@GAHAKKGP@?$AAs?$AAp?$AAa?$AAn?$AAi?$AAs?$AAh?$AA?9?$AAp?$AAu?$AAe?$AAr?$AAt?$AAo?$AA?5?$AAr?$AAi?$AAc?$AAo?$AA?$AA@ 00000000640a4c28     libucrt:get_qualified_locale.obj
 0002:00008c50       ??_C@_1CA@NKJBCAGP@?$AAs?$AAp?$AAa?$AAn?$AAi?$AAs?$AAh?$AA?9?$AAu?$AAr?$AAu?$AAg?$AAu?$AAa?$AAy?$AA?$AA@ 00000000640a4c50     libucrt:get_qualified_locale.obj
 0002:00008c70       ??_C@_1CE@ODILCONM@?$AAs?$AAp?$AAa?$AAn?$AAi?$AAs?$AAh?$AA?9?$AAv?$AAe?$AAn?$AAe?$AAz?$AAu?$AAe?$AAl?$AAa?$AA?$AA@ 00000000640a4c70     libucrt:get_qualified_locale.obj
 0002:00008c98       ??_C@_1CA@OBNMCGFO@?$AAs?$AAw?$AAe?$AAd?$AAi?$AAs?$AAh?$AA?9?$AAf?$AAi?$AAn?$AAl?$AAa?$AAn?$AAd?$AA?$AA@ 00000000640a4c98     libucrt:get_qualified_locale.obj
 0002:00008cb8       ??_C@_1M@PIPDDPPI@?$AAs?$AAw?$AAi?$AAs?$AAs?$AA?$AA@ 00000000640a4cb8     libucrt:get_qualified_locale.obj
 0002:00008cc4       ??_C@_15GMFIMNFM@?$AAu?$AAs?$AA?$AA@ 00000000640a4cc4     libucrt:get_qualified_locale.obj
 0002:00008cd0       ??_C@_17HAEBFAGL@?$AAu?$AAs?$AAa?$AA?$AA@ 00000000640a4cd0     libucrt:get_qualified_locale.obj
 0002:00008cd8       ??_C@_1BA@DPFJEPHB@?$AAa?$AAm?$AAe?$AAr?$AAi?$AAc?$AAa?$AA?$AA@ 00000000640a4cd8     libucrt:get_qualified_locale.obj
 0002:00008ce8       ??_C@_1BA@ELOGGFK@?$AAb?$AAr?$AAi?$AAt?$AAa?$AAi?$AAn?$AA?$AA@ 00000000640a4ce8     libucrt:get_qualified_locale.obj
 0002:00008cf8       ??_C@_1M@GHBGIGDA@?$AAc?$AAh?$AAi?$AAn?$AAa?$AA?$AA@ 00000000640a4cf8     libucrt:get_qualified_locale.obj
 0002:00008d08       ??_C@_1M@NCHEJOPO@?$AAc?$AAz?$AAe?$AAc?$AAh?$AA?$AA@ 00000000640a4d08     libucrt:get_qualified_locale.obj
 0002:00008d18       ??_C@_1BA@BKPAPBLA@?$AAe?$AAn?$AAg?$AAl?$AAa?$AAn?$AAd?$AA?$AA@ 00000000640a4d18     libucrt:get_qualified_locale.obj
 0002:00008d28       ??_C@_1BM@HKBCKIPC@?$AAg?$AAr?$AAe?$AAa?$AAt?$AA?5?$AAb?$AAr?$AAi?$AAt?$AAa?$AAi?$AAn?$AA?$AA@ 00000000640a4d28     libucrt:get_qualified_locale.obj
 0002:00008d48       ??_C@_1BA@PPCHPGJB@?$AAh?$AAo?$AAl?$AAl?$AAa?$AAn?$AAd?$AA?$AA@ 00000000640a4d48     libucrt:get_qualified_locale.obj
 0002:00008d58       ??_C@_1BE@JBMPEGDG@?$AAh?$AAo?$AAn?$AAg?$AA?9?$AAk?$AAo?$AAn?$AAg?$AA?$AA@ 00000000640a4d58     libucrt:get_qualified_locale.obj
 0002:00008d70       ??_C@_1BI@KOELBBPJ@?$AAn?$AAe?$AAw?$AA?9?$AAz?$AAe?$AAa?$AAl?$AAa?$AAn?$AAd?$AA?$AA@ 00000000640a4d70     libucrt:get_qualified_locale.obj
 0002:00008d88       ??_C@_15HIEBHAIO@?$AAn?$AAz?$AA?$AA@ 00000000640a4d88     libucrt:get_qualified_locale.obj
 0002:00008d90       ??_C@_1BC@CHBCPFPI@?$AAp?$AAr?$AA?5?$AAc?$AAh?$AAi?$AAn?$AAa?$AA?$AA@ 00000000640a4d90     libucrt:get_qualified_locale.obj
 0002:00008da8       ??_C@_1BC@JAOIIFKD@?$AAp?$AAr?$AA?9?$AAc?$AAh?$AAi?$AAn?$AAa?$AA?$AA@ 00000000640a4da8     libucrt:get_qualified_locale.obj
 0002:00008dc0       ??_C@_1BI@BEHPPHKC@?$AAp?$AAu?$AAe?$AAr?$AAt?$AAo?$AA?9?$AAr?$AAi?$AAc?$AAo?$AA?$AA@ 00000000640a4dc0     libucrt:get_qualified_locale.obj
 0002:00008dd8       ??_C@_1O@PAEOFKDI@?$AAs?$AAl?$AAo?$AAv?$AAa?$AAk?$AA?$AA@ 00000000640a4dd8     libucrt:get_qualified_locale.obj
 0002:00008de8       ??_C@_1BK@FIHMCKAM@?$AAs?$AAo?$AAu?$AAt?$AAh?$AA?5?$AAa?$AAf?$AAr?$AAi?$AAc?$AAa?$AA?$AA@ 00000000640a4de8     libucrt:get_qualified_locale.obj
 0002:00008e08       ??_C@_1BI@NAEOODKB@?$AAs?$AAo?$AAu?$AAt?$AAh?$AA?5?$AAk?$AAo?$AAr?$AAe?$AAa?$AA?$AA@ 00000000640a4e08     libucrt:get_qualified_locale.obj
 0002:00008e20       ??_C@_1BK@FBDGGIFF@?$AAs?$AAo?$AAu?$AAt?$AAh?$AA?9?$AAa?$AAf?$AAr?$AAi?$AAc?$AAa?$AA?$AA@ 00000000640a4e20     libucrt:get_qualified_locale.obj
 0002:00008e40       ??_C@_1BI@GHLEJDPK@?$AAs?$AAo?$AAu?$AAt?$AAh?$AA?9?$AAk?$AAo?$AAr?$AAe?$AAa?$AA?$AA@ 00000000640a4e40     libucrt:get_qualified_locale.obj
 0002:00008e58       ??_C@_1CE@PLHLOMJF@?$AAt?$AAr?$AAi?$AAn?$AAi?$AAd?$AAa?$AAd?$AA?5?$AA?$CG?$AA?5?$AAt?$AAo?$AAb?$AAa?$AAg?$AAo?$AA?$AA@ 00000000640a4e58     libucrt:get_qualified_locale.obj
 0002:00008e80       ??_C@_1BO@MODIMHHI@?$AAu?$AAn?$AAi?$AAt?$AAe?$AAd?$AA?9?$AAk?$AAi?$AAn?$AAg?$AAd?$AAo?$AAm?$AA?$AA@ 00000000640a4e80     libucrt:get_qualified_locale.obj
 0002:00008ea0       ??_C@_1BM@FFHJONBJ@?$AAu?$AAn?$AAi?$AAt?$AAe?$AAd?$AA?9?$AAs?$AAt?$AAa?$AAt?$AAe?$AAs?$AA?$AA@ 00000000640a4ea0     libucrt:get_qualified_locale.obj
 0002:00008ec0       ??_C@_17DNCLJFIF@?$AAA?$AAC?$AAP?$AA?$AA@ 00000000640a4ec0     libucrt:get_qualified_locale.obj
 0002:00008ec8       ??_C@_17CIKBIHLH@?$AAO?$AAC?$AAP?$AA?$AA@ 00000000640a4ec8     libucrt:get_qualified_locale.obj
 0002:00008ed0       __rglangidNotDefault       00000000640a4ed0     libucrt:getqloc_downlevel.obj
 0002:00008ef0       ?large_power_data@?1??multiply_by_power_of_ten@__crt_strtox@@YA_NAEAUbig_integer@2@I@Z@4QBIB 00000000640a4ef0     libucrt:cfout.obj
 0002:00009800       ?large_power_indices@?1??multiply_by_power_of_ten@__crt_strtox@@YA_NAEAUbig_integer@2@I@Z@4QBUunpack_index@?1??12@YA_N0I@Z@B 00000000640a5800     libucrt:cfout.obj
 0002:00009898       ?small_powers_of_ten@?6??multiply_by_power_of_ten@__crt_strtox@@YA_NAEAUbig_integer@2@I@Z@4QBIB 00000000640a5898     libucrt:cfout.obj
 0002:000098bc       ??_C@_01GBGANLPD@0?$AA@    00000000640a58bc     libucrt:cfout.obj
 0002:000098c0       ??_C@_05DNEBIAHO@1?$CDINF?$AA@ 00000000640a58c0     libucrt:cfout.obj
 0002:000098c8       ??_C@_06IMKFLFPG@1?$CDQNAN?$AA@ 00000000640a58c8     libucrt:cfout.obj
 0002:000098d0       ??_C@_06PGGFOGJG@1?$CDSNAN?$AA@ 00000000640a58d0     libucrt:cfout.obj
 0002:000098d8       ??_C@_05PHHOCPM@1?$CDIND?$AA@ 00000000640a58d8     libucrt:cfout.obj
 0002:0000b7c0       __log10_256_lead           00000000640a77c0     libucrt:log10_256_lead_tail_table.obj
 0002:0000bfd0       __log10_256_tail           00000000640a7fd0     libucrt:log10_256_lead_tail_table.obj
 0002:0000c7e0       __log_F_inv_qword          00000000640a87e0     libucrt:log_f_inv_qword_table.obj
 0002:0000cff0       ??_C@_1BA@BALFACEM@?$AAC?$AAO?$AAN?$AAO?$AAU?$AAT?$AA$?$AA?$AA@ 00000000640a8ff0     libucrt:initcon.obj
 0002:0000d000       ??_C@_0CE@EBEMHOLO@c?3?2src?2plugins?2arclite?2comutils?4@ 00000000640a9000     archive.obj
 0002:0000d028       ??_C@_19HNCGHLOK@?$AAC?$AAo?$AAp?$AAy?$AA?$AA@ 00000000640a9028     archive.obj
 0002:0000d038       ??_C@_19MMHLLJED@?$AAL?$AAZ?$AAM?$AAA?$AA?$AA@ 00000000640a9038     archive.obj
 0002:0000d048       ??_C@_1M@DDMLOLLP@?$AAL?$AAZ?$AAM?$AAA?$AA2?$AA?$AA@ 00000000640a9048     archive.obj
 0002:0000d058       ??_C@_19FHPHDENP@?$AAP?$AAP?$AAM?$AAD?$AA?$AA@ 00000000640a9058     archive.obj
 0002:0000d068       ??_C@_19DOGDICKI@?$AA?4?$AAe?$AAx?$AAe?$AA?$AA@ 00000000640a9068     archive.obj
 0002:0000d078       ??_C@_19IEMBGPPO@?$AA?4?$AA0?$AA0?$AA1?$AA?$AA@ 00000000640a9078     archive.obj
 0002:0000d084       ??_C@_13PAHNCFBL@?$CB?$JC?$AA?$AA@ 00000000640a9084     archive.obj
 0002:0000d088       ??_C@_0N@DLJIDING@CreateObject?$AA@ 00000000640a9088     archive.obj
 0002:0000d098       ??_C@_0BD@HEPKNIHJ@GetNumberOfMethods?$AA@ 00000000640a9098     archive.obj
 0002:0000d0b0       ??_C@_0BC@OJPJFIMA@GetMethodProperty?$AA@ 00000000640a90b0     archive.obj
 0002:0000d0c8       ??_C@_0BD@GPKACDEP@GetNumberOfFormats?$AA@ 00000000640a90c8     archive.obj
 0002:0000d0e0       ??_C@_0BD@DAJFLGDO@GetHandlerProperty?$AA@ 00000000640a90e0     archive.obj
 0002:0000d0f8       ??_C@_0BE@CMCBNMGM@GetHandlerProperty2?$AA@ 00000000640a90f8     archive.obj
 0002:0000d110       ??_C@_08IPABKFMB@GetIsArc?$AA@ 00000000640a9110     archive.obj
 0002:0000d120       ??_C@_1O@CNEPMAPN@?$AA7?$AAz?$AA?4?$AAs?$AAf?$AAx?$AA?$AA@ 00000000640a9120     archive.obj
 0002:0000d130       ??_C@_1BE@CPEIGPON@?$AA7?$AAz?$AAC?$AAo?$AAn?$AA?4?$AAs?$AAf?$AAx?$AA?$AA@ 00000000640a9130     archive.obj
 0002:0000d148       ??_C@_1BA@GPHFCJDK@?$AA7?$AAz?$AAS?$AA?4?$AAs?$AAf?$AAx?$AA?$AA@ 00000000640a9148     archive.obj
 0002:0000d158       ??_C@_1BC@EKJIHECG@?$AA7?$AAz?$AAS?$AAD?$AA?4?$AAs?$AAf?$AAx?$AA?$AA@ 00000000640a9158     archive.obj
 0002:0000d170       ??_C@_1BC@IBOPFADC@?$AA7?$AAz?$AAS?$AA2?$AA?4?$AAs?$AAf?$AAx?$AA?$AA@ 00000000640a9170     archive.obj
 0002:0000d188       ??_C@_1BI@JEMGCCOA@?$AA7?$AAz?$AAS?$AA2?$AAc?$AAo?$AAn?$AA?4?$AAs?$AAf?$AAx?$AA?$AA@ 00000000640a9188     archive.obj
 0002:0000d1a0       ??_C@_13OHNMPHJM@?$AA?$FN?$AA?$AA@ 00000000640a91a0     archive.obj
 0002:0000d1a4       ??_C@_15FFJNNDMJ@?$AA?5?$AA?$FL?$AA?$AA@ 00000000640a91a4     archive.obj
 0002:0000d1ac       ??_C@_02DIKIINKA@MZ?$AA@   00000000640a91ac     archive.obj
 0002:0000d1b0       ??_C@_1M@HNNPBALB@?$AA?$CK?$AA?4?$AAd?$AAl?$AAl?$AA?$AA@ 00000000640a91b0     archive.obj
 0002:0000d1c0       ??_C@_1M@HFEBMLCN@?$AA?$CK?$AA?4?$AAs?$AAf?$AAx?$AA?$AA@ 00000000640a91c0     archive.obj
 0002:0000d1d0       ??_C@_1BO@CHFBIDJD@?$AAS?$AAo?$AAf?$AAt?$AAw?$AAa?$AAr?$AAe?$AA?2?$AA7?$AA?9?$AAZ?$AAi?$AAp?$AA?$AA@ 00000000640a91d0     archive.obj
 0002:0000d1f0       ??_C@_19NHABCBNP@?$AAP?$AAa?$AAt?$AAh?$AA?$AA@ 00000000640a91f0     archive.obj
 0002:0000d200       ??_C@_1O@CFNBBLGB@?$AA7?$AAz?$AA?4?$AAd?$AAl?$AAl?$AA?$AA@ 00000000640a9200     archive.obj
 0002:0000d210       ??_C@_13BBDEGPLJ@?$AA?$CK?$AA?$AA@ 00000000640a9210     archive.obj
 0002:0000d218       ??_C@_0M@HIHBHGEM@archive?4cpp?$AA@ 00000000640a9218     archive.obj
 0002:0000d230       ??_C@_1GK@CKLFAJOB@?$AAS?$AAt?$AAr?$AAi?$AAn?$AAg?$AAF?$AAr?$AAo?$AAm?$AAG?$AAU?$AAI?$AAD?$AA2?$AA?$CI?$AAg?$AAu?$AAi?$AAd?$AA?0?$AA?5?$AAg?$AAu?$AAi?$AAd?$AA_?$AAs?$AAt?$AAr?$AA?0?$AA?5@ 00000000640a9230     archive.obj
 0002:0000d2a0       ??_C@_19LKKOIHJI@?$AA?4?$AAt?$AAm?$AAp?$AA?$AA@ 00000000640a92a0     archive.obj
 0002:0000d2ac       ??_C@_15DDHGOCBH@?$AA?4?$AA?4?$AA?$AA@ 00000000640a92ac     archive.obj
 0002:0000d2b4       ??_C@_13JOFGPIOO@?$AA?4?$AA?$AA@ 00000000640a92b4     archive.obj
 0002:0000d2b8       ??_C@_0BG@BBKNOMOH@invalid?5map?$DMK?0?5T?$DO?5key?$AA@ 00000000640a92b8     archive.obj
 0002:0000d2d0       ??_C@_0BD@OLBABOEK@vector?$DMT?$DO?5too?5long?$AA@ 00000000640a92d0     archive.obj
 0002:0000d2e8       ??_C@_0BC@KBDMBKEH@deque?$DMT?$DO?5too?5long?$AA@ 00000000640a92e8     archive.obj
 0002:0000d300       ??_C@_0BB@MOGOBHAF@list?$DMT?$DO?5too?5long?$AA@ 00000000640a9300     archive.obj
 0002:0000d318       ??_C@_0BE@JONHPENG@map?1set?$DMT?$DO?5too?5long?$AA@ 00000000640a9318     archive.obj
 0002:0000d3a0       ?c_volume_ext@@3PEB_WEB    00000000640a93a0     archive.obj
 0002:0000d3a8       ?c_sfx_ext@@3PEB_WEB       00000000640a93a8     archive.obj
 0002:0000d3b0       ?c_min_volume_size@@3_KB   00000000640a93b0     archive.obj
 0002:0000d4c0       ?c_method_ppmd@@3PEB_WEB   00000000640a94c0     archive.obj
 0002:0000d4c8       ?c_method_lzma2@@3PEB_WEB  00000000640a94c8     archive.obj
 0002:0000d4d0       ?c_method_lzma@@3PEB_WEB   00000000640a94d0     archive.obj
 0002:0000d4d8       ?c_method_copy@@3PEB_WEB   00000000640a94d8     archive.obj
 0002:0000d510       ?c_esc_confirmation_option@@3PEB_WEB 00000000640a9510     options.obj
 0002:0000d518       ?c_profiles_key_name@@3PEB_WEB 00000000640a9518     options.obj
 0002:0000d520       ?c_copy_opened_files_option@@3PEB_WEB 00000000640a9520     options.obj
 0002:0000d540       IID_IOutArchive            00000000640a9540     archive.obj
 0002:0000d550       IID_IInArchive             00000000640a9550     archive.obj
 0002:0000d560       ??_C@_0BI@CFPLBAOH@invalid?5string?5position?$AA@ 00000000640a9560     archive.obj
 0002:0000d578       ??_C@_0BA@JFNIOLAK@string?5too?5long?$AA@ 00000000640a9578     archive.obj
 0002:0000d588       ??_C@_0CB@GOJGAIND@c?3?2src?2plugins?2arclite?2error?4hpp@ 00000000640a9588     plugin.obj
 0002:0000d5b0       ??_C@_0L@MBOHGIBE@plugin?4cpp?$AA@ 00000000640a95b0     plugin.obj
 0002:0000d5bc       ??_C@_13EBCNDICG@?$AA?3?$AA?$AA@ 00000000640a95bc     plugin.obj
 0002:0000d5c0       ??_C@_13FPGAJAPJ@?$AA?2?$AA?$AA@ 00000000640a95c0     plugin.obj
 0002:0000d5d0       ??_C@_1FE@OHPOHPOP@?$AAF?$AAa?$AAr?$AA?3?$AA?3?$AAg?$AAe?$AAt?$AA_?$AAp?$AAa?$AAn?$AAe?$AAl?$AA_?$AAi?$AAn?$AAf?$AAo?$AA?$CI?$AAh?$AA_?$AAp?$AAl?$AAu?$AAg?$AAi?$AAn?$AA?0?$AA?5?$AAp?$AAa@ 00000000640a95d0     plugin.obj
 0002:0000d624       ??_C@_13ENNFDPBH@?$AA_?$AA?$AA@ 00000000640a9624     plugin.obj
 0002:0000d630       ??_C@_1JK@FFADHFBH@?$AAg?$AAe?$AAt?$AA_?$AAa?$AAp?$AAp?$AA_?$AAo?$AAp?$AAt?$AAi?$AAo?$AAn?$AA?$CI?$AAF?$AAS?$AAS?$AAF?$AA_?$AAS?$AAY?$AAS?$AAT?$AAE?$AAM?$AA?0?$AA?5?$AAc?$AA_?$AAc?$AAo@ 00000000640a9630     plugin.obj
 0002:0000d6cc       ??_C@_13LBAGMAIH@?$AA?6?$AA?$AA@ 00000000640a96cc     plugin.obj
 0002:0000d6d0       ??_C@_1BA@EIJEHGCE@?$AAa?$AAr?$AAc?$AAl?$AAi?$AAt?$AAe?$AA?$AA@ 00000000640a96d0     plugin.obj
 0002:0000d6e0       ??_C@_1FC@HPEFIKDA@?$AAA?$AAr?$AAc?$AAh?$AAi?$AAv?$AAe?$AA?5?$AAs?$AAu?$AAp?$AAp?$AAo?$AAr?$AAt?$AA?5?$AA?$CI?$AAb?$AAa?$AAs?$AAe?$AAd?$AA?5?$AAo?$AAn?$AA?5?$AA7?$AA?9?$AAZ?$AAi?$AAp?$AA?5@ 00000000640a96e0     plugin.obj
 0002:0000d738       ??_C@_1DE@BGKMIKPD@?$AAE?$AAu?$AAg?$AAe?$AAn?$AAe?$AA?5?$AAR?$AAo?$AAs?$AAh?$AAa?$AAl?$AA?5?$AA?$CG?$AA?5?$AAF?$AAa?$AAr?$AA?5?$AAG?$AAr?$AAo?$AAu?$AAp?$AA?$AA@ 00000000640a9738     plugin.obj
 0002:0000d770       ??_C@_1BC@ENICKDH@?$AAC?$AAo?$AAn?$AAt?$AAe?$AAn?$AAt?$AAs?$AA?$AA@ 00000000640a9770     plugin.obj
 0002:0000d788       ??_C@_1CC@GBAAMIEE@?$AAK?$AAe?$AAy?$AAs?$AA?$CI?$AA?8?$AAC?$AAt?$AAr?$AAl?$AAP?$AAg?$AAD?$AAn?$AA?8?$AA?$CJ?$AA?$AA@ 00000000640a9788     plugin.obj
 0002:0000d7b0       ??_C@_1O@GBAEOCCH@?$AAP?$AAr?$AAe?$AAf?$AAi?$AAx?$AA?$AA@ 00000000640a97b0     plugin.obj
 0002:0000d7c8       ??_7?$_Ref_count@VArchive@@@std@@6B@ 00000000640a97c8     plugin.obj
 0002:0000d7f0       ??_7?$_Ref_count@V?$list@UError@@V?$allocator@UError@@@std@@@std@@@std@@6B@ 00000000640a97f0     plugin.obj
 0002:0000d818       ??_7?$_Ref_count_del@XV<lambda_7e956bde6796eaf49aaf32ba9791a16f>@@@std@@6B@ 00000000640a9818     plugin.obj
 0002:0000d840       ??_7_Ref_count_base@std@@6B@ 00000000640a9840     plugin.obj
 0002:0000d860       ?empty@?1???$null_to_empty@_W@@YAPEB_WPEB_W@Z@4_WB 00000000640a9860     plugin.obj
 0002:0000d860       ??_C@_11LOCGONAA@?$AA?$AA@ 00000000640a9860     ui.obj
 0002:0000d870       ??_7PluginPanelItems@?1??extract@Plugin@@QEAAXXZ@6B@ 00000000640a9870     plugin.obj
 0002:0000d888       ??_7PluginPanelItems@?1??get_files@Plugin@@QEAAXPEBUPluginPanelItem@@_JHPEAPEB_W_K@Z@6B@ 00000000640a9888     plugin.obj
 0002:0000d898       ??_C@_02LMMGGCAJ@?3?5?$AA@ 00000000640a9898     plugin.obj
 0002:0000d8a0       c_far_guid                 00000000640a98a0     plugin.obj
 0002:0000d8b0       c_format_library_info_dialog_guid 00000000640a98b0     plugin.obj
 0002:0000d8c0       c_multi_select_dialog_guid 00000000640a98c0     plugin.obj
 0002:0000d8d0       c_update_params_saved_dialog_guid 00000000640a98d0     plugin.obj
 0002:0000d8e0       c_generic_guid             00000000640a98e0     plugin.obj
 0002:0000d8f0       c_save_profile_dialog_guid 00000000640a98f0     plugin.obj
 0002:0000d900       c_create_dir_dialog_guid   00000000640a9900     plugin.obj
 0002:0000d910       c_arccmd_menu_guid         00000000640a9910     plugin.obj
 0002:0000d920       c_main_menu_guid           00000000640a9920     plugin.obj
 0002:0000d930       c_format_menu_guid         00000000640a9930     plugin.obj
 0002:0000d940       c_error_dialog_guid        00000000640a9940     plugin.obj
 0002:0000d950       c_arc_path_eval_dialog_guid 00000000640a9950     plugin.obj
 0002:0000d960       c_extract_params_saved_dialog_guid 00000000640a9960     plugin.obj
 0002:0000d970       c_test_ok_dialog_guid      00000000640a9970     plugin.obj
 0002:0000d980       c_delete_profile_dialog_guid 00000000640a9980     plugin.obj
 0002:0000d990       c_error_log_dialog_guid    00000000640a9990     plugin.obj
 0002:0000d9a0       c_retry_ignore_dialog_guid 00000000640a99a0     plugin.obj
 0002:0000d9b0       c_interrupt_dialog_guid    00000000640a99b0     plugin.obj
 0002:0000d9c0       c_progress_dialog_guid     00000000640a99c0     plugin.obj
 0002:0000d9d0       c_overwrite_archive_dialog_guid 00000000640a99d0     plugin.obj
 0002:0000d9e0       c_delete_files_dialog_guid 00000000640a99e0     plugin.obj
 0002:0000d9f0       c_sfx_options_dialog_guid  00000000640a99f0     plugin.obj
 0002:0000da00       c_attr_dialog_guid         00000000640a9a00     plugin.obj
 0002:0000da10       c_settings_dialog_guid     00000000640a9a10     plugin.obj
 0002:0000da20       c_update_dialog_guid       00000000640a9a20     plugin.obj
 0002:0000da30       c_extract_dialog_guid      00000000640a9a30     plugin.obj
 0002:0000da40       c_overwrite_dialog_guid    00000000640a9a40     plugin.obj
 0002:0000da50       c_password_dialog_guid     00000000640a9a50     plugin.obj
 0002:0000da60       c_plugin_config_guid       00000000640a9a60     plugin.obj
 0002:0000da70       c_plugin_menu_guid         00000000640a9a70     plugin.obj
 0002:0000da80       c_plugin_guid              00000000640a9a80     plugin.obj
 0002:0000da98       ??_7?$_Ref_count@VFileFilter@Far@@@std@@6B@ 00000000640a9a98     ui.obj
 0002:0000dab8       ??_C@_04LOAJBDKD@true?$AA@ 00000000640a9ab8     ui.obj
 0002:0000dac0       ??_C@_05LAPONLG@false?$AA@ 00000000640a9ac0     ui.obj
 0002:0000dac8       ??_C@_0BA@ELKIONDK@bad?5locale?5name?$AA@ 00000000640a9ac8     ui.obj
 0002:0000dad8       ??_C@_00CNPNBAHC@?$AA@     00000000640a9ad8     ui.obj
 0002:0000dae0       ??_C@_08EPJLHIJG@bad?5cast?$AA@ 00000000640a9ae0     ui.obj
 0002:0000daf0       ??_C@_0BF@PHHKMMFD@ios_base?3?3badbit?5set?$AA@ 00000000640a9af0     ui.obj
 0002:0000db08       ??_C@_0BG@FMKFHCIL@ios_base?3?3failbit?5set?$AA@ 00000000640a9b08     ui.obj
 0002:0000db28       ??_7error_category@std@@6B@ 00000000640a9b28     ui.obj
 0002:0000db58       ??_C@_08LLGCOLLL@iostream?$AA@ 00000000640a9b58     ui.obj
 0002:0000db68       ??_C@_0BG@PADBLCHM@iostream?5stream?5error?$AA@ 00000000640a9b68     ui.obj
 0002:0000db88       ??_7_Iostream_error_category@std@@6B@ 00000000640a9b88     ui.obj
 0002:0000dbb8       ??_C@_0BF@OOHOMBOF@ios_base?3?3eofbit?5set?$AA@ 00000000640a9bb8     ui.obj
 0002:0000dbd8       ??_7failure@ios_base@std@@6B@ 00000000640a9bd8     ui.obj
 0002:0000dbf0       ??_7system_error@std@@6B@  00000000640a9bf0     ui.obj
 0002:0000dc08       ??_7_System_error@std@@6B@ 00000000640a9c08     ui.obj
 0002:0000dc20       ??_7ios_base@std@@6B@      00000000640a9c20     ui.obj
 0002:0000dc30       ??_7?$basic_ios@_WU?$char_traits@_W@std@@@std@@6B@ 00000000640a9c30     ui.obj
 0002:0000dc40       ??_7?$basic_streambuf@_WU?$char_traits@_W@std@@@std@@6B@ 00000000640a9c40     ui.obj
 0002:0000dcc0       ??_7?$basic_ostream@_WU?$char_traits@_W@std@@@std@@6B@ 00000000640a9cc0     ui.obj
 0002:0000dcd0       ??_7?$basic_stringbuf@_WU?$char_traits@_W@std@@V?$allocator@_W@2@@std@@6B@ 00000000640a9cd0     ui.obj
 0002:0000dd48       ??_8?$basic_ostringstream@_WU?$char_traits@_W@std@@V?$allocator@_W@2@@std@@7B@ 00000000640a9d48     ui.obj
 0002:0000dd58       ??_7?$basic_ostringstream@_WU?$char_traits@_W@std@@V?$allocator@_W@2@@std@@6B@ 00000000640a9d58     ui.obj
 0002:0000dd68       ??_7AttrDialog@@6B@        00000000640a9d68     ui.obj
 0002:0000dd78       ??_7SettingsDialog@@6B@    00000000640a9d78     ui.obj
 0002:0000dd88       ??_7FormatLibraryInfoDialog@@6B@ 00000000640a9d88     ui.obj
 0002:0000dd98       ??_7MultiSelectDialog@@6B@ 00000000640a9d98     ui.obj
 0002:0000dda8       ??_7UpdateDialog@@6B@      00000000640a9da8     ui.obj
 0002:0000ddb8       ??_7ExtractDialog@@6B@     00000000640a9db8     ui.obj
 0002:0000ddc8       ??_7OverwriteDialog@@6B@   00000000640a9dc8     ui.obj
 0002:0000ddd8       ??_7PasswordDialog@@6B@    00000000640a9dd8     ui.obj
 0002:0000de18       ??_7ProgressMonitor@@6B@   00000000640a9e18     ui.obj
 0002:0000de28       ??_C@_0BC@EOODALEL@Unknown?5exception?$AA@ 00000000640a9e28     ui.obj
 0002:0000de3c       ??_C@_06NPJEFJLB@ui?4cpp?$AA@ 00000000640a9e3c     ui.obj
 0002:0000de50       ??_C@_1JG@OMFJPMPF@?$AAg?$AAe?$AAt?$AA_?$AAa?$AAp?$AAp?$AA_?$AAo?$AAp?$AAt?$AAi?$AAo?$AAn?$AA?$CI?$AAF?$AAS?$AAS?$AAF?$AA_?$AAC?$AAO?$AAN?$AAF?$AAI?$AAR?$AAM?$AAA?$AAT?$AAI?$AAO?$AAN@ 00000000640a9e50     ui.obj
 0002:0000dee8       ??_C@_17DMMFPNIF@?$AA?$CF?$AA?$HN?$AA?5?$AA?$AA@ 00000000640a9ee8     ui.obj
 0002:0000def0       ??_C@_13GCIFAHHO@?$AA?$HL?$AA?$AA@ 00000000640a9ef0     ui.obj
 0002:0000def4       ??_C@_15FOBPOKEL@?$AA?$FN?$AA?5?$AA?$AA@ 00000000640a9ef4     ui.obj
 0002:0000defc       ??_C@_13MCLHKIEA@?$AA?$FL?$AA?$AA@ 00000000640a9efc     ui.obj
 0002:0000df00       ??_C@_13NEIAEHFG@?$AA?$CC?$AA?$AA@ 00000000640a9f00     ui.obj
 0002:0000df08       ??_C@_1BA@DNNJDHAB@?$AAE?$AAx?$AAt?$AAr?$AAa?$AAc?$AAt?$AA?$AA@ 00000000640a9f08     ui.obj
 0002:0000df18       ??_C@_1CI@GPLIDJDI@?$AAa?$AAr?$AAc?$AAl?$AAi?$AAt?$AAe?$AA?4?$AAe?$AAx?$AAt?$AAr?$AAa?$AAc?$AAt?$AA_?$AAd?$AAi?$AAr?$AA?$AA@ 00000000640a9f18     ui.obj
 0002:0000df40       ??_C@_1GG@OEEJHDBB@?$AAs?$AAe?$AAn?$AAd?$AA_?$AAm?$AAe?$AAs?$AAs?$AAa?$AAg?$AAe?$AA?$CI?$AAD?$AAM?$AA_?$AAL?$AAI?$AAS?$AAT?$AAG?$AAE?$AAT?$AAI?$AAT?$AAE?$AAM?$AA?0?$AA?5?$AAl?$AAe?$AAv@ 00000000640a9f40     ui.obj
 0002:0000dfa8       ??_C@_1O@PBKAOOPF@?$AAU?$AAp?$AAd?$AAa?$AAt?$AAe?$AA?$AA@ 00000000640a9fa8     ui.obj
 0002:0000dfb8       ??_C@_1CC@JHNGBHPE@?$AAa?$AAr?$AAc?$AAl?$AAi?$AAt?$AAe?$AA?4?$AAa?$AAr?$AAc?$AA_?$AAp?$AAa?$AAt?$AAh?$AA?$AA@ 00000000640a9fb8     ui.obj
 0002:0000dfe0       ??_C@_1CC@MEHHCPDF@?$AAa?$AAr?$AAc?$AAl?$AAi?$AAt?$AAe?$AA?4?$AAa?$AAd?$AAv?$AAa?$AAn?$AAc?$AAe?$AAd?$AA?$AA@ 00000000640a9fe0     ui.obj
 0002:0000e008       ??_C@_1CI@KIHLOCML@?$AAa?$AAr?$AAc?$AAl?$AAi?$AAt?$AAe?$AA?4?$AAv?$AAo?$AAl?$AAu?$AAm?$AAe?$AA_?$AAs?$AAi?$AAz?$AAe?$AA?$AA@ 00000000640aa008     ui.obj
 0002:0000e030       ??_C@_1DM@DOHHEJNC@?$AAi?$AAt?$AAe?$AAm?$AA_?$AAc?$AAo?$AAl?$AAo?$AAr?$AAs?$AA?9?$AA?$DO?$AAC?$AAo?$AAl?$AAo?$AAr?$AAs?$AAC?$AAo?$AAu?$AAn?$AAt?$AA?5?$AA?$DN?$AA?$DN?$AA?5?$AA4?$AA?$AA@ 00000000640aa030     ui.obj
 0002:0000e06c       ??_C@_13DEFPDAGF@?$AA?0?$AA?$AA@ 00000000640aa06c     ui.obj
 0002:0000e070       ??_C@_1O@BJPKKLLM@?$AAC?$AAo?$AAn?$AAf?$AAi?$AAg?$AA?$AA@ 00000000640aa070     ui.obj
 0002:0000e080       ??_C@_02BBAHNLBA@?$CFp?$AA@ 00000000640aa080     ui.obj
 0002:0000e084       ??_C@_02MDKMJEGG@eE?$AA@   00000000640aa084     ui.obj
 0002:0000e088       ??_C@_02OOPEBDOJ@pP?$AA@   00000000640aa088     ui.obj
 0002:0000e08c       ??_C@_15OKNMGNJN@?$AA?$AB?$AA?6?$AA?$AA@ 00000000640aa08c     extract.obj
 0002:0000e098       ??_C@_17MMMBOHJC@?$AA?5?$AA?$EA?$AA?5?$AA?$AA@ 00000000640aa098     extract.obj
 0002:0000e0a0       ??_C@_17DFGDFKBN@?$AA?5?$AA?1?$AA?5?$AA?$AA@ 00000000640aa0a0     extract.obj
 0002:0000e0a8       ??_C@_19IDMFBI@?$AA?$CJ?$AA?5?$AA?1?$AA?5?$AA?$AA@ 00000000640aa0a8     extract.obj
 0002:0000e0b8       ??_C@_17HIKLPLBG@?$AA?5?$AA?9?$AA?5?$AA?$AA@ 00000000640aa0b8     extract.obj
 0002:0000e0c0       ??_C@_13LLDNKHDC@?$AA?$CI?$AA?$AA@ 00000000640aa0c0     extract.obj
 0002:0000e0c8       ??_C@_0M@ELMNDOCL@extract?4cpp?$AA@ 00000000640aa0c8     extract.obj
 0002:0000e0e0       ??_7?$_Ref_count@V?$set@IU?$less@I@std@@V?$allocator@I@2@@std@@@std@@6B@ 00000000640aa0e0     extract.obj
 0002:0000e100       ??_C@_0N@FJHHFFAF@bad_weak_ptr?$AA@ 00000000640aa100     extract.obj
 0002:0000e118       ??_7bad_weak_ptr@std@@6B@  00000000640aa118     extract.obj
 0002:0000e130       ??_7?$_Ref_count@_N@std@@6B@ 00000000640aa130     extract.obj
 0002:0000e158       ??_7?$_Ref_count@W4OverwriteAction@@@std@@6B@ 00000000640aa158     extract.obj
 0002:0000e180       ??_7?$_Ref_count@VExtractProgress@@@std@@6B@ 00000000640aa180     extract.obj
 0002:0000e1a8       ??_7?$_Ref_count@VFileWriteCache@@@std@@6B@ 00000000640aa1a8     extract.obj
 0002:0000e1d0       ??_7SetDirAttr@@6B@        00000000640aa1d0     extract.obj
 0002:0000e1e8       ??_7PrepareExtract@@6B@    00000000640aa1e8     extract.obj
 0002:0000e200       ??_7ICryptoGetTextPassword@@6B@ 00000000640aa200     extract.obj
 0002:0000e228       ??_7IArchiveExtractCallback@@6B@ 00000000640aa228     extract.obj
 0002:0000e268       IID_ICryptoGetTextPassword 00000000640aa268     extract.obj
 0002:0000e278       IID_IArchiveExtractCallback 00000000640aa278     extract.obj
 0002:0000e288       IID_IProgress              00000000640aa288     extract.obj
 0002:0000e2a0       ??_7ArchiveExtractor@@6BComBase@@@ 00000000640aa2a0     extract.obj
 0002:0000e2c8       ??_7ArchiveExtractor@@6BICryptoGetTextPassword@@@ 00000000640aa2c8     extract.obj
 0002:0000e2f0       ??_7ArchiveExtractor@@6BIArchiveExtractCallback@@@ 00000000640aa2f0     extract.obj
 0002:0000e330       IID_ISequentialOutStream   00000000640aa330     extract.obj
 0002:0000e348       ??_7CachedFileExtractStream@@6BComBase@@@ 00000000640aa348     extract.obj
 0002:0000e370       ??_7CachedFileExtractStream@@6BISequentialOutStream@@@ 00000000640aa370     extract.obj
 0002:0000e398       ??_7ExtractProgress@@6B@   00000000640aa398     extract.obj
 0002:0000e3b0       ??_7ComBase@@6B@           00000000640aa3b0     extract.obj
 0002:0000e3d0       ??_C@_08PBKAOBPC@open?4cpp?$AA@ 00000000640aa3d0     open.obj
 0002:0000e3e0       ??_C@_1DC@IJGGMPKB@?$AAg?$AAe?$AAt?$AA_?$AAm?$AAa?$AAi?$AAn?$AA_?$AAf?$AAi?$AAl?$AAe?$AA?$CI?$AAm?$AAa?$AAi?$AAn?$AA_?$AAf?$AAi?$AAl?$AAe?$AA?$CJ?$AA?$AA@ 00000000640aa3e0     open.obj
 0002:0000e420       ??_C@_1FA@KJKBGIDM@?$AAg?$AAe?$AAt?$AA_?$AAs?$AAt?$AAr?$AAe?$AAa?$AAm?$AA?$CI?$AAm?$AAa?$AAi?$AAn?$AA_?$AAf?$AAi?$AAl?$AAe?$AA?0?$AA?5?$AAs?$AAu?$AAb?$AA_?$AAs?$AAt?$AAr?$AAe?$AAa?$AAm@ 00000000640aa420     open.obj
 0002:0000e470       ??_C@_1EE@OOLOIHM@?$AAo?$AAp?$AAe?$AAn?$AA?$CI?$AAs?$AAu?$AAb?$AA_?$AAs?$AAt?$AAr?$AAe?$AAa?$AAm?$AA?0?$AA?5?$AAa?$AAr?$AAc?$AA_?$AAe?$AAn?$AAt?$AAr?$AAy?$AA?9?$AA?$DO?$AAt?$AAy?$AAp?$AAe@ 00000000640aa470     open.obj
 0002:0000e4b8       IID_IArchiveAllowTail      00000000640aa4b8     open.obj
 0002:0000e4c8       IID_IInArchiveGetStream    00000000640aa4c8     open.obj
 0002:0000e4e0       ??_7IArchiveOpenVolumeCallback@@6B@ 00000000640aa4e0     open.obj
 0002:0000e510       ??_7IArchiveOpenCallback@@6B@ 00000000640aa510     open.obj
 0002:0000e538       IID_IArchiveOpenVolumeCallback 00000000640aa538     open.obj
 0002:0000e548       IID_IArchiveOpenCallback   00000000640aa548     open.obj
 0002:0000e560       ??_7ArchiveOpener@@6BProgressMonitor@@@ 00000000640aa560     open.obj
 0002:0000e578       ??_7ArchiveOpener@@6BComBase@@@ 00000000640aa578     open.obj
 0002:0000e5a0       ??_7ArchiveOpener@@6BICryptoGetTextPassword@@@ 00000000640aa5a0     open.obj
 0002:0000e5c8       ??_7ArchiveOpener@@6BIArchiveOpenVolumeCallback@@@ 00000000640aa5c8     open.obj
 0002:0000e5f8       ??_7ArchiveOpener@@6BIArchiveOpenCallback@@@ 00000000640aa5f8     open.obj
 0002:0000e628       ??_7ArchiveOpenStream@@6BComBase@@@ 00000000640aa628     open.obj
 0002:0000e650       ??_7ArchiveOpenStream@@6BIInStream@@@ 00000000640aa650     open.obj
 0002:0000e680       ??_7IInStream@@6B@         00000000640aa680     open.obj
 0002:0000e6a8       IID_IInStream              00000000640aa6a8     open.obj
 0002:0000e6b8       IID_ISequentialInStream    00000000640aa6b8     open.obj
 0002:0000e6d0       ??_7ArchiveSubStream@@6BComBase@@@ 00000000640aa6d0     open.obj
 0002:0000e6f8       ??_7ArchiveSubStream@@6BIInStream@@@ 00000000640aa6f8     open.obj
 0002:0000e720       ??_C@_15BLMJCMIJ@?$AA?5?$AA?9?$AA?$AA@ 00000000640aa720     update.obj
 0002:0000e728       ??_C@_13EJFHHPOP@?$AA?$CF?$AA?$AA@ 00000000640aa728     update.obj
 0002:0000e730       ??_C@_17HLHNPJIN@?$AA?5?$AA?$DN?$AA?5?$AA?$AA@ 00000000640aa730     update.obj
 0002:0000e738       ??_C@_17GPJGFMAC@?$AA?5?$CB?$JC?$AA?5?$AA?$AA@ 00000000640aa738     update.obj
 0002:0000e740       ??_C@_0L@JMDIPHEI@update?4cpp?$AA@ 00000000640aa740     update.obj
 0002:0000e750       ??_C@_1CA@ODCKIHEE@?$AAw?$AAr?$AAi?$AAt?$AAe?$AA_?$AAs?$AAi?$AAz?$AAe?$AA?5?$AA?$CB?$AA?$DN?$AA?5?$AA0?$AA?$AA@ 00000000640aa750     update.obj
 0002:0000e770       ??_C@_13COJANIEC@?$AA0?$AA?$AA@ 00000000640aa770     update.obj
 0002:0000e774       ??_C@_13HADAKIJA@?$AAx?$AA?$AA@ 00000000640aa774     update.obj
 0002:0000e778       ??_C@_13KHDBCPJB@?$AAs?$AA?$AA@ 00000000640aa778     update.obj
 0002:0000e77c       ??_C@_15KGGCNEFK@?$AAh?$AAe?$AA?$AA@ 00000000640aa77c     update.obj
 0002:0000e790       ??_7?$_Ref_count@V?$map@IUFileIndexInfo@@U?$less@I@std@@V?$allocator@U?$pair@$$CBIUFileIndexInfo@@@std@@@3@@std@@@std@@6B@ 00000000640aa790     update.obj
 0002:0000e7b8       ??_7?$_Ref_count@VArchiveUpdateProgress@@@std@@6B@ 00000000640aa7b8     update.obj
 0002:0000e7e0       ??_7DeleteSrcFiles@@6B@    00000000640aa7e0     update.obj
 0002:0000e7f0       IID_ISetProperties         00000000640aa7f0     update.obj
 0002:0000e800       IID_ICryptoGetTextPassword2 00000000640aa800     update.obj
